
C:/Users/kevin.corcoran/OneDrive - Process Sensing Technologies/Documents/Projects/RP2040_TestBed-master/build/src/JigMKIICode.elf:     file format elf32-littlearm

Sections:
Idx Name          Size      VMA       LMA       File off  Algn
  0 .boot2        00000100  10000000  10000000  00001000  2**0
                  CONTENTS, ALLOC, LOAD, READONLY, CODE
  1 .text         000092c8  10000100  10000100  00001100  2**3
                  CONTENTS, ALLOC, LOAD, READONLY, CODE
  2 .rodata       00000618  100093c8  100093c8  0000a3c8  2**2
                  CONTENTS, ALLOC, LOAD, READONLY, DATA
  3 .binary_info  00000024  100099e0  100099e0  0000a9e0  2**2
                  CONTENTS, ALLOC, LOAD, DATA
  4 .ram_vector_table 000000c0  20000000  20000000  0000bed8  2**2
                  CONTENTS
  5 .data         00000e18  200000c0  10009a04  0000b0c0  2**4
                  CONTENTS, ALLOC, LOAD, READONLY, CODE
  6 .uninitialized_data 00000000  20000ed8  20000ed8  0000bf98  2**0
                  CONTENTS
  7 .scratch_x    00000000  20040000  20040000  0000bf98  2**0
                  CONTENTS
  8 .scratch_y    00000000  20041000  20041000  0000bf98  2**0
                  CONTENTS
  9 .bss          000012d4  20000ee0  20000ee0  0000bee0  2**4
                  ALLOC
 10 .heap         00000800  200021b4  200021b4  0000bf98  2**2
                  CONTENTS, READONLY
 11 .stack_dummy  00000800  20041000  20041000  0000c7a0  2**5
                  CONTENTS, READONLY
 12 .ARM.attributes 00000028  00000000  00000000  0000cfa0  2**0
                  CONTENTS, READONLY
 13 .comment      00000033  00000000  00000000  0000cfc8  2**0
                  CONTENTS, READONLY
 14 .debug_line   0000047e  00000000  00000000  0000cffb  2**0
                  CONTENTS, READONLY, DEBUGGING, OCTETS
 15 .debug_line_str 000000c9  00000000  00000000  0000d479  2**0
                  CONTENTS, READONLY, DEBUGGING, OCTETS
 16 .debug_info   00000257  00000000  00000000  0000d542  2**0
                  CONTENTS, READONLY, DEBUGGING, OCTETS
 17 .debug_abbrev 00000167  00000000  00000000  0000d799  2**0
                  CONTENTS, READONLY, DEBUGGING, OCTETS
 18 .debug_aranges 00000060  00000000  00000000  0000d900  2**3
                  CONTENTS, READONLY, DEBUGGING, OCTETS
 19 .debug_str    0000034e  00000000  00000000  0000d960  2**0
                  CONTENTS, READONLY, DEBUGGING, OCTETS
 20 .debug_loclists 000003c7  00000000  00000000  0000dcae  2**0
                  CONTENTS, READONLY, DEBUGGING, OCTETS
 21 .debug_rnglists 00000027  00000000  00000000  0000e075  2**0
                  CONTENTS, READONLY, DEBUGGING, OCTETS
 22 .debug_frame  00000058  00000000  00000000  0000e09c  2**2
                  CONTENTS, READONLY, DEBUGGING, OCTETS

C:/Users/kevin.corcoran/OneDrive - Process Sensing Technologies/Documents/Projects/RP2040_TestBed-master/build/src/JigMKIICode.elf:     file format elf32-littlearm


Disassembly of section .boot2:

10000000 <__boot2_start__>:
10000000:	4b32b500 	.word	0x4b32b500
10000004:	60582021 	.word	0x60582021
10000008:	21026898 	.word	0x21026898
1000000c:	60984388 	.word	0x60984388
10000010:	611860d8 	.word	0x611860d8
10000014:	4b2e6158 	.word	0x4b2e6158
10000018:	60992100 	.word	0x60992100
1000001c:	61592102 	.word	0x61592102
10000020:	22f02101 	.word	0x22f02101
10000024:	492b5099 	.word	0x492b5099
10000028:	21016019 	.word	0x21016019
1000002c:	20356099 	.word	0x20356099
10000030:	f844f000 	.word	0xf844f000
10000034:	42902202 	.word	0x42902202
10000038:	2106d014 	.word	0x2106d014
1000003c:	f0006619 	.word	0xf0006619
10000040:	6e19f834 	.word	0x6e19f834
10000044:	66192101 	.word	0x66192101
10000048:	66182000 	.word	0x66182000
1000004c:	f000661a 	.word	0xf000661a
10000050:	6e19f82c 	.word	0x6e19f82c
10000054:	6e196e19 	.word	0x6e196e19
10000058:	f0002005 	.word	0xf0002005
1000005c:	2101f82f 	.word	0x2101f82f
10000060:	d1f94208 	.word	0xd1f94208
10000064:	60992100 	.word	0x60992100
10000068:	6019491b 	.word	0x6019491b
1000006c:	60592100 	.word	0x60592100
10000070:	481b491a 	.word	0x481b491a
10000074:	21016001 	.word	0x21016001
10000078:	21eb6099 	.word	0x21eb6099
1000007c:	21a06619 	.word	0x21a06619
10000080:	f0006619 	.word	0xf0006619
10000084:	2100f812 	.word	0x2100f812
10000088:	49166099 	.word	0x49166099
1000008c:	60014814 	.word	0x60014814
10000090:	60992101 	.word	0x60992101
10000094:	2800bc01 	.word	0x2800bc01
10000098:	4700d000 	.word	0x4700d000
1000009c:	49134812 	.word	0x49134812
100000a0:	c8036008 	.word	0xc8036008
100000a4:	8808f380 	.word	0x8808f380
100000a8:	b5034708 	.word	0xb5034708
100000ac:	20046a99 	.word	0x20046a99
100000b0:	d0fb4201 	.word	0xd0fb4201
100000b4:	42012001 	.word	0x42012001
100000b8:	bd03d1f8 	.word	0xbd03d1f8
100000bc:	6618b502 	.word	0x6618b502
100000c0:	f7ff6618 	.word	0xf7ff6618
100000c4:	6e18fff2 	.word	0x6e18fff2
100000c8:	bd026e18 	.word	0xbd026e18
100000cc:	40020000 	.word	0x40020000
100000d0:	18000000 	.word	0x18000000
100000d4:	00070000 	.word	0x00070000
100000d8:	005f0300 	.word	0x005f0300
100000dc:	00002221 	.word	0x00002221
100000e0:	180000f4 	.word	0x180000f4
100000e4:	a0002022 	.word	0xa0002022
100000e8:	10000100 	.word	0x10000100
100000ec:	e000ed08 	.word	0xe000ed08
	...
100000fc:	7a4eb274 	.word	0x7a4eb274

Disassembly of section .text:

10000100 <__VECTOR_TABLE>:
10000100:	20042000 	.word	0x20042000
10000104:	100001f7 	.word	0x100001f7
10000108:	100001c3 	.word	0x100001c3
1000010c:	100001c5 	.word	0x100001c5
10000110:	100001c1 	.word	0x100001c1
10000114:	100001c1 	.word	0x100001c1
10000118:	100001c1 	.word	0x100001c1
1000011c:	100001c1 	.word	0x100001c1
10000120:	100001c1 	.word	0x100001c1
10000124:	100001c1 	.word	0x100001c1
10000128:	100001c1 	.word	0x100001c1
1000012c:	100001c7 	.word	0x100001c7
10000130:	100001c1 	.word	0x100001c1
10000134:	100001c1 	.word	0x100001c1
10000138:	100001c9 	.word	0x100001c9
1000013c:	100001cb 	.word	0x100001cb
10000140:	100001cd 	.word	0x100001cd
10000144:	100001cd 	.word	0x100001cd
10000148:	100001cd 	.word	0x100001cd
1000014c:	100001cd 	.word	0x100001cd
10000150:	100001cd 	.word	0x100001cd
10000154:	100001cd 	.word	0x100001cd
10000158:	100001cd 	.word	0x100001cd
1000015c:	100001cd 	.word	0x100001cd
10000160:	100001cd 	.word	0x100001cd
10000164:	100001cd 	.word	0x100001cd
10000168:	100001cd 	.word	0x100001cd
1000016c:	100001cd 	.word	0x100001cd
10000170:	100001cd 	.word	0x100001cd
10000174:	100001cd 	.word	0x100001cd
10000178:	100001cd 	.word	0x100001cd
1000017c:	100001cd 	.word	0x100001cd
10000180:	100001cd 	.word	0x100001cd
10000184:	100001cd 	.word	0x100001cd
10000188:	100001cd 	.word	0x100001cd
1000018c:	100001cd 	.word	0x100001cd
10000190:	100001cd 	.word	0x100001cd
10000194:	100001cd 	.word	0x100001cd
10000198:	100001cd 	.word	0x100001cd
1000019c:	100001cd 	.word	0x100001cd
100001a0:	100001cd 	.word	0x100001cd
100001a4:	100001cd 	.word	0x100001cd
100001a8:	100001cd 	.word	0x100001cd
100001ac:	100001cd 	.word	0x100001cd
100001b0:	100001cd 	.word	0x100001cd
100001b4:	100001cd 	.word	0x100001cd
100001b8:	100001cd 	.word	0x100001cd
100001bc:	100001cd 	.word	0x100001cd

100001c0 <isr_invalid>:
100001c0:	be00      	bkpt	0x0000

100001c2 <isr_nmi>:
100001c2:	be00      	bkpt	0x0000

100001c4 <isr_hardfault>:
100001c4:	be00      	bkpt	0x0000

100001c6 <isr_svcall>:
100001c6:	be00      	bkpt	0x0000

100001c8 <isr_pendsv>:
100001c8:	be00      	bkpt	0x0000

100001ca <isr_systick>:
100001ca:	be00      	bkpt	0x0000

100001cc <__unhandled_user_irq>:
100001cc:	f3ef 8005 	mrs	r0, IPSR
100001d0:	3810      	subs	r0, #16

100001d2 <unhandled_user_irq_num_in_r0>:
100001d2:	be00      	bkpt	0x0000

100001d4 <binary_info_header>:
100001d4:	7188ebf2 	.word	0x7188ebf2
100001d8:	100099e0 	.word	0x100099e0
100001dc:	10009a04 	.word	0x10009a04
100001e0:	10000234 	.word	0x10000234
100001e4:	e71aa390 	.word	0xe71aa390

100001e8 <_entry_point>:
100001e8:	2000      	movs	r0, #0
100001ea:	491f      	ldr	r1, [pc, #124]	; (10000268 <hold_non_core0_in_bootrom+0xa>)
100001ec:	6008      	str	r0, [r1, #0]
100001ee:	c806      	ldmia	r0!, {r1, r2}
100001f0:	f381 8808 	msr	MSP, r1
100001f4:	4710      	bx	r2

100001f6 <_reset_handler>:
100001f6:	481d      	ldr	r0, [pc, #116]	; (1000026c <hold_non_core0_in_bootrom+0xe>)
100001f8:	6800      	ldr	r0, [r0, #0]
100001fa:	2800      	cmp	r0, #0
100001fc:	d12f      	bne.n	1000025e <hold_non_core0_in_bootrom>
100001fe:	a40d      	add	r4, pc, #52	; (adr r4, 10000234 <data_cpy_table>)
10000200:	cc0e      	ldmia	r4!, {r1, r2, r3}
10000202:	2900      	cmp	r1, #0
10000204:	d002      	beq.n	1000020c <_reset_handler+0x16>
10000206:	f000 f812 	bl	1000022e <data_cpy>
1000020a:	e7f9      	b.n	10000200 <_reset_handler+0xa>
1000020c:	4918      	ldr	r1, [pc, #96]	; (10000270 <hold_non_core0_in_bootrom+0x12>)
1000020e:	4a19      	ldr	r2, [pc, #100]	; (10000274 <hold_non_core0_in_bootrom+0x16>)
10000210:	2000      	movs	r0, #0
10000212:	e000      	b.n	10000216 <bss_fill_test>

10000214 <bss_fill_loop>:
10000214:	c101      	stmia	r1!, {r0}

10000216 <bss_fill_test>:
10000216:	4291      	cmp	r1, r2
10000218:	d1fc      	bne.n	10000214 <bss_fill_loop>

1000021a <platform_entry>:
1000021a:	4917      	ldr	r1, [pc, #92]	; (10000278 <hold_non_core0_in_bootrom+0x1a>)
1000021c:	4788      	blx	r1
1000021e:	4917      	ldr	r1, [pc, #92]	; (1000027c <hold_non_core0_in_bootrom+0x1e>)
10000220:	4788      	blx	r1
10000222:	4917      	ldr	r1, [pc, #92]	; (10000280 <hold_non_core0_in_bootrom+0x22>)
10000224:	4788      	blx	r1
10000226:	be00      	bkpt	0x0000
10000228:	e7fd      	b.n	10000226 <platform_entry+0xc>

1000022a <data_cpy_loop>:
1000022a:	c901      	ldmia	r1!, {r0}
1000022c:	c201      	stmia	r2!, {r0}

1000022e <data_cpy>:
1000022e:	429a      	cmp	r2, r3
10000230:	d3fb      	bcc.n	1000022a <data_cpy_loop>
10000232:	4770      	bx	lr

10000234 <data_cpy_table>:
10000234:	10009a04 	.word	0x10009a04
10000238:	200000c0 	.word	0x200000c0
1000023c:	20000ed8 	.word	0x20000ed8
10000240:	1000a81c 	.word	0x1000a81c
10000244:	20040000 	.word	0x20040000
10000248:	20040000 	.word	0x20040000
1000024c:	1000a81c 	.word	0x1000a81c
10000250:	20041000 	.word	0x20041000
10000254:	20041000 	.word	0x20041000
10000258:	00000000 	.word	0x00000000
1000025c:	4770      	bx	lr

1000025e <hold_non_core0_in_bootrom>:
1000025e:	4809      	ldr	r0, [pc, #36]	; (10000284 <hold_non_core0_in_bootrom+0x26>)
10000260:	f005 fe40 	bl	10005ee4 <rom_func_lookup>
10000264:	4700      	bx	r0
10000266:	0000      	.short	0x0000
10000268:	e000ed08 	.word	0xe000ed08
1000026c:	d0000000 	.word	0xd0000000
10000270:	20000ee0 	.word	0x20000ee0
10000274:	200021b4 	.word	0x200021b4
10000278:	10005d5d 	.word	0x10005d5d
1000027c:	10000705 	.word	0x10000705
10000280:	10005e51 	.word	0x10005e51
10000284:	00005657 	.word	0x00005657

10000288 <__bi_50>:
10000288:	50520006 5360b3ab 100097a0              ..RP..`S....

10000294 <__bi_38>:
10000294:	50520006 02031c86 100097b0              ..RP........

100002a0 <__bi_30>:
100002a0:	50520006 9da22254 100097bc              ..RPT"......

100002ac <__bi_22>:
100002ac:	50520005 68f465de 1000a81c              ..RP.e.h....

100002b8 <_init>:
100002b8:	b5f8      	push	{r3, r4, r5, r6, r7, lr}
100002ba:	46c0      	nop			; (mov r8, r8)

100002bc <register_tm_clones>:
100002bc:	4806      	ldr	r0, [pc, #24]	; (100002d8 <register_tm_clones+0x1c>)
100002be:	4907      	ldr	r1, [pc, #28]	; (100002dc <register_tm_clones+0x20>)
100002c0:	1a09      	subs	r1, r1, r0
100002c2:	108b      	asrs	r3, r1, #2
100002c4:	0fc9      	lsrs	r1, r1, #31
100002c6:	18c9      	adds	r1, r1, r3
100002c8:	b510      	push	{r4, lr}
100002ca:	1049      	asrs	r1, r1, #1
100002cc:	d003      	beq.n	100002d6 <register_tm_clones+0x1a>
100002ce:	4b04      	ldr	r3, [pc, #16]	; (100002e0 <register_tm_clones+0x24>)
100002d0:	2b00      	cmp	r3, #0
100002d2:	d000      	beq.n	100002d6 <register_tm_clones+0x1a>
100002d4:	4798      	blx	r3
100002d6:	bd10      	pop	{r4, pc}
100002d8:	20000ed8 	.word	0x20000ed8
100002dc:	20000ed8 	.word	0x20000ed8
100002e0:	00000000 	.word	0x00000000

100002e4 <frame_dummy>:
100002e4:	4b05      	ldr	r3, [pc, #20]	; (100002fc <frame_dummy+0x18>)
100002e6:	b510      	push	{r4, lr}
100002e8:	2b00      	cmp	r3, #0
100002ea:	d003      	beq.n	100002f4 <frame_dummy+0x10>
100002ec:	4904      	ldr	r1, [pc, #16]	; (10000300 <frame_dummy+0x1c>)
100002ee:	4805      	ldr	r0, [pc, #20]	; (10000304 <frame_dummy+0x20>)
100002f0:	e000      	b.n	100002f4 <frame_dummy+0x10>
100002f2:	bf00      	nop
100002f4:	f7ff ffe2 	bl	100002bc <register_tm_clones>
100002f8:	bd10      	pop	{r4, pc}
100002fa:	46c0      	nop			; (mov r8, r8)
100002fc:	00000000 	.word	0x00000000
10000300:	20002114 	.word	0x20002114
10000304:	100093c8 	.word	0x100093c8

10000308 <get_temperature_isr>:
10000308:	2201      	movs	r2, #1
1000030a:	4b01      	ldr	r3, [pc, #4]	; (10000310 <get_temperature_isr+0x8>)
1000030c:	701a      	strb	r2, [r3, #0]
1000030e:	4770      	bx	lr
10000310:	200021a2 	.word	0x200021a2

10000314 <timer_counter_isr>:
10000314:	4b24      	ldr	r3, [pc, #144]	; (100003a8 <timer_counter_isr+0x94>)
10000316:	b510      	push	{r4, lr}
10000318:	781b      	ldrb	r3, [r3, #0]
1000031a:	2b00      	cmp	r3, #0
1000031c:	d016      	beq.n	1000034c <timer_counter_isr+0x38>
1000031e:	23d0      	movs	r3, #208	; 0xd0
10000320:	2240      	movs	r2, #64	; 0x40
10000322:	061b      	lsls	r3, r3, #24
10000324:	615a      	str	r2, [r3, #20]
10000326:	3240      	adds	r2, #64	; 0x40
10000328:	615a      	str	r2, [r3, #20]
1000032a:	4b20      	ldr	r3, [pc, #128]	; (100003ac <timer_counter_isr+0x98>)
1000032c:	881a      	ldrh	r2, [r3, #0]
1000032e:	2a00      	cmp	r2, #0
10000330:	d003      	beq.n	1000033a <timer_counter_isr+0x26>
10000332:	881a      	ldrh	r2, [r3, #0]
10000334:	3a01      	subs	r2, #1
10000336:	b292      	uxth	r2, r2
10000338:	801a      	strh	r2, [r3, #0]
1000033a:	4b1d      	ldr	r3, [pc, #116]	; (100003b0 <timer_counter_isr+0x9c>)
1000033c:	881a      	ldrh	r2, [r3, #0]
1000033e:	2a00      	cmp	r2, #0
10000340:	d003      	beq.n	1000034a <timer_counter_isr+0x36>
10000342:	881a      	ldrh	r2, [r3, #0]
10000344:	3a01      	subs	r2, #1
10000346:	b292      	uxth	r2, r2
10000348:	801a      	strh	r2, [r3, #0]
1000034a:	bd10      	pop	{r4, pc}
1000034c:	4819      	ldr	r0, [pc, #100]	; (100003b4 <timer_counter_isr+0xa0>)
1000034e:	7803      	ldrb	r3, [r0, #0]
10000350:	2b00      	cmp	r3, #0
10000352:	d003      	beq.n	1000035c <timer_counter_isr+0x48>
10000354:	23d0      	movs	r3, #208	; 0xd0
10000356:	2240      	movs	r2, #64	; 0x40
10000358:	061b      	lsls	r3, r3, #24
1000035a:	615a      	str	r2, [r3, #20]
1000035c:	4916      	ldr	r1, [pc, #88]	; (100003b8 <timer_counter_isr+0xa4>)
1000035e:	780b      	ldrb	r3, [r1, #0]
10000360:	2b00      	cmp	r3, #0
10000362:	d003      	beq.n	1000036c <timer_counter_isr+0x58>
10000364:	23d0      	movs	r3, #208	; 0xd0
10000366:	2280      	movs	r2, #128	; 0x80
10000368:	061b      	lsls	r3, r3, #24
1000036a:	615a      	str	r2, [r3, #20]
1000036c:	4a13      	ldr	r2, [pc, #76]	; (100003bc <timer_counter_isr+0xa8>)
1000036e:	7813      	ldrb	r3, [r2, #0]
10000370:	3301      	adds	r3, #1
10000372:	b2db      	uxtb	r3, r3
10000374:	7013      	strb	r3, [r2, #0]
10000376:	2b13      	cmp	r3, #19
10000378:	d906      	bls.n	10000388 <timer_counter_isr+0x74>
1000037a:	23d0      	movs	r3, #208	; 0xd0
1000037c:	2440      	movs	r4, #64	; 0x40
1000037e:	061b      	lsls	r3, r3, #24
10000380:	619c      	str	r4, [r3, #24]
10000382:	2300      	movs	r3, #0
10000384:	7003      	strb	r3, [r0, #0]
10000386:	7013      	strb	r3, [r2, #0]
10000388:	4a0d      	ldr	r2, [pc, #52]	; (100003c0 <timer_counter_isr+0xac>)
1000038a:	7813      	ldrb	r3, [r2, #0]
1000038c:	3301      	adds	r3, #1
1000038e:	b2db      	uxtb	r3, r3
10000390:	7013      	strb	r3, [r2, #0]
10000392:	2b13      	cmp	r3, #19
10000394:	d9c9      	bls.n	1000032a <timer_counter_isr+0x16>
10000396:	23d0      	movs	r3, #208	; 0xd0
10000398:	2080      	movs	r0, #128	; 0x80
1000039a:	061b      	lsls	r3, r3, #24
1000039c:	6198      	str	r0, [r3, #24]
1000039e:	2300      	movs	r3, #0
100003a0:	700b      	strb	r3, [r1, #0]
100003a2:	7013      	strb	r3, [r2, #0]
100003a4:	e7c1      	b.n	1000032a <timer_counter_isr+0x16>
100003a6:	46c0      	nop			; (mov r8, r8)
100003a8:	200021a4 	.word	0x200021a4
100003ac:	20002188 	.word	0x20002188
100003b0:	20002182 	.word	0x20002182
100003b4:	200021a7 	.word	0x200021a7
100003b8:	200021a8 	.word	0x200021a8
100003bc:	2000219f 	.word	0x2000219f
100003c0:	200021a0 	.word	0x200021a0

100003c4 <timer_heartbeat_isr>:
100003c4:	23d0      	movs	r3, #208	; 0xd0
100003c6:	061b      	lsls	r3, r3, #24
100003c8:	685a      	ldr	r2, [r3, #4]
100003ca:	0192      	lsls	r2, r2, #6
100003cc:	d503      	bpl.n	100003d6 <timer_heartbeat_isr+0x12>
100003ce:	2280      	movs	r2, #128	; 0x80
100003d0:	0492      	lsls	r2, r2, #18
100003d2:	619a      	str	r2, [r3, #24]
100003d4:	4770      	bx	lr
100003d6:	2280      	movs	r2, #128	; 0x80
100003d8:	0492      	lsls	r2, r2, #18
100003da:	615a      	str	r2, [r3, #20]
100003dc:	e7fa      	b.n	100003d4 <timer_heartbeat_isr+0x10>
100003de:	46c0      	nop			; (mov r8, r8)

100003e0 <spi_slave_rx_isr>:
100003e0:	b5f8      	push	{r3, r4, r5, r6, r7, lr}
100003e2:	4d44      	ldr	r5, [pc, #272]	; (100004f4 <spi_slave_rx_isr+0x114>)
100003e4:	4c44      	ldr	r4, [pc, #272]	; (100004f8 <spi_slave_rx_isr+0x118>)
100003e6:	68ae      	ldr	r6, [r5, #8]
100003e8:	7823      	ldrb	r3, [r4, #0]
100003ea:	4844      	ldr	r0, [pc, #272]	; (100004fc <spi_slave_rx_isr+0x11c>)
100003ec:	b2f2      	uxtb	r2, r6
100003ee:	54c2      	strb	r2, [r0, r3]
100003f0:	2a55      	cmp	r2, #85	; 0x55
100003f2:	d02b      	beq.n	1000044c <spi_slave_rx_isr+0x6c>
100003f4:	18c1      	adds	r1, r0, r3
100003f6:	3901      	subs	r1, #1
100003f8:	7809      	ldrb	r1, [r1, #0]
100003fa:	2955      	cmp	r1, #85	; 0x55
100003fc:	d01e      	beq.n	1000043c <spi_slave_rx_isr+0x5c>
100003fe:	18c2      	adds	r2, r0, r3
10000400:	3a02      	subs	r2, #2
10000402:	7815      	ldrb	r5, [r2, #0]
10000404:	2d55      	cmp	r5, #85	; 0x55
10000406:	d02e      	beq.n	10000466 <spi_slave_rx_isr+0x86>
10000408:	18c2      	adds	r2, r0, r3
1000040a:	3a03      	subs	r2, #3
1000040c:	7811      	ldrb	r1, [r2, #0]
1000040e:	2955      	cmp	r1, #85	; 0x55
10000410:	d042      	beq.n	10000498 <spi_slave_rx_isr+0xb8>
10000412:	18c2      	adds	r2, r0, r3
10000414:	3a04      	subs	r2, #4
10000416:	7815      	ldrb	r5, [r2, #0]
10000418:	2d55      	cmp	r5, #85	; 0x55
1000041a:	d046      	beq.n	100004aa <spi_slave_rx_isr+0xca>
1000041c:	18c2      	adds	r2, r0, r3
1000041e:	3a05      	subs	r2, #5
10000420:	7811      	ldrb	r1, [r2, #0]
10000422:	2955      	cmp	r1, #85	; 0x55
10000424:	d04a      	beq.n	100004bc <spi_slave_rx_isr+0xdc>
10000426:	18c2      	adds	r2, r0, r3
10000428:	3a06      	subs	r2, #6
1000042a:	7812      	ldrb	r2, [r2, #0]
1000042c:	2a55      	cmp	r2, #85	; 0x55
1000042e:	d04e      	beq.n	100004ce <spi_slave_rx_isr+0xee>
10000430:	3301      	adds	r3, #1
10000432:	b2db      	uxtb	r3, r3
10000434:	7023      	strb	r3, [r4, #0]
10000436:	2b64      	cmp	r3, #100	; 0x64
10000438:	d00e      	beq.n	10000458 <spi_slave_rx_isr+0x78>
1000043a:	bdf8      	pop	{r3, r4, r5, r6, r7, pc}
1000043c:	2a09      	cmp	r2, #9
1000043e:	d91f      	bls.n	10000480 <spi_slave_rx_isr+0xa0>
10000440:	4f2f      	ldr	r7, [pc, #188]	; (10000500 <spi_slave_rx_isr+0x120>)
10000442:	783f      	ldrb	r7, [r7, #0]
10000444:	4297      	cmp	r7, r2
10000446:	d1da      	bne.n	100003fe <spi_slave_rx_isr+0x1e>
10000448:	22ff      	movs	r2, #255	; 0xff
1000044a:	4032      	ands	r2, r6
1000044c:	3301      	adds	r3, #1
1000044e:	b2db      	uxtb	r3, r3
10000450:	60aa      	str	r2, [r5, #8]
10000452:	7023      	strb	r3, [r4, #0]
10000454:	2b64      	cmp	r3, #100	; 0x64
10000456:	d1f0      	bne.n	1000043a <spi_slave_rx_isr+0x5a>
10000458:	2264      	movs	r2, #100	; 0x64
1000045a:	2100      	movs	r1, #0
1000045c:	f006 f9e0 	bl	10006820 <__wrap_memset>
10000460:	2300      	movs	r3, #0
10000462:	7023      	strb	r3, [r4, #0]
10000464:	e7e9      	b.n	1000043a <spi_slave_rx_isr+0x5a>
10000466:	4a26      	ldr	r2, [pc, #152]	; (10000500 <spi_slave_rx_isr+0x120>)
10000468:	7812      	ldrb	r2, [r2, #0]
1000046a:	428a      	cmp	r2, r1
1000046c:	d1cc      	bne.n	10000408 <spi_slave_rx_isr+0x28>
1000046e:	4a25      	ldr	r2, [pc, #148]	; (10000504 <spi_slave_rx_isr+0x124>)
10000470:	7812      	ldrb	r2, [r2, #0]
10000472:	2a00      	cmp	r2, #0
10000474:	d038      	beq.n	100004e8 <spi_slave_rx_isr+0x108>
10000476:	4a24      	ldr	r2, [pc, #144]	; (10000508 <spi_slave_rx_isr+0x128>)
10000478:	7811      	ldrb	r1, [r2, #0]
1000047a:	4a1e      	ldr	r2, [pc, #120]	; (100004f4 <spi_slave_rx_isr+0x114>)
1000047c:	6091      	str	r1, [r2, #8]
1000047e:	e7d7      	b.n	10000430 <spi_slave_rx_isr+0x50>
10000480:	4b22      	ldr	r3, [pc, #136]	; (1000050c <spi_slave_rx_isr+0x12c>)
10000482:	2100      	movs	r1, #0
10000484:	701a      	strb	r2, [r3, #0]
10000486:	2264      	movs	r2, #100	; 0x64
10000488:	f006 f9ca 	bl	10006820 <__wrap_memset>
1000048c:	2200      	movs	r2, #0
1000048e:	4b1d      	ldr	r3, [pc, #116]	; (10000504 <spi_slave_rx_isr+0x124>)
10000490:	701a      	strb	r2, [r3, #0]
10000492:	2301      	movs	r3, #1
10000494:	7023      	strb	r3, [r4, #0]
10000496:	e7d0      	b.n	1000043a <spi_slave_rx_isr+0x5a>
10000498:	4a19      	ldr	r2, [pc, #100]	; (10000500 <spi_slave_rx_isr+0x120>)
1000049a:	7812      	ldrb	r2, [r2, #0]
1000049c:	42aa      	cmp	r2, r5
1000049e:	d1b8      	bne.n	10000412 <spi_slave_rx_isr+0x32>
100004a0:	4a1b      	ldr	r2, [pc, #108]	; (10000510 <spi_slave_rx_isr+0x130>)
100004a2:	7811      	ldrb	r1, [r2, #0]
100004a4:	4a13      	ldr	r2, [pc, #76]	; (100004f4 <spi_slave_rx_isr+0x114>)
100004a6:	6091      	str	r1, [r2, #8]
100004a8:	e7c2      	b.n	10000430 <spi_slave_rx_isr+0x50>
100004aa:	4a15      	ldr	r2, [pc, #84]	; (10000500 <spi_slave_rx_isr+0x120>)
100004ac:	7812      	ldrb	r2, [r2, #0]
100004ae:	428a      	cmp	r2, r1
100004b0:	d1b4      	bne.n	1000041c <spi_slave_rx_isr+0x3c>
100004b2:	4a17      	ldr	r2, [pc, #92]	; (10000510 <spi_slave_rx_isr+0x130>)
100004b4:	7851      	ldrb	r1, [r2, #1]
100004b6:	4a0f      	ldr	r2, [pc, #60]	; (100004f4 <spi_slave_rx_isr+0x114>)
100004b8:	6091      	str	r1, [r2, #8]
100004ba:	e7b9      	b.n	10000430 <spi_slave_rx_isr+0x50>
100004bc:	4a10      	ldr	r2, [pc, #64]	; (10000500 <spi_slave_rx_isr+0x120>)
100004be:	7812      	ldrb	r2, [r2, #0]
100004c0:	42aa      	cmp	r2, r5
100004c2:	d1b0      	bne.n	10000426 <spi_slave_rx_isr+0x46>
100004c4:	4a12      	ldr	r2, [pc, #72]	; (10000510 <spi_slave_rx_isr+0x130>)
100004c6:	7891      	ldrb	r1, [r2, #2]
100004c8:	4a0a      	ldr	r2, [pc, #40]	; (100004f4 <spi_slave_rx_isr+0x114>)
100004ca:	6091      	str	r1, [r2, #8]
100004cc:	e7b0      	b.n	10000430 <spi_slave_rx_isr+0x50>
100004ce:	4a0c      	ldr	r2, [pc, #48]	; (10000500 <spi_slave_rx_isr+0x120>)
100004d0:	7812      	ldrb	r2, [r2, #0]
100004d2:	428a      	cmp	r2, r1
100004d4:	d1ac      	bne.n	10000430 <spi_slave_rx_isr+0x50>
100004d6:	4b0e      	ldr	r3, [pc, #56]	; (10000510 <spi_slave_rx_isr+0x130>)
100004d8:	2100      	movs	r1, #0
100004da:	78da      	ldrb	r2, [r3, #3]
100004dc:	4b05      	ldr	r3, [pc, #20]	; (100004f4 <spi_slave_rx_isr+0x114>)
100004de:	609a      	str	r2, [r3, #8]
100004e0:	2264      	movs	r2, #100	; 0x64
100004e2:	f006 f99d 	bl	10006820 <__wrap_memset>
100004e6:	e7d4      	b.n	10000492 <spi_slave_rx_isr+0xb2>
100004e8:	4a0a      	ldr	r2, [pc, #40]	; (10000514 <spi_slave_rx_isr+0x134>)
100004ea:	7811      	ldrb	r1, [r2, #0]
100004ec:	4a01      	ldr	r2, [pc, #4]	; (100004f4 <spi_slave_rx_isr+0x114>)
100004ee:	6091      	str	r1, [r2, #8]
100004f0:	e79e      	b.n	10000430 <spi_slave_rx_isr+0x50>
100004f2:	46c0      	nop			; (mov r8, r8)
100004f4:	4003c000 	.word	0x4003c000
100004f8:	2000219a 	.word	0x2000219a
100004fc:	200016a4 	.word	0x200016a4
10000500:	100096c8 	.word	0x100096c8
10000504:	20000dd0 	.word	0x20000dd0
10000508:	100096c9 	.word	0x100096c9
1000050c:	200021a1 	.word	0x200021a1
10000510:	20001708 	.word	0x20001708
10000514:	100096ca 	.word	0x100096ca

10000518 <uart_rx_isr>:
10000518:	2310      	movs	r3, #16
1000051a:	4930      	ldr	r1, [pc, #192]	; (100005dc <uart_rx_isr+0xc4>)
1000051c:	b530      	push	{r4, r5, lr}
1000051e:	698a      	ldr	r2, [r1, #24]
10000520:	4213      	tst	r3, r2
10000522:	d120      	bne.n	10000566 <uart_rx_isr+0x4e>
10000524:	2201      	movs	r2, #1
10000526:	4b2e      	ldr	r3, [pc, #184]	; (100005e0 <uart_rx_isr+0xc8>)
10000528:	4c2e      	ldr	r4, [pc, #184]	; (100005e4 <uart_rx_isr+0xcc>)
1000052a:	701a      	strb	r2, [r3, #0]
1000052c:	8825      	ldrh	r5, [r4, #0]
1000052e:	320f      	adds	r2, #15
10000530:	b2ad      	uxth	r5, r5
10000532:	0010      	movs	r0, r2
10000534:	698b      	ldr	r3, [r1, #24]
10000536:	4018      	ands	r0, r3
10000538:	421a      	tst	r2, r3
1000053a:	d1fa      	bne.n	10000532 <uart_rx_isr+0x1a>
1000053c:	680a      	ldr	r2, [r1, #0]
1000053e:	4b2a      	ldr	r3, [pc, #168]	; (100005e8 <uart_rx_isr+0xd0>)
10000540:	555a      	strb	r2, [r3, r5]
10000542:	8823      	ldrh	r3, [r4, #0]
10000544:	3301      	adds	r3, #1
10000546:	b29b      	uxth	r3, r3
10000548:	8023      	strh	r3, [r4, #0]
1000054a:	238c      	movs	r3, #140	; 0x8c
1000054c:	8822      	ldrh	r2, [r4, #0]
1000054e:	009b      	lsls	r3, r3, #2
10000550:	429a      	cmp	r2, r3
10000552:	d031      	beq.n	100005b8 <uart_rx_isr+0xa0>
10000554:	4b21      	ldr	r3, [pc, #132]	; (100005dc <uart_rx_isr+0xc4>)
10000556:	685b      	ldr	r3, [r3, #4]
10000558:	2b01      	cmp	r3, #1
1000055a:	d032      	beq.n	100005c2 <uart_rx_isr+0xaa>
1000055c:	4b1f      	ldr	r3, [pc, #124]	; (100005dc <uart_rx_isr+0xc4>)
1000055e:	685b      	ldr	r3, [r3, #4]
10000560:	2b08      	cmp	r3, #8
10000562:	d026      	beq.n	100005b2 <uart_rx_isr+0x9a>
10000564:	bd30      	pop	{r4, r5, pc}
10000566:	4921      	ldr	r1, [pc, #132]	; (100005ec <uart_rx_isr+0xd4>)
10000568:	698a      	ldr	r2, [r1, #24]
1000056a:	4213      	tst	r3, r2
1000056c:	d1fa      	bne.n	10000564 <uart_rx_isr+0x4c>
1000056e:	2201      	movs	r2, #1
10000570:	4b1f      	ldr	r3, [pc, #124]	; (100005f0 <uart_rx_isr+0xd8>)
10000572:	4c20      	ldr	r4, [pc, #128]	; (100005f4 <uart_rx_isr+0xdc>)
10000574:	701a      	strb	r2, [r3, #0]
10000576:	8823      	ldrh	r3, [r4, #0]
10000578:	320f      	adds	r2, #15
1000057a:	b29d      	uxth	r5, r3
1000057c:	3301      	adds	r3, #1
1000057e:	b29b      	uxth	r3, r3
10000580:	8023      	strh	r3, [r4, #0]
10000582:	0010      	movs	r0, r2
10000584:	698b      	ldr	r3, [r1, #24]
10000586:	4018      	ands	r0, r3
10000588:	421a      	tst	r2, r3
1000058a:	d1fa      	bne.n	10000582 <uart_rx_isr+0x6a>
1000058c:	680a      	ldr	r2, [r1, #0]
1000058e:	4b1a      	ldr	r3, [pc, #104]	; (100005f8 <uart_rx_isr+0xe0>)
10000590:	555a      	strb	r2, [r3, r5]
10000592:	238c      	movs	r3, #140	; 0x8c
10000594:	8822      	ldrh	r2, [r4, #0]
10000596:	009b      	lsls	r3, r3, #2
10000598:	429a      	cmp	r2, r3
1000059a:	d019      	beq.n	100005d0 <uart_rx_isr+0xb8>
1000059c:	4b13      	ldr	r3, [pc, #76]	; (100005ec <uart_rx_isr+0xd4>)
1000059e:	685b      	ldr	r3, [r3, #4]
100005a0:	2b01      	cmp	r3, #1
100005a2:	d017      	beq.n	100005d4 <uart_rx_isr+0xbc>
100005a4:	4b11      	ldr	r3, [pc, #68]	; (100005ec <uart_rx_isr+0xd4>)
100005a6:	685b      	ldr	r3, [r3, #4]
100005a8:	2b08      	cmp	r3, #8
100005aa:	d1db      	bne.n	10000564 <uart_rx_isr+0x4c>
100005ac:	4a13      	ldr	r2, [pc, #76]	; (100005fc <uart_rx_isr+0xe4>)
100005ae:	6013      	str	r3, [r2, #0]
100005b0:	e7d8      	b.n	10000564 <uart_rx_isr+0x4c>
100005b2:	4a13      	ldr	r2, [pc, #76]	; (10000600 <uart_rx_isr+0xe8>)
100005b4:	6013      	str	r3, [r2, #0]
100005b6:	e7d5      	b.n	10000564 <uart_rx_isr+0x4c>
100005b8:	4b08      	ldr	r3, [pc, #32]	; (100005dc <uart_rx_isr+0xc4>)
100005ba:	8020      	strh	r0, [r4, #0]
100005bc:	685b      	ldr	r3, [r3, #4]
100005be:	2b01      	cmp	r3, #1
100005c0:	d1cc      	bne.n	1000055c <uart_rx_isr+0x44>
100005c2:	4a0f      	ldr	r2, [pc, #60]	; (10000600 <uart_rx_isr+0xe8>)
100005c4:	6013      	str	r3, [r2, #0]
100005c6:	4b05      	ldr	r3, [pc, #20]	; (100005dc <uart_rx_isr+0xc4>)
100005c8:	685b      	ldr	r3, [r3, #4]
100005ca:	2b08      	cmp	r3, #8
100005cc:	d1ca      	bne.n	10000564 <uart_rx_isr+0x4c>
100005ce:	e7f0      	b.n	100005b2 <uart_rx_isr+0x9a>
100005d0:	8020      	strh	r0, [r4, #0]
100005d2:	e7e3      	b.n	1000059c <uart_rx_isr+0x84>
100005d4:	4a09      	ldr	r2, [pc, #36]	; (100005fc <uart_rx_isr+0xe4>)
100005d6:	6013      	str	r3, [r2, #0]
100005d8:	e7e4      	b.n	100005a4 <uart_rx_isr+0x8c>
100005da:	46c0      	nop			; (mov r8, r8)
100005dc:	40038000 	.word	0x40038000
100005e0:	200021a7 	.word	0x200021a7
100005e4:	2000218c 	.word	0x2000218c
100005e8:	20000ee0 	.word	0x20000ee0
100005ec:	40034000 	.word	0x40034000
100005f0:	200021a8 	.word	0x200021a8
100005f4:	20002190 	.word	0x20002190
100005f8:	20001110 	.word	0x20001110
100005fc:	40037004 	.word	0x40037004
10000600:	4003b004 	.word	0x4003b004

10000604 <add_repeating_timer_ms.constprop.0.isra.0>:
10000604:	b5f0      	push	{r4, r5, r6, r7, lr}
10000606:	b085      	sub	sp, #20
10000608:	0004      	movs	r4, r0
1000060a:	000e      	movs	r6, r1
1000060c:	0017      	movs	r7, r2
1000060e:	f004 fac1 	bl	10004b94 <alarm_pool_get_default>
10000612:	22fa      	movs	r2, #250	; 0xfa
10000614:	0005      	movs	r5, r0
10000616:	2300      	movs	r3, #0
10000618:	0020      	movs	r0, r4
1000061a:	17e1      	asrs	r1, r4, #31
1000061c:	0092      	lsls	r2, r2, #2
1000061e:	f006 f843 	bl	100066a8 <__wrap___aeabi_lmul>
10000622:	000b      	movs	r3, r1
10000624:	2100      	movs	r1, #0
10000626:	0002      	movs	r2, r0
10000628:	9702      	str	r7, [sp, #8]
1000062a:	0028      	movs	r0, r5
1000062c:	9101      	str	r1, [sp, #4]
1000062e:	9600      	str	r6, [sp, #0]
10000630:	f004 fbb2 	bl	10004d98 <alarm_pool_add_repeating_timer_us>
10000634:	b005      	add	sp, #20
10000636:	bdf0      	pop	{r4, r5, r6, r7, pc}

10000638 <ADC_Read>:
10000638:	b5f0      	push	{r4, r5, r6, r7, lr}
1000063a:	b087      	sub	sp, #28
1000063c:	ac03      	add	r4, sp, #12
1000063e:	0021      	movs	r1, r4
10000640:	4b2d      	ldr	r3, [pc, #180]	; (100006f8 <ADC_Read+0xc0>)
10000642:	0002      	movs	r2, r0
10000644:	cb21      	ldmia	r3!, {r0, r5}
10000646:	c121      	stmia	r1!, {r0, r5}
10000648:	881b      	ldrh	r3, [r3, #0]
1000064a:	800b      	strh	r3, [r1, #0]
1000064c:	2a00      	cmp	r2, #0
1000064e:	d004      	beq.n	1000065a <ADC_Read+0x22>
10000650:	2000      	movs	r0, #0
10000652:	2a01      	cmp	r2, #1
10000654:	d02b      	beq.n	100006ae <ADC_Read+0x76>
10000656:	b007      	add	sp, #28
10000658:	bdf0      	pop	{r4, r5, r6, r7, pc}
1000065a:	23a8      	movs	r3, #168	; 0xa8
1000065c:	4e27      	ldr	r6, [pc, #156]	; (100006fc <ADC_Read+0xc4>)
1000065e:	7023      	strb	r3, [r4, #0]
10000660:	2168      	movs	r1, #104	; 0x68
10000662:	3ba7      	subs	r3, #167	; 0xa7
10000664:	9200      	str	r2, [sp, #0]
10000666:	0030      	movs	r0, r6
10000668:	0022      	movs	r2, r4
1000066a:	f008 fc8d 	bl	10008f88 <i2c_write_blocking>
1000066e:	2064      	movs	r0, #100	; 0x64
10000670:	2100      	movs	r1, #0
10000672:	f004 fcf5 	bl	10005060 <sleep_us>
10000676:	2364      	movs	r3, #100	; 0x64
10000678:	4d21      	ldr	r5, [pc, #132]	; (10000700 <ADC_Read+0xc8>)
1000067a:	2700      	movs	r7, #0
1000067c:	802b      	strh	r3, [r5, #0]
1000067e:	e002      	b.n	10000686 <ADC_Read+0x4e>
10000680:	78a3      	ldrb	r3, [r4, #2]
10000682:	2b7f      	cmp	r3, #127	; 0x7f
10000684:	d90d      	bls.n	100006a2 <ADC_Read+0x6a>
10000686:	2303      	movs	r3, #3
10000688:	0022      	movs	r2, r4
1000068a:	2168      	movs	r1, #104	; 0x68
1000068c:	0030      	movs	r0, r6
1000068e:	9700      	str	r7, [sp, #0]
10000690:	f008 fce0 	bl	10009054 <i2c_read_blocking>
10000694:	200a      	movs	r0, #10
10000696:	2100      	movs	r1, #0
10000698:	f004 fce2 	bl	10005060 <sleep_us>
1000069c:	882b      	ldrh	r3, [r5, #0]
1000069e:	2b00      	cmp	r3, #0
100006a0:	d1ee      	bne.n	10000680 <ADC_Read+0x48>
100006a2:	7823      	ldrb	r3, [r4, #0]
100006a4:	7860      	ldrb	r0, [r4, #1]
100006a6:	021b      	lsls	r3, r3, #8
100006a8:	18c0      	adds	r0, r0, r3
100006aa:	b280      	uxth	r0, r0
100006ac:	e7d3      	b.n	10000656 <ADC_Read+0x1e>
100006ae:	2388      	movs	r3, #136	; 0x88
100006b0:	4e12      	ldr	r6, [pc, #72]	; (100006fc <ADC_Read+0xc4>)
100006b2:	7023      	strb	r3, [r4, #0]
100006b4:	0022      	movs	r2, r4
100006b6:	3b87      	subs	r3, #135	; 0x87
100006b8:	2168      	movs	r1, #104	; 0x68
100006ba:	9000      	str	r0, [sp, #0]
100006bc:	0030      	movs	r0, r6
100006be:	f008 fc63 	bl	10008f88 <i2c_write_blocking>
100006c2:	2064      	movs	r0, #100	; 0x64
100006c4:	2100      	movs	r1, #0
100006c6:	f004 fccb 	bl	10005060 <sleep_us>
100006ca:	2364      	movs	r3, #100	; 0x64
100006cc:	4d0c      	ldr	r5, [pc, #48]	; (10000700 <ADC_Read+0xc8>)
100006ce:	2700      	movs	r7, #0
100006d0:	802b      	strh	r3, [r5, #0]
100006d2:	e002      	b.n	100006da <ADC_Read+0xa2>
100006d4:	78a3      	ldrb	r3, [r4, #2]
100006d6:	2b7f      	cmp	r3, #127	; 0x7f
100006d8:	d9e3      	bls.n	100006a2 <ADC_Read+0x6a>
100006da:	2303      	movs	r3, #3
100006dc:	0022      	movs	r2, r4
100006de:	2168      	movs	r1, #104	; 0x68
100006e0:	0030      	movs	r0, r6
100006e2:	9700      	str	r7, [sp, #0]
100006e4:	f008 fcb6 	bl	10009054 <i2c_read_blocking>
100006e8:	200a      	movs	r0, #10
100006ea:	2100      	movs	r1, #0
100006ec:	f004 fcb8 	bl	10005060 <sleep_us>
100006f0:	882b      	ldrh	r3, [r5, #0]
100006f2:	2b00      	cmp	r3, #0
100006f4:	d1ee      	bne.n	100006d4 <ADC_Read+0x9c>
100006f6:	e7d4      	b.n	100006a2 <ADC_Read+0x6a>
100006f8:	100093d8 	.word	0x100093d8
100006fc:	20000eb0 	.word	0x20000eb0
10000700:	20002182 	.word	0x20002182

10000704 <main>:
10000704:	b5f0      	push	{r4, r5, r6, r7, lr}
10000706:	46de      	mov	lr, fp
10000708:	4657      	mov	r7, sl
1000070a:	464e      	mov	r6, r9
1000070c:	4645      	mov	r5, r8
1000070e:	b5e0      	push	{r5, r6, r7, lr}
10000710:	b085      	sub	sp, #20
10000712:	f006 f9f5 	bl	10006b00 <stdio_init_all>
10000716:	20fa      	movs	r0, #250	; 0xfa
10000718:	2101      	movs	r1, #1
1000071a:	0140      	lsls	r0, r0, #5
1000071c:	f005 fa78 	bl	10005c10 <watchdog_enable>
10000720:	2012      	movs	r0, #18
10000722:	f003 fcb3 	bl	1000408c <gpio_init>
10000726:	2013      	movs	r0, #19
10000728:	f003 fcb0 	bl	1000408c <gpio_init>
1000072c:	2014      	movs	r0, #20
1000072e:	f003 fcad 	bl	1000408c <gpio_init>
10000732:	2015      	movs	r0, #21
10000734:	f003 fcaa 	bl	1000408c <gpio_init>
10000738:	201a      	movs	r0, #26
1000073a:	f003 fca7 	bl	1000408c <gpio_init>
1000073e:	201b      	movs	r0, #27
10000740:	f003 fca4 	bl	1000408c <gpio_init>
10000744:	2019      	movs	r0, #25
10000746:	f003 fca1 	bl	1000408c <gpio_init>
1000074a:	2007      	movs	r0, #7
1000074c:	f003 fc9e 	bl	1000408c <gpio_init>
10000750:	2006      	movs	r0, #6
10000752:	f003 fc9b 	bl	1000408c <gpio_init>
10000756:	2016      	movs	r0, #22
10000758:	f003 fc98 	bl	1000408c <gpio_init>
1000075c:	200a      	movs	r0, #10
1000075e:	f003 fc95 	bl	1000408c <gpio_init>
10000762:	24d0      	movs	r4, #208	; 0xd0
10000764:	2380      	movs	r3, #128	; 0x80
10000766:	0624      	lsls	r4, r4, #24
10000768:	02db      	lsls	r3, r3, #11
1000076a:	6263      	str	r3, [r4, #36]	; 0x24
1000076c:	469b      	mov	fp, r3
1000076e:	2380      	movs	r3, #128	; 0x80
10000770:	031b      	lsls	r3, r3, #12
10000772:	6263      	str	r3, [r4, #36]	; 0x24
10000774:	469a      	mov	sl, r3
10000776:	2380      	movs	r3, #128	; 0x80
10000778:	035b      	lsls	r3, r3, #13
1000077a:	6263      	str	r3, [r4, #36]	; 0x24
1000077c:	4699      	mov	r9, r3
1000077e:	2380      	movs	r3, #128	; 0x80
10000780:	039b      	lsls	r3, r3, #14
10000782:	6263      	str	r3, [r4, #36]	; 0x24
10000784:	4698      	mov	r8, r3
10000786:	2780      	movs	r7, #128	; 0x80
10000788:	2680      	movs	r6, #128	; 0x80
1000078a:	2380      	movs	r3, #128	; 0x80
1000078c:	04ff      	lsls	r7, r7, #19
1000078e:	0536      	lsls	r6, r6, #20
10000790:	049b      	lsls	r3, r3, #18
10000792:	6267      	str	r7, [r4, #36]	; 0x24
10000794:	6266      	str	r6, [r4, #36]	; 0x24
10000796:	6263      	str	r3, [r4, #36]	; 0x24
10000798:	2380      	movs	r3, #128	; 0x80
1000079a:	2140      	movs	r1, #64	; 0x40
1000079c:	2280      	movs	r2, #128	; 0x80
1000079e:	03db      	lsls	r3, r3, #15
100007a0:	6262      	str	r2, [r4, #36]	; 0x24
100007a2:	6261      	str	r1, [r4, #36]	; 0x24
100007a4:	6263      	str	r3, [r4, #36]	; 0x24
100007a6:	2380      	movs	r3, #128	; 0x80
100007a8:	00db      	lsls	r3, r3, #3
100007aa:	000d      	movs	r5, r1
100007ac:	2200      	movs	r2, #0
100007ae:	200a      	movs	r0, #10
100007b0:	62a3      	str	r3, [r4, #40]	; 0x28
100007b2:	393f      	subs	r1, #63	; 0x3f
100007b4:	f003 fc58 	bl	10004068 <gpio_set_pulls>
100007b8:	4658      	mov	r0, fp
100007ba:	61a0      	str	r0, [r4, #24]
100007bc:	4650      	mov	r0, sl
100007be:	61a0      	str	r0, [r4, #24]
100007c0:	4648      	mov	r0, r9
100007c2:	2380      	movs	r3, #128	; 0x80
100007c4:	61a0      	str	r0, [r4, #24]
100007c6:	4640      	mov	r0, r8
100007c8:	049b      	lsls	r3, r3, #18
100007ca:	61a0      	str	r0, [r4, #24]
100007cc:	61a7      	str	r7, [r4, #24]
100007ce:	61a6      	str	r6, [r4, #24]
100007d0:	61a3      	str	r3, [r4, #24]
100007d2:	2380      	movs	r3, #128	; 0x80
100007d4:	2280      	movs	r2, #128	; 0x80
100007d6:	03db      	lsls	r3, r3, #15
100007d8:	61a2      	str	r2, [r4, #24]
100007da:	49ac      	ldr	r1, [pc, #688]	; (10000a8c <main+0x388>)
100007dc:	61a5      	str	r5, [r4, #24]
100007de:	4aac      	ldr	r2, [pc, #688]	; (10000a90 <main+0x38c>)
100007e0:	61a3      	str	r3, [r4, #24]
100007e2:	48ac      	ldr	r0, [pc, #688]	; (10000a94 <main+0x390>)
100007e4:	f7ff ff0e 	bl	10000604 <add_repeating_timer_ms.constprop.0.isra.0>
100007e8:	200a      	movs	r0, #10
100007ea:	4aab      	ldr	r2, [pc, #684]	; (10000a98 <main+0x394>)
100007ec:	49ab      	ldr	r1, [pc, #684]	; (10000a9c <main+0x398>)
100007ee:	f7ff ff09 	bl	10000604 <add_repeating_timer_ms.constprop.0.isra.0>
100007f2:	23fa      	movs	r3, #250	; 0xfa
100007f4:	2704      	movs	r7, #4
100007f6:	005b      	lsls	r3, r3, #1
100007f8:	0018      	movs	r0, r3
100007fa:	4aa9      	ldr	r2, [pc, #676]	; (10000aa0 <main+0x39c>)
100007fc:	49a9      	ldr	r1, [pc, #676]	; (10000aa4 <main+0x3a0>)
100007fe:	4698      	mov	r8, r3
10000800:	f7ff ff00 	bl	10000604 <add_repeating_timer_ms.constprop.0.isra.0>
10000804:	4ea8      	ldr	r6, [pc, #672]	; (10000aa8 <main+0x3a4>)
10000806:	49a9      	ldr	r1, [pc, #676]	; (10000aac <main+0x3a8>)
10000808:	0030      	movs	r0, r6
1000080a:	f008 fb73 	bl	10008ef4 <i2c_init>
1000080e:	2200      	movs	r2, #0
10000810:	0030      	movs	r0, r6
10000812:	2100      	movs	r1, #0
10000814:	f008 fb98 	bl	10008f48 <i2c_set_slave_mode>
10000818:	2103      	movs	r1, #3
1000081a:	200d      	movs	r0, #13
1000081c:	f003 fc0c 	bl	10004038 <gpio_set_function>
10000820:	2103      	movs	r1, #3
10000822:	200c      	movs	r0, #12
10000824:	f003 fc08 	bl	10004038 <gpio_set_function>
10000828:	4ea1      	ldr	r6, [pc, #644]	; (10000ab0 <main+0x3ac>)
1000082a:	2200      	movs	r2, #0
1000082c:	2101      	movs	r1, #1
1000082e:	200d      	movs	r0, #13
10000830:	f003 fc1a 	bl	10004068 <gpio_set_pulls>
10000834:	2200      	movs	r2, #0
10000836:	2101      	movs	r1, #1
10000838:	200c      	movs	r0, #12
1000083a:	f003 fc15 	bl	10004068 <gpio_set_pulls>
1000083e:	0030      	movs	r0, r6
10000840:	499a      	ldr	r1, [pc, #616]	; (10000aac <main+0x3a8>)
10000842:	f008 fc5d 	bl	10009100 <spi_init>
10000846:	4b9b      	ldr	r3, [pc, #620]	; (10000ab4 <main+0x3b0>)
10000848:	2101      	movs	r1, #1
1000084a:	601f      	str	r7, [r3, #0]
1000084c:	2005      	movs	r0, #5
1000084e:	f003 fbf3 	bl	10004038 <gpio_set_function>
10000852:	2101      	movs	r1, #1
10000854:	2003      	movs	r0, #3
10000856:	f003 fbef 	bl	10004038 <gpio_set_function>
1000085a:	2101      	movs	r1, #1
1000085c:	2004      	movs	r0, #4
1000085e:	f003 fbeb 	bl	10004038 <gpio_set_function>
10000862:	2101      	movs	r1, #1
10000864:	2002      	movs	r0, #2
10000866:	f003 fbe7 	bl	10004038 <gpio_set_function>
1000086a:	2201      	movs	r2, #1
1000086c:	2100      	movs	r1, #0
1000086e:	2003      	movs	r0, #3
10000870:	f003 fbfa 	bl	10004068 <gpio_set_pulls>
10000874:	6177      	str	r7, [r6, #20]
10000876:	2012      	movs	r0, #18
10000878:	498f      	ldr	r1, [pc, #572]	; (10000ab8 <main+0x3b4>)
1000087a:	f003 fd01 	bl	10004280 <irq_set_exclusive_handler>
1000087e:	2101      	movs	r1, #1
10000880:	2012      	movs	r0, #18
10000882:	f003 fcc5 	bl	10004210 <irq_set_enabled>
10000886:	2196      	movs	r1, #150	; 0x96
10000888:	4f8c      	ldr	r7, [pc, #560]	; (10000abc <main+0x3b8>)
1000088a:	0209      	lsls	r1, r1, #8
1000088c:	0038      	movs	r0, r7
1000088e:	f004 ff8b 	bl	100057a8 <uart_init>
10000892:	2102      	movs	r1, #2
10000894:	2009      	movs	r0, #9
10000896:	f003 fbcf 	bl	10004038 <gpio_set_function>
1000089a:	2102      	movs	r1, #2
1000089c:	2008      	movs	r0, #8
1000089e:	f003 fbcb 	bl	10004038 <gpio_set_function>
100008a2:	2196      	movs	r1, #150	; 0x96
100008a4:	4e86      	ldr	r6, [pc, #536]	; (10000ac0 <main+0x3bc>)
100008a6:	0209      	lsls	r1, r1, #8
100008a8:	0030      	movs	r0, r6
100008aa:	f004 ff7d 	bl	100057a8 <uart_init>
100008ae:	2102      	movs	r1, #2
100008b0:	2010      	movs	r0, #16
100008b2:	f003 fbc1 	bl	10004038 <gpio_set_function>
100008b6:	2102      	movs	r1, #2
100008b8:	2011      	movs	r0, #17
100008ba:	f003 fbbd 	bl	10004038 <gpio_set_function>
100008be:	22c0      	movs	r2, #192	; 0xc0
100008c0:	6b3b      	ldr	r3, [r7, #48]	; 0x30
100008c2:	0212      	lsls	r2, r2, #8
100008c4:	4694      	mov	ip, r2
100008c6:	4013      	ands	r3, r2
100008c8:	4a7e      	ldr	r2, [pc, #504]	; (10000ac4 <main+0x3c0>)
100008ca:	2060      	movs	r0, #96	; 0x60
100008cc:	6013      	str	r3, [r2, #0]
100008ce:	497e      	ldr	r1, [pc, #504]	; (10000ac8 <main+0x3c4>)
100008d0:	226e      	movs	r2, #110	; 0x6e
100008d2:	4689      	mov	r9, r1
100008d4:	6afb      	ldr	r3, [r7, #44]	; 0x2c
100008d6:	464d      	mov	r5, r9
100008d8:	4043      	eors	r3, r0
100008da:	4013      	ands	r3, r2
100008dc:	600b      	str	r3, [r1, #0]
100008de:	2310      	movs	r3, #16
100008e0:	6af9      	ldr	r1, [r7, #44]	; 0x2c
100008e2:	4019      	ands	r1, r3
100008e4:	6029      	str	r1, [r5, #0]
100008e6:	4665      	mov	r5, ip
100008e8:	6b31      	ldr	r1, [r6, #48]	; 0x30
100008ea:	4029      	ands	r1, r5
100008ec:	4d77      	ldr	r5, [pc, #476]	; (10000acc <main+0x3c8>)
100008ee:	6029      	str	r1, [r5, #0]
100008f0:	6af1      	ldr	r1, [r6, #44]	; 0x2c
100008f2:	4041      	eors	r1, r0
100008f4:	400a      	ands	r2, r1
100008f6:	4976      	ldr	r1, [pc, #472]	; (10000ad0 <main+0x3cc>)
100008f8:	384b      	subs	r0, #75	; 0x4b
100008fa:	600a      	str	r2, [r1, #0]
100008fc:	6af2      	ldr	r2, [r6, #44]	; 0x2c
100008fe:	4013      	ands	r3, r2
10000900:	600b      	str	r3, [r1, #0]
10000902:	4b74      	ldr	r3, [pc, #464]	; (10000ad4 <main+0x3d0>)
10000904:	0019      	movs	r1, r3
10000906:	469a      	mov	sl, r3
10000908:	f003 fcba 	bl	10004280 <irq_set_exclusive_handler>
1000090c:	2101      	movs	r1, #1
1000090e:	2015      	movs	r0, #21
10000910:	f003 fc7e 	bl	10004210 <irq_set_enabled>
10000914:	2350      	movs	r3, #80	; 0x50
10000916:	63bb      	str	r3, [r7, #56]	; 0x38
10000918:	4699      	mov	r9, r3
1000091a:	6b7b      	ldr	r3, [r7, #52]	; 0x34
1000091c:	2738      	movs	r7, #56	; 0x38
1000091e:	4a6e      	ldr	r2, [pc, #440]	; (10000ad8 <main+0x3d4>)
10000920:	403b      	ands	r3, r7
10000922:	6013      	str	r3, [r2, #0]
10000924:	4651      	mov	r1, sl
10000926:	2014      	movs	r0, #20
10000928:	f003 fcaa 	bl	10004280 <irq_set_exclusive_handler>
1000092c:	2101      	movs	r1, #1
1000092e:	2014      	movs	r0, #20
10000930:	f003 fc6e 	bl	10004210 <irq_set_enabled>
10000934:	464b      	mov	r3, r9
10000936:	63b3      	str	r3, [r6, #56]	; 0x38
10000938:	6b73      	ldr	r3, [r6, #52]	; 0x34
1000093a:	4a68      	ldr	r2, [pc, #416]	; (10000adc <main+0x3d8>)
1000093c:	401f      	ands	r7, r3
1000093e:	4b68      	ldr	r3, [pc, #416]	; (10000ae0 <main+0x3dc>)
10000940:	4e68      	ldr	r6, [pc, #416]	; (10000ae4 <main+0x3e0>)
10000942:	601f      	str	r7, [r3, #0]
10000944:	2300      	movs	r3, #0
10000946:	9202      	str	r2, [sp, #8]
10000948:	7013      	strb	r3, [r2, #0]
1000094a:	4a67      	ldr	r2, [pc, #412]	; (10000ae8 <main+0x3e4>)
1000094c:	7033      	strb	r3, [r6, #0]
1000094e:	7013      	strb	r3, [r2, #0]
10000950:	4a66      	ldr	r2, [pc, #408]	; (10000aec <main+0x3e8>)
10000952:	4967      	ldr	r1, [pc, #412]	; (10000af0 <main+0x3ec>)
10000954:	7013      	strb	r3, [r2, #0]
10000956:	2380      	movs	r3, #128	; 0x80
10000958:	03db      	lsls	r3, r3, #15
1000095a:	6163      	str	r3, [r4, #20]
1000095c:	4643      	mov	r3, r8
1000095e:	800b      	strh	r3, [r1, #0]
10000960:	880b      	ldrh	r3, [r1, #0]
10000962:	b29a      	uxth	r2, r3
10000964:	2b00      	cmp	r3, #0
10000966:	d1fb      	bne.n	10000960 <main+0x25c>
10000968:	4b62      	ldr	r3, [pc, #392]	; (10000af4 <main+0x3f0>)
1000096a:	27d0      	movs	r7, #208	; 0xd0
1000096c:	801a      	strh	r2, [r3, #0]
1000096e:	4b62      	ldr	r3, [pc, #392]	; (10000af8 <main+0x3f4>)
10000970:	2580      	movs	r5, #128	; 0x80
10000972:	801a      	strh	r2, [r3, #0]
10000974:	4b61      	ldr	r3, [pc, #388]	; (10000afc <main+0x3f8>)
10000976:	4c62      	ldr	r4, [pc, #392]	; (10000b00 <main+0x3fc>)
10000978:	801a      	strh	r2, [r3, #0]
1000097a:	4b62      	ldr	r3, [pc, #392]	; (10000b04 <main+0x400>)
1000097c:	063f      	lsls	r7, r7, #24
1000097e:	801a      	strh	r2, [r3, #0]
10000980:	4b61      	ldr	r3, [pc, #388]	; (10000b08 <main+0x404>)
10000982:	03ed      	lsls	r5, r5, #15
10000984:	001a      	movs	r2, r3
10000986:	9301      	str	r3, [sp, #4]
10000988:	4b60      	ldr	r3, [pc, #384]	; (10000b0c <main+0x408>)
1000098a:	8013      	strh	r3, [r2, #0]
1000098c:	4b60      	ldr	r3, [pc, #384]	; (10000b10 <main+0x40c>)
1000098e:	001a      	movs	r2, r3
10000990:	9303      	str	r3, [sp, #12]
10000992:	4b60      	ldr	r3, [pc, #384]	; (10000b14 <main+0x410>)
10000994:	8013      	strh	r3, [r2, #0]
10000996:	4b60      	ldr	r3, [pc, #384]	; (10000b18 <main+0x414>)
10000998:	4698      	mov	r8, r3
1000099a:	4b60      	ldr	r3, [pc, #384]	; (10000b1c <main+0x418>)
1000099c:	469a      	mov	sl, r3
1000099e:	4b60      	ldr	r3, [pc, #384]	; (10000b20 <main+0x41c>)
100009a0:	469b      	mov	fp, r3
100009a2:	4b60      	ldr	r3, [pc, #384]	; (10000b24 <main+0x420>)
100009a4:	9300      	str	r3, [sp, #0]
100009a6:	2300      	movs	r3, #0
100009a8:	4699      	mov	r9, r3
100009aa:	f005 f927 	bl	10005bfc <watchdog_update>
100009ae:	4643      	mov	r3, r8
100009b0:	781b      	ldrb	r3, [r3, #0]
100009b2:	2b00      	cmp	r3, #0
100009b4:	d120      	bne.n	100009f8 <main+0x2f4>
100009b6:	7823      	ldrb	r3, [r4, #0]
100009b8:	2b00      	cmp	r3, #0
100009ba:	d122      	bne.n	10000a02 <main+0x2fe>
100009bc:	7833      	ldrb	r3, [r6, #0]
100009be:	2b00      	cmp	r3, #0
100009c0:	d132      	bne.n	10000a28 <main+0x324>
100009c2:	465b      	mov	r3, fp
100009c4:	464a      	mov	r2, r9
100009c6:	617d      	str	r5, [r7, #20]
100009c8:	701a      	strb	r2, [r3, #0]
100009ca:	f000 f947 	bl	10000c5c <p2pPollMaster>
100009ce:	2800      	cmp	r0, #0
100009d0:	d0eb      	beq.n	100009aa <main+0x2a6>
100009d2:	9a00      	ldr	r2, [sp, #0]
100009d4:	8813      	ldrh	r3, [r2, #0]
100009d6:	2b02      	cmp	r3, #2
100009d8:	d139      	bne.n	10000a4e <main+0x34a>
100009da:	9902      	ldr	r1, [sp, #8]
100009dc:	780b      	ldrb	r3, [r1, #0]
100009de:	2b00      	cmp	r3, #0
100009e0:	d046      	beq.n	10000a70 <main+0x36c>
100009e2:	464b      	mov	r3, r9
100009e4:	700b      	strb	r3, [r1, #0]
100009e6:	8013      	strh	r3, [r2, #0]
100009e8:	f001 ff6e 	bl	100028c8 <p2pPollSlaveWritePassThrough>
100009ec:	f005 f906 	bl	10005bfc <watchdog_update>
100009f0:	4643      	mov	r3, r8
100009f2:	781b      	ldrb	r3, [r3, #0]
100009f4:	2b00      	cmp	r3, #0
100009f6:	d0de      	beq.n	100009b6 <main+0x2b2>
100009f8:	f002 fb0e 	bl	10003018 <DAC_Check>
100009fc:	7823      	ldrb	r3, [r4, #0]
100009fe:	2b00      	cmp	r3, #0
10000a00:	d0dc      	beq.n	100009bc <main+0x2b8>
10000a02:	2000      	movs	r0, #0
10000a04:	f7ff fe18 	bl	10000638 <ADC_Read>
10000a08:	4653      	mov	r3, sl
10000a0a:	881b      	ldrh	r3, [r3, #0]
10000a0c:	4298      	cmp	r0, r3
10000a0e:	d90d      	bls.n	10000a2c <main+0x328>
10000a10:	1ac3      	subs	r3, r0, r3
10000a12:	4a45      	ldr	r2, [pc, #276]	; (10000b28 <main+0x424>)
10000a14:	b29b      	uxth	r3, r3
10000a16:	4293      	cmp	r3, r2
10000a18:	d90d      	bls.n	10000a36 <main+0x332>
10000a1a:	4652      	mov	r2, sl
10000a1c:	8010      	strh	r0, [r2, #0]
10000a1e:	464a      	mov	r2, r9
10000a20:	7833      	ldrb	r3, [r6, #0]
10000a22:	7022      	strb	r2, [r4, #0]
10000a24:	2b00      	cmp	r3, #0
10000a26:	d0cc      	beq.n	100009c2 <main+0x2be>
10000a28:	61bd      	str	r5, [r7, #24]
10000a2a:	e7be      	b.n	100009aa <main+0x2a6>
10000a2c:	1a1b      	subs	r3, r3, r0
10000a2e:	4a3e      	ldr	r2, [pc, #248]	; (10000b28 <main+0x424>)
10000a30:	b29b      	uxth	r3, r3
10000a32:	4293      	cmp	r3, r2
10000a34:	d8f1      	bhi.n	10000a1a <main+0x316>
10000a36:	9b01      	ldr	r3, [sp, #4]
10000a38:	881b      	ldrh	r3, [r3, #0]
10000a3a:	4283      	cmp	r3, r0
10000a3c:	d90a      	bls.n	10000a54 <main+0x350>
10000a3e:	2301      	movs	r3, #1
10000a40:	7033      	strb	r3, [r6, #0]
10000a42:	4653      	mov	r3, sl
10000a44:	8018      	strh	r0, [r3, #0]
10000a46:	464b      	mov	r3, r9
10000a48:	7023      	strb	r3, [r4, #0]
10000a4a:	61bd      	str	r5, [r7, #24]
10000a4c:	e7ad      	b.n	100009aa <main+0x2a6>
10000a4e:	f000 ffd3 	bl	100019f8 <p2pPollSlaveRead>
10000a52:	e7aa      	b.n	100009aa <main+0x2a6>
10000a54:	7833      	ldrb	r3, [r6, #0]
10000a56:	2b00      	cmp	r3, #0
10000a58:	d00d      	beq.n	10000a76 <main+0x372>
10000a5a:	9b03      	ldr	r3, [sp, #12]
10000a5c:	881b      	ldrh	r3, [r3, #0]
10000a5e:	4283      	cmp	r3, r0
10000a60:	d20d      	bcs.n	10000a7e <main+0x37a>
10000a62:	464b      	mov	r3, r9
10000a64:	7033      	strb	r3, [r6, #0]
10000a66:	4653      	mov	r3, sl
10000a68:	8018      	strh	r0, [r3, #0]
10000a6a:	464b      	mov	r3, r9
10000a6c:	7023      	strb	r3, [r4, #0]
10000a6e:	e7a8      	b.n	100009c2 <main+0x2be>
10000a70:	f001 fabc 	bl	10001fec <p2pPollSlaveWrite>
10000a74:	e799      	b.n	100009aa <main+0x2a6>
10000a76:	4652      	mov	r2, sl
10000a78:	7023      	strb	r3, [r4, #0]
10000a7a:	8010      	strh	r0, [r2, #0]
10000a7c:	e7a1      	b.n	100009c2 <main+0x2be>
10000a7e:	4653      	mov	r3, sl
10000a80:	8018      	strh	r0, [r3, #0]
10000a82:	464b      	mov	r3, r9
10000a84:	7023      	strb	r3, [r4, #0]
10000a86:	61bd      	str	r5, [r7, #24]
10000a88:	e78f      	b.n	100009aa <main+0x2a6>
10000a8a:	46c0      	nop			; (mov r8, r8)
10000a8c:	10000309 	.word	0x10000309
10000a90:	20001660 	.word	0x20001660
10000a94:	00001388 	.word	0x00001388
10000a98:	20001648 	.word	0x20001648
10000a9c:	10000315 	.word	0x10000315
10000aa0:	20001678 	.word	0x20001678
10000aa4:	100003c5 	.word	0x100003c5
10000aa8:	20000eb0 	.word	0x20000eb0
10000aac:	000186a0 	.word	0x000186a0
10000ab0:	4003c000 	.word	0x4003c000
10000ab4:	4003e004 	.word	0x4003e004
10000ab8:	100003e1 	.word	0x100003e1
10000abc:	40038000 	.word	0x40038000
10000ac0:	40034000 	.word	0x40034000
10000ac4:	40039030 	.word	0x40039030
10000ac8:	4003902c 	.word	0x4003902c
10000acc:	40035030 	.word	0x40035030
10000ad0:	4003502c 	.word	0x4003502c
10000ad4:	10000519 	.word	0x10000519
10000ad8:	40039034 	.word	0x40039034
10000adc:	200021a6 	.word	0x200021a6
10000ae0:	40035034 	.word	0x40035034
10000ae4:	200021a4 	.word	0x200021a4
10000ae8:	200021a7 	.word	0x200021a7
10000aec:	200021a8 	.word	0x200021a8
10000af0:	20002188 	.word	0x20002188
10000af4:	2000218a 	.word	0x2000218a
10000af8:	2000218c 	.word	0x2000218c
10000afc:	2000218e 	.word	0x2000218e
10000b00:	200021a2 	.word	0x200021a2
10000b04:	20002190 	.word	0x20002190
10000b08:	20002194 	.word	0x20002194
10000b0c:	00003249 	.word	0x00003249
10000b10:	20002196 	.word	0x20002196
10000b14:	0000382b 	.word	0x0000382b
10000b18:	200021a1 	.word	0x200021a1
10000b1c:	20002198 	.word	0x20002198
10000b20:	200021a3 	.word	0x200021a3
10000b24:	20002186 	.word	0x20002186
10000b28:	00001387 	.word	0x00001387

10000b2c <BaudRate_Update>:
10000b2c:	b510      	push	{r4, lr}
10000b2e:	0004      	movs	r4, r0
10000b30:	0001      	movs	r1, r0
10000b32:	4804      	ldr	r0, [pc, #16]	; (10000b44 <BaudRate_Update+0x18>)
10000b34:	f004 fe38 	bl	100057a8 <uart_init>
10000b38:	0021      	movs	r1, r4
10000b3a:	4803      	ldr	r0, [pc, #12]	; (10000b48 <BaudRate_Update+0x1c>)
10000b3c:	f004 fe34 	bl	100057a8 <uart_init>
10000b40:	bd10      	pop	{r4, pc}
10000b42:	46c0      	nop			; (mov r8, r8)
10000b44:	40038000 	.word	0x40038000
10000b48:	40034000 	.word	0x40034000

10000b4c <Watchdog>:
10000b4c:	b510      	push	{r4, lr}
10000b4e:	f005 f855 	bl	10005bfc <watchdog_update>
10000b52:	bd10      	pop	{r4, pc}

10000b54 <p2pTxByteMaster>:
10000b54:	2208      	movs	r2, #8
10000b56:	490c      	ldr	r1, [pc, #48]	; (10000b88 <p2pTxByteMaster+0x34>)
10000b58:	698b      	ldr	r3, [r1, #24]
10000b5a:	421a      	tst	r2, r3
10000b5c:	d1fc      	bne.n	10000b58 <p2pTxByteMaster+0x4>
10000b5e:	4b0b      	ldr	r3, [pc, #44]	; (10000b8c <p2pTxByteMaster+0x38>)
10000b60:	2202      	movs	r2, #2
10000b62:	5e9b      	ldrsh	r3, [r3, r2]
10000b64:	4283      	cmp	r3, r0
10000b66:	d006      	beq.n	10000b76 <p2pTxByteMaster+0x22>
10000b68:	2120      	movs	r1, #32
10000b6a:	4a07      	ldr	r2, [pc, #28]	; (10000b88 <p2pTxByteMaster+0x34>)
10000b6c:	6993      	ldr	r3, [r2, #24]
10000b6e:	4219      	tst	r1, r3
10000b70:	d1fc      	bne.n	10000b6c <p2pTxByteMaster+0x18>
10000b72:	6010      	str	r0, [r2, #0]
10000b74:	4770      	bx	lr
10000b76:	2120      	movs	r1, #32
10000b78:	4a03      	ldr	r2, [pc, #12]	; (10000b88 <p2pTxByteMaster+0x34>)
10000b7a:	6993      	ldr	r3, [r2, #24]
10000b7c:	4219      	tst	r1, r3
10000b7e:	d1fc      	bne.n	10000b7a <p2pTxByteMaster+0x26>
10000b80:	230d      	movs	r3, #13
10000b82:	6013      	str	r3, [r2, #0]
10000b84:	e7f0      	b.n	10000b68 <p2pTxByteMaster+0x14>
10000b86:	46c0      	nop			; (mov r8, r8)
10000b88:	40038000 	.word	0x40038000
10000b8c:	2000216c 	.word	0x2000216c

10000b90 <p2pTxByteSlave>:
10000b90:	2208      	movs	r2, #8
10000b92:	490c      	ldr	r1, [pc, #48]	; (10000bc4 <p2pTxByteSlave+0x34>)
10000b94:	698b      	ldr	r3, [r1, #24]
10000b96:	421a      	tst	r2, r3
10000b98:	d1fc      	bne.n	10000b94 <p2pTxByteSlave+0x4>
10000b9a:	4b0b      	ldr	r3, [pc, #44]	; (10000bc8 <p2pTxByteSlave+0x38>)
10000b9c:	2200      	movs	r2, #0
10000b9e:	5e9b      	ldrsh	r3, [r3, r2]
10000ba0:	4283      	cmp	r3, r0
10000ba2:	d006      	beq.n	10000bb2 <p2pTxByteSlave+0x22>
10000ba4:	2120      	movs	r1, #32
10000ba6:	4a07      	ldr	r2, [pc, #28]	; (10000bc4 <p2pTxByteSlave+0x34>)
10000ba8:	6993      	ldr	r3, [r2, #24]
10000baa:	4219      	tst	r1, r3
10000bac:	d1fc      	bne.n	10000ba8 <p2pTxByteSlave+0x18>
10000bae:	6010      	str	r0, [r2, #0]
10000bb0:	4770      	bx	lr
10000bb2:	2120      	movs	r1, #32
10000bb4:	4a03      	ldr	r2, [pc, #12]	; (10000bc4 <p2pTxByteSlave+0x34>)
10000bb6:	6993      	ldr	r3, [r2, #24]
10000bb8:	4219      	tst	r1, r3
10000bba:	d1fc      	bne.n	10000bb6 <p2pTxByteSlave+0x26>
10000bbc:	230d      	movs	r3, #13
10000bbe:	6013      	str	r3, [r2, #0]
10000bc0:	e7f0      	b.n	10000ba4 <p2pTxByteSlave+0x14>
10000bc2:	46c0      	nop			; (mov r8, r8)
10000bc4:	40034000 	.word	0x40034000
10000bc8:	2000216c 	.word	0x2000216c

10000bcc <p2pRxByteMaster>:
10000bcc:	4b0e      	ldr	r3, [pc, #56]	; (10000c08 <p2pRxByteMaster+0x3c>)
10000bce:	4a0f      	ldr	r2, [pc, #60]	; (10000c0c <p2pRxByteMaster+0x40>)
10000bd0:	8819      	ldrh	r1, [r3, #0]
10000bd2:	8812      	ldrh	r2, [r2, #0]
10000bd4:	b510      	push	{r4, lr}
10000bd6:	4291      	cmp	r1, r2
10000bd8:	d013      	beq.n	10000c02 <p2pRxByteMaster+0x36>
10000bda:	8819      	ldrh	r1, [r3, #0]
10000bdc:	2401      	movs	r4, #1
10000bde:	1c4a      	adds	r2, r1, #1
10000be0:	b292      	uxth	r2, r2
10000be2:	801a      	strh	r2, [r3, #0]
10000be4:	4a0a      	ldr	r2, [pc, #40]	; (10000c10 <p2pRxByteMaster+0x44>)
10000be6:	5c52      	ldrb	r2, [r2, r1]
10000be8:	7002      	strb	r2, [r0, #0]
10000bea:	228c      	movs	r2, #140	; 0x8c
10000bec:	8819      	ldrh	r1, [r3, #0]
10000bee:	0092      	lsls	r2, r2, #2
10000bf0:	4291      	cmp	r1, r2
10000bf2:	d003      	beq.n	10000bfc <p2pRxByteMaster+0x30>
10000bf4:	f7ff ffaa 	bl	10000b4c <Watchdog>
10000bf8:	0020      	movs	r0, r4
10000bfa:	bd10      	pop	{r4, pc}
10000bfc:	2200      	movs	r2, #0
10000bfe:	801a      	strh	r2, [r3, #0]
10000c00:	e7f8      	b.n	10000bf4 <p2pRxByteMaster+0x28>
10000c02:	2400      	movs	r4, #0
10000c04:	e7f6      	b.n	10000bf4 <p2pRxByteMaster+0x28>
10000c06:	46c0      	nop			; (mov r8, r8)
10000c08:	2000218a 	.word	0x2000218a
10000c0c:	2000218c 	.word	0x2000218c
10000c10:	20000ee0 	.word	0x20000ee0

10000c14 <p2pRxByteSlave>:
10000c14:	4b0e      	ldr	r3, [pc, #56]	; (10000c50 <p2pRxByteSlave+0x3c>)
10000c16:	4a0f      	ldr	r2, [pc, #60]	; (10000c54 <p2pRxByteSlave+0x40>)
10000c18:	8819      	ldrh	r1, [r3, #0]
10000c1a:	8812      	ldrh	r2, [r2, #0]
10000c1c:	b510      	push	{r4, lr}
10000c1e:	4291      	cmp	r1, r2
10000c20:	d013      	beq.n	10000c4a <p2pRxByteSlave+0x36>
10000c22:	8819      	ldrh	r1, [r3, #0]
10000c24:	2401      	movs	r4, #1
10000c26:	1c4a      	adds	r2, r1, #1
10000c28:	b292      	uxth	r2, r2
10000c2a:	801a      	strh	r2, [r3, #0]
10000c2c:	4a0a      	ldr	r2, [pc, #40]	; (10000c58 <p2pRxByteSlave+0x44>)
10000c2e:	5c52      	ldrb	r2, [r2, r1]
10000c30:	7002      	strb	r2, [r0, #0]
10000c32:	228c      	movs	r2, #140	; 0x8c
10000c34:	8819      	ldrh	r1, [r3, #0]
10000c36:	0092      	lsls	r2, r2, #2
10000c38:	4291      	cmp	r1, r2
10000c3a:	d003      	beq.n	10000c44 <p2pRxByteSlave+0x30>
10000c3c:	f7ff ff86 	bl	10000b4c <Watchdog>
10000c40:	0020      	movs	r0, r4
10000c42:	bd10      	pop	{r4, pc}
10000c44:	2200      	movs	r2, #0
10000c46:	801a      	strh	r2, [r3, #0]
10000c48:	e7f8      	b.n	10000c3c <p2pRxByteSlave+0x28>
10000c4a:	2400      	movs	r4, #0
10000c4c:	e7f6      	b.n	10000c3c <p2pRxByteSlave+0x28>
10000c4e:	46c0      	nop			; (mov r8, r8)
10000c50:	2000218e 	.word	0x2000218e
10000c54:	20002190 	.word	0x20002190
10000c58:	20001110 	.word	0x20001110

10000c5c <p2pPollMaster>:
10000c5c:	b5f0      	push	{r4, r5, r6, r7, lr}
10000c5e:	4657      	mov	r7, sl
10000c60:	46de      	mov	lr, fp
10000c62:	464e      	mov	r6, r9
10000c64:	4645      	mov	r5, r8
10000c66:	b5e0      	push	{r5, r6, r7, lr}
10000c68:	b089      	sub	sp, #36	; 0x24
10000c6a:	ab06      	add	r3, sp, #24
10000c6c:	1ddf      	adds	r7, r3, #7
10000c6e:	2300      	movs	r3, #0
10000c70:	4a64      	ldr	r2, [pc, #400]	; (10000e04 <p2pPollMaster+0x1a8>)
10000c72:	4d65      	ldr	r5, [pc, #404]	; (10000e08 <p2pPollMaster+0x1ac>)
10000c74:	7013      	strb	r3, [r2, #0]
10000c76:	4693      	mov	fp, r2
10000c78:	4a64      	ldr	r2, [pc, #400]	; (10000e0c <p2pPollMaster+0x1b0>)
10000c7a:	703b      	strb	r3, [r7, #0]
10000c7c:	8013      	strh	r3, [r2, #0]
10000c7e:	33f5      	adds	r3, #245	; 0xf5
10000c80:	33ff      	adds	r3, #255	; 0xff
10000c82:	802b      	strh	r3, [r5, #0]
10000c84:	2300      	movs	r3, #0
10000c86:	9300      	str	r3, [sp, #0]
10000c88:	9301      	str	r3, [sp, #4]
10000c8a:	4b61      	ldr	r3, [pc, #388]	; (10000e10 <p2pPollMaster+0x1b4>)
10000c8c:	4692      	mov	sl, r2
10000c8e:	4699      	mov	r9, r3
10000c90:	4c60      	ldr	r4, [pc, #384]	; (10000e14 <p2pPollMaster+0x1b8>)
10000c92:	4e61      	ldr	r6, [pc, #388]	; (10000e18 <p2pPollMaster+0x1bc>)
10000c94:	882b      	ldrh	r3, [r5, #0]
10000c96:	2b00      	cmp	r3, #0
10000c98:	d020      	beq.n	10000cdc <p2pPollMaster+0x80>
10000c9a:	8822      	ldrh	r2, [r4, #0]
10000c9c:	8833      	ldrh	r3, [r6, #0]
10000c9e:	429a      	cmp	r2, r3
10000ca0:	d02c      	beq.n	10000cfc <p2pPollMaster+0xa0>
10000ca2:	8822      	ldrh	r2, [r4, #0]
10000ca4:	1c53      	adds	r3, r2, #1
10000ca6:	b29b      	uxth	r3, r3
10000ca8:	8023      	strh	r3, [r4, #0]
10000caa:	464b      	mov	r3, r9
10000cac:	5c9b      	ldrb	r3, [r3, r2]
10000cae:	8822      	ldrh	r2, [r4, #0]
10000cb0:	4698      	mov	r8, r3
10000cb2:	703b      	strb	r3, [r7, #0]
10000cb4:	238c      	movs	r3, #140	; 0x8c
10000cb6:	009b      	lsls	r3, r3, #2
10000cb8:	429a      	cmp	r2, r3
10000cba:	d101      	bne.n	10000cc0 <p2pPollMaster+0x64>
10000cbc:	2300      	movs	r3, #0
10000cbe:	8023      	strh	r3, [r4, #0]
10000cc0:	f7ff ff44 	bl	10000b4c <Watchdog>
10000cc4:	23fa      	movs	r3, #250	; 0xfa
10000cc6:	005b      	lsls	r3, r3, #1
10000cc8:	802b      	strh	r3, [r5, #0]
10000cca:	4643      	mov	r3, r8
10000ccc:	2b10      	cmp	r3, #16
10000cce:	d05e      	beq.n	10000d8e <p2pPollMaster+0x132>
10000cd0:	2300      	movs	r3, #0
10000cd2:	9300      	str	r3, [sp, #0]
10000cd4:	9301      	str	r3, [sp, #4]
10000cd6:	882b      	ldrh	r3, [r5, #0]
10000cd8:	2b00      	cmp	r3, #0
10000cda:	d1de      	bne.n	10000c9a <p2pPollMaster+0x3e>
10000cdc:	882b      	ldrh	r3, [r5, #0]
10000cde:	2b00      	cmp	r3, #0
10000ce0:	d103      	bne.n	10000cea <p2pPollMaster+0x8e>
10000ce2:	465b      	mov	r3, fp
10000ce4:	781b      	ldrb	r3, [r3, #0]
10000ce6:	2b00      	cmp	r3, #0
10000ce8:	d10b      	bne.n	10000d02 <p2pPollMaster+0xa6>
10000cea:	8828      	ldrh	r0, [r5, #0]
10000cec:	b280      	uxth	r0, r0
10000cee:	b009      	add	sp, #36	; 0x24
10000cf0:	bcf0      	pop	{r4, r5, r6, r7}
10000cf2:	46bb      	mov	fp, r7
10000cf4:	46b2      	mov	sl, r6
10000cf6:	46a9      	mov	r9, r5
10000cf8:	46a0      	mov	r8, r4
10000cfa:	bdf0      	pop	{r4, r5, r6, r7, pc}
10000cfc:	f7ff ff26 	bl	10000b4c <Watchdog>
10000d00:	e7c8      	b.n	10000c94 <p2pPollMaster+0x38>
10000d02:	2208      	movs	r2, #8
10000d04:	4945      	ldr	r1, [pc, #276]	; (10000e1c <p2pPollMaster+0x1c0>)
10000d06:	698b      	ldr	r3, [r1, #24]
10000d08:	421a      	tst	r2, r3
10000d0a:	d1fc      	bne.n	10000d06 <p2pPollMaster+0xaa>
10000d0c:	4b44      	ldr	r3, [pc, #272]	; (10000e20 <p2pPollMaster+0x1c4>)
10000d0e:	2002      	movs	r0, #2
10000d10:	5e18      	ldrsh	r0, [r3, r0]
10000d12:	2810      	cmp	r0, #16
10000d14:	d033      	beq.n	10000d7e <p2pPollMaster+0x122>
10000d16:	2120      	movs	r1, #32
10000d18:	4a40      	ldr	r2, [pc, #256]	; (10000e1c <p2pPollMaster+0x1c0>)
10000d1a:	6993      	ldr	r3, [r2, #24]
10000d1c:	4219      	tst	r1, r3
10000d1e:	d1fc      	bne.n	10000d1a <p2pPollMaster+0xbe>
10000d20:	2310      	movs	r3, #16
10000d22:	6013      	str	r3, [r2, #0]
10000d24:	2208      	movs	r2, #8
10000d26:	493d      	ldr	r1, [pc, #244]	; (10000e1c <p2pPollMaster+0x1c0>)
10000d28:	698b      	ldr	r3, [r1, #24]
10000d2a:	421a      	tst	r2, r3
10000d2c:	d1fc      	bne.n	10000d28 <p2pPollMaster+0xcc>
10000d2e:	2819      	cmp	r0, #25
10000d30:	d01d      	beq.n	10000d6e <p2pPollMaster+0x112>
10000d32:	2120      	movs	r1, #32
10000d34:	4a39      	ldr	r2, [pc, #228]	; (10000e1c <p2pPollMaster+0x1c0>)
10000d36:	6993      	ldr	r3, [r2, #24]
10000d38:	4219      	tst	r1, r3
10000d3a:	d1fc      	bne.n	10000d36 <p2pPollMaster+0xda>
10000d3c:	2319      	movs	r3, #25
10000d3e:	6013      	str	r3, [r2, #0]
10000d40:	2208      	movs	r2, #8
10000d42:	4936      	ldr	r1, [pc, #216]	; (10000e1c <p2pPollMaster+0x1c0>)
10000d44:	698b      	ldr	r3, [r1, #24]
10000d46:	421a      	tst	r2, r3
10000d48:	d1fc      	bne.n	10000d44 <p2pPollMaster+0xe8>
10000d4a:	2801      	cmp	r0, #1
10000d4c:	d007      	beq.n	10000d5e <p2pPollMaster+0x102>
10000d4e:	2120      	movs	r1, #32
10000d50:	4a32      	ldr	r2, [pc, #200]	; (10000e1c <p2pPollMaster+0x1c0>)
10000d52:	6993      	ldr	r3, [r2, #24]
10000d54:	4219      	tst	r1, r3
10000d56:	d1fc      	bne.n	10000d52 <p2pPollMaster+0xf6>
10000d58:	2301      	movs	r3, #1
10000d5a:	6013      	str	r3, [r2, #0]
10000d5c:	e7c5      	b.n	10000cea <p2pPollMaster+0x8e>
10000d5e:	2120      	movs	r1, #32
10000d60:	4a2e      	ldr	r2, [pc, #184]	; (10000e1c <p2pPollMaster+0x1c0>)
10000d62:	6993      	ldr	r3, [r2, #24]
10000d64:	4219      	tst	r1, r3
10000d66:	d1fc      	bne.n	10000d62 <p2pPollMaster+0x106>
10000d68:	230d      	movs	r3, #13
10000d6a:	6013      	str	r3, [r2, #0]
10000d6c:	e7ef      	b.n	10000d4e <p2pPollMaster+0xf2>
10000d6e:	2120      	movs	r1, #32
10000d70:	4a2a      	ldr	r2, [pc, #168]	; (10000e1c <p2pPollMaster+0x1c0>)
10000d72:	6993      	ldr	r3, [r2, #24]
10000d74:	4219      	tst	r1, r3
10000d76:	d1fc      	bne.n	10000d72 <p2pPollMaster+0x116>
10000d78:	230d      	movs	r3, #13
10000d7a:	6013      	str	r3, [r2, #0]
10000d7c:	e7d9      	b.n	10000d32 <p2pPollMaster+0xd6>
10000d7e:	2120      	movs	r1, #32
10000d80:	4a26      	ldr	r2, [pc, #152]	; (10000e1c <p2pPollMaster+0x1c0>)
10000d82:	6993      	ldr	r3, [r2, #24]
10000d84:	4219      	tst	r1, r3
10000d86:	d1fc      	bne.n	10000d82 <p2pPollMaster+0x126>
10000d88:	230d      	movs	r3, #13
10000d8a:	6013      	str	r3, [r2, #0]
10000d8c:	e7c3      	b.n	10000d16 <p2pPollMaster+0xba>
10000d8e:	2210      	movs	r2, #16
10000d90:	9b01      	ldr	r3, [sp, #4]
10000d92:	9800      	ldr	r0, [sp, #0]
10000d94:	3310      	adds	r3, #16
10000d96:	b29b      	uxth	r3, r3
10000d98:	9303      	str	r3, [sp, #12]
10000d9a:	0a03      	lsrs	r3, r0, #8
10000d9c:	4921      	ldr	r1, [pc, #132]	; (10000e24 <p2pPollMaster+0x1c8>)
10000d9e:	4053      	eors	r3, r2
10000da0:	005b      	lsls	r3, r3, #1
10000da2:	5aca      	ldrh	r2, [r1, r3]
10000da4:	0203      	lsls	r3, r0, #8
10000da6:	b29b      	uxth	r3, r3
10000da8:	405a      	eors	r2, r3
10000daa:	9102      	str	r1, [sp, #8]
10000dac:	9200      	str	r2, [sp, #0]
10000dae:	8822      	ldrh	r2, [r4, #0]
10000db0:	8833      	ldrh	r3, [r6, #0]
10000db2:	429a      	cmp	r2, r3
10000db4:	d01b      	beq.n	10000dee <p2pPollMaster+0x192>
10000db6:	8822      	ldrh	r2, [r4, #0]
10000db8:	1c53      	adds	r3, r2, #1
10000dba:	b29b      	uxth	r3, r3
10000dbc:	8023      	strh	r3, [r4, #0]
10000dbe:	464b      	mov	r3, r9
10000dc0:	5c9b      	ldrb	r3, [r3, r2]
10000dc2:	8822      	ldrh	r2, [r4, #0]
10000dc4:	4698      	mov	r8, r3
10000dc6:	703b      	strb	r3, [r7, #0]
10000dc8:	238c      	movs	r3, #140	; 0x8c
10000dca:	009b      	lsls	r3, r3, #2
10000dcc:	429a      	cmp	r2, r3
10000dce:	d014      	beq.n	10000dfa <p2pPollMaster+0x19e>
10000dd0:	f7ff febc 	bl	10000b4c <Watchdog>
10000dd4:	4643      	mov	r3, r8
10000dd6:	2b13      	cmp	r3, #19
10000dd8:	d026      	beq.n	10000e28 <p2pPollMaster+0x1cc>
10000dda:	2b15      	cmp	r3, #21
10000ddc:	d000      	beq.n	10000de0 <p2pPollMaster+0x184>
10000dde:	e12a      	b.n	10001036 <p2pPollMaster+0x3da>
10000de0:	882b      	ldrh	r3, [r5, #0]
10000de2:	2b00      	cmp	r3, #0
10000de4:	d000      	beq.n	10000de8 <p2pPollMaster+0x18c>
10000de6:	e161      	b.n	100010ac <p2pPollMaster+0x450>
10000de8:	9b03      	ldr	r3, [sp, #12]
10000dea:	9301      	str	r3, [sp, #4]
10000dec:	e751      	b.n	10000c92 <p2pPollMaster+0x36>
10000dee:	f7ff fead 	bl	10000b4c <Watchdog>
10000df2:	882b      	ldrh	r3, [r5, #0]
10000df4:	2b00      	cmp	r3, #0
10000df6:	d1da      	bne.n	10000dae <p2pPollMaster+0x152>
10000df8:	e7f6      	b.n	10000de8 <p2pPollMaster+0x18c>
10000dfa:	2300      	movs	r3, #0
10000dfc:	8023      	strh	r3, [r4, #0]
10000dfe:	f7ff fea5 	bl	10000b4c <Watchdog>
10000e02:	e7e7      	b.n	10000dd4 <p2pPollMaster+0x178>
10000e04:	200021a5 	.word	0x200021a5
10000e08:	20002188 	.word	0x20002188
10000e0c:	20002186 	.word	0x20002186
10000e10:	20000ee0 	.word	0x20000ee0
10000e14:	2000218a 	.word	0x2000218a
10000e18:	2000218c 	.word	0x2000218c
10000e1c:	40038000 	.word	0x40038000
10000e20:	2000216c 	.word	0x2000216c
10000e24:	100093f0 	.word	0x100093f0
10000e28:	882b      	ldrh	r3, [r5, #0]
10000e2a:	2b00      	cmp	r3, #0
10000e2c:	d0dc      	beq.n	10000de8 <p2pPollMaster+0x18c>
10000e2e:	2301      	movs	r3, #1
10000e30:	4652      	mov	r2, sl
10000e32:	8013      	strh	r3, [r2, #0]
10000e34:	2213      	movs	r2, #19
10000e36:	9b01      	ldr	r3, [sp, #4]
10000e38:	9900      	ldr	r1, [sp, #0]
10000e3a:	3323      	adds	r3, #35	; 0x23
10000e3c:	b29b      	uxth	r3, r3
10000e3e:	9303      	str	r3, [sp, #12]
10000e40:	0a0b      	lsrs	r3, r1, #8
10000e42:	4053      	eors	r3, r2
10000e44:	b29b      	uxth	r3, r3
10000e46:	9a02      	ldr	r2, [sp, #8]
10000e48:	005b      	lsls	r3, r3, #1
10000e4a:	5ad2      	ldrh	r2, [r2, r3]
10000e4c:	020b      	lsls	r3, r1, #8
10000e4e:	b29b      	uxth	r3, r3
10000e50:	405a      	eors	r2, r3
10000e52:	9200      	str	r2, [sp, #0]
10000e54:	8822      	ldrh	r2, [r4, #0]
10000e56:	8833      	ldrh	r3, [r6, #0]
10000e58:	429a      	cmp	r2, r3
10000e5a:	d100      	bne.n	10000e5e <p2pPollMaster+0x202>
10000e5c:	e0e4      	b.n	10001028 <p2pPollMaster+0x3cc>
10000e5e:	8822      	ldrh	r2, [r4, #0]
10000e60:	1c53      	adds	r3, r2, #1
10000e62:	b29b      	uxth	r3, r3
10000e64:	8023      	strh	r3, [r4, #0]
10000e66:	464b      	mov	r3, r9
10000e68:	5c9b      	ldrb	r3, [r3, r2]
10000e6a:	8822      	ldrh	r2, [r4, #0]
10000e6c:	4698      	mov	r8, r3
10000e6e:	703b      	strb	r3, [r7, #0]
10000e70:	238c      	movs	r3, #140	; 0x8c
10000e72:	009b      	lsls	r3, r3, #2
10000e74:	429a      	cmp	r2, r3
10000e76:	d100      	bne.n	10000e7a <p2pPollMaster+0x21e>
10000e78:	e107      	b.n	1000108a <p2pPollMaster+0x42e>
10000e7a:	f7ff fe67 	bl	10000b4c <Watchdog>
10000e7e:	4643      	mov	r3, r8
10000e80:	2bff      	cmp	r3, #255	; 0xff
10000e82:	d100      	bne.n	10000e86 <p2pPollMaster+0x22a>
10000e84:	e351      	b.n	1000152a <p2pPollMaster+0x8ce>
10000e86:	2b00      	cmp	r3, #0
10000e88:	d100      	bne.n	10000e8c <p2pPollMaster+0x230>
10000e8a:	882b      	ldrh	r3, [r5, #0]
10000e8c:	228c      	movs	r2, #140	; 0x8c
10000e8e:	2100      	movs	r1, #0
10000e90:	0092      	lsls	r2, r2, #2
10000e92:	4648      	mov	r0, r9
10000e94:	f005 fcc4 	bl	10006820 <__wrap_memset>
10000e98:	2301      	movs	r3, #1
10000e9a:	465a      	mov	r2, fp
10000e9c:	7013      	strb	r3, [r2, #0]
10000e9e:	2300      	movs	r3, #0
10000ea0:	4a7f      	ldr	r2, [pc, #508]	; (100010a0 <p2pPollMaster+0x444>)
10000ea2:	8023      	strh	r3, [r4, #0]
10000ea4:	8033      	strh	r3, [r6, #0]
10000ea6:	3308      	adds	r3, #8
10000ea8:	6991      	ldr	r1, [r2, #24]
10000eaa:	420b      	tst	r3, r1
10000eac:	d1fc      	bne.n	10000ea8 <p2pPollMaster+0x24c>
10000eae:	4b7d      	ldr	r3, [pc, #500]	; (100010a4 <p2pPollMaster+0x448>)
10000eb0:	2202      	movs	r2, #2
10000eb2:	5e9b      	ldrsh	r3, [r3, r2]
10000eb4:	2b10      	cmp	r3, #16
10000eb6:	d100      	bne.n	10000eba <p2pPollMaster+0x25e>
10000eb8:	e32f      	b.n	1000151a <p2pPollMaster+0x8be>
10000eba:	2120      	movs	r1, #32
10000ebc:	4a78      	ldr	r2, [pc, #480]	; (100010a0 <p2pPollMaster+0x444>)
10000ebe:	6990      	ldr	r0, [r2, #24]
10000ec0:	4201      	tst	r1, r0
10000ec2:	d1fc      	bne.n	10000ebe <p2pPollMaster+0x262>
10000ec4:	2110      	movs	r1, #16
10000ec6:	6011      	str	r1, [r2, #0]
10000ec8:	2208      	movs	r2, #8
10000eca:	4975      	ldr	r1, [pc, #468]	; (100010a0 <p2pPollMaster+0x444>)
10000ecc:	6988      	ldr	r0, [r1, #24]
10000ece:	4202      	tst	r2, r0
10000ed0:	d1fc      	bne.n	10000ecc <p2pPollMaster+0x270>
10000ed2:	2b21      	cmp	r3, #33	; 0x21
10000ed4:	d100      	bne.n	10000ed8 <p2pPollMaster+0x27c>
10000ed6:	e318      	b.n	1000150a <p2pPollMaster+0x8ae>
10000ed8:	2120      	movs	r1, #32
10000eda:	4a71      	ldr	r2, [pc, #452]	; (100010a0 <p2pPollMaster+0x444>)
10000edc:	6990      	ldr	r0, [r2, #24]
10000ede:	4201      	tst	r1, r0
10000ee0:	d1fc      	bne.n	10000edc <p2pPollMaster+0x280>
10000ee2:	2121      	movs	r1, #33	; 0x21
10000ee4:	6011      	str	r1, [r2, #0]
10000ee6:	4a70      	ldr	r2, [pc, #448]	; (100010a8 <p2pPollMaster+0x44c>)
10000ee8:	486d      	ldr	r0, [pc, #436]	; (100010a0 <p2pPollMaster+0x444>)
10000eea:	7811      	ldrb	r1, [r2, #0]
10000eec:	2208      	movs	r2, #8
10000eee:	6986      	ldr	r6, [r0, #24]
10000ef0:	4232      	tst	r2, r6
10000ef2:	d1fc      	bne.n	10000eee <p2pPollMaster+0x292>
10000ef4:	4299      	cmp	r1, r3
10000ef6:	d100      	bne.n	10000efa <p2pPollMaster+0x29e>
10000ef8:	e2ff      	b.n	100014fa <p2pPollMaster+0x89e>
10000efa:	2020      	movs	r0, #32
10000efc:	4a68      	ldr	r2, [pc, #416]	; (100010a0 <p2pPollMaster+0x444>)
10000efe:	6996      	ldr	r6, [r2, #24]
10000f00:	4230      	tst	r0, r6
10000f02:	d1fc      	bne.n	10000efe <p2pPollMaster+0x2a2>
10000f04:	6011      	str	r1, [r2, #0]
10000f06:	2208      	movs	r2, #8
10000f08:	4965      	ldr	r1, [pc, #404]	; (100010a0 <p2pPollMaster+0x444>)
10000f0a:	6988      	ldr	r0, [r1, #24]
10000f0c:	4202      	tst	r2, r0
10000f0e:	d1fc      	bne.n	10000f0a <p2pPollMaster+0x2ae>
10000f10:	2b10      	cmp	r3, #16
10000f12:	d101      	bne.n	10000f18 <p2pPollMaster+0x2bc>
10000f14:	f000 fd04 	bl	10001920 <p2pPollMaster+0xcc4>
10000f18:	2120      	movs	r1, #32
10000f1a:	4a61      	ldr	r2, [pc, #388]	; (100010a0 <p2pPollMaster+0x444>)
10000f1c:	6990      	ldr	r0, [r2, #24]
10000f1e:	4201      	tst	r1, r0
10000f20:	d1fc      	bne.n	10000f1c <p2pPollMaster+0x2c0>
10000f22:	2110      	movs	r1, #16
10000f24:	6011      	str	r1, [r2, #0]
10000f26:	2208      	movs	r2, #8
10000f28:	495d      	ldr	r1, [pc, #372]	; (100010a0 <p2pPollMaster+0x444>)
10000f2a:	6988      	ldr	r0, [r1, #24]
10000f2c:	4202      	tst	r2, r0
10000f2e:	d1fc      	bne.n	10000f2a <p2pPollMaster+0x2ce>
10000f30:	2b1a      	cmp	r3, #26
10000f32:	d101      	bne.n	10000f38 <p2pPollMaster+0x2dc>
10000f34:	f000 fcd0 	bl	100018d8 <p2pPollMaster+0xc7c>
10000f38:	2120      	movs	r1, #32
10000f3a:	4a59      	ldr	r2, [pc, #356]	; (100010a0 <p2pPollMaster+0x444>)
10000f3c:	6990      	ldr	r0, [r2, #24]
10000f3e:	4201      	tst	r1, r0
10000f40:	d1fc      	bne.n	10000f3c <p2pPollMaster+0x2e0>
10000f42:	211a      	movs	r1, #26
10000f44:	6011      	str	r1, [r2, #0]
10000f46:	2208      	movs	r2, #8
10000f48:	4955      	ldr	r1, [pc, #340]	; (100010a0 <p2pPollMaster+0x444>)
10000f4a:	6988      	ldr	r0, [r1, #24]
10000f4c:	4202      	tst	r2, r0
10000f4e:	d1fc      	bne.n	10000f4a <p2pPollMaster+0x2ee>
10000f50:	2b02      	cmp	r3, #2
10000f52:	d101      	bne.n	10000f58 <p2pPollMaster+0x2fc>
10000f54:	f000 fcd2 	bl	100018fc <p2pPollMaster+0xca0>
10000f58:	2120      	movs	r1, #32
10000f5a:	4a51      	ldr	r2, [pc, #324]	; (100010a0 <p2pPollMaster+0x444>)
10000f5c:	6990      	ldr	r0, [r2, #24]
10000f5e:	4201      	tst	r1, r0
10000f60:	d1fc      	bne.n	10000f5c <p2pPollMaster+0x300>
10000f62:	2102      	movs	r1, #2
10000f64:	6011      	str	r1, [r2, #0]
10000f66:	2208      	movs	r2, #8
10000f68:	494d      	ldr	r1, [pc, #308]	; (100010a0 <p2pPollMaster+0x444>)
10000f6a:	6988      	ldr	r0, [r1, #24]
10000f6c:	4202      	tst	r2, r0
10000f6e:	d1fc      	bne.n	10000f6a <p2pPollMaster+0x30e>
10000f70:	2b01      	cmp	r3, #1
10000f72:	d101      	bne.n	10000f78 <p2pPollMaster+0x31c>
10000f74:	f000 fc9e 	bl	100018b4 <p2pPollMaster+0xc58>
10000f78:	2120      	movs	r1, #32
10000f7a:	4a49      	ldr	r2, [pc, #292]	; (100010a0 <p2pPollMaster+0x444>)
10000f7c:	6990      	ldr	r0, [r2, #24]
10000f7e:	4201      	tst	r1, r0
10000f80:	d1fc      	bne.n	10000f7c <p2pPollMaster+0x320>
10000f82:	2101      	movs	r1, #1
10000f84:	6011      	str	r1, [r2, #0]
10000f86:	2208      	movs	r2, #8
10000f88:	4945      	ldr	r1, [pc, #276]	; (100010a0 <p2pPollMaster+0x444>)
10000f8a:	6988      	ldr	r0, [r1, #24]
10000f8c:	4202      	tst	r2, r0
10000f8e:	d1fc      	bne.n	10000f8a <p2pPollMaster+0x32e>
10000f90:	2b18      	cmp	r3, #24
10000f92:	d101      	bne.n	10000f98 <p2pPollMaster+0x33c>
10000f94:	f000 fcbb 	bl	1000190e <p2pPollMaster+0xcb2>
10000f98:	2120      	movs	r1, #32
10000f9a:	4a41      	ldr	r2, [pc, #260]	; (100010a0 <p2pPollMaster+0x444>)
10000f9c:	6990      	ldr	r0, [r2, #24]
10000f9e:	4201      	tst	r1, r0
10000fa0:	d1fc      	bne.n	10000f9c <p2pPollMaster+0x340>
10000fa2:	2118      	movs	r1, #24
10000fa4:	6011      	str	r1, [r2, #0]
10000fa6:	2208      	movs	r2, #8
10000fa8:	493d      	ldr	r1, [pc, #244]	; (100010a0 <p2pPollMaster+0x444>)
10000faa:	6988      	ldr	r0, [r1, #24]
10000fac:	4202      	tst	r2, r0
10000fae:	d1fc      	bne.n	10000faa <p2pPollMaster+0x34e>
10000fb0:	2b10      	cmp	r3, #16
10000fb2:	d101      	bne.n	10000fb8 <p2pPollMaster+0x35c>
10000fb4:	f000 fc87 	bl	100018c6 <p2pPollMaster+0xc6a>
10000fb8:	2120      	movs	r1, #32
10000fba:	4a39      	ldr	r2, [pc, #228]	; (100010a0 <p2pPollMaster+0x444>)
10000fbc:	6990      	ldr	r0, [r2, #24]
10000fbe:	4201      	tst	r1, r0
10000fc0:	d1fc      	bne.n	10000fbc <p2pPollMaster+0x360>
10000fc2:	2110      	movs	r1, #16
10000fc4:	6011      	str	r1, [r2, #0]
10000fc6:	2208      	movs	r2, #8
10000fc8:	4935      	ldr	r1, [pc, #212]	; (100010a0 <p2pPollMaster+0x444>)
10000fca:	6988      	ldr	r0, [r1, #24]
10000fcc:	4202      	tst	r2, r0
10000fce:	d1fc      	bne.n	10000fca <p2pPollMaster+0x36e>
10000fd0:	2b1f      	cmp	r3, #31
10000fd2:	d101      	bne.n	10000fd8 <p2pPollMaster+0x37c>
10000fd4:	f000 fc89 	bl	100018ea <p2pPollMaster+0xc8e>
10000fd8:	2120      	movs	r1, #32
10000fda:	4a31      	ldr	r2, [pc, #196]	; (100010a0 <p2pPollMaster+0x444>)
10000fdc:	6990      	ldr	r0, [r2, #24]
10000fde:	4201      	tst	r1, r0
10000fe0:	d1fc      	bne.n	10000fdc <p2pPollMaster+0x380>
10000fe2:	211f      	movs	r1, #31
10000fe4:	6011      	str	r1, [r2, #0]
10000fe6:	2208      	movs	r2, #8
10000fe8:	492d      	ldr	r1, [pc, #180]	; (100010a0 <p2pPollMaster+0x444>)
10000fea:	6988      	ldr	r0, [r1, #24]
10000fec:	4202      	tst	r2, r0
10000fee:	d1fc      	bne.n	10000fea <p2pPollMaster+0x38e>
10000ff0:	2b00      	cmp	r3, #0
10000ff2:	d101      	bne.n	10000ff8 <p2pPollMaster+0x39c>
10000ff4:	f000 fc55 	bl	100018a2 <p2pPollMaster+0xc46>
10000ff8:	2120      	movs	r1, #32
10000ffa:	4a29      	ldr	r2, [pc, #164]	; (100010a0 <p2pPollMaster+0x444>)
10000ffc:	000e      	movs	r6, r1
10000ffe:	6990      	ldr	r0, [r2, #24]
10001000:	4006      	ands	r6, r0
10001002:	4201      	tst	r1, r0
10001004:	d1fa      	bne.n	10000ffc <p2pPollMaster+0x3a0>
10001006:	6016      	str	r6, [r2, #0]
10001008:	2208      	movs	r2, #8
1000100a:	4925      	ldr	r1, [pc, #148]	; (100010a0 <p2pPollMaster+0x444>)
1000100c:	6988      	ldr	r0, [r1, #24]
1000100e:	4202      	tst	r2, r0
10001010:	d1fc      	bne.n	1000100c <p2pPollMaster+0x3b0>
10001012:	2b74      	cmp	r3, #116	; 0x74
10001014:	d100      	bne.n	10001018 <p2pPollMaster+0x3bc>
10001016:	e23f      	b.n	10001498 <p2pPollMaster+0x83c>
10001018:	2220      	movs	r2, #32
1000101a:	4b21      	ldr	r3, [pc, #132]	; (100010a0 <p2pPollMaster+0x444>)
1000101c:	6999      	ldr	r1, [r3, #24]
1000101e:	420a      	tst	r2, r1
10001020:	d1fc      	bne.n	1000101c <p2pPollMaster+0x3c0>
10001022:	2274      	movs	r2, #116	; 0x74
10001024:	601a      	str	r2, [r3, #0]
10001026:	e6df      	b.n	10000de8 <p2pPollMaster+0x18c>
10001028:	f7ff fd90 	bl	10000b4c <Watchdog>
1000102c:	882b      	ldrh	r3, [r5, #0]
1000102e:	2b00      	cmp	r3, #0
10001030:	d000      	beq.n	10001034 <p2pPollMaster+0x3d8>
10001032:	e70f      	b.n	10000e54 <p2pPollMaster+0x1f8>
10001034:	e72a      	b.n	10000e8c <p2pPollMaster+0x230>
10001036:	2b21      	cmp	r3, #33	; 0x21
10001038:	d000      	beq.n	1000103c <p2pPollMaster+0x3e0>
1000103a:	e6d5      	b.n	10000de8 <p2pPollMaster+0x18c>
1000103c:	882b      	ldrh	r3, [r5, #0]
1000103e:	2b00      	cmp	r3, #0
10001040:	d100      	bne.n	10001044 <p2pPollMaster+0x3e8>
10001042:	e6d1      	b.n	10000de8 <p2pPollMaster+0x18c>
10001044:	8822      	ldrh	r2, [r4, #0]
10001046:	8833      	ldrh	r3, [r6, #0]
10001048:	429a      	cmp	r2, r3
1000104a:	d018      	beq.n	1000107e <p2pPollMaster+0x422>
1000104c:	8822      	ldrh	r2, [r4, #0]
1000104e:	1c53      	adds	r3, r2, #1
10001050:	b29b      	uxth	r3, r3
10001052:	8023      	strh	r3, [r4, #0]
10001054:	464b      	mov	r3, r9
10001056:	5c9b      	ldrb	r3, [r3, r2]
10001058:	8822      	ldrh	r2, [r4, #0]
1000105a:	4698      	mov	r8, r3
1000105c:	703b      	strb	r3, [r7, #0]
1000105e:	238c      	movs	r3, #140	; 0x8c
10001060:	009b      	lsls	r3, r3, #2
10001062:	429a      	cmp	r2, r3
10001064:	d016      	beq.n	10001094 <p2pPollMaster+0x438>
10001066:	f7ff fd71 	bl	10000b4c <Watchdog>
1000106a:	2301      	movs	r3, #1
1000106c:	465a      	mov	r2, fp
1000106e:	7013      	strb	r3, [r2, #0]
10001070:	4642      	mov	r2, r8
10001072:	4b0d      	ldr	r3, [pc, #52]	; (100010a8 <p2pPollMaster+0x44c>)
10001074:	701a      	strb	r2, [r3, #0]
10001076:	2300      	movs	r3, #0
10001078:	9303      	str	r3, [sp, #12]
1000107a:	9300      	str	r3, [sp, #0]
1000107c:	e6b4      	b.n	10000de8 <p2pPollMaster+0x18c>
1000107e:	f7ff fd65 	bl	10000b4c <Watchdog>
10001082:	882b      	ldrh	r3, [r5, #0]
10001084:	2b00      	cmp	r3, #0
10001086:	d1dd      	bne.n	10001044 <p2pPollMaster+0x3e8>
10001088:	e7ef      	b.n	1000106a <p2pPollMaster+0x40e>
1000108a:	2300      	movs	r3, #0
1000108c:	8023      	strh	r3, [r4, #0]
1000108e:	f7ff fd5d 	bl	10000b4c <Watchdog>
10001092:	e6f4      	b.n	10000e7e <p2pPollMaster+0x222>
10001094:	2300      	movs	r3, #0
10001096:	8023      	strh	r3, [r4, #0]
10001098:	f7ff fd58 	bl	10000b4c <Watchdog>
1000109c:	e7e5      	b.n	1000106a <p2pPollMaster+0x40e>
1000109e:	46c0      	nop			; (mov r8, r8)
100010a0:	40038000 	.word	0x40038000
100010a4:	2000216c 	.word	0x2000216c
100010a8:	200021aa 	.word	0x200021aa
100010ac:	2364      	movs	r3, #100	; 0x64
100010ae:	2215      	movs	r2, #21
100010b0:	802b      	strh	r3, [r5, #0]
100010b2:	9b01      	ldr	r3, [sp, #4]
100010b4:	9900      	ldr	r1, [sp, #0]
100010b6:	3325      	adds	r3, #37	; 0x25
100010b8:	b29b      	uxth	r3, r3
100010ba:	9303      	str	r3, [sp, #12]
100010bc:	0a0b      	lsrs	r3, r1, #8
100010be:	4053      	eors	r3, r2
100010c0:	b29b      	uxth	r3, r3
100010c2:	9a02      	ldr	r2, [sp, #8]
100010c4:	005b      	lsls	r3, r3, #1
100010c6:	46b0      	mov	r8, r6
100010c8:	5ad6      	ldrh	r6, [r2, r3]
100010ca:	020b      	lsls	r3, r1, #8
100010cc:	b29b      	uxth	r3, r3
100010ce:	405e      	eors	r6, r3
100010d0:	4643      	mov	r3, r8
100010d2:	8822      	ldrh	r2, [r4, #0]
100010d4:	881b      	ldrh	r3, [r3, #0]
100010d6:	429a      	cmp	r2, r3
100010d8:	d100      	bne.n	100010dc <p2pPollMaster+0x480>
100010da:	e11b      	b.n	10001314 <p2pPollMaster+0x6b8>
100010dc:	8822      	ldrh	r2, [r4, #0]
100010de:	1c53      	adds	r3, r2, #1
100010e0:	b29b      	uxth	r3, r3
100010e2:	8023      	strh	r3, [r4, #0]
100010e4:	464b      	mov	r3, r9
100010e6:	5c9b      	ldrb	r3, [r3, r2]
100010e8:	8822      	ldrh	r2, [r4, #0]
100010ea:	9300      	str	r3, [sp, #0]
100010ec:	703b      	strb	r3, [r7, #0]
100010ee:	238c      	movs	r3, #140	; 0x8c
100010f0:	009b      	lsls	r3, r3, #2
100010f2:	429a      	cmp	r2, r3
100010f4:	d100      	bne.n	100010f8 <p2pPollMaster+0x49c>
100010f6:	e12e      	b.n	10001356 <p2pPollMaster+0x6fa>
100010f8:	f7ff fd28 	bl	10000b4c <Watchdog>
100010fc:	9a00      	ldr	r2, [sp, #0]
100010fe:	2ae5      	cmp	r2, #229	; 0xe5
10001100:	d110      	bne.n	10001124 <p2pPollMaster+0x4c8>
10001102:	882b      	ldrh	r3, [r5, #0]
10001104:	2b00      	cmp	r3, #0
10001106:	d00d      	beq.n	10001124 <p2pPollMaster+0x4c8>
10001108:	9b01      	ldr	r3, [sp, #4]
1000110a:	330b      	adds	r3, #11
1000110c:	33ff      	adds	r3, #255	; 0xff
1000110e:	b29b      	uxth	r3, r3
10001110:	9303      	str	r3, [sp, #12]
10001112:	0a33      	lsrs	r3, r6, #8
10001114:	405a      	eors	r2, r3
10001116:	0053      	lsls	r3, r2, #1
10001118:	9a02      	ldr	r2, [sp, #8]
1000111a:	5ad2      	ldrh	r2, [r2, r3]
1000111c:	0233      	lsls	r3, r6, #8
1000111e:	b29b      	uxth	r3, r3
10001120:	405a      	eors	r2, r3
10001122:	0016      	movs	r6, r2
10001124:	4643      	mov	r3, r8
10001126:	8822      	ldrh	r2, [r4, #0]
10001128:	881b      	ldrh	r3, [r3, #0]
1000112a:	429a      	cmp	r2, r3
1000112c:	d100      	bne.n	10001130 <p2pPollMaster+0x4d4>
1000112e:	e0ff      	b.n	10001330 <p2pPollMaster+0x6d4>
10001130:	8822      	ldrh	r2, [r4, #0]
10001132:	1c53      	adds	r3, r2, #1
10001134:	b29b      	uxth	r3, r3
10001136:	8023      	strh	r3, [r4, #0]
10001138:	464b      	mov	r3, r9
1000113a:	5c9b      	ldrb	r3, [r3, r2]
1000113c:	8822      	ldrh	r2, [r4, #0]
1000113e:	9300      	str	r3, [sp, #0]
10001140:	703b      	strb	r3, [r7, #0]
10001142:	238c      	movs	r3, #140	; 0x8c
10001144:	009b      	lsls	r3, r3, #2
10001146:	429a      	cmp	r2, r3
10001148:	d100      	bne.n	1000114c <p2pPollMaster+0x4f0>
1000114a:	e0ff      	b.n	1000134c <p2pPollMaster+0x6f0>
1000114c:	f7ff fcfe 	bl	10000b4c <Watchdog>
10001150:	9b00      	ldr	r3, [sp, #0]
10001152:	2ba2      	cmp	r3, #162	; 0xa2
10001154:	d100      	bne.n	10001158 <p2pPollMaster+0x4fc>
10001156:	e1bd      	b.n	100014d4 <p2pPollMaster+0x878>
10001158:	4643      	mov	r3, r8
1000115a:	8822      	ldrh	r2, [r4, #0]
1000115c:	881b      	ldrh	r3, [r3, #0]
1000115e:	429a      	cmp	r2, r3
10001160:	d100      	bne.n	10001164 <p2pPollMaster+0x508>
10001162:	e0de      	b.n	10001322 <p2pPollMaster+0x6c6>
10001164:	8822      	ldrh	r2, [r4, #0]
10001166:	1c53      	adds	r3, r2, #1
10001168:	b29b      	uxth	r3, r3
1000116a:	8023      	strh	r3, [r4, #0]
1000116c:	464b      	mov	r3, r9
1000116e:	5c9b      	ldrb	r3, [r3, r2]
10001170:	8822      	ldrh	r2, [r4, #0]
10001172:	9300      	str	r3, [sp, #0]
10001174:	703b      	strb	r3, [r7, #0]
10001176:	238c      	movs	r3, #140	; 0x8c
10001178:	009b      	lsls	r3, r3, #2
1000117a:	429a      	cmp	r2, r3
1000117c:	d100      	bne.n	10001180 <p2pPollMaster+0x524>
1000117e:	e0e0      	b.n	10001342 <p2pPollMaster+0x6e6>
10001180:	f7ff fce4 	bl	10000b4c <Watchdog>
10001184:	9b00      	ldr	r3, [sp, #0]
10001186:	2bfd      	cmp	r3, #253	; 0xfd
10001188:	d800      	bhi.n	1000118c <p2pPollMaster+0x530>
1000118a:	e5a7      	b.n	10000cdc <p2pPollMaster+0x80>
1000118c:	882b      	ldrh	r3, [r5, #0]
1000118e:	2b00      	cmp	r3, #0
10001190:	d100      	bne.n	10001194 <p2pPollMaster+0x538>
10001192:	e5a3      	b.n	10000cdc <p2pPollMaster+0x80>
10001194:	9a00      	ldr	r2, [sp, #0]
10001196:	9902      	ldr	r1, [sp, #8]
10001198:	4694      	mov	ip, r2
1000119a:	b293      	uxth	r3, r2
1000119c:	9305      	str	r3, [sp, #20]
1000119e:	9b03      	ldr	r3, [sp, #12]
100011a0:	4463      	add	r3, ip
100011a2:	b29b      	uxth	r3, r3
100011a4:	9303      	str	r3, [sp, #12]
100011a6:	0a33      	lsrs	r3, r6, #8
100011a8:	4053      	eors	r3, r2
100011aa:	005b      	lsls	r3, r3, #1
100011ac:	5acb      	ldrh	r3, [r1, r3]
100011ae:	0236      	lsls	r6, r6, #8
100011b0:	b2b6      	uxth	r6, r6
100011b2:	4073      	eors	r3, r6
100011b4:	9304      	str	r3, [sp, #16]
100011b6:	4bc2      	ldr	r3, [pc, #776]	; (100014c0 <p2pPollMaster+0x864>)
100011b8:	2afe      	cmp	r2, #254	; 0xfe
100011ba:	d100      	bne.n	100011be <p2pPollMaster+0x562>
100011bc:	e179      	b.n	100014b2 <p2pPollMaster+0x856>
100011be:	001a      	movs	r2, r3
100011c0:	9301      	str	r3, [sp, #4]
100011c2:	2300      	movs	r3, #0
100011c4:	4646      	mov	r6, r8
100011c6:	7013      	strb	r3, [r2, #0]
100011c8:	8822      	ldrh	r2, [r4, #0]
100011ca:	8833      	ldrh	r3, [r6, #0]
100011cc:	429a      	cmp	r2, r3
100011ce:	d100      	bne.n	100011d2 <p2pPollMaster+0x576>
100011d0:	e0c6      	b.n	10001360 <p2pPollMaster+0x704>
100011d2:	8822      	ldrh	r2, [r4, #0]
100011d4:	1c53      	adds	r3, r2, #1
100011d6:	b29b      	uxth	r3, r3
100011d8:	8023      	strh	r3, [r4, #0]
100011da:	464b      	mov	r3, r9
100011dc:	5c9b      	ldrb	r3, [r3, r2]
100011de:	8822      	ldrh	r2, [r4, #0]
100011e0:	9300      	str	r3, [sp, #0]
100011e2:	703b      	strb	r3, [r7, #0]
100011e4:	238c      	movs	r3, #140	; 0x8c
100011e6:	009b      	lsls	r3, r3, #2
100011e8:	429a      	cmp	r2, r3
100011ea:	d100      	bne.n	100011ee <p2pPollMaster+0x592>
100011ec:	e15c      	b.n	100014a8 <p2pPollMaster+0x84c>
100011ee:	f7ff fcad 	bl	10000b4c <Watchdog>
100011f2:	882b      	ldrh	r3, [r5, #0]
100011f4:	2b00      	cmp	r3, #0
100011f6:	d100      	bne.n	100011fa <p2pPollMaster+0x59e>
100011f8:	e570      	b.n	10000cdc <p2pPollMaster+0x80>
100011fa:	9900      	ldr	r1, [sp, #0]
100011fc:	9804      	ldr	r0, [sp, #16]
100011fe:	468c      	mov	ip, r1
10001200:	0a03      	lsrs	r3, r0, #8
10001202:	9c02      	ldr	r4, [sp, #8]
10001204:	404b      	eors	r3, r1
10001206:	005b      	lsls	r3, r3, #1
10001208:	9e03      	ldr	r6, [sp, #12]
1000120a:	5ae4      	ldrh	r4, [r4, r3]
1000120c:	0203      	lsls	r3, r0, #8
1000120e:	b29b      	uxth	r3, r3
10001210:	4466      	add	r6, ip
10001212:	405c      	eors	r4, r3
10001214:	b28a      	uxth	r2, r1
10001216:	4bab      	ldr	r3, [pc, #684]	; (100014c4 <p2pPollMaster+0x868>)
10001218:	b2b6      	uxth	r6, r6
1000121a:	2900      	cmp	r1, #0
1000121c:	d000      	beq.n	10001220 <p2pPollMaster+0x5c4>
1000121e:	e0fe      	b.n	1000141e <p2pPollMaster+0x7c2>
10001220:	2101      	movs	r1, #1
10001222:	9200      	str	r2, [sp, #0]
10001224:	7019      	strb	r1, [r3, #0]
10001226:	9b01      	ldr	r3, [sp, #4]
10001228:	781b      	ldrb	r3, [r3, #0]
1000122a:	2b00      	cmp	r3, #0
1000122c:	d100      	bne.n	10001230 <p2pPollMaster+0x5d4>
1000122e:	e0cf      	b.n	100013d0 <p2pPollMaster+0x774>
10001230:	882b      	ldrh	r3, [r5, #0]
10001232:	2b00      	cmp	r3, #0
10001234:	d100      	bne.n	10001238 <p2pPollMaster+0x5dc>
10001236:	e551      	b.n	10000cdc <p2pPollMaster+0x80>
10001238:	783b      	ldrb	r3, [r7, #0]
1000123a:	2b10      	cmp	r3, #16
1000123c:	d103      	bne.n	10001246 <p2pPollMaster+0x5ea>
1000123e:	e0dd      	b.n	100013fc <p2pPollMaster+0x7a0>
10001240:	882b      	ldrh	r3, [r5, #0]
10001242:	2b00      	cmp	r3, #0
10001244:	d004      	beq.n	10001250 <p2pPollMaster+0x5f4>
10001246:	0038      	movs	r0, r7
10001248:	f7ff fcc0 	bl	10000bcc <p2pRxByteMaster>
1000124c:	2801      	cmp	r0, #1
1000124e:	d1f7      	bne.n	10001240 <p2pPollMaster+0x5e4>
10001250:	882b      	ldrh	r3, [r5, #0]
10001252:	2b00      	cmp	r3, #0
10001254:	d100      	bne.n	10001258 <p2pPollMaster+0x5fc>
10001256:	e541      	b.n	10000cdc <p2pPollMaster+0x80>
10001258:	783a      	ldrb	r2, [r7, #0]
1000125a:	0a23      	lsrs	r3, r4, #8
1000125c:	18b6      	adds	r6, r6, r2
1000125e:	4053      	eors	r3, r2
10001260:	9a02      	ldr	r2, [sp, #8]
10001262:	005b      	lsls	r3, r3, #1
10001264:	5ad2      	ldrh	r2, [r2, r3]
10001266:	0223      	lsls	r3, r4, #8
10001268:	b29b      	uxth	r3, r3
1000126a:	405a      	eors	r2, r3
1000126c:	9b01      	ldr	r3, [sp, #4]
1000126e:	0014      	movs	r4, r2
10001270:	781b      	ldrb	r3, [r3, #0]
10001272:	b2b6      	uxth	r6, r6
10001274:	2b00      	cmp	r3, #0
10001276:	d100      	bne.n	1000127a <p2pPollMaster+0x61e>
10001278:	e096      	b.n	100013a8 <p2pPollMaster+0x74c>
1000127a:	882b      	ldrh	r3, [r5, #0]
1000127c:	2b00      	cmp	r3, #0
1000127e:	d100      	bne.n	10001282 <p2pPollMaster+0x626>
10001280:	e52c      	b.n	10000cdc <p2pPollMaster+0x80>
10001282:	9b01      	ldr	r3, [sp, #4]
10001284:	781b      	ldrb	r3, [r3, #0]
10001286:	2b00      	cmp	r3, #0
10001288:	d006      	beq.n	10001298 <p2pPollMaster+0x63c>
1000128a:	9b00      	ldr	r3, [sp, #0]
1000128c:	2b10      	cmp	r3, #16
1000128e:	d003      	beq.n	10001298 <p2pPollMaster+0x63c>
10001290:	e0e6      	b.n	10001460 <p2pPollMaster+0x804>
10001292:	882b      	ldrh	r3, [r5, #0]
10001294:	2b00      	cmp	r3, #0
10001296:	d004      	beq.n	100012a2 <p2pPollMaster+0x646>
10001298:	0038      	movs	r0, r7
1000129a:	f7ff fc97 	bl	10000bcc <p2pRxByteMaster>
1000129e:	2801      	cmp	r0, #1
100012a0:	d1f7      	bne.n	10001292 <p2pPollMaster+0x636>
100012a2:	882b      	ldrh	r3, [r5, #0]
100012a4:	2b00      	cmp	r3, #0
100012a6:	d100      	bne.n	100012aa <p2pPollMaster+0x64e>
100012a8:	e518      	b.n	10000cdc <p2pPollMaster+0x80>
100012aa:	783b      	ldrb	r3, [r7, #0]
100012ac:	4698      	mov	r8, r3
100012ae:	e002      	b.n	100012b6 <p2pPollMaster+0x65a>
100012b0:	882b      	ldrh	r3, [r5, #0]
100012b2:	2b00      	cmp	r3, #0
100012b4:	d004      	beq.n	100012c0 <p2pPollMaster+0x664>
100012b6:	0038      	movs	r0, r7
100012b8:	f7ff fc88 	bl	10000bcc <p2pRxByteMaster>
100012bc:	2801      	cmp	r0, #1
100012be:	d1f7      	bne.n	100012b0 <p2pPollMaster+0x654>
100012c0:	9b01      	ldr	r3, [sp, #4]
100012c2:	781b      	ldrb	r3, [r3, #0]
100012c4:	882b      	ldrh	r3, [r5, #0]
100012c6:	2b00      	cmp	r3, #0
100012c8:	d100      	bne.n	100012cc <p2pPollMaster+0x670>
100012ca:	e507      	b.n	10000cdc <p2pPollMaster+0x80>
100012cc:	4643      	mov	r3, r8
100012ce:	783a      	ldrb	r2, [r7, #0]
100012d0:	021b      	lsls	r3, r3, #8
100012d2:	189b      	adds	r3, r3, r2
100012d4:	b29b      	uxth	r3, r3
100012d6:	42b3      	cmp	r3, r6
100012d8:	d00a      	beq.n	100012f0 <p2pPollMaster+0x694>
100012da:	42a3      	cmp	r3, r4
100012dc:	d008      	beq.n	100012f0 <p2pPollMaster+0x694>
100012de:	2010      	movs	r0, #16
100012e0:	f7ff fc38 	bl	10000b54 <p2pTxByteMaster>
100012e4:	2019      	movs	r0, #25
100012e6:	f7ff fc35 	bl	10000b54 <p2pTxByteMaster>
100012ea:	2006      	movs	r0, #6
100012ec:	f7ff fc32 	bl	10000b54 <p2pTxByteMaster>
100012f0:	200a      	movs	r0, #10
100012f2:	f003 fec9 	bl	10005088 <sleep_ms>
100012f6:	465b      	mov	r3, fp
100012f8:	781b      	ldrb	r3, [r3, #0]
100012fa:	2b00      	cmp	r3, #0
100012fc:	d000      	beq.n	10001300 <p2pPollMaster+0x6a4>
100012fe:	e0c0      	b.n	10001482 <p2pPollMaster+0x826>
10001300:	2010      	movs	r0, #16
10001302:	f7ff fc27 	bl	10000b54 <p2pTxByteMaster>
10001306:	2016      	movs	r0, #22
10001308:	f7ff fc24 	bl	10000b54 <p2pTxByteMaster>
1000130c:	2302      	movs	r3, #2
1000130e:	4652      	mov	r2, sl
10001310:	8013      	strh	r3, [r2, #0]
10001312:	e4e3      	b.n	10000cdc <p2pPollMaster+0x80>
10001314:	f7ff fc1a 	bl	10000b4c <Watchdog>
10001318:	882b      	ldrh	r3, [r5, #0]
1000131a:	2b00      	cmp	r3, #0
1000131c:	d000      	beq.n	10001320 <p2pPollMaster+0x6c4>
1000131e:	e6d7      	b.n	100010d0 <p2pPollMaster+0x474>
10001320:	e700      	b.n	10001124 <p2pPollMaster+0x4c8>
10001322:	f7ff fc13 	bl	10000b4c <Watchdog>
10001326:	882b      	ldrh	r3, [r5, #0]
10001328:	2b00      	cmp	r3, #0
1000132a:	d000      	beq.n	1000132e <p2pPollMaster+0x6d2>
1000132c:	e714      	b.n	10001158 <p2pPollMaster+0x4fc>
1000132e:	e729      	b.n	10001184 <p2pPollMaster+0x528>
10001330:	f7ff fc0c 	bl	10000b4c <Watchdog>
10001334:	882b      	ldrh	r3, [r5, #0]
10001336:	2b00      	cmp	r3, #0
10001338:	d000      	beq.n	1000133c <p2pPollMaster+0x6e0>
1000133a:	e6f3      	b.n	10001124 <p2pPollMaster+0x4c8>
1000133c:	783b      	ldrb	r3, [r7, #0]
1000133e:	9300      	str	r3, [sp, #0]
10001340:	e706      	b.n	10001150 <p2pPollMaster+0x4f4>
10001342:	2300      	movs	r3, #0
10001344:	8023      	strh	r3, [r4, #0]
10001346:	f7ff fc01 	bl	10000b4c <Watchdog>
1000134a:	e71b      	b.n	10001184 <p2pPollMaster+0x528>
1000134c:	2300      	movs	r3, #0
1000134e:	8023      	strh	r3, [r4, #0]
10001350:	f7ff fbfc 	bl	10000b4c <Watchdog>
10001354:	e6fc      	b.n	10001150 <p2pPollMaster+0x4f4>
10001356:	2300      	movs	r3, #0
10001358:	8023      	strh	r3, [r4, #0]
1000135a:	f7ff fbf7 	bl	10000b4c <Watchdog>
1000135e:	e6cd      	b.n	100010fc <p2pPollMaster+0x4a0>
10001360:	f7ff fbf4 	bl	10000b4c <Watchdog>
10001364:	882b      	ldrh	r3, [r5, #0]
10001366:	b29a      	uxth	r2, r3
10001368:	2b00      	cmp	r3, #0
1000136a:	d000      	beq.n	1000136e <p2pPollMaster+0x712>
1000136c:	e72c      	b.n	100011c8 <p2pPollMaster+0x56c>
1000136e:	882b      	ldrh	r3, [r5, #0]
10001370:	2b00      	cmp	r3, #0
10001372:	d100      	bne.n	10001376 <p2pPollMaster+0x71a>
10001374:	e4b2      	b.n	10000cdc <p2pPollMaster+0x80>
10001376:	9b03      	ldr	r3, [sp, #12]
10001378:	9904      	ldr	r1, [sp, #16]
1000137a:	469c      	mov	ip, r3
1000137c:	9800      	ldr	r0, [sp, #0]
1000137e:	0a0b      	lsrs	r3, r1, #8
10001380:	9c02      	ldr	r4, [sp, #8]
10001382:	4043      	eors	r3, r0
10001384:	005b      	lsls	r3, r3, #1
10001386:	5ae4      	ldrh	r4, [r4, r3]
10001388:	020b      	lsls	r3, r1, #8
1000138a:	9e05      	ldr	r6, [sp, #20]
1000138c:	b29b      	uxth	r3, r3
1000138e:	405c      	eors	r4, r3
10001390:	3801      	subs	r0, #1
10001392:	4b4c      	ldr	r3, [pc, #304]	; (100014c4 <p2pPollMaster+0x868>)
10001394:	4466      	add	r6, ip
10001396:	b2c0      	uxtb	r0, r0
10001398:	b2b6      	uxth	r6, r6
1000139a:	701a      	strb	r2, [r3, #0]
1000139c:	f001 fd1e 	bl	10002ddc <MUX_Set>
100013a0:	e741      	b.n	10001226 <p2pPollMaster+0x5ca>
100013a2:	882b      	ldrh	r3, [r5, #0]
100013a4:	2b00      	cmp	r3, #0
100013a6:	d004      	beq.n	100013b2 <p2pPollMaster+0x756>
100013a8:	0038      	movs	r0, r7
100013aa:	f7ff fc0f 	bl	10000bcc <p2pRxByteMaster>
100013ae:	2801      	cmp	r0, #1
100013b0:	d1f7      	bne.n	100013a2 <p2pPollMaster+0x746>
100013b2:	783a      	ldrb	r2, [r7, #0]
100013b4:	0a23      	lsrs	r3, r4, #8
100013b6:	18b6      	adds	r6, r6, r2
100013b8:	4053      	eors	r3, r2
100013ba:	9a02      	ldr	r2, [sp, #8]
100013bc:	005b      	lsls	r3, r3, #1
100013be:	5ad3      	ldrh	r3, [r2, r3]
100013c0:	0224      	lsls	r4, r4, #8
100013c2:	b2a4      	uxth	r4, r4
100013c4:	b2b6      	uxth	r6, r6
100013c6:	405c      	eors	r4, r3
100013c8:	e757      	b.n	1000127a <p2pPollMaster+0x61e>
100013ca:	882b      	ldrh	r3, [r5, #0]
100013cc:	2b00      	cmp	r3, #0
100013ce:	d004      	beq.n	100013da <p2pPollMaster+0x77e>
100013d0:	0038      	movs	r0, r7
100013d2:	f7ff fbfb 	bl	10000bcc <p2pRxByteMaster>
100013d6:	2801      	cmp	r0, #1
100013d8:	d1f7      	bne.n	100013ca <p2pPollMaster+0x76e>
100013da:	783a      	ldrb	r2, [r7, #0]
100013dc:	4b3a      	ldr	r3, [pc, #232]	; (100014c8 <p2pPollMaster+0x86c>)
100013de:	18b6      	adds	r6, r6, r2
100013e0:	701a      	strb	r2, [r3, #0]
100013e2:	0a23      	lsrs	r3, r4, #8
100013e4:	4053      	eors	r3, r2
100013e6:	9a02      	ldr	r2, [sp, #8]
100013e8:	005b      	lsls	r3, r3, #1
100013ea:	5ad3      	ldrh	r3, [r2, r3]
100013ec:	0224      	lsls	r4, r4, #8
100013ee:	b2a4      	uxth	r4, r4
100013f0:	b2b6      	uxth	r6, r6
100013f2:	405c      	eors	r4, r3
100013f4:	e71c      	b.n	10001230 <p2pPollMaster+0x5d4>
100013f6:	882b      	ldrh	r3, [r5, #0]
100013f8:	2b00      	cmp	r3, #0
100013fa:	d004      	beq.n	10001406 <p2pPollMaster+0x7aa>
100013fc:	0038      	movs	r0, r7
100013fe:	f7ff fbe5 	bl	10000bcc <p2pRxByteMaster>
10001402:	2801      	cmp	r0, #1
10001404:	d1f7      	bne.n	100013f6 <p2pPollMaster+0x79a>
10001406:	783a      	ldrb	r2, [r7, #0]
10001408:	0a23      	lsrs	r3, r4, #8
1000140a:	18b6      	adds	r6, r6, r2
1000140c:	4053      	eors	r3, r2
1000140e:	9a02      	ldr	r2, [sp, #8]
10001410:	005b      	lsls	r3, r3, #1
10001412:	5ad3      	ldrh	r3, [r2, r3]
10001414:	0224      	lsls	r4, r4, #8
10001416:	b2a4      	uxth	r4, r4
10001418:	b2b6      	uxth	r6, r6
1000141a:	405c      	eors	r4, r3
1000141c:	e713      	b.n	10001246 <p2pPollMaster+0x5ea>
1000141e:	2200      	movs	r2, #0
10001420:	1e48      	subs	r0, r1, #1
10001422:	b2c0      	uxtb	r0, r0
10001424:	701a      	strb	r2, [r3, #0]
10001426:	f001 fcd9 	bl	10002ddc <MUX_Set>
1000142a:	9b00      	ldr	r3, [sp, #0]
1000142c:	2b10      	cmp	r3, #16
1000142e:	d003      	beq.n	10001438 <p2pPollMaster+0x7dc>
10001430:	e6f9      	b.n	10001226 <p2pPollMaster+0x5ca>
10001432:	882b      	ldrh	r3, [r5, #0]
10001434:	2b00      	cmp	r3, #0
10001436:	d004      	beq.n	10001442 <p2pPollMaster+0x7e6>
10001438:	0038      	movs	r0, r7
1000143a:	f7ff fbc7 	bl	10000bcc <p2pRxByteMaster>
1000143e:	2801      	cmp	r0, #1
10001440:	d1f7      	bne.n	10001432 <p2pPollMaster+0x7d6>
10001442:	783a      	ldrb	r2, [r7, #0]
10001444:	0a23      	lsrs	r3, r4, #8
10001446:	18b6      	adds	r6, r6, r2
10001448:	4053      	eors	r3, r2
1000144a:	9a02      	ldr	r2, [sp, #8]
1000144c:	005b      	lsls	r3, r3, #1
1000144e:	5ad3      	ldrh	r3, [r2, r3]
10001450:	0224      	lsls	r4, r4, #8
10001452:	b2a4      	uxth	r4, r4
10001454:	b2b6      	uxth	r6, r6
10001456:	405c      	eors	r4, r3
10001458:	e6e5      	b.n	10001226 <p2pPollMaster+0x5ca>
1000145a:	882b      	ldrh	r3, [r5, #0]
1000145c:	2b00      	cmp	r3, #0
1000145e:	d004      	beq.n	1000146a <p2pPollMaster+0x80e>
10001460:	0038      	movs	r0, r7
10001462:	f7ff fbb3 	bl	10000bcc <p2pRxByteMaster>
10001466:	2801      	cmp	r0, #1
10001468:	d1f7      	bne.n	1000145a <p2pPollMaster+0x7fe>
1000146a:	783a      	ldrb	r2, [r7, #0]
1000146c:	0a23      	lsrs	r3, r4, #8
1000146e:	18b6      	adds	r6, r6, r2
10001470:	4053      	eors	r3, r2
10001472:	9a02      	ldr	r2, [sp, #8]
10001474:	005b      	lsls	r3, r3, #1
10001476:	5ad3      	ldrh	r3, [r2, r3]
10001478:	0224      	lsls	r4, r4, #8
1000147a:	b2a4      	uxth	r4, r4
1000147c:	b2b6      	uxth	r6, r6
1000147e:	405c      	eors	r4, r3
10001480:	e70a      	b.n	10001298 <p2pPollMaster+0x63c>
10001482:	2010      	movs	r0, #16
10001484:	f7ff fb66 	bl	10000b54 <p2pTxByteMaster>
10001488:	2021      	movs	r0, #33	; 0x21
1000148a:	f7ff fb63 	bl	10000b54 <p2pTxByteMaster>
1000148e:	4b0f      	ldr	r3, [pc, #60]	; (100014cc <p2pPollMaster+0x870>)
10001490:	7818      	ldrb	r0, [r3, #0]
10001492:	f7ff fb5f 	bl	10000b54 <p2pTxByteMaster>
10001496:	e733      	b.n	10001300 <p2pPollMaster+0x6a4>
10001498:	2220      	movs	r2, #32
1000149a:	4b0d      	ldr	r3, [pc, #52]	; (100014d0 <p2pPollMaster+0x874>)
1000149c:	6999      	ldr	r1, [r3, #24]
1000149e:	420a      	tst	r2, r1
100014a0:	d1fc      	bne.n	1000149c <p2pPollMaster+0x840>
100014a2:	220d      	movs	r2, #13
100014a4:	601a      	str	r2, [r3, #0]
100014a6:	e5b7      	b.n	10001018 <p2pPollMaster+0x3bc>
100014a8:	2300      	movs	r3, #0
100014aa:	8023      	strh	r3, [r4, #0]
100014ac:	f7ff fb4e 	bl	10000b4c <Watchdog>
100014b0:	e69f      	b.n	100011f2 <p2pPollMaster+0x596>
100014b2:	001a      	movs	r2, r3
100014b4:	9301      	str	r3, [sp, #4]
100014b6:	2301      	movs	r3, #1
100014b8:	4646      	mov	r6, r8
100014ba:	7013      	strb	r3, [r2, #0]
100014bc:	e684      	b.n	100011c8 <p2pPollMaster+0x56c>
100014be:	46c0      	nop			; (mov r8, r8)
100014c0:	200021a6 	.word	0x200021a6
100014c4:	200021a3 	.word	0x200021a3
100014c8:	200021a9 	.word	0x200021a9
100014cc:	200021aa 	.word	0x200021aa
100014d0:	40038000 	.word	0x40038000
100014d4:	882b      	ldrh	r3, [r5, #0]
100014d6:	2b00      	cmp	r3, #0
100014d8:	d100      	bne.n	100014dc <p2pPollMaster+0x880>
100014da:	e63d      	b.n	10001158 <p2pPollMaster+0x4fc>
100014dc:	9b03      	ldr	r3, [sp, #12]
100014de:	9a00      	ldr	r2, [sp, #0]
100014e0:	33a2      	adds	r3, #162	; 0xa2
100014e2:	b29b      	uxth	r3, r3
100014e4:	9303      	str	r3, [sp, #12]
100014e6:	0a33      	lsrs	r3, r6, #8
100014e8:	4053      	eors	r3, r2
100014ea:	9a02      	ldr	r2, [sp, #8]
100014ec:	005b      	lsls	r3, r3, #1
100014ee:	5ad2      	ldrh	r2, [r2, r3]
100014f0:	0233      	lsls	r3, r6, #8
100014f2:	b29b      	uxth	r3, r3
100014f4:	405a      	eors	r2, r3
100014f6:	0016      	movs	r6, r2
100014f8:	e62e      	b.n	10001158 <p2pPollMaster+0x4fc>
100014fa:	2020      	movs	r0, #32
100014fc:	4ad0      	ldr	r2, [pc, #832]	; (10001840 <p2pPollMaster+0xbe4>)
100014fe:	6996      	ldr	r6, [r2, #24]
10001500:	4230      	tst	r0, r6
10001502:	d1fc      	bne.n	100014fe <p2pPollMaster+0x8a2>
10001504:	200d      	movs	r0, #13
10001506:	6010      	str	r0, [r2, #0]
10001508:	e4f7      	b.n	10000efa <p2pPollMaster+0x29e>
1000150a:	2120      	movs	r1, #32
1000150c:	4acc      	ldr	r2, [pc, #816]	; (10001840 <p2pPollMaster+0xbe4>)
1000150e:	6990      	ldr	r0, [r2, #24]
10001510:	4201      	tst	r1, r0
10001512:	d1fc      	bne.n	1000150e <p2pPollMaster+0x8b2>
10001514:	210d      	movs	r1, #13
10001516:	6011      	str	r1, [r2, #0]
10001518:	e4de      	b.n	10000ed8 <p2pPollMaster+0x27c>
1000151a:	2120      	movs	r1, #32
1000151c:	4ac8      	ldr	r2, [pc, #800]	; (10001840 <p2pPollMaster+0xbe4>)
1000151e:	6990      	ldr	r0, [r2, #24]
10001520:	4201      	tst	r1, r0
10001522:	d1fc      	bne.n	1000151e <p2pPollMaster+0x8c2>
10001524:	210d      	movs	r1, #13
10001526:	6011      	str	r1, [r2, #0]
10001528:	e4c7      	b.n	10000eba <p2pPollMaster+0x25e>
1000152a:	882b      	ldrh	r3, [r5, #0]
1000152c:	2b00      	cmp	r3, #0
1000152e:	d100      	bne.n	10001532 <p2pPollMaster+0x8d6>
10001530:	e4ac      	b.n	10000e8c <p2pPollMaster+0x230>
10001532:	0033      	movs	r3, r6
10001534:	4646      	mov	r6, r8
10001536:	4698      	mov	r8, r3
10001538:	9b01      	ldr	r3, [sp, #4]
1000153a:	9a00      	ldr	r2, [sp, #0]
1000153c:	3323      	adds	r3, #35	; 0x23
1000153e:	33ff      	adds	r3, #255	; 0xff
10001540:	b29b      	uxth	r3, r3
10001542:	9303      	str	r3, [sp, #12]
10001544:	0a13      	lsrs	r3, r2, #8
10001546:	4073      	eors	r3, r6
10001548:	9902      	ldr	r1, [sp, #8]
1000154a:	005b      	lsls	r3, r3, #1
1000154c:	5ace      	ldrh	r6, [r1, r3]
1000154e:	0213      	lsls	r3, r2, #8
10001550:	b29b      	uxth	r3, r3
10001552:	405e      	eors	r6, r3
10001554:	4643      	mov	r3, r8
10001556:	8822      	ldrh	r2, [r4, #0]
10001558:	881b      	ldrh	r3, [r3, #0]
1000155a:	429a      	cmp	r2, r3
1000155c:	d100      	bne.n	10001560 <p2pPollMaster+0x904>
1000155e:	e128      	b.n	100017b2 <p2pPollMaster+0xb56>
10001560:	8822      	ldrh	r2, [r4, #0]
10001562:	1c53      	adds	r3, r2, #1
10001564:	b29b      	uxth	r3, r3
10001566:	8023      	strh	r3, [r4, #0]
10001568:	464b      	mov	r3, r9
1000156a:	5c9b      	ldrb	r3, [r3, r2]
1000156c:	8822      	ldrh	r2, [r4, #0]
1000156e:	469a      	mov	sl, r3
10001570:	703b      	strb	r3, [r7, #0]
10001572:	238c      	movs	r3, #140	; 0x8c
10001574:	009b      	lsls	r3, r3, #2
10001576:	429a      	cmp	r2, r3
10001578:	d100      	bne.n	1000157c <p2pPollMaster+0x920>
1000157a:	e177      	b.n	1000186c <p2pPollMaster+0xc10>
1000157c:	f7ff fae6 	bl	10000b4c <Watchdog>
10001580:	882b      	ldrh	r3, [r5, #0]
10001582:	2b00      	cmp	r3, #0
10001584:	d101      	bne.n	1000158a <p2pPollMaster+0x92e>
10001586:	f7ff fba9 	bl	10000cdc <p2pPollMaster+0x80>
1000158a:	4652      	mov	r2, sl
1000158c:	9b03      	ldr	r3, [sp, #12]
1000158e:	4453      	add	r3, sl
10001590:	b29b      	uxth	r3, r3
10001592:	9300      	str	r3, [sp, #0]
10001594:	0a33      	lsrs	r3, r6, #8
10001596:	4053      	eors	r3, r2
10001598:	9a02      	ldr	r2, [sp, #8]
1000159a:	005b      	lsls	r3, r3, #1
1000159c:	5ad2      	ldrh	r2, [r2, r3]
1000159e:	0233      	lsls	r3, r6, #8
100015a0:	b29b      	uxth	r3, r3
100015a2:	405a      	eors	r2, r3
100015a4:	4653      	mov	r3, sl
100015a6:	0016      	movs	r6, r2
100015a8:	2b00      	cmp	r3, #0
100015aa:	d000      	beq.n	100015ae <p2pPollMaster+0x952>
100015ac:	e123      	b.n	100017f6 <p2pPollMaster+0xb9a>
100015ae:	4ba5      	ldr	r3, [pc, #660]	; (10001844 <p2pPollMaster+0xbe8>)
100015b0:	4698      	mov	r8, r3
100015b2:	2301      	movs	r3, #1
100015b4:	4642      	mov	r2, r8
100015b6:	7013      	strb	r3, [r2, #0]
100015b8:	e002      	b.n	100015c0 <p2pPollMaster+0x964>
100015ba:	882b      	ldrh	r3, [r5, #0]
100015bc:	2b00      	cmp	r3, #0
100015be:	d004      	beq.n	100015ca <p2pPollMaster+0x96e>
100015c0:	0038      	movs	r0, r7
100015c2:	f7ff fb03 	bl	10000bcc <p2pRxByteMaster>
100015c6:	2801      	cmp	r0, #1
100015c8:	d1f7      	bne.n	100015ba <p2pPollMaster+0x95e>
100015ca:	882b      	ldrh	r3, [r5, #0]
100015cc:	2b00      	cmp	r3, #0
100015ce:	d101      	bne.n	100015d4 <p2pPollMaster+0x978>
100015d0:	f7ff fb84 	bl	10000cdc <p2pPollMaster+0x80>
100015d4:	783a      	ldrb	r2, [r7, #0]
100015d6:	4b9c      	ldr	r3, [pc, #624]	; (10001848 <p2pPollMaster+0xbec>)
100015d8:	9902      	ldr	r1, [sp, #8]
100015da:	9301      	str	r3, [sp, #4]
100015dc:	701a      	strb	r2, [r3, #0]
100015de:	9b00      	ldr	r3, [sp, #0]
100015e0:	189b      	adds	r3, r3, r2
100015e2:	b29b      	uxth	r3, r3
100015e4:	469a      	mov	sl, r3
100015e6:	0a33      	lsrs	r3, r6, #8
100015e8:	4053      	eors	r3, r2
100015ea:	005b      	lsls	r3, r3, #1
100015ec:	5ac9      	ldrh	r1, [r1, r3]
100015ee:	0233      	lsls	r3, r6, #8
100015f0:	b29b      	uxth	r3, r3
100015f2:	4059      	eors	r1, r3
100015f4:	000e      	movs	r6, r1
100015f6:	2a10      	cmp	r2, #16
100015f8:	d103      	bne.n	10001602 <p2pPollMaster+0x9a6>
100015fa:	e13f      	b.n	1000187c <p2pPollMaster+0xc20>
100015fc:	882b      	ldrh	r3, [r5, #0]
100015fe:	2b00      	cmp	r3, #0
10001600:	d004      	beq.n	1000160c <p2pPollMaster+0x9b0>
10001602:	0038      	movs	r0, r7
10001604:	f7ff fae2 	bl	10000bcc <p2pRxByteMaster>
10001608:	2801      	cmp	r0, #1
1000160a:	d1f7      	bne.n	100015fc <p2pPollMaster+0x9a0>
1000160c:	882b      	ldrh	r3, [r5, #0]
1000160e:	2b00      	cmp	r3, #0
10001610:	d101      	bne.n	10001616 <p2pPollMaster+0x9ba>
10001612:	f7ff fb63 	bl	10000cdc <p2pPollMaster+0x80>
10001616:	4653      	mov	r3, sl
10001618:	783a      	ldrb	r2, [r7, #0]
1000161a:	189b      	adds	r3, r3, r2
1000161c:	b29b      	uxth	r3, r3
1000161e:	469a      	mov	sl, r3
10001620:	0a33      	lsrs	r3, r6, #8
10001622:	4053      	eors	r3, r2
10001624:	9a02      	ldr	r2, [sp, #8]
10001626:	005b      	lsls	r3, r3, #1
10001628:	5ad2      	ldrh	r2, [r2, r3]
1000162a:	0233      	lsls	r3, r6, #8
1000162c:	b29b      	uxth	r3, r3
1000162e:	405a      	eors	r2, r3
10001630:	0016      	movs	r6, r2
10001632:	e002      	b.n	1000163a <p2pPollMaster+0x9de>
10001634:	882b      	ldrh	r3, [r5, #0]
10001636:	2b00      	cmp	r3, #0
10001638:	d004      	beq.n	10001644 <p2pPollMaster+0x9e8>
1000163a:	0038      	movs	r0, r7
1000163c:	f7ff fac6 	bl	10000bcc <p2pRxByteMaster>
10001640:	2801      	cmp	r0, #1
10001642:	d1f7      	bne.n	10001634 <p2pPollMaster+0x9d8>
10001644:	882b      	ldrh	r3, [r5, #0]
10001646:	2b00      	cmp	r3, #0
10001648:	d101      	bne.n	1000164e <p2pPollMaster+0x9f2>
1000164a:	f7ff fb47 	bl	10000cdc <p2pPollMaster+0x80>
1000164e:	4653      	mov	r3, sl
10001650:	783a      	ldrb	r2, [r7, #0]
10001652:	189b      	adds	r3, r3, r2
10001654:	b29b      	uxth	r3, r3
10001656:	469a      	mov	sl, r3
10001658:	0a33      	lsrs	r3, r6, #8
1000165a:	4053      	eors	r3, r2
1000165c:	9a02      	ldr	r2, [sp, #8]
1000165e:	005b      	lsls	r3, r3, #1
10001660:	5ad3      	ldrh	r3, [r2, r3]
10001662:	0236      	lsls	r6, r6, #8
10001664:	b2b6      	uxth	r6, r6
10001666:	4073      	eors	r3, r6
10001668:	9300      	str	r3, [sp, #0]
1000166a:	e002      	b.n	10001672 <p2pPollMaster+0xa16>
1000166c:	882b      	ldrh	r3, [r5, #0]
1000166e:	2b00      	cmp	r3, #0
10001670:	d004      	beq.n	1000167c <p2pPollMaster+0xa20>
10001672:	0038      	movs	r0, r7
10001674:	f7ff faaa 	bl	10000bcc <p2pRxByteMaster>
10001678:	2801      	cmp	r0, #1
1000167a:	d1f7      	bne.n	1000166c <p2pPollMaster+0xa10>
1000167c:	882b      	ldrh	r3, [r5, #0]
1000167e:	2b00      	cmp	r3, #0
10001680:	d101      	bne.n	10001686 <p2pPollMaster+0xa2a>
10001682:	f7ff fb2b 	bl	10000cdc <p2pPollMaster+0x80>
10001686:	783e      	ldrb	r6, [r7, #0]
10001688:	e002      	b.n	10001690 <p2pPollMaster+0xa34>
1000168a:	882b      	ldrh	r3, [r5, #0]
1000168c:	2b00      	cmp	r3, #0
1000168e:	d004      	beq.n	1000169a <p2pPollMaster+0xa3e>
10001690:	0038      	movs	r0, r7
10001692:	f7ff fa9b 	bl	10000bcc <p2pRxByteMaster>
10001696:	2801      	cmp	r0, #1
10001698:	d1f7      	bne.n	1000168a <p2pPollMaster+0xa2e>
1000169a:	882b      	ldrh	r3, [r5, #0]
1000169c:	2b00      	cmp	r3, #0
1000169e:	d101      	bne.n	100016a4 <p2pPollMaster+0xa48>
100016a0:	f7ff fb1c 	bl	10000cdc <p2pPollMaster+0x80>
100016a4:	783a      	ldrb	r2, [r7, #0]
100016a6:	0233      	lsls	r3, r6, #8
100016a8:	189b      	adds	r3, r3, r2
100016aa:	b29b      	uxth	r3, r3
100016ac:	459a      	cmp	sl, r3
100016ae:	d100      	bne.n	100016b2 <p2pPollMaster+0xa56>
100016b0:	e13f      	b.n	10001932 <p2pPollMaster+0xcd6>
100016b2:	9a00      	ldr	r2, [sp, #0]
100016b4:	2602      	movs	r6, #2
100016b6:	429a      	cmp	r2, r3
100016b8:	d009      	beq.n	100016ce <p2pPollMaster+0xa72>
100016ba:	2010      	movs	r0, #16
100016bc:	f7ff fa4a 	bl	10000b54 <p2pTxByteMaster>
100016c0:	2019      	movs	r0, #25
100016c2:	f7ff fa47 	bl	10000b54 <p2pTxByteMaster>
100016c6:	2006      	movs	r0, #6
100016c8:	f7ff fa44 	bl	10000b54 <p2pTxByteMaster>
100016cc:	2600      	movs	r6, #0
100016ce:	200a      	movs	r0, #10
100016d0:	f003 fcda 	bl	10005088 <sleep_ms>
100016d4:	465b      	mov	r3, fp
100016d6:	781b      	ldrb	r3, [r3, #0]
100016d8:	2b00      	cmp	r3, #0
100016da:	d008      	beq.n	100016ee <p2pPollMaster+0xa92>
100016dc:	4648      	mov	r0, r9
100016de:	495b      	ldr	r1, [pc, #364]	; (1000184c <p2pPollMaster+0xbf0>)
100016e0:	4a5b      	ldr	r2, [pc, #364]	; (10001850 <p2pPollMaster+0xbf4>)
100016e2:	f007 fd89 	bl	100091f8 <memmove>
100016e6:	8823      	ldrh	r3, [r4, #0]
100016e8:	3b03      	subs	r3, #3
100016ea:	b29b      	uxth	r3, r3
100016ec:	8023      	strh	r3, [r4, #0]
100016ee:	2300      	movs	r3, #0
100016f0:	4f58      	ldr	r7, [pc, #352]	; (10001854 <p2pPollMaster+0xbf8>)
100016f2:	803b      	strh	r3, [r7, #0]
100016f4:	4643      	mov	r3, r8
100016f6:	781b      	ldrb	r3, [r3, #0]
100016f8:	b2da      	uxtb	r2, r3
100016fa:	2b00      	cmp	r3, #0
100016fc:	d100      	bne.n	10001700 <p2pPollMaster+0xaa4>
100016fe:	e142      	b.n	10001986 <p2pPollMaster+0xd2a>
10001700:	9b01      	ldr	r3, [sp, #4]
10001702:	781b      	ldrb	r3, [r3, #0]
10001704:	2bfd      	cmp	r3, #253	; 0xfd
10001706:	d001      	beq.n	1000170c <p2pPollMaster+0xab0>
10001708:	f7ff fae8 	bl	10000cdc <p2pPollMaster+0x80>
1000170c:	2010      	movs	r0, #16
1000170e:	f7ff fa21 	bl	10000b54 <p2pTxByteMaster>
10001712:	2e01      	cmp	r6, #1
10001714:	d100      	bne.n	10001718 <p2pPollMaster+0xabc>
10001716:	e10e      	b.n	10001936 <p2pPollMaster+0xcda>
10001718:	4b4f      	ldr	r3, [pc, #316]	; (10001858 <p2pPollMaster+0xbfc>)
1000171a:	201a      	movs	r0, #26
1000171c:	803b      	strh	r3, [r7, #0]
1000171e:	f7ff fa19 	bl	10000b54 <p2pTxByteMaster>
10001722:	4b4e      	ldr	r3, [pc, #312]	; (1000185c <p2pPollMaster+0xc00>)
10001724:	2002      	movs	r0, #2
10001726:	803b      	strh	r3, [r7, #0]
10001728:	f7ff fa14 	bl	10000b54 <p2pTxByteMaster>
1000172c:	4b4c      	ldr	r3, [pc, #304]	; (10001860 <p2pPollMaster+0xc04>)
1000172e:	249e      	movs	r4, #158	; 0x9e
10001730:	803b      	strh	r3, [r7, #0]
10001732:	4b4c      	ldr	r3, [pc, #304]	; (10001864 <p2pPollMaster+0xc08>)
10001734:	01e4      	lsls	r4, r4, #7
10001736:	881e      	ldrh	r6, [r3, #0]
10001738:	b2f0      	uxtb	r0, r6
1000173a:	f7ff fa0b 	bl	10000b54 <p2pTxByteMaster>
1000173e:	23dd      	movs	r3, #221	; 0xdd
10001740:	0a30      	lsrs	r0, r6, #8
10001742:	9a02      	ldr	r2, [sp, #8]
10001744:	4043      	eors	r3, r0
10001746:	005b      	lsls	r3, r3, #1
10001748:	5ad3      	ldrh	r3, [r2, r3]
1000174a:	b2c0      	uxtb	r0, r0
1000174c:	405c      	eors	r4, r3
1000174e:	803c      	strh	r4, [r7, #0]
10001750:	b2f6      	uxtb	r6, r6
10001752:	f7ff f9ff 	bl	10000b54 <p2pTxByteMaster>
10001756:	0a23      	lsrs	r3, r4, #8
10001758:	4073      	eors	r3, r6
1000175a:	9e02      	ldr	r6, [sp, #8]
1000175c:	005b      	lsls	r3, r3, #1
1000175e:	5af3      	ldrh	r3, [r6, r3]
10001760:	0224      	lsls	r4, r4, #8
10001762:	405c      	eors	r4, r3
10001764:	b2a4      	uxth	r4, r4
10001766:	2010      	movs	r0, #16
10001768:	803c      	strh	r4, [r7, #0]
1000176a:	f7ff f9f3 	bl	10000b54 <p2pTxByteMaster>
1000176e:	2310      	movs	r3, #16
10001770:	0a22      	lsrs	r2, r4, #8
10001772:	4053      	eors	r3, r2
10001774:	005b      	lsls	r3, r3, #1
10001776:	5af3      	ldrh	r3, [r6, r3]
10001778:	0224      	lsls	r4, r4, #8
1000177a:	405c      	eors	r4, r3
1000177c:	b2a4      	uxth	r4, r4
1000177e:	201f      	movs	r0, #31
10001780:	803c      	strh	r4, [r7, #0]
10001782:	f7ff f9e7 	bl	10000b54 <p2pTxByteMaster>
10001786:	221f      	movs	r2, #31
10001788:	0a23      	lsrs	r3, r4, #8
1000178a:	405a      	eors	r2, r3
1000178c:	0052      	lsls	r2, r2, #1
1000178e:	0223      	lsls	r3, r4, #8
10001790:	5ab4      	ldrh	r4, [r6, r2]
10001792:	405c      	eors	r4, r3
10001794:	b2a4      	uxth	r4, r4
10001796:	0a20      	lsrs	r0, r4, #8
10001798:	803c      	strh	r4, [r7, #0]
1000179a:	f7ff f9db 	bl	10000b54 <p2pTxByteMaster>
1000179e:	b2e0      	uxtb	r0, r4
100017a0:	f7ff f9d8 	bl	10000b54 <p2pTxByteMaster>
100017a4:	2300      	movs	r3, #0
100017a6:	4642      	mov	r2, r8
100017a8:	7013      	strb	r3, [r2, #0]
100017aa:	9a01      	ldr	r2, [sp, #4]
100017ac:	7013      	strb	r3, [r2, #0]
100017ae:	f7ff fa95 	bl	10000cdc <p2pPollMaster+0x80>
100017b2:	f7ff f9cb 	bl	10000b4c <Watchdog>
100017b6:	882b      	ldrh	r3, [r5, #0]
100017b8:	b29a      	uxth	r2, r3
100017ba:	2b00      	cmp	r3, #0
100017bc:	d000      	beq.n	100017c0 <p2pPollMaster+0xb64>
100017be:	e6c9      	b.n	10001554 <p2pPollMaster+0x8f8>
100017c0:	882b      	ldrh	r3, [r5, #0]
100017c2:	2b00      	cmp	r3, #0
100017c4:	d101      	bne.n	100017ca <p2pPollMaster+0xb6e>
100017c6:	f7ff fa89 	bl	10000cdc <p2pPollMaster+0x80>
100017ca:	4927      	ldr	r1, [pc, #156]	; (10001868 <p2pPollMaster+0xc0c>)
100017cc:	9b01      	ldr	r3, [sp, #4]
100017ce:	468c      	mov	ip, r1
100017d0:	4463      	add	r3, ip
100017d2:	b29b      	uxth	r3, r3
100017d4:	9300      	str	r3, [sp, #0]
100017d6:	23ff      	movs	r3, #255	; 0xff
100017d8:	0a31      	lsrs	r1, r6, #8
100017da:	404b      	eors	r3, r1
100017dc:	9902      	ldr	r1, [sp, #8]
100017de:	005b      	lsls	r3, r3, #1
100017e0:	5acb      	ldrh	r3, [r1, r3]
100017e2:	0236      	lsls	r6, r6, #8
100017e4:	b2b6      	uxth	r6, r6
100017e6:	405e      	eors	r6, r3
100017e8:	4b16      	ldr	r3, [pc, #88]	; (10001844 <p2pPollMaster+0xbe8>)
100017ea:	20fe      	movs	r0, #254	; 0xfe
100017ec:	4698      	mov	r8, r3
100017ee:	701a      	strb	r2, [r3, #0]
100017f0:	f001 faf4 	bl	10002ddc <MUX_Set>
100017f4:	e6e4      	b.n	100015c0 <p2pPollMaster+0x964>
100017f6:	4b13      	ldr	r3, [pc, #76]	; (10001844 <p2pPollMaster+0xbe8>)
100017f8:	4698      	mov	r8, r3
100017fa:	2300      	movs	r3, #0
100017fc:	4642      	mov	r2, r8
100017fe:	7013      	strb	r3, [r2, #0]
10001800:	4653      	mov	r3, sl
10001802:	1e58      	subs	r0, r3, #1
10001804:	b2c0      	uxtb	r0, r0
10001806:	f001 fae9 	bl	10002ddc <MUX_Set>
1000180a:	4653      	mov	r3, sl
1000180c:	2b10      	cmp	r3, #16
1000180e:	d003      	beq.n	10001818 <p2pPollMaster+0xbbc>
10001810:	e6d6      	b.n	100015c0 <p2pPollMaster+0x964>
10001812:	882b      	ldrh	r3, [r5, #0]
10001814:	2b00      	cmp	r3, #0
10001816:	d004      	beq.n	10001822 <p2pPollMaster+0xbc6>
10001818:	0038      	movs	r0, r7
1000181a:	f7ff f9d7 	bl	10000bcc <p2pRxByteMaster>
1000181e:	2801      	cmp	r0, #1
10001820:	d1f7      	bne.n	10001812 <p2pPollMaster+0xbb6>
10001822:	783a      	ldrb	r2, [r7, #0]
10001824:	9b00      	ldr	r3, [sp, #0]
10001826:	189b      	adds	r3, r3, r2
10001828:	b29b      	uxth	r3, r3
1000182a:	9300      	str	r3, [sp, #0]
1000182c:	0a33      	lsrs	r3, r6, #8
1000182e:	4053      	eors	r3, r2
10001830:	9a02      	ldr	r2, [sp, #8]
10001832:	005b      	lsls	r3, r3, #1
10001834:	5ad3      	ldrh	r3, [r2, r3]
10001836:	0236      	lsls	r6, r6, #8
10001838:	b2b6      	uxth	r6, r6
1000183a:	405e      	eors	r6, r3
1000183c:	e6c0      	b.n	100015c0 <p2pPollMaster+0x964>
1000183e:	46c0      	nop			; (mov r8, r8)
10001840:	40038000 	.word	0x40038000
10001844:	200021a3 	.word	0x200021a3
10001848:	200021a9 	.word	0x200021a9
1000184c:	20000ee3 	.word	0x20000ee3
10001850:	0000022d 	.word	0x0000022d
10001854:	20002184 	.word	0x20002184
10001858:	ffff8063 	.word	0xffff8063
1000185c:	0000605c 	.word	0x0000605c
10001860:	ffffdd4f 	.word	0xffffdd4f
10001864:	20002192 	.word	0x20002192
10001868:	00000221 	.word	0x00000221
1000186c:	2300      	movs	r3, #0
1000186e:	8023      	strh	r3, [r4, #0]
10001870:	f7ff f96c 	bl	10000b4c <Watchdog>
10001874:	e684      	b.n	10001580 <p2pPollMaster+0x924>
10001876:	882b      	ldrh	r3, [r5, #0]
10001878:	2b00      	cmp	r3, #0
1000187a:	d004      	beq.n	10001886 <p2pPollMaster+0xc2a>
1000187c:	0038      	movs	r0, r7
1000187e:	f7ff f9a5 	bl	10000bcc <p2pRxByteMaster>
10001882:	2801      	cmp	r0, #1
10001884:	d1f7      	bne.n	10001876 <p2pPollMaster+0xc1a>
10001886:	4653      	mov	r3, sl
10001888:	783a      	ldrb	r2, [r7, #0]
1000188a:	189b      	adds	r3, r3, r2
1000188c:	b29b      	uxth	r3, r3
1000188e:	469a      	mov	sl, r3
10001890:	0a33      	lsrs	r3, r6, #8
10001892:	4053      	eors	r3, r2
10001894:	9a02      	ldr	r2, [sp, #8]
10001896:	005b      	lsls	r3, r3, #1
10001898:	5ad3      	ldrh	r3, [r2, r3]
1000189a:	0236      	lsls	r6, r6, #8
1000189c:	b2b6      	uxth	r6, r6
1000189e:	405e      	eors	r6, r3
100018a0:	e6af      	b.n	10001602 <p2pPollMaster+0x9a6>
100018a2:	2120      	movs	r1, #32
100018a4:	4a52      	ldr	r2, [pc, #328]	; (100019f0 <p2pPollMaster+0xd94>)
100018a6:	6990      	ldr	r0, [r2, #24]
100018a8:	4201      	tst	r1, r0
100018aa:	d1fc      	bne.n	100018a6 <p2pPollMaster+0xc4a>
100018ac:	210d      	movs	r1, #13
100018ae:	6011      	str	r1, [r2, #0]
100018b0:	f7ff fba2 	bl	10000ff8 <p2pPollMaster+0x39c>
100018b4:	2120      	movs	r1, #32
100018b6:	4a4e      	ldr	r2, [pc, #312]	; (100019f0 <p2pPollMaster+0xd94>)
100018b8:	6990      	ldr	r0, [r2, #24]
100018ba:	4201      	tst	r1, r0
100018bc:	d1fc      	bne.n	100018b8 <p2pPollMaster+0xc5c>
100018be:	210d      	movs	r1, #13
100018c0:	6011      	str	r1, [r2, #0]
100018c2:	f7ff fb59 	bl	10000f78 <p2pPollMaster+0x31c>
100018c6:	2120      	movs	r1, #32
100018c8:	4a49      	ldr	r2, [pc, #292]	; (100019f0 <p2pPollMaster+0xd94>)
100018ca:	6990      	ldr	r0, [r2, #24]
100018cc:	4201      	tst	r1, r0
100018ce:	d1fc      	bne.n	100018ca <p2pPollMaster+0xc6e>
100018d0:	210d      	movs	r1, #13
100018d2:	6011      	str	r1, [r2, #0]
100018d4:	f7ff fb70 	bl	10000fb8 <p2pPollMaster+0x35c>
100018d8:	2120      	movs	r1, #32
100018da:	4a45      	ldr	r2, [pc, #276]	; (100019f0 <p2pPollMaster+0xd94>)
100018dc:	6990      	ldr	r0, [r2, #24]
100018de:	4201      	tst	r1, r0
100018e0:	d1fc      	bne.n	100018dc <p2pPollMaster+0xc80>
100018e2:	210d      	movs	r1, #13
100018e4:	6011      	str	r1, [r2, #0]
100018e6:	f7ff fb27 	bl	10000f38 <p2pPollMaster+0x2dc>
100018ea:	2120      	movs	r1, #32
100018ec:	4a40      	ldr	r2, [pc, #256]	; (100019f0 <p2pPollMaster+0xd94>)
100018ee:	6990      	ldr	r0, [r2, #24]
100018f0:	4201      	tst	r1, r0
100018f2:	d1fc      	bne.n	100018ee <p2pPollMaster+0xc92>
100018f4:	210d      	movs	r1, #13
100018f6:	6011      	str	r1, [r2, #0]
100018f8:	f7ff fb6e 	bl	10000fd8 <p2pPollMaster+0x37c>
100018fc:	2120      	movs	r1, #32
100018fe:	4a3c      	ldr	r2, [pc, #240]	; (100019f0 <p2pPollMaster+0xd94>)
10001900:	6990      	ldr	r0, [r2, #24]
10001902:	4201      	tst	r1, r0
10001904:	d1fc      	bne.n	10001900 <p2pPollMaster+0xca4>
10001906:	210d      	movs	r1, #13
10001908:	6011      	str	r1, [r2, #0]
1000190a:	f7ff fb25 	bl	10000f58 <p2pPollMaster+0x2fc>
1000190e:	2120      	movs	r1, #32
10001910:	4a37      	ldr	r2, [pc, #220]	; (100019f0 <p2pPollMaster+0xd94>)
10001912:	6990      	ldr	r0, [r2, #24]
10001914:	4201      	tst	r1, r0
10001916:	d1fc      	bne.n	10001912 <p2pPollMaster+0xcb6>
10001918:	210d      	movs	r1, #13
1000191a:	6011      	str	r1, [r2, #0]
1000191c:	f7ff fb3c 	bl	10000f98 <p2pPollMaster+0x33c>
10001920:	2120      	movs	r1, #32
10001922:	4a33      	ldr	r2, [pc, #204]	; (100019f0 <p2pPollMaster+0xd94>)
10001924:	6990      	ldr	r0, [r2, #24]
10001926:	4201      	tst	r1, r0
10001928:	d1fc      	bne.n	10001924 <p2pPollMaster+0xcc8>
1000192a:	210d      	movs	r1, #13
1000192c:	6011      	str	r1, [r2, #0]
1000192e:	f7ff faf3 	bl	10000f18 <p2pPollMaster+0x2bc>
10001932:	2601      	movs	r6, #1
10001934:	e6cb      	b.n	100016ce <p2pPollMaster+0xa72>
10001936:	360f      	adds	r6, #15
10001938:	201a      	movs	r0, #26
1000193a:	803e      	strh	r6, [r7, #0]
1000193c:	f7ff f90a 	bl	10000b54 <p2pTxByteMaster>
10001940:	232a      	movs	r3, #42	; 0x2a
10001942:	2002      	movs	r0, #2
10001944:	803b      	strh	r3, [r7, #0]
10001946:	f7ff f905 	bl	10000b54 <p2pTxByteMaster>
1000194a:	232c      	movs	r3, #44	; 0x2c
1000194c:	803b      	strh	r3, [r7, #0]
1000194e:	4b29      	ldr	r3, [pc, #164]	; (100019f4 <p2pPollMaster+0xd98>)
10001950:	881b      	ldrh	r3, [r3, #0]
10001952:	4699      	mov	r9, r3
10001954:	b2d8      	uxtb	r0, r3
10001956:	f7ff f8fd 	bl	10000b54 <p2pTxByteMaster>
1000195a:	464b      	mov	r3, r9
1000195c:	0a18      	lsrs	r0, r3, #8
1000195e:	0004      	movs	r4, r0
10001960:	b2c0      	uxtb	r0, r0
10001962:	342c      	adds	r4, #44	; 0x2c
10001964:	803c      	strh	r4, [r7, #0]
10001966:	f7ff f8f5 	bl	10000b54 <p2pTxByteMaster>
1000196a:	464b      	mov	r3, r9
1000196c:	b2db      	uxtb	r3, r3
1000196e:	18e4      	adds	r4, r4, r3
10001970:	0030      	movs	r0, r6
10001972:	803c      	strh	r4, [r7, #0]
10001974:	f7ff f8ee 	bl	10000b54 <p2pTxByteMaster>
10001978:	19a3      	adds	r3, r4, r6
1000197a:	201f      	movs	r0, #31
1000197c:	803b      	strh	r3, [r7, #0]
1000197e:	342f      	adds	r4, #47	; 0x2f
10001980:	f7ff f8e8 	bl	10000b54 <p2pTxByteMaster>
10001984:	e707      	b.n	10001796 <p2pPollMaster+0xb3a>
10001986:	4690      	mov	r8, r2
10001988:	464b      	mov	r3, r9
1000198a:	0022      	movs	r2, r4
1000198c:	46a9      	mov	r9, r5
1000198e:	4644      	mov	r4, r8
10001990:	001d      	movs	r5, r3
10001992:	4690      	mov	r8, r2
10001994:	e018      	b.n	100019c8 <p2pPollMaster+0xd6c>
10001996:	1ea3      	subs	r3, r4, #2
10001998:	2b01      	cmp	r3, #1
1000199a:	d913      	bls.n	100019c4 <p2pPollMaster+0xd68>
1000199c:	2c04      	cmp	r4, #4
1000199e:	d102      	bne.n	100019a6 <p2pPollMaster+0xd4a>
100019a0:	78eb      	ldrb	r3, [r5, #3]
100019a2:	2b10      	cmp	r3, #16
100019a4:	d00e      	beq.n	100019c4 <p2pPollMaster+0xd68>
100019a6:	5d28      	ldrb	r0, [r5, r4]
100019a8:	f7ff f8f2 	bl	10000b90 <p2pTxByteSlave>
100019ac:	2e01      	cmp	r6, #1
100019ae:	d01a      	beq.n	100019e6 <p2pPollMaster+0xd8a>
100019b0:	883a      	ldrh	r2, [r7, #0]
100019b2:	5d29      	ldrb	r1, [r5, r4]
100019b4:	0a13      	lsrs	r3, r2, #8
100019b6:	404b      	eors	r3, r1
100019b8:	9902      	ldr	r1, [sp, #8]
100019ba:	005b      	lsls	r3, r3, #1
100019bc:	5acb      	ldrh	r3, [r1, r3]
100019be:	0212      	lsls	r2, r2, #8
100019c0:	4053      	eors	r3, r2
100019c2:	803b      	strh	r3, [r7, #0]
100019c4:	3401      	adds	r4, #1
100019c6:	b2a4      	uxth	r4, r4
100019c8:	4643      	mov	r3, r8
100019ca:	881b      	ldrh	r3, [r3, #0]
100019cc:	3b02      	subs	r3, #2
100019ce:	429c      	cmp	r4, r3
100019d0:	dbe1      	blt.n	10001996 <p2pPollMaster+0xd3a>
100019d2:	883c      	ldrh	r4, [r7, #0]
100019d4:	464d      	mov	r5, r9
100019d6:	0a20      	lsrs	r0, r4, #8
100019d8:	f7ff f8da 	bl	10000b90 <p2pTxByteSlave>
100019dc:	b2e0      	uxtb	r0, r4
100019de:	f7ff f8d7 	bl	10000b90 <p2pTxByteSlave>
100019e2:	f7ff f97b 	bl	10000cdc <p2pPollMaster+0x80>
100019e6:	883a      	ldrh	r2, [r7, #0]
100019e8:	5d2b      	ldrb	r3, [r5, r4]
100019ea:	189b      	adds	r3, r3, r2
100019ec:	803b      	strh	r3, [r7, #0]
100019ee:	e7e9      	b.n	100019c4 <p2pPollMaster+0xd68>
100019f0:	40038000 	.word	0x40038000
100019f4:	20002192 	.word	0x20002192

100019f8 <p2pPollSlaveRead>:
100019f8:	b5f0      	push	{r4, r5, r6, r7, lr}
100019fa:	4645      	mov	r5, r8
100019fc:	46de      	mov	lr, fp
100019fe:	4657      	mov	r7, sl
10001a00:	464e      	mov	r6, r9
10001a02:	b5e0      	push	{r5, r6, r7, lr}
10001a04:	4db5      	ldr	r5, [pc, #724]	; (10001cdc <p2pPollSlaveRead+0x2e4>)
10001a06:	b083      	sub	sp, #12
10001a08:	882b      	ldrh	r3, [r5, #0]
10001a0a:	2b00      	cmp	r3, #0
10001a0c:	d100      	bne.n	10001a10 <p2pPollSlaveRead+0x18>
10001a0e:	e27e      	b.n	10001f0e <p2pPollSlaveRead+0x516>
10001a10:	238c      	movs	r3, #140	; 0x8c
10001a12:	009b      	lsls	r3, r3, #2
10001a14:	4699      	mov	r9, r3
10001a16:	2300      	movs	r3, #0
10001a18:	4cb1      	ldr	r4, [pc, #708]	; (10001ce0 <p2pPollSlaveRead+0x2e8>)
10001a1a:	469a      	mov	sl, r3
10001a1c:	4eb1      	ldr	r6, [pc, #708]	; (10001ce4 <p2pPollSlaveRead+0x2ec>)
10001a1e:	4fb2      	ldr	r7, [pc, #712]	; (10001ce8 <p2pPollSlaveRead+0x2f0>)
10001a20:	e011      	b.n	10001a46 <p2pPollSlaveRead+0x4e>
10001a22:	8822      	ldrh	r2, [r4, #0]
10001a24:	1c53      	adds	r3, r2, #1
10001a26:	b29b      	uxth	r3, r3
10001a28:	8023      	strh	r3, [r4, #0]
10001a2a:	5cbb      	ldrb	r3, [r7, r2]
10001a2c:	4698      	mov	r8, r3
10001a2e:	8823      	ldrh	r3, [r4, #0]
10001a30:	454b      	cmp	r3, r9
10001a32:	d100      	bne.n	10001a36 <p2pPollSlaveRead+0x3e>
10001a34:	e090      	b.n	10001b58 <p2pPollSlaveRead+0x160>
10001a36:	f7ff f889 	bl	10000b4c <Watchdog>
10001a3a:	4643      	mov	r3, r8
10001a3c:	2b10      	cmp	r3, #16
10001a3e:	d030      	beq.n	10001aa2 <p2pPollSlaveRead+0xaa>
10001a40:	882b      	ldrh	r3, [r5, #0]
10001a42:	2b00      	cmp	r3, #0
10001a44:	d008      	beq.n	10001a58 <p2pPollSlaveRead+0x60>
10001a46:	8822      	ldrh	r2, [r4, #0]
10001a48:	8833      	ldrh	r3, [r6, #0]
10001a4a:	429a      	cmp	r2, r3
10001a4c:	d1e9      	bne.n	10001a22 <p2pPollSlaveRead+0x2a>
10001a4e:	f7ff f87d 	bl	10000b4c <Watchdog>
10001a52:	882b      	ldrh	r3, [r5, #0]
10001a54:	2b00      	cmp	r3, #0
10001a56:	d1f6      	bne.n	10001a46 <p2pPollSlaveRead+0x4e>
10001a58:	882b      	ldrh	r3, [r5, #0]
10001a5a:	2b00      	cmp	r3, #0
10001a5c:	d100      	bne.n	10001a60 <p2pPollSlaveRead+0x68>
10001a5e:	e0de      	b.n	10001c1e <p2pPollSlaveRead+0x226>
10001a60:	228c      	movs	r2, #140	; 0x8c
10001a62:	2400      	movs	r4, #0
10001a64:	2100      	movs	r1, #0
10001a66:	0092      	lsls	r2, r2, #2
10001a68:	48a0      	ldr	r0, [pc, #640]	; (10001cec <p2pPollSlaveRead+0x2f4>)
10001a6a:	f004 fed9 	bl	10006820 <__wrap_memset>
10001a6e:	228c      	movs	r2, #140	; 0x8c
10001a70:	4b9f      	ldr	r3, [pc, #636]	; (10001cf0 <p2pPollSlaveRead+0x2f8>)
10001a72:	2100      	movs	r1, #0
10001a74:	801c      	strh	r4, [r3, #0]
10001a76:	4b9f      	ldr	r3, [pc, #636]	; (10001cf4 <p2pPollSlaveRead+0x2fc>)
10001a78:	0038      	movs	r0, r7
10001a7a:	0092      	lsls	r2, r2, #2
10001a7c:	801c      	strh	r4, [r3, #0]
10001a7e:	f004 fecf 	bl	10006820 <__wrap_memset>
10001a82:	8034      	strh	r4, [r6, #0]
10001a84:	8034      	strh	r4, [r6, #0]
10001a86:	8828      	ldrh	r0, [r5, #0]
10001a88:	b280      	uxth	r0, r0
10001a8a:	b003      	add	sp, #12
10001a8c:	bcf0      	pop	{r4, r5, r6, r7}
10001a8e:	46bb      	mov	fp, r7
10001a90:	46b2      	mov	sl, r6
10001a92:	46a9      	mov	r9, r5
10001a94:	46a0      	mov	r8, r4
10001a96:	bdf0      	pop	{r4, r5, r6, r7, pc}
10001a98:	f7ff f858 	bl	10000b4c <Watchdog>
10001a9c:	882b      	ldrh	r3, [r5, #0]
10001a9e:	2b00      	cmp	r3, #0
10001aa0:	d0ce      	beq.n	10001a40 <p2pPollSlaveRead+0x48>
10001aa2:	8822      	ldrh	r2, [r4, #0]
10001aa4:	8833      	ldrh	r3, [r6, #0]
10001aa6:	429a      	cmp	r2, r3
10001aa8:	d0f6      	beq.n	10001a98 <p2pPollSlaveRead+0xa0>
10001aaa:	8822      	ldrh	r2, [r4, #0]
10001aac:	1c53      	adds	r3, r2, #1
10001aae:	b29b      	uxth	r3, r3
10001ab0:	8023      	strh	r3, [r4, #0]
10001ab2:	5cbb      	ldrb	r3, [r7, r2]
10001ab4:	4698      	mov	r8, r3
10001ab6:	8823      	ldrh	r3, [r4, #0]
10001ab8:	454b      	cmp	r3, r9
10001aba:	d052      	beq.n	10001b62 <p2pPollSlaveRead+0x16a>
10001abc:	f7ff f846 	bl	10000b4c <Watchdog>
10001ac0:	4643      	mov	r3, r8
10001ac2:	2b1a      	cmp	r3, #26
10001ac4:	d058      	beq.n	10001b78 <p2pPollSlaveRead+0x180>
10001ac6:	2b19      	cmp	r3, #25
10001ac8:	d1ba      	bne.n	10001a40 <p2pPollSlaveRead+0x48>
10001aca:	8822      	ldrh	r2, [r4, #0]
10001acc:	8833      	ldrh	r3, [r6, #0]
10001ace:	429a      	cmp	r2, r3
10001ad0:	d100      	bne.n	10001ad4 <p2pPollSlaveRead+0xdc>
10001ad2:	e09b      	b.n	10001c0c <p2pPollSlaveRead+0x214>
10001ad4:	8822      	ldrh	r2, [r4, #0]
10001ad6:	1c53      	adds	r3, r2, #1
10001ad8:	b29b      	uxth	r3, r3
10001ada:	8023      	strh	r3, [r4, #0]
10001adc:	5cbb      	ldrb	r3, [r7, r2]
10001ade:	8822      	ldrh	r2, [r4, #0]
10001ae0:	4698      	mov	r8, r3
10001ae2:	238c      	movs	r3, #140	; 0x8c
10001ae4:	009b      	lsls	r3, r3, #2
10001ae6:	429a      	cmp	r2, r3
10001ae8:	d100      	bne.n	10001aec <p2pPollSlaveRead+0xf4>
10001aea:	e112      	b.n	10001d12 <p2pPollSlaveRead+0x31a>
10001aec:	f7ff f82e 	bl	10000b4c <Watchdog>
10001af0:	4643      	mov	r3, r8
10001af2:	4640      	mov	r0, r8
10001af4:	2108      	movs	r1, #8
10001af6:	4c80      	ldr	r4, [pc, #512]	; (10001cf8 <p2pPollSlaveRead+0x300>)
10001af8:	69a2      	ldr	r2, [r4, #24]
10001afa:	4211      	tst	r1, r2
10001afc:	d1fc      	bne.n	10001af8 <p2pPollSlaveRead+0x100>
10001afe:	4a7f      	ldr	r2, [pc, #508]	; (10001cfc <p2pPollSlaveRead+0x304>)
10001b00:	2102      	movs	r1, #2
10001b02:	5e52      	ldrsh	r2, [r2, r1]
10001b04:	4694      	mov	ip, r2
10001b06:	2a10      	cmp	r2, #16
10001b08:	d100      	bne.n	10001b0c <p2pPollSlaveRead+0x114>
10001b0a:	e232      	b.n	10001f72 <p2pPollSlaveRead+0x57a>
10001b0c:	2420      	movs	r4, #32
10001b0e:	497a      	ldr	r1, [pc, #488]	; (10001cf8 <p2pPollSlaveRead+0x300>)
10001b10:	698a      	ldr	r2, [r1, #24]
10001b12:	4214      	tst	r4, r2
10001b14:	d1fc      	bne.n	10001b10 <p2pPollSlaveRead+0x118>
10001b16:	2210      	movs	r2, #16
10001b18:	600a      	str	r2, [r1, #0]
10001b1a:	2108      	movs	r1, #8
10001b1c:	4c76      	ldr	r4, [pc, #472]	; (10001cf8 <p2pPollSlaveRead+0x300>)
10001b1e:	69a2      	ldr	r2, [r4, #24]
10001b20:	4211      	tst	r1, r2
10001b22:	d1fc      	bne.n	10001b1e <p2pPollSlaveRead+0x126>
10001b24:	4662      	mov	r2, ip
10001b26:	2a19      	cmp	r2, #25
10001b28:	d100      	bne.n	10001b2c <p2pPollSlaveRead+0x134>
10001b2a:	e232      	b.n	10001f92 <p2pPollSlaveRead+0x59a>
10001b2c:	2420      	movs	r4, #32
10001b2e:	4972      	ldr	r1, [pc, #456]	; (10001cf8 <p2pPollSlaveRead+0x300>)
10001b30:	698a      	ldr	r2, [r1, #24]
10001b32:	4214      	tst	r4, r2
10001b34:	d1fc      	bne.n	10001b30 <p2pPollSlaveRead+0x138>
10001b36:	2219      	movs	r2, #25
10001b38:	600a      	str	r2, [r1, #0]
10001b3a:	2108      	movs	r1, #8
10001b3c:	4c6e      	ldr	r4, [pc, #440]	; (10001cf8 <p2pPollSlaveRead+0x300>)
10001b3e:	69a2      	ldr	r2, [r4, #24]
10001b40:	4211      	tst	r1, r2
10001b42:	d1fc      	bne.n	10001b3e <p2pPollSlaveRead+0x146>
10001b44:	459c      	cmp	ip, r3
10001b46:	d100      	bne.n	10001b4a <p2pPollSlaveRead+0x152>
10001b48:	e21b      	b.n	10001f82 <p2pPollSlaveRead+0x58a>
10001b4a:	2120      	movs	r1, #32
10001b4c:	4a6a      	ldr	r2, [pc, #424]	; (10001cf8 <p2pPollSlaveRead+0x300>)
10001b4e:	6993      	ldr	r3, [r2, #24]
10001b50:	4219      	tst	r1, r3
10001b52:	d1fc      	bne.n	10001b4e <p2pPollSlaveRead+0x156>
10001b54:	6010      	str	r0, [r2, #0]
10001b56:	e77f      	b.n	10001a58 <p2pPollSlaveRead+0x60>
10001b58:	4653      	mov	r3, sl
10001b5a:	8023      	strh	r3, [r4, #0]
10001b5c:	f7fe fff6 	bl	10000b4c <Watchdog>
10001b60:	e76b      	b.n	10001a3a <p2pPollSlaveRead+0x42>
10001b62:	4653      	mov	r3, sl
10001b64:	8023      	strh	r3, [r4, #0]
10001b66:	f7fe fff1 	bl	10000b4c <Watchdog>
10001b6a:	e7a9      	b.n	10001ac0 <p2pPollSlaveRead+0xc8>
10001b6c:	f7fe ffee 	bl	10000b4c <Watchdog>
10001b70:	882b      	ldrh	r3, [r5, #0]
10001b72:	2b00      	cmp	r3, #0
10001b74:	d100      	bne.n	10001b78 <p2pPollSlaveRead+0x180>
10001b76:	e192      	b.n	10001e9e <p2pPollSlaveRead+0x4a6>
10001b78:	8822      	ldrh	r2, [r4, #0]
10001b7a:	8833      	ldrh	r3, [r6, #0]
10001b7c:	429a      	cmp	r2, r3
10001b7e:	d0f5      	beq.n	10001b6c <p2pPollSlaveRead+0x174>
10001b80:	8822      	ldrh	r2, [r4, #0]
10001b82:	1c53      	adds	r3, r2, #1
10001b84:	b29b      	uxth	r3, r3
10001b86:	8023      	strh	r3, [r4, #0]
10001b88:	5cbb      	ldrb	r3, [r7, r2]
10001b8a:	8822      	ldrh	r2, [r4, #0]
10001b8c:	4698      	mov	r8, r3
10001b8e:	238c      	movs	r3, #140	; 0x8c
10001b90:	009b      	lsls	r3, r3, #2
10001b92:	429a      	cmp	r2, r3
10001b94:	d100      	bne.n	10001b98 <p2pPollSlaveRead+0x1a0>
10001b96:	e0b7      	b.n	10001d08 <p2pPollSlaveRead+0x310>
10001b98:	f7fe ffd8 	bl	10000b4c <Watchdog>
10001b9c:	4642      	mov	r2, r8
10001b9e:	3207      	adds	r2, #7
10001ba0:	4643      	mov	r3, r8
10001ba2:	9201      	str	r2, [sp, #4]
10001ba4:	4642      	mov	r2, r8
10001ba6:	b29b      	uxth	r3, r3
10001ba8:	2a00      	cmp	r2, #0
10001baa:	d100      	bne.n	10001bae <p2pPollSlaveRead+0x1b6>
10001bac:	e17b      	b.n	10001ea6 <p2pPollSlaveRead+0x4ae>
10001bae:	3b01      	subs	r3, #1
10001bb0:	b29b      	uxth	r3, r3
10001bb2:	469a      	mov	sl, r3
10001bb4:	238c      	movs	r3, #140	; 0x8c
10001bb6:	009b      	lsls	r3, r3, #2
10001bb8:	4699      	mov	r9, r3
10001bba:	2300      	movs	r3, #0
10001bbc:	469b      	mov	fp, r3
10001bbe:	e017      	b.n	10001bf0 <p2pPollSlaveRead+0x1f8>
10001bc0:	8822      	ldrh	r2, [r4, #0]
10001bc2:	1c53      	adds	r3, r2, #1
10001bc4:	b29b      	uxth	r3, r3
10001bc6:	8023      	strh	r3, [r4, #0]
10001bc8:	5cbb      	ldrb	r3, [r7, r2]
10001bca:	4698      	mov	r8, r3
10001bcc:	8823      	ldrh	r3, [r4, #0]
10001bce:	454b      	cmp	r3, r9
10001bd0:	d100      	bne.n	10001bd4 <p2pPollSlaveRead+0x1dc>
10001bd2:	e16b      	b.n	10001eac <p2pPollSlaveRead+0x4b4>
10001bd4:	f7fe ffba 	bl	10000b4c <Watchdog>
10001bd8:	4643      	mov	r3, r8
10001bda:	2b10      	cmp	r3, #16
10001bdc:	d100      	bne.n	10001be0 <p2pPollSlaveRead+0x1e8>
10001bde:	e0d4      	b.n	10001d8a <p2pPollSlaveRead+0x392>
10001be0:	4653      	mov	r3, sl
10001be2:	4652      	mov	r2, sl
10001be4:	3b01      	subs	r3, #1
10001be6:	b29b      	uxth	r3, r3
10001be8:	2a00      	cmp	r2, #0
10001bea:	d100      	bne.n	10001bee <p2pPollSlaveRead+0x1f6>
10001bec:	e0e7      	b.n	10001dbe <p2pPollSlaveRead+0x3c6>
10001bee:	469a      	mov	sl, r3
10001bf0:	882b      	ldrh	r3, [r5, #0]
10001bf2:	2b00      	cmp	r3, #0
10001bf4:	d100      	bne.n	10001bf8 <p2pPollSlaveRead+0x200>
10001bf6:	e0e2      	b.n	10001dbe <p2pPollSlaveRead+0x3c6>
10001bf8:	8822      	ldrh	r2, [r4, #0]
10001bfa:	8833      	ldrh	r3, [r6, #0]
10001bfc:	429a      	cmp	r2, r3
10001bfe:	d1df      	bne.n	10001bc0 <p2pPollSlaveRead+0x1c8>
10001c00:	f7fe ffa4 	bl	10000b4c <Watchdog>
10001c04:	882b      	ldrh	r3, [r5, #0]
10001c06:	2b00      	cmp	r3, #0
10001c08:	d1f6      	bne.n	10001bf8 <p2pPollSlaveRead+0x200>
10001c0a:	e7e5      	b.n	10001bd8 <p2pPollSlaveRead+0x1e0>
10001c0c:	f7fe ff9e 	bl	10000b4c <Watchdog>
10001c10:	882b      	ldrh	r3, [r5, #0]
10001c12:	2b00      	cmp	r3, #0
10001c14:	d000      	beq.n	10001c18 <p2pPollSlaveRead+0x220>
10001c16:	e758      	b.n	10001aca <p2pPollSlaveRead+0xd2>
10001c18:	2019      	movs	r0, #25
10001c1a:	3319      	adds	r3, #25
10001c1c:	e76a      	b.n	10001af4 <p2pPollSlaveRead+0xfc>
10001c1e:	4a38      	ldr	r2, [pc, #224]	; (10001d00 <p2pPollSlaveRead+0x308>)
10001c20:	4935      	ldr	r1, [pc, #212]	; (10001cf8 <p2pPollSlaveRead+0x300>)
10001c22:	7813      	ldrb	r3, [r2, #0]
10001c24:	3301      	adds	r3, #1
10001c26:	7013      	strb	r3, [r2, #0]
10001c28:	2208      	movs	r2, #8
10001c2a:	698b      	ldr	r3, [r1, #24]
10001c2c:	421a      	tst	r2, r3
10001c2e:	d1fc      	bne.n	10001c2a <p2pPollSlaveRead+0x232>
10001c30:	4b32      	ldr	r3, [pc, #200]	; (10001cfc <p2pPollSlaveRead+0x304>)
10001c32:	2202      	movs	r2, #2
10001c34:	5e9a      	ldrsh	r2, [r3, r2]
10001c36:	2a10      	cmp	r2, #16
10001c38:	d100      	bne.n	10001c3c <p2pPollSlaveRead+0x244>
10001c3a:	e099      	b.n	10001d70 <p2pPollSlaveRead+0x378>
10001c3c:	2020      	movs	r0, #32
10001c3e:	492e      	ldr	r1, [pc, #184]	; (10001cf8 <p2pPollSlaveRead+0x300>)
10001c40:	698b      	ldr	r3, [r1, #24]
10001c42:	4218      	tst	r0, r3
10001c44:	d1fc      	bne.n	10001c40 <p2pPollSlaveRead+0x248>
10001c46:	2310      	movs	r3, #16
10001c48:	600b      	str	r3, [r1, #0]
10001c4a:	2108      	movs	r1, #8
10001c4c:	482a      	ldr	r0, [pc, #168]	; (10001cf8 <p2pPollSlaveRead+0x300>)
10001c4e:	6983      	ldr	r3, [r0, #24]
10001c50:	4219      	tst	r1, r3
10001c52:	d1fc      	bne.n	10001c4e <p2pPollSlaveRead+0x256>
10001c54:	2a21      	cmp	r2, #33	; 0x21
10001c56:	d100      	bne.n	10001c5a <p2pPollSlaveRead+0x262>
10001c58:	e082      	b.n	10001d60 <p2pPollSlaveRead+0x368>
10001c5a:	2020      	movs	r0, #32
10001c5c:	4926      	ldr	r1, [pc, #152]	; (10001cf8 <p2pPollSlaveRead+0x300>)
10001c5e:	698b      	ldr	r3, [r1, #24]
10001c60:	4218      	tst	r0, r3
10001c62:	d1fc      	bne.n	10001c5e <p2pPollSlaveRead+0x266>
10001c64:	2321      	movs	r3, #33	; 0x21
10001c66:	600b      	str	r3, [r1, #0]
10001c68:	2108      	movs	r1, #8
10001c6a:	4b26      	ldr	r3, [pc, #152]	; (10001d04 <p2pPollSlaveRead+0x30c>)
10001c6c:	4822      	ldr	r0, [pc, #136]	; (10001cf8 <p2pPollSlaveRead+0x300>)
10001c6e:	781c      	ldrb	r4, [r3, #0]
10001c70:	6983      	ldr	r3, [r0, #24]
10001c72:	4219      	tst	r1, r3
10001c74:	d1fc      	bne.n	10001c70 <p2pPollSlaveRead+0x278>
10001c76:	4294      	cmp	r4, r2
10001c78:	d06a      	beq.n	10001d50 <p2pPollSlaveRead+0x358>
10001c7a:	2020      	movs	r0, #32
10001c7c:	491e      	ldr	r1, [pc, #120]	; (10001cf8 <p2pPollSlaveRead+0x300>)
10001c7e:	698b      	ldr	r3, [r1, #24]
10001c80:	4218      	tst	r0, r3
10001c82:	d1fc      	bne.n	10001c7e <p2pPollSlaveRead+0x286>
10001c84:	600c      	str	r4, [r1, #0]
10001c86:	2108      	movs	r1, #8
10001c88:	481b      	ldr	r0, [pc, #108]	; (10001cf8 <p2pPollSlaveRead+0x300>)
10001c8a:	6983      	ldr	r3, [r0, #24]
10001c8c:	4219      	tst	r1, r3
10001c8e:	d1fc      	bne.n	10001c8a <p2pPollSlaveRead+0x292>
10001c90:	2a10      	cmp	r2, #16
10001c92:	d055      	beq.n	10001d40 <p2pPollSlaveRead+0x348>
10001c94:	2020      	movs	r0, #32
10001c96:	4918      	ldr	r1, [pc, #96]	; (10001cf8 <p2pPollSlaveRead+0x300>)
10001c98:	698b      	ldr	r3, [r1, #24]
10001c9a:	4218      	tst	r0, r3
10001c9c:	d1fc      	bne.n	10001c98 <p2pPollSlaveRead+0x2a0>
10001c9e:	2310      	movs	r3, #16
10001ca0:	600b      	str	r3, [r1, #0]
10001ca2:	2108      	movs	r1, #8
10001ca4:	4814      	ldr	r0, [pc, #80]	; (10001cf8 <p2pPollSlaveRead+0x300>)
10001ca6:	6983      	ldr	r3, [r0, #24]
10001ca8:	4219      	tst	r1, r3
10001caa:	d1fc      	bne.n	10001ca6 <p2pPollSlaveRead+0x2ae>
10001cac:	2a19      	cmp	r2, #25
10001cae:	d03f      	beq.n	10001d30 <p2pPollSlaveRead+0x338>
10001cb0:	2020      	movs	r0, #32
10001cb2:	4911      	ldr	r1, [pc, #68]	; (10001cf8 <p2pPollSlaveRead+0x300>)
10001cb4:	698b      	ldr	r3, [r1, #24]
10001cb6:	4218      	tst	r0, r3
10001cb8:	d1fc      	bne.n	10001cb4 <p2pPollSlaveRead+0x2bc>
10001cba:	2319      	movs	r3, #25
10001cbc:	600b      	str	r3, [r1, #0]
10001cbe:	2108      	movs	r1, #8
10001cc0:	480d      	ldr	r0, [pc, #52]	; (10001cf8 <p2pPollSlaveRead+0x300>)
10001cc2:	6983      	ldr	r3, [r0, #24]
10001cc4:	4219      	tst	r1, r3
10001cc6:	d1fc      	bne.n	10001cc2 <p2pPollSlaveRead+0x2ca>
10001cc8:	2a82      	cmp	r2, #130	; 0x82
10001cca:	d029      	beq.n	10001d20 <p2pPollSlaveRead+0x328>
10001ccc:	2120      	movs	r1, #32
10001cce:	4a0a      	ldr	r2, [pc, #40]	; (10001cf8 <p2pPollSlaveRead+0x300>)
10001cd0:	6993      	ldr	r3, [r2, #24]
10001cd2:	4219      	tst	r1, r3
10001cd4:	d1fc      	bne.n	10001cd0 <p2pPollSlaveRead+0x2d8>
10001cd6:	2382      	movs	r3, #130	; 0x82
10001cd8:	6013      	str	r3, [r2, #0]
10001cda:	e6c1      	b.n	10001a60 <p2pPollSlaveRead+0x68>
10001cdc:	20002188 	.word	0x20002188
10001ce0:	2000218e 	.word	0x2000218e
10001ce4:	20002190 	.word	0x20002190
10001ce8:	20001110 	.word	0x20001110
10001cec:	20000ee0 	.word	0x20000ee0
10001cf0:	2000218a 	.word	0x2000218a
10001cf4:	2000218c 	.word	0x2000218c
10001cf8:	40038000 	.word	0x40038000
10001cfc:	2000216c 	.word	0x2000216c
10001d00:	200021b0 	.word	0x200021b0
10001d04:	200021aa 	.word	0x200021aa
10001d08:	2300      	movs	r3, #0
10001d0a:	8023      	strh	r3, [r4, #0]
10001d0c:	f7fe ff1e 	bl	10000b4c <Watchdog>
10001d10:	e744      	b.n	10001b9c <p2pPollSlaveRead+0x1a4>
10001d12:	2300      	movs	r3, #0
10001d14:	8023      	strh	r3, [r4, #0]
10001d16:	f7fe ff19 	bl	10000b4c <Watchdog>
10001d1a:	4643      	mov	r3, r8
10001d1c:	4640      	mov	r0, r8
10001d1e:	e6e9      	b.n	10001af4 <p2pPollSlaveRead+0xfc>
10001d20:	2120      	movs	r1, #32
10001d22:	4aac      	ldr	r2, [pc, #688]	; (10001fd4 <p2pPollSlaveRead+0x5dc>)
10001d24:	6993      	ldr	r3, [r2, #24]
10001d26:	4219      	tst	r1, r3
10001d28:	d1fc      	bne.n	10001d24 <p2pPollSlaveRead+0x32c>
10001d2a:	230d      	movs	r3, #13
10001d2c:	6013      	str	r3, [r2, #0]
10001d2e:	e7cd      	b.n	10001ccc <p2pPollSlaveRead+0x2d4>
10001d30:	2020      	movs	r0, #32
10001d32:	49a8      	ldr	r1, [pc, #672]	; (10001fd4 <p2pPollSlaveRead+0x5dc>)
10001d34:	698b      	ldr	r3, [r1, #24]
10001d36:	4218      	tst	r0, r3
10001d38:	d1fc      	bne.n	10001d34 <p2pPollSlaveRead+0x33c>
10001d3a:	230d      	movs	r3, #13
10001d3c:	600b      	str	r3, [r1, #0]
10001d3e:	e7b7      	b.n	10001cb0 <p2pPollSlaveRead+0x2b8>
10001d40:	2020      	movs	r0, #32
10001d42:	49a4      	ldr	r1, [pc, #656]	; (10001fd4 <p2pPollSlaveRead+0x5dc>)
10001d44:	698b      	ldr	r3, [r1, #24]
10001d46:	4218      	tst	r0, r3
10001d48:	d1fc      	bne.n	10001d44 <p2pPollSlaveRead+0x34c>
10001d4a:	230d      	movs	r3, #13
10001d4c:	600b      	str	r3, [r1, #0]
10001d4e:	e7a1      	b.n	10001c94 <p2pPollSlaveRead+0x29c>
10001d50:	2020      	movs	r0, #32
10001d52:	49a0      	ldr	r1, [pc, #640]	; (10001fd4 <p2pPollSlaveRead+0x5dc>)
10001d54:	698b      	ldr	r3, [r1, #24]
10001d56:	4218      	tst	r0, r3
10001d58:	d1fc      	bne.n	10001d54 <p2pPollSlaveRead+0x35c>
10001d5a:	230d      	movs	r3, #13
10001d5c:	600b      	str	r3, [r1, #0]
10001d5e:	e78c      	b.n	10001c7a <p2pPollSlaveRead+0x282>
10001d60:	2020      	movs	r0, #32
10001d62:	499c      	ldr	r1, [pc, #624]	; (10001fd4 <p2pPollSlaveRead+0x5dc>)
10001d64:	698b      	ldr	r3, [r1, #24]
10001d66:	4218      	tst	r0, r3
10001d68:	d1fc      	bne.n	10001d64 <p2pPollSlaveRead+0x36c>
10001d6a:	230d      	movs	r3, #13
10001d6c:	600b      	str	r3, [r1, #0]
10001d6e:	e774      	b.n	10001c5a <p2pPollSlaveRead+0x262>
10001d70:	2020      	movs	r0, #32
10001d72:	4998      	ldr	r1, [pc, #608]	; (10001fd4 <p2pPollSlaveRead+0x5dc>)
10001d74:	698b      	ldr	r3, [r1, #24]
10001d76:	4218      	tst	r0, r3
10001d78:	d1fc      	bne.n	10001d74 <p2pPollSlaveRead+0x37c>
10001d7a:	230d      	movs	r3, #13
10001d7c:	600b      	str	r3, [r1, #0]
10001d7e:	e75d      	b.n	10001c3c <p2pPollSlaveRead+0x244>
10001d80:	f7fe fee4 	bl	10000b4c <Watchdog>
10001d84:	882b      	ldrh	r3, [r5, #0]
10001d86:	2b00      	cmp	r3, #0
10001d88:	d00f      	beq.n	10001daa <p2pPollSlaveRead+0x3b2>
10001d8a:	8822      	ldrh	r2, [r4, #0]
10001d8c:	8833      	ldrh	r3, [r6, #0]
10001d8e:	429a      	cmp	r2, r3
10001d90:	d0f6      	beq.n	10001d80 <p2pPollSlaveRead+0x388>
10001d92:	8822      	ldrh	r2, [r4, #0]
10001d94:	1c53      	adds	r3, r2, #1
10001d96:	b29b      	uxth	r3, r3
10001d98:	8023      	strh	r3, [r4, #0]
10001d9a:	5cbb      	ldrb	r3, [r7, r2]
10001d9c:	4698      	mov	r8, r3
10001d9e:	8823      	ldrh	r3, [r4, #0]
10001da0:	454b      	cmp	r3, r9
10001da2:	d100      	bne.n	10001da6 <p2pPollSlaveRead+0x3ae>
10001da4:	e09a      	b.n	10001edc <p2pPollSlaveRead+0x4e4>
10001da6:	f7fe fed1 	bl	10000b4c <Watchdog>
10001daa:	9b01      	ldr	r3, [sp, #4]
10001dac:	3301      	adds	r3, #1
10001dae:	b29b      	uxth	r3, r3
10001db0:	9301      	str	r3, [sp, #4]
10001db2:	e715      	b.n	10001be0 <p2pPollSlaveRead+0x1e8>
10001db4:	f7fe feca 	bl	10000b4c <Watchdog>
10001db8:	882b      	ldrh	r3, [r5, #0]
10001dba:	2b00      	cmp	r3, #0
10001dbc:	d00f      	beq.n	10001dde <p2pPollSlaveRead+0x3e6>
10001dbe:	8822      	ldrh	r2, [r4, #0]
10001dc0:	8833      	ldrh	r3, [r6, #0]
10001dc2:	429a      	cmp	r2, r3
10001dc4:	d0f6      	beq.n	10001db4 <p2pPollSlaveRead+0x3bc>
10001dc6:	8823      	ldrh	r3, [r4, #0]
10001dc8:	3301      	adds	r3, #1
10001dca:	b29b      	uxth	r3, r3
10001dcc:	8023      	strh	r3, [r4, #0]
10001dce:	238c      	movs	r3, #140	; 0x8c
10001dd0:	8822      	ldrh	r2, [r4, #0]
10001dd2:	009b      	lsls	r3, r3, #2
10001dd4:	429a      	cmp	r2, r3
10001dd6:	d100      	bne.n	10001dda <p2pPollSlaveRead+0x3e2>
10001dd8:	e085      	b.n	10001ee6 <p2pPollSlaveRead+0x4ee>
10001dda:	f7fe feb7 	bl	10000b4c <Watchdog>
10001dde:	8822      	ldrh	r2, [r4, #0]
10001de0:	8833      	ldrh	r3, [r6, #0]
10001de2:	429a      	cmp	r2, r3
10001de4:	d06d      	beq.n	10001ec2 <p2pPollSlaveRead+0x4ca>
10001de6:	8823      	ldrh	r3, [r4, #0]
10001de8:	3301      	adds	r3, #1
10001dea:	b29b      	uxth	r3, r3
10001dec:	8023      	strh	r3, [r4, #0]
10001dee:	238c      	movs	r3, #140	; 0x8c
10001df0:	8822      	ldrh	r2, [r4, #0]
10001df2:	009b      	lsls	r3, r3, #2
10001df4:	429a      	cmp	r2, r3
10001df6:	d100      	bne.n	10001dfa <p2pPollSlaveRead+0x402>
10001df8:	e07f      	b.n	10001efa <p2pPollSlaveRead+0x502>
10001dfa:	f7fe fea7 	bl	10000b4c <Watchdog>
10001dfe:	8822      	ldrh	r2, [r4, #0]
10001e00:	8833      	ldrh	r3, [r6, #0]
10001e02:	429a      	cmp	r2, r3
10001e04:	d057      	beq.n	10001eb6 <p2pPollSlaveRead+0x4be>
10001e06:	8823      	ldrh	r3, [r4, #0]
10001e08:	3301      	adds	r3, #1
10001e0a:	b29b      	uxth	r3, r3
10001e0c:	8023      	strh	r3, [r4, #0]
10001e0e:	238c      	movs	r3, #140	; 0x8c
10001e10:	8822      	ldrh	r2, [r4, #0]
10001e12:	009b      	lsls	r3, r3, #2
10001e14:	429a      	cmp	r2, r3
10001e16:	d06b      	beq.n	10001ef0 <p2pPollSlaveRead+0x4f8>
10001e18:	f7fe fe98 	bl	10000b4c <Watchdog>
10001e1c:	8822      	ldrh	r2, [r4, #0]
10001e1e:	8833      	ldrh	r3, [r6, #0]
10001e20:	429a      	cmp	r2, r3
10001e22:	d055      	beq.n	10001ed0 <p2pPollSlaveRead+0x4d8>
10001e24:	8823      	ldrh	r3, [r4, #0]
10001e26:	3301      	adds	r3, #1
10001e28:	b29b      	uxth	r3, r3
10001e2a:	8023      	strh	r3, [r4, #0]
10001e2c:	238c      	movs	r3, #140	; 0x8c
10001e2e:	8822      	ldrh	r2, [r4, #0]
10001e30:	009b      	lsls	r3, r3, #2
10001e32:	429a      	cmp	r2, r3
10001e34:	d066      	beq.n	10001f04 <p2pPollSlaveRead+0x50c>
10001e36:	f7fe fe89 	bl	10000b4c <Watchdog>
10001e3a:	4b67      	ldr	r3, [pc, #412]	; (10001fd8 <p2pPollSlaveRead+0x5e0>)
10001e3c:	781b      	ldrb	r3, [r3, #0]
10001e3e:	2b00      	cmp	r3, #0
10001e40:	d168      	bne.n	10001f14 <p2pPollSlaveRead+0x51c>
10001e42:	8834      	ldrh	r4, [r6, #0]
10001e44:	9b01      	ldr	r3, [sp, #4]
10001e46:	1ae4      	subs	r4, r4, r3
10001e48:	b2a4      	uxth	r4, r4
10001e4a:	429c      	cmp	r4, r3
10001e4c:	d300      	bcc.n	10001e50 <p2pPollSlaveRead+0x458>
10001e4e:	e603      	b.n	10001a58 <p2pPollSlaveRead+0x60>
10001e50:	4b62      	ldr	r3, [pc, #392]	; (10001fdc <p2pPollSlaveRead+0x5e4>)
10001e52:	2008      	movs	r0, #8
10001e54:	2202      	movs	r2, #2
10001e56:	5e9b      	ldrsh	r3, [r3, r2]
10001e58:	220d      	movs	r2, #13
10001e5a:	2120      	movs	r1, #32
10001e5c:	4692      	mov	sl, r2
10001e5e:	4699      	mov	r9, r3
10001e60:	193b      	adds	r3, r7, r4
10001e62:	469c      	mov	ip, r3
10001e64:	4b5b      	ldr	r3, [pc, #364]	; (10001fd4 <p2pPollSlaveRead+0x5dc>)
10001e66:	4662      	mov	r2, ip
10001e68:	7812      	ldrb	r2, [r2, #0]
10001e6a:	4690      	mov	r8, r2
10001e6c:	699a      	ldr	r2, [r3, #24]
10001e6e:	4210      	tst	r0, r2
10001e70:	d1fc      	bne.n	10001e6c <p2pPollSlaveRead+0x474>
10001e72:	45c1      	cmp	r9, r8
10001e74:	d00d      	beq.n	10001e92 <p2pPollSlaveRead+0x49a>
10001e76:	699a      	ldr	r2, [r3, #24]
10001e78:	4211      	tst	r1, r2
10001e7a:	d1fc      	bne.n	10001e76 <p2pPollSlaveRead+0x47e>
10001e7c:	4642      	mov	r2, r8
10001e7e:	601a      	str	r2, [r3, #0]
10001e80:	2201      	movs	r2, #1
10001e82:	4690      	mov	r8, r2
10001e84:	3401      	adds	r4, #1
10001e86:	9a01      	ldr	r2, [sp, #4]
10001e88:	b2a4      	uxth	r4, r4
10001e8a:	44c4      	add	ip, r8
10001e8c:	4294      	cmp	r4, r2
10001e8e:	d1ea      	bne.n	10001e66 <p2pPollSlaveRead+0x46e>
10001e90:	e5e2      	b.n	10001a58 <p2pPollSlaveRead+0x60>
10001e92:	699a      	ldr	r2, [r3, #24]
10001e94:	4211      	tst	r1, r2
10001e96:	d1fc      	bne.n	10001e92 <p2pPollSlaveRead+0x49a>
10001e98:	4652      	mov	r2, sl
10001e9a:	601a      	str	r2, [r3, #0]
10001e9c:	e7eb      	b.n	10001e76 <p2pPollSlaveRead+0x47e>
10001e9e:	3321      	adds	r3, #33	; 0x21
10001ea0:	9301      	str	r3, [sp, #4]
10001ea2:	3b07      	subs	r3, #7
10001ea4:	e683      	b.n	10001bae <p2pPollSlaveRead+0x1b6>
10001ea6:	2307      	movs	r3, #7
10001ea8:	9301      	str	r3, [sp, #4]
10001eaa:	e788      	b.n	10001dbe <p2pPollSlaveRead+0x3c6>
10001eac:	465b      	mov	r3, fp
10001eae:	8023      	strh	r3, [r4, #0]
10001eb0:	f7fe fe4c 	bl	10000b4c <Watchdog>
10001eb4:	e690      	b.n	10001bd8 <p2pPollSlaveRead+0x1e0>
10001eb6:	f7fe fe49 	bl	10000b4c <Watchdog>
10001eba:	882b      	ldrh	r3, [r5, #0]
10001ebc:	2b00      	cmp	r3, #0
10001ebe:	d19e      	bne.n	10001dfe <p2pPollSlaveRead+0x406>
10001ec0:	e7ac      	b.n	10001e1c <p2pPollSlaveRead+0x424>
10001ec2:	f7fe fe43 	bl	10000b4c <Watchdog>
10001ec6:	882b      	ldrh	r3, [r5, #0]
10001ec8:	2b00      	cmp	r3, #0
10001eca:	d000      	beq.n	10001ece <p2pPollSlaveRead+0x4d6>
10001ecc:	e787      	b.n	10001dde <p2pPollSlaveRead+0x3e6>
10001ece:	e796      	b.n	10001dfe <p2pPollSlaveRead+0x406>
10001ed0:	f7fe fe3c 	bl	10000b4c <Watchdog>
10001ed4:	882b      	ldrh	r3, [r5, #0]
10001ed6:	2b00      	cmp	r3, #0
10001ed8:	d1a0      	bne.n	10001e1c <p2pPollSlaveRead+0x424>
10001eda:	e7ae      	b.n	10001e3a <p2pPollSlaveRead+0x442>
10001edc:	465b      	mov	r3, fp
10001ede:	8023      	strh	r3, [r4, #0]
10001ee0:	f7fe fe34 	bl	10000b4c <Watchdog>
10001ee4:	e761      	b.n	10001daa <p2pPollSlaveRead+0x3b2>
10001ee6:	2300      	movs	r3, #0
10001ee8:	8023      	strh	r3, [r4, #0]
10001eea:	f7fe fe2f 	bl	10000b4c <Watchdog>
10001eee:	e776      	b.n	10001dde <p2pPollSlaveRead+0x3e6>
10001ef0:	2300      	movs	r3, #0
10001ef2:	8023      	strh	r3, [r4, #0]
10001ef4:	f7fe fe2a 	bl	10000b4c <Watchdog>
10001ef8:	e790      	b.n	10001e1c <p2pPollSlaveRead+0x424>
10001efa:	2300      	movs	r3, #0
10001efc:	8023      	strh	r3, [r4, #0]
10001efe:	f7fe fe25 	bl	10000b4c <Watchdog>
10001f02:	e77c      	b.n	10001dfe <p2pPollSlaveRead+0x406>
10001f04:	2300      	movs	r3, #0
10001f06:	8023      	strh	r3, [r4, #0]
10001f08:	f7fe fe20 	bl	10000b4c <Watchdog>
10001f0c:	e795      	b.n	10001e3a <p2pPollSlaveRead+0x442>
10001f0e:	4e34      	ldr	r6, [pc, #208]	; (10001fe0 <p2pPollSlaveRead+0x5e8>)
10001f10:	4f34      	ldr	r7, [pc, #208]	; (10001fe4 <p2pPollSlaveRead+0x5ec>)
10001f12:	e5a1      	b.n	10001a58 <p2pPollSlaveRead+0x60>
10001f14:	2208      	movs	r2, #8
10001f16:	492f      	ldr	r1, [pc, #188]	; (10001fd4 <p2pPollSlaveRead+0x5dc>)
10001f18:	698b      	ldr	r3, [r1, #24]
10001f1a:	421a      	tst	r2, r3
10001f1c:	d1fc      	bne.n	10001f18 <p2pPollSlaveRead+0x520>
10001f1e:	4b2f      	ldr	r3, [pc, #188]	; (10001fdc <p2pPollSlaveRead+0x5e4>)
10001f20:	2002      	movs	r0, #2
10001f22:	5e18      	ldrsh	r0, [r3, r0]
10001f24:	2810      	cmp	r0, #16
10001f26:	d03c      	beq.n	10001fa2 <p2pPollSlaveRead+0x5aa>
10001f28:	2120      	movs	r1, #32
10001f2a:	4a2a      	ldr	r2, [pc, #168]	; (10001fd4 <p2pPollSlaveRead+0x5dc>)
10001f2c:	6993      	ldr	r3, [r2, #24]
10001f2e:	4219      	tst	r1, r3
10001f30:	d1fc      	bne.n	10001f2c <p2pPollSlaveRead+0x534>
10001f32:	2310      	movs	r3, #16
10001f34:	6013      	str	r3, [r2, #0]
10001f36:	2208      	movs	r2, #8
10001f38:	4926      	ldr	r1, [pc, #152]	; (10001fd4 <p2pPollSlaveRead+0x5dc>)
10001f3a:	698b      	ldr	r3, [r1, #24]
10001f3c:	421a      	tst	r2, r3
10001f3e:	d1fc      	bne.n	10001f3a <p2pPollSlaveRead+0x542>
10001f40:	2821      	cmp	r0, #33	; 0x21
10001f42:	d03e      	beq.n	10001fc2 <p2pPollSlaveRead+0x5ca>
10001f44:	2120      	movs	r1, #32
10001f46:	4a23      	ldr	r2, [pc, #140]	; (10001fd4 <p2pPollSlaveRead+0x5dc>)
10001f48:	6993      	ldr	r3, [r2, #24]
10001f4a:	4219      	tst	r1, r3
10001f4c:	d1fc      	bne.n	10001f48 <p2pPollSlaveRead+0x550>
10001f4e:	2321      	movs	r3, #33	; 0x21
10001f50:	6013      	str	r3, [r2, #0]
10001f52:	2208      	movs	r2, #8
10001f54:	4b24      	ldr	r3, [pc, #144]	; (10001fe8 <p2pPollSlaveRead+0x5f0>)
10001f56:	491f      	ldr	r1, [pc, #124]	; (10001fd4 <p2pPollSlaveRead+0x5dc>)
10001f58:	781c      	ldrb	r4, [r3, #0]
10001f5a:	698b      	ldr	r3, [r1, #24]
10001f5c:	421a      	tst	r2, r3
10001f5e:	d1fc      	bne.n	10001f5a <p2pPollSlaveRead+0x562>
10001f60:	4284      	cmp	r4, r0
10001f62:	d026      	beq.n	10001fb2 <p2pPollSlaveRead+0x5ba>
10001f64:	2120      	movs	r1, #32
10001f66:	4a1b      	ldr	r2, [pc, #108]	; (10001fd4 <p2pPollSlaveRead+0x5dc>)
10001f68:	6993      	ldr	r3, [r2, #24]
10001f6a:	4219      	tst	r1, r3
10001f6c:	d1fc      	bne.n	10001f68 <p2pPollSlaveRead+0x570>
10001f6e:	6014      	str	r4, [r2, #0]
10001f70:	e767      	b.n	10001e42 <p2pPollSlaveRead+0x44a>
10001f72:	2420      	movs	r4, #32
10001f74:	4917      	ldr	r1, [pc, #92]	; (10001fd4 <p2pPollSlaveRead+0x5dc>)
10001f76:	698a      	ldr	r2, [r1, #24]
10001f78:	4214      	tst	r4, r2
10001f7a:	d1fc      	bne.n	10001f76 <p2pPollSlaveRead+0x57e>
10001f7c:	220d      	movs	r2, #13
10001f7e:	600a      	str	r2, [r1, #0]
10001f80:	e5c4      	b.n	10001b0c <p2pPollSlaveRead+0x114>
10001f82:	2120      	movs	r1, #32
10001f84:	4a13      	ldr	r2, [pc, #76]	; (10001fd4 <p2pPollSlaveRead+0x5dc>)
10001f86:	6993      	ldr	r3, [r2, #24]
10001f88:	4219      	tst	r1, r3
10001f8a:	d1fc      	bne.n	10001f86 <p2pPollSlaveRead+0x58e>
10001f8c:	230d      	movs	r3, #13
10001f8e:	6013      	str	r3, [r2, #0]
10001f90:	e5db      	b.n	10001b4a <p2pPollSlaveRead+0x152>
10001f92:	2420      	movs	r4, #32
10001f94:	490f      	ldr	r1, [pc, #60]	; (10001fd4 <p2pPollSlaveRead+0x5dc>)
10001f96:	698a      	ldr	r2, [r1, #24]
10001f98:	4214      	tst	r4, r2
10001f9a:	d1fc      	bne.n	10001f96 <p2pPollSlaveRead+0x59e>
10001f9c:	220d      	movs	r2, #13
10001f9e:	600a      	str	r2, [r1, #0]
10001fa0:	e5c4      	b.n	10001b2c <p2pPollSlaveRead+0x134>
10001fa2:	2120      	movs	r1, #32
10001fa4:	4b0b      	ldr	r3, [pc, #44]	; (10001fd4 <p2pPollSlaveRead+0x5dc>)
10001fa6:	699a      	ldr	r2, [r3, #24]
10001fa8:	4211      	tst	r1, r2
10001faa:	d1fc      	bne.n	10001fa6 <p2pPollSlaveRead+0x5ae>
10001fac:	220d      	movs	r2, #13
10001fae:	601a      	str	r2, [r3, #0]
10001fb0:	e7ba      	b.n	10001f28 <p2pPollSlaveRead+0x530>
10001fb2:	2120      	movs	r1, #32
10001fb4:	4b07      	ldr	r3, [pc, #28]	; (10001fd4 <p2pPollSlaveRead+0x5dc>)
10001fb6:	699a      	ldr	r2, [r3, #24]
10001fb8:	4211      	tst	r1, r2
10001fba:	d1fc      	bne.n	10001fb6 <p2pPollSlaveRead+0x5be>
10001fbc:	220d      	movs	r2, #13
10001fbe:	601a      	str	r2, [r3, #0]
10001fc0:	e7d0      	b.n	10001f64 <p2pPollSlaveRead+0x56c>
10001fc2:	2120      	movs	r1, #32
10001fc4:	4b03      	ldr	r3, [pc, #12]	; (10001fd4 <p2pPollSlaveRead+0x5dc>)
10001fc6:	699a      	ldr	r2, [r3, #24]
10001fc8:	4211      	tst	r1, r2
10001fca:	d1fc      	bne.n	10001fc6 <p2pPollSlaveRead+0x5ce>
10001fcc:	220d      	movs	r2, #13
10001fce:	601a      	str	r2, [r3, #0]
10001fd0:	e7b8      	b.n	10001f44 <p2pPollSlaveRead+0x54c>
10001fd2:	46c0      	nop			; (mov r8, r8)
10001fd4:	40038000 	.word	0x40038000
10001fd8:	200021a5 	.word	0x200021a5
10001fdc:	2000216c 	.word	0x2000216c
10001fe0:	20002190 	.word	0x20002190
10001fe4:	20001110 	.word	0x20001110
10001fe8:	200021aa 	.word	0x200021aa

10001fec <p2pPollSlaveWrite>:
10001fec:	b5f0      	push	{r4, r5, r6, r7, lr}
10001fee:	4657      	mov	r7, sl
10001ff0:	464e      	mov	r6, r9
10001ff2:	4645      	mov	r5, r8
10001ff4:	46de      	mov	lr, fp
10001ff6:	2300      	movs	r3, #0
10001ff8:	b5e0      	push	{r5, r6, r7, lr}
10001ffa:	b091      	sub	sp, #68	; 0x44
10001ffc:	aa0e      	add	r2, sp, #56	; 0x38
10001ffe:	71d3      	strb	r3, [r2, #7]
10002000:	9305      	str	r3, [sp, #20]
10002002:	9306      	str	r3, [sp, #24]
10002004:	9307      	str	r3, [sp, #28]
10002006:	4ba0      	ldr	r3, [pc, #640]	; (10002288 <p2pPollSlaveWrite+0x29c>)
10002008:	4ca0      	ldr	r4, [pc, #640]	; (1000228c <p2pPollSlaveWrite+0x2a0>)
1000200a:	4699      	mov	r9, r3
1000200c:	4ba0      	ldr	r3, [pc, #640]	; (10002290 <p2pPollSlaveWrite+0x2a4>)
1000200e:	464e      	mov	r6, r9
10002010:	469a      	mov	sl, r3
10002012:	4ba0      	ldr	r3, [pc, #640]	; (10002294 <p2pPollSlaveWrite+0x2a8>)
10002014:	4fa0      	ldr	r7, [pc, #640]	; (10002298 <p2pPollSlaveWrite+0x2ac>)
10002016:	9303      	str	r3, [sp, #12]
10002018:	4ba0      	ldr	r3, [pc, #640]	; (1000229c <p2pPollSlaveWrite+0x2b0>)
1000201a:	9301      	str	r3, [sp, #4]
1000201c:	4ba0      	ldr	r3, [pc, #640]	; (100022a0 <p2pPollSlaveWrite+0x2b4>)
1000201e:	9302      	str	r3, [sp, #8]
10002020:	238c      	movs	r3, #140	; 0x8c
10002022:	009b      	lsls	r3, r3, #2
10002024:	4698      	mov	r8, r3
10002026:	4b9f      	ldr	r3, [pc, #636]	; (100022a4 <p2pPollSlaveWrite+0x2b8>)
10002028:	9304      	str	r3, [sp, #16]
1000202a:	4653      	mov	r3, sl
1000202c:	9300      	str	r3, [sp, #0]
1000202e:	23fa      	movs	r3, #250	; 0xfa
10002030:	005b      	lsls	r3, r3, #1
10002032:	4699      	mov	r9, r3
10002034:	2300      	movs	r3, #0
10002036:	469a      	mov	sl, r3
10002038:	883b      	ldrh	r3, [r7, #0]
1000203a:	2b00      	cmp	r3, #0
1000203c:	d100      	bne.n	10002040 <p2pPollSlaveWrite+0x54>
1000203e:	e0c3      	b.n	100021c8 <p2pPollSlaveWrite+0x1dc>
10002040:	8822      	ldrh	r2, [r4, #0]
10002042:	8833      	ldrh	r3, [r6, #0]
10002044:	429a      	cmp	r2, r3
10002046:	d100      	bne.n	1000204a <p2pPollSlaveWrite+0x5e>
10002048:	e0b8      	b.n	100021bc <p2pPollSlaveWrite+0x1d0>
1000204a:	8822      	ldrh	r2, [r4, #0]
1000204c:	1c53      	adds	r3, r2, #1
1000204e:	b29b      	uxth	r3, r3
10002050:	8023      	strh	r3, [r4, #0]
10002052:	9b00      	ldr	r3, [sp, #0]
10002054:	5c9d      	ldrb	r5, [r3, r2]
10002056:	ab0e      	add	r3, sp, #56	; 0x38
10002058:	71dd      	strb	r5, [r3, #7]
1000205a:	8823      	ldrh	r3, [r4, #0]
1000205c:	4543      	cmp	r3, r8
1000205e:	d100      	bne.n	10002062 <p2pPollSlaveWrite+0x76>
10002060:	e0d3      	b.n	1000220a <p2pPollSlaveWrite+0x21e>
10002062:	f7fe fd73 	bl	10000b4c <Watchdog>
10002066:	464b      	mov	r3, r9
10002068:	803b      	strh	r3, [r7, #0]
1000206a:	2d10      	cmp	r5, #16
1000206c:	d1e4      	bne.n	10002038 <p2pPollSlaveWrite+0x4c>
1000206e:	2210      	movs	r2, #16
10002070:	8833      	ldrh	r3, [r6, #0]
10002072:	9b06      	ldr	r3, [sp, #24]
10002074:	9905      	ldr	r1, [sp, #20]
10002076:	3310      	adds	r3, #16
10002078:	b29b      	uxth	r3, r3
1000207a:	9308      	str	r3, [sp, #32]
1000207c:	0a0b      	lsrs	r3, r1, #8
1000207e:	4053      	eors	r3, r2
10002080:	9a04      	ldr	r2, [sp, #16]
10002082:	005b      	lsls	r3, r3, #1
10002084:	5ad2      	ldrh	r2, [r2, r3]
10002086:	020b      	lsls	r3, r1, #8
10002088:	b29b      	uxth	r3, r3
1000208a:	405a      	eors	r2, r3
1000208c:	9205      	str	r2, [sp, #20]
1000208e:	8822      	ldrh	r2, [r4, #0]
10002090:	8833      	ldrh	r3, [r6, #0]
10002092:	429a      	cmp	r2, r3
10002094:	d100      	bne.n	10002098 <p2pPollSlaveWrite+0xac>
10002096:	e0c2      	b.n	1000221e <p2pPollSlaveWrite+0x232>
10002098:	8822      	ldrh	r2, [r4, #0]
1000209a:	1c53      	adds	r3, r2, #1
1000209c:	b29b      	uxth	r3, r3
1000209e:	8023      	strh	r3, [r4, #0]
100020a0:	9b00      	ldr	r3, [sp, #0]
100020a2:	5c9b      	ldrb	r3, [r3, r2]
100020a4:	4699      	mov	r9, r3
100020a6:	464a      	mov	r2, r9
100020a8:	ab0e      	add	r3, sp, #56	; 0x38
100020aa:	71da      	strb	r2, [r3, #7]
100020ac:	8823      	ldrh	r3, [r4, #0]
100020ae:	4543      	cmp	r3, r8
100020b0:	d100      	bne.n	100020b4 <p2pPollSlaveWrite+0xc8>
100020b2:	e0bd      	b.n	10002230 <p2pPollSlaveWrite+0x244>
100020b4:	f7fe fd4a 	bl	10000b4c <Watchdog>
100020b8:	464b      	mov	r3, r9
100020ba:	2b1a      	cmp	r3, #26
100020bc:	d000      	beq.n	100020c0 <p2pPollSlaveWrite+0xd4>
100020be:	e0b4      	b.n	1000222a <p2pPollSlaveWrite+0x23e>
100020c0:	883b      	ldrh	r3, [r7, #0]
100020c2:	2b00      	cmp	r3, #0
100020c4:	d100      	bne.n	100020c8 <p2pPollSlaveWrite+0xdc>
100020c6:	e0b0      	b.n	1000222a <p2pPollSlaveWrite+0x23e>
100020c8:	221a      	movs	r2, #26
100020ca:	9b06      	ldr	r3, [sp, #24]
100020cc:	9905      	ldr	r1, [sp, #20]
100020ce:	332a      	adds	r3, #42	; 0x2a
100020d0:	b29b      	uxth	r3, r3
100020d2:	469b      	mov	fp, r3
100020d4:	0a0b      	lsrs	r3, r1, #8
100020d6:	4053      	eors	r3, r2
100020d8:	b29b      	uxth	r3, r3
100020da:	9a04      	ldr	r2, [sp, #16]
100020dc:	005b      	lsls	r3, r3, #1
100020de:	5ad2      	ldrh	r2, [r2, r3]
100020e0:	020b      	lsls	r3, r1, #8
100020e2:	b29b      	uxth	r3, r3
100020e4:	405a      	eors	r2, r3
100020e6:	4692      	mov	sl, r2
100020e8:	8822      	ldrh	r2, [r4, #0]
100020ea:	8833      	ldrh	r3, [r6, #0]
100020ec:	429a      	cmp	r2, r3
100020ee:	d100      	bne.n	100020f2 <p2pPollSlaveWrite+0x106>
100020f0:	e186      	b.n	10002400 <p2pPollSlaveWrite+0x414>
100020f2:	8822      	ldrh	r2, [r4, #0]
100020f4:	1c53      	adds	r3, r2, #1
100020f6:	b29b      	uxth	r3, r3
100020f8:	8023      	strh	r3, [r4, #0]
100020fa:	9b00      	ldr	r3, [sp, #0]
100020fc:	5c9b      	ldrb	r3, [r3, r2]
100020fe:	4699      	mov	r9, r3
10002100:	464a      	mov	r2, r9
10002102:	ab0e      	add	r3, sp, #56	; 0x38
10002104:	71da      	strb	r2, [r3, #7]
10002106:	8823      	ldrh	r3, [r4, #0]
10002108:	4543      	cmp	r3, r8
1000210a:	d100      	bne.n	1000210e <p2pPollSlaveWrite+0x122>
1000210c:	e1b7      	b.n	1000247e <p2pPollSlaveWrite+0x492>
1000210e:	f7fe fd1d 	bl	10000b4c <Watchdog>
10002112:	44cb      	add	fp, r9
10002114:	465b      	mov	r3, fp
10002116:	b29b      	uxth	r3, r3
10002118:	469b      	mov	fp, r3
1000211a:	4653      	mov	r3, sl
1000211c:	464a      	mov	r2, r9
1000211e:	0a1b      	lsrs	r3, r3, #8
10002120:	4053      	eors	r3, r2
10002122:	9a04      	ldr	r2, [sp, #16]
10002124:	005b      	lsls	r3, r3, #1
10002126:	5ad2      	ldrh	r2, [r2, r3]
10002128:	4653      	mov	r3, sl
1000212a:	021b      	lsls	r3, r3, #8
1000212c:	b29b      	uxth	r3, r3
1000212e:	405a      	eors	r2, r3
10002130:	464b      	mov	r3, r9
10002132:	3307      	adds	r3, #7
10002134:	b2db      	uxtb	r3, r3
10002136:	9309      	str	r3, [sp, #36]	; 0x24
10002138:	464b      	mov	r3, r9
1000213a:	4692      	mov	sl, r2
1000213c:	2b00      	cmp	r3, #0
1000213e:	d100      	bne.n	10002142 <p2pPollSlaveWrite+0x156>
10002140:	e0b2      	b.n	100022a8 <p2pPollSlaveWrite+0x2bc>
10002142:	464b      	mov	r3, r9
10002144:	3b01      	subs	r3, #1
10002146:	b2db      	uxtb	r3, r3
10002148:	9305      	str	r3, [sp, #20]
1000214a:	9b00      	ldr	r3, [sp, #0]
1000214c:	4699      	mov	r9, r3
1000214e:	e025      	b.n	1000219c <p2pPollSlaveWrite+0x1b0>
10002150:	8822      	ldrh	r2, [r4, #0]
10002152:	1c53      	adds	r3, r2, #1
10002154:	b29b      	uxth	r3, r3
10002156:	8023      	strh	r3, [r4, #0]
10002158:	464b      	mov	r3, r9
1000215a:	5c9d      	ldrb	r5, [r3, r2]
1000215c:	ab0e      	add	r3, sp, #56	; 0x38
1000215e:	71dd      	strb	r5, [r3, #7]
10002160:	8823      	ldrh	r3, [r4, #0]
10002162:	4543      	cmp	r3, r8
10002164:	d100      	bne.n	10002168 <p2pPollSlaveWrite+0x17c>
10002166:	e13d      	b.n	100023e4 <p2pPollSlaveWrite+0x3f8>
10002168:	f7fe fcf0 	bl	10000b4c <Watchdog>
1000216c:	465b      	mov	r3, fp
1000216e:	195b      	adds	r3, r3, r5
10002170:	b29b      	uxth	r3, r3
10002172:	469b      	mov	fp, r3
10002174:	4653      	mov	r3, sl
10002176:	0a1b      	lsrs	r3, r3, #8
10002178:	9a04      	ldr	r2, [sp, #16]
1000217a:	406b      	eors	r3, r5
1000217c:	005b      	lsls	r3, r3, #1
1000217e:	5ad2      	ldrh	r2, [r2, r3]
10002180:	4653      	mov	r3, sl
10002182:	021b      	lsls	r3, r3, #8
10002184:	b29b      	uxth	r3, r3
10002186:	405a      	eors	r2, r3
10002188:	4692      	mov	sl, r2
1000218a:	2d10      	cmp	r5, #16
1000218c:	d055      	beq.n	1000223a <p2pPollSlaveWrite+0x24e>
1000218e:	9a05      	ldr	r2, [sp, #20]
10002190:	1e53      	subs	r3, r2, #1
10002192:	b2db      	uxtb	r3, r3
10002194:	2a00      	cmp	r2, #0
10002196:	d100      	bne.n	1000219a <p2pPollSlaveWrite+0x1ae>
10002198:	e088      	b.n	100022ac <p2pPollSlaveWrite+0x2c0>
1000219a:	9305      	str	r3, [sp, #20]
1000219c:	883b      	ldrh	r3, [r7, #0]
1000219e:	2b00      	cmp	r3, #0
100021a0:	d100      	bne.n	100021a4 <p2pPollSlaveWrite+0x1b8>
100021a2:	e083      	b.n	100022ac <p2pPollSlaveWrite+0x2c0>
100021a4:	8822      	ldrh	r2, [r4, #0]
100021a6:	8833      	ldrh	r3, [r6, #0]
100021a8:	429a      	cmp	r2, r3
100021aa:	d1d1      	bne.n	10002150 <p2pPollSlaveWrite+0x164>
100021ac:	f7fe fcce 	bl	10000b4c <Watchdog>
100021b0:	883b      	ldrh	r3, [r7, #0]
100021b2:	2b00      	cmp	r3, #0
100021b4:	d1f6      	bne.n	100021a4 <p2pPollSlaveWrite+0x1b8>
100021b6:	ab0e      	add	r3, sp, #56	; 0x38
100021b8:	79dd      	ldrb	r5, [r3, #7]
100021ba:	e7d7      	b.n	1000216c <p2pPollSlaveWrite+0x180>
100021bc:	f7fe fcc6 	bl	10000b4c <Watchdog>
100021c0:	883b      	ldrh	r3, [r7, #0]
100021c2:	2b00      	cmp	r3, #0
100021c4:	d000      	beq.n	100021c8 <p2pPollSlaveWrite+0x1dc>
100021c6:	e73b      	b.n	10002040 <p2pPollSlaveWrite+0x54>
100021c8:	9b00      	ldr	r3, [sp, #0]
100021ca:	46b1      	mov	r9, r6
100021cc:	469a      	mov	sl, r3
100021ce:	228c      	movs	r2, #140	; 0x8c
100021d0:	2100      	movs	r1, #0
100021d2:	4650      	mov	r0, sl
100021d4:	0092      	lsls	r2, r2, #2
100021d6:	f004 fb23 	bl	10006820 <__wrap_memset>
100021da:	228c      	movs	r2, #140	; 0x8c
100021dc:	2500      	movs	r5, #0
100021de:	464b      	mov	r3, r9
100021e0:	2100      	movs	r1, #0
100021e2:	9803      	ldr	r0, [sp, #12]
100021e4:	0092      	lsls	r2, r2, #2
100021e6:	8025      	strh	r5, [r4, #0]
100021e8:	801d      	strh	r5, [r3, #0]
100021ea:	f004 fb19 	bl	10006820 <__wrap_memset>
100021ee:	9b01      	ldr	r3, [sp, #4]
100021f0:	801d      	strh	r5, [r3, #0]
100021f2:	9b02      	ldr	r3, [sp, #8]
100021f4:	801d      	strh	r5, [r3, #0]
100021f6:	883b      	ldrh	r3, [r7, #0]
100021f8:	8838      	ldrh	r0, [r7, #0]
100021fa:	b280      	uxth	r0, r0
100021fc:	b011      	add	sp, #68	; 0x44
100021fe:	bcf0      	pop	{r4, r5, r6, r7}
10002200:	46bb      	mov	fp, r7
10002202:	46b2      	mov	sl, r6
10002204:	46a9      	mov	r9, r5
10002206:	46a0      	mov	r8, r4
10002208:	bdf0      	pop	{r4, r5, r6, r7, pc}
1000220a:	4653      	mov	r3, sl
1000220c:	8023      	strh	r3, [r4, #0]
1000220e:	f7fe fc9d 	bl	10000b4c <Watchdog>
10002212:	464b      	mov	r3, r9
10002214:	803b      	strh	r3, [r7, #0]
10002216:	2d10      	cmp	r5, #16
10002218:	d000      	beq.n	1000221c <p2pPollSlaveWrite+0x230>
1000221a:	e70d      	b.n	10002038 <p2pPollSlaveWrite+0x4c>
1000221c:	e727      	b.n	1000206e <p2pPollSlaveWrite+0x82>
1000221e:	f7fe fc95 	bl	10000b4c <Watchdog>
10002222:	883b      	ldrh	r3, [r7, #0]
10002224:	2b00      	cmp	r3, #0
10002226:	d000      	beq.n	1000222a <p2pPollSlaveWrite+0x23e>
10002228:	e731      	b.n	1000208e <p2pPollSlaveWrite+0xa2>
1000222a:	9b08      	ldr	r3, [sp, #32]
1000222c:	9306      	str	r3, [sp, #24]
1000222e:	e6fe      	b.n	1000202e <p2pPollSlaveWrite+0x42>
10002230:	2300      	movs	r3, #0
10002232:	8023      	strh	r3, [r4, #0]
10002234:	f7fe fc8a 	bl	10000b4c <Watchdog>
10002238:	e73e      	b.n	100020b8 <p2pPollSlaveWrite+0xcc>
1000223a:	8822      	ldrh	r2, [r4, #0]
1000223c:	8833      	ldrh	r3, [r6, #0]
1000223e:	429a      	cmp	r2, r3
10002240:	d100      	bne.n	10002244 <p2pPollSlaveWrite+0x258>
10002242:	e0d4      	b.n	100023ee <p2pPollSlaveWrite+0x402>
10002244:	8822      	ldrh	r2, [r4, #0]
10002246:	1c53      	adds	r3, r2, #1
10002248:	b29b      	uxth	r3, r3
1000224a:	8023      	strh	r3, [r4, #0]
1000224c:	464b      	mov	r3, r9
1000224e:	5c9d      	ldrb	r5, [r3, r2]
10002250:	ab0e      	add	r3, sp, #56	; 0x38
10002252:	71dd      	strb	r5, [r3, #7]
10002254:	8823      	ldrh	r3, [r4, #0]
10002256:	4543      	cmp	r3, r8
10002258:	d100      	bne.n	1000225c <p2pPollSlaveWrite+0x270>
1000225a:	e103      	b.n	10002464 <p2pPollSlaveWrite+0x478>
1000225c:	f7fe fc76 	bl	10000b4c <Watchdog>
10002260:	b2ab      	uxth	r3, r5
10002262:	445b      	add	r3, fp
10002264:	b29b      	uxth	r3, r3
10002266:	469b      	mov	fp, r3
10002268:	4653      	mov	r3, sl
1000226a:	0a1b      	lsrs	r3, r3, #8
1000226c:	9a04      	ldr	r2, [sp, #16]
1000226e:	406b      	eors	r3, r5
10002270:	005b      	lsls	r3, r3, #1
10002272:	5ad2      	ldrh	r2, [r2, r3]
10002274:	4653      	mov	r3, sl
10002276:	021b      	lsls	r3, r3, #8
10002278:	b29b      	uxth	r3, r3
1000227a:	405a      	eors	r2, r3
1000227c:	9b09      	ldr	r3, [sp, #36]	; 0x24
1000227e:	4692      	mov	sl, r2
10002280:	3301      	adds	r3, #1
10002282:	b2db      	uxtb	r3, r3
10002284:	9309      	str	r3, [sp, #36]	; 0x24
10002286:	e782      	b.n	1000218e <p2pPollSlaveWrite+0x1a2>
10002288:	2000218c 	.word	0x2000218c
1000228c:	2000218a 	.word	0x2000218a
10002290:	20000ee0 	.word	0x20000ee0
10002294:	20001110 	.word	0x20001110
10002298:	20002188 	.word	0x20002188
1000229c:	2000218e 	.word	0x2000218e
100022a0:	20002190 	.word	0x20002190
100022a4:	100093f0 	.word	0x100093f0
100022a8:	3307      	adds	r3, #7
100022aa:	9309      	str	r3, [sp, #36]	; 0x24
100022ac:	8822      	ldrh	r2, [r4, #0]
100022ae:	8833      	ldrh	r3, [r6, #0]
100022b0:	429a      	cmp	r2, r3
100022b2:	d100      	bne.n	100022b6 <p2pPollSlaveWrite+0x2ca>
100022b4:	e0c5      	b.n	10002442 <p2pPollSlaveWrite+0x456>
100022b6:	8822      	ldrh	r2, [r4, #0]
100022b8:	1c53      	adds	r3, r2, #1
100022ba:	b29b      	uxth	r3, r3
100022bc:	8023      	strh	r3, [r4, #0]
100022be:	9b00      	ldr	r3, [sp, #0]
100022c0:	5c9b      	ldrb	r3, [r3, r2]
100022c2:	4699      	mov	r9, r3
100022c4:	464a      	mov	r2, r9
100022c6:	ab0e      	add	r3, sp, #56	; 0x38
100022c8:	71da      	strb	r2, [r3, #7]
100022ca:	8823      	ldrh	r3, [r4, #0]
100022cc:	4543      	cmp	r3, r8
100022ce:	d100      	bne.n	100022d2 <p2pPollSlaveWrite+0x2e6>
100022d0:	e0e1      	b.n	10002496 <p2pPollSlaveWrite+0x4aa>
100022d2:	f7fe fc3b 	bl	10000b4c <Watchdog>
100022d6:	464b      	mov	r3, r9
100022d8:	b29b      	uxth	r3, r3
100022da:	001d      	movs	r5, r3
100022dc:	4653      	mov	r3, sl
100022de:	464a      	mov	r2, r9
100022e0:	0a1b      	lsrs	r3, r3, #8
100022e2:	4053      	eors	r3, r2
100022e4:	9a04      	ldr	r2, [sp, #16]
100022e6:	005b      	lsls	r3, r3, #1
100022e8:	5ad2      	ldrh	r2, [r2, r3]
100022ea:	4653      	mov	r3, sl
100022ec:	021b      	lsls	r3, r3, #8
100022ee:	b29b      	uxth	r3, r3
100022f0:	405a      	eors	r2, r3
100022f2:	4692      	mov	sl, r2
100022f4:	8822      	ldrh	r2, [r4, #0]
100022f6:	8833      	ldrh	r3, [r6, #0]
100022f8:	429a      	cmp	r2, r3
100022fa:	d100      	bne.n	100022fe <p2pPollSlaveWrite+0x312>
100022fc:	e099      	b.n	10002432 <p2pPollSlaveWrite+0x446>
100022fe:	8822      	ldrh	r2, [r4, #0]
10002300:	1c53      	adds	r3, r2, #1
10002302:	b29b      	uxth	r3, r3
10002304:	8023      	strh	r3, [r4, #0]
10002306:	9b00      	ldr	r3, [sp, #0]
10002308:	5c9b      	ldrb	r3, [r3, r2]
1000230a:	4699      	mov	r9, r3
1000230c:	464a      	mov	r2, r9
1000230e:	ab0e      	add	r3, sp, #56	; 0x38
10002310:	71da      	strb	r2, [r3, #7]
10002312:	8823      	ldrh	r3, [r4, #0]
10002314:	4543      	cmp	r3, r8
10002316:	d100      	bne.n	1000231a <p2pPollSlaveWrite+0x32e>
10002318:	e0b6      	b.n	10002488 <p2pPollSlaveWrite+0x49c>
1000231a:	f7fe fc17 	bl	10000b4c <Watchdog>
1000231e:	464b      	mov	r3, r9
10002320:	b29a      	uxth	r2, r3
10002322:	002b      	movs	r3, r5
10002324:	445b      	add	r3, fp
10002326:	189b      	adds	r3, r3, r2
10002328:	b29b      	uxth	r3, r3
1000232a:	9308      	str	r3, [sp, #32]
1000232c:	4653      	mov	r3, sl
1000232e:	464a      	mov	r2, r9
10002330:	0a1b      	lsrs	r3, r3, #8
10002332:	4053      	eors	r3, r2
10002334:	9a04      	ldr	r2, [sp, #16]
10002336:	005b      	lsls	r3, r3, #1
10002338:	5ad2      	ldrh	r2, [r2, r3]
1000233a:	4653      	mov	r3, sl
1000233c:	021b      	lsls	r3, r3, #8
1000233e:	b29b      	uxth	r3, r3
10002340:	405a      	eors	r2, r3
10002342:	9205      	str	r2, [sp, #20]
10002344:	8822      	ldrh	r2, [r4, #0]
10002346:	8833      	ldrh	r3, [r6, #0]
10002348:	429a      	cmp	r2, r3
1000234a:	d100      	bne.n	1000234e <p2pPollSlaveWrite+0x362>
1000234c:	e083      	b.n	10002456 <p2pPollSlaveWrite+0x46a>
1000234e:	8822      	ldrh	r2, [r4, #0]
10002350:	1c53      	adds	r3, r2, #1
10002352:	b29b      	uxth	r3, r3
10002354:	8023      	strh	r3, [r4, #0]
10002356:	9b00      	ldr	r3, [sp, #0]
10002358:	5c9b      	ldrb	r3, [r3, r2]
1000235a:	4699      	mov	r9, r3
1000235c:	464a      	mov	r2, r9
1000235e:	ab0e      	add	r3, sp, #56	; 0x38
10002360:	71da      	strb	r2, [r3, #7]
10002362:	8823      	ldrh	r3, [r4, #0]
10002364:	4543      	cmp	r3, r8
10002366:	d100      	bne.n	1000236a <p2pPollSlaveWrite+0x37e>
10002368:	e09a      	b.n	100024a0 <p2pPollSlaveWrite+0x4b4>
1000236a:	f7fe fbef 	bl	10000b4c <Watchdog>
1000236e:	883b      	ldrh	r3, [r7, #0]
10002370:	2b00      	cmp	r3, #0
10002372:	d100      	bne.n	10002376 <p2pPollSlaveWrite+0x38a>
10002374:	e759      	b.n	1000222a <p2pPollSlaveWrite+0x23e>
10002376:	8822      	ldrh	r2, [r4, #0]
10002378:	8833      	ldrh	r3, [r6, #0]
1000237a:	429a      	cmp	r2, r3
1000237c:	d100      	bne.n	10002380 <p2pPollSlaveWrite+0x394>
1000237e:	e077      	b.n	10002470 <p2pPollSlaveWrite+0x484>
10002380:	8822      	ldrh	r2, [r4, #0]
10002382:	1c53      	adds	r3, r2, #1
10002384:	b29b      	uxth	r3, r3
10002386:	8023      	strh	r3, [r4, #0]
10002388:	9b00      	ldr	r3, [sp, #0]
1000238a:	5c9b      	ldrb	r3, [r3, r2]
1000238c:	aa0e      	add	r2, sp, #56	; 0x38
1000238e:	71d3      	strb	r3, [r2, #7]
10002390:	8823      	ldrh	r3, [r4, #0]
10002392:	4543      	cmp	r3, r8
10002394:	d100      	bne.n	10002398 <p2pPollSlaveWrite+0x3ac>
10002396:	e088      	b.n	100024aa <p2pPollSlaveWrite+0x4be>
10002398:	f7fe fbd8 	bl	10000b4c <Watchdog>
1000239c:	883b      	ldrh	r3, [r7, #0]
1000239e:	2b00      	cmp	r3, #0
100023a0:	d100      	bne.n	100023a4 <p2pPollSlaveWrite+0x3b8>
100023a2:	e087      	b.n	100024b4 <p2pPollSlaveWrite+0x4c8>
100023a4:	464b      	mov	r3, r9
100023a6:	aa0e      	add	r2, sp, #56	; 0x38
100023a8:	79d2      	ldrb	r2, [r2, #7]
100023aa:	021b      	lsls	r3, r3, #8
100023ac:	189b      	adds	r3, r3, r2
100023ae:	9a08      	ldr	r2, [sp, #32]
100023b0:	b29b      	uxth	r3, r3
100023b2:	429a      	cmp	r2, r3
100023b4:	d100      	bne.n	100023b8 <p2pPollSlaveWrite+0x3cc>
100023b6:	e0c8      	b.n	1000254a <p2pPollSlaveWrite+0x55e>
100023b8:	9a05      	ldr	r2, [sp, #20]
100023ba:	429a      	cmp	r2, r3
100023bc:	d100      	bne.n	100023c0 <p2pPollSlaveWrite+0x3d4>
100023be:	e0c1      	b.n	10002544 <p2pPollSlaveWrite+0x558>
100023c0:	9b00      	ldr	r3, [sp, #0]
100023c2:	46b1      	mov	r9, r6
100023c4:	469a      	mov	sl, r3
100023c6:	4bc4      	ldr	r3, [pc, #784]	; (100026d8 <p2pPollSlaveWrite+0x6ec>)
100023c8:	781b      	ldrb	r3, [r3, #0]
100023ca:	2b00      	cmp	r3, #0
100023cc:	d000      	beq.n	100023d0 <p2pPollSlaveWrite+0x3e4>
100023ce:	e0ae      	b.n	1000252e <p2pPollSlaveWrite+0x542>
100023d0:	2010      	movs	r0, #16
100023d2:	f7fe fbbf 	bl	10000b54 <p2pTxByteMaster>
100023d6:	2019      	movs	r0, #25
100023d8:	f7fe fbbc 	bl	10000b54 <p2pTxByteMaster>
100023dc:	2006      	movs	r0, #6
100023de:	f7fe fbb9 	bl	10000b54 <p2pTxByteMaster>
100023e2:	e6f4      	b.n	100021ce <p2pPollSlaveWrite+0x1e2>
100023e4:	2300      	movs	r3, #0
100023e6:	8023      	strh	r3, [r4, #0]
100023e8:	f7fe fbb0 	bl	10000b4c <Watchdog>
100023ec:	e6be      	b.n	1000216c <p2pPollSlaveWrite+0x180>
100023ee:	f7fe fbad 	bl	10000b4c <Watchdog>
100023f2:	883b      	ldrh	r3, [r7, #0]
100023f4:	2b00      	cmp	r3, #0
100023f6:	d000      	beq.n	100023fa <p2pPollSlaveWrite+0x40e>
100023f8:	e71f      	b.n	1000223a <p2pPollSlaveWrite+0x24e>
100023fa:	2510      	movs	r5, #16
100023fc:	3310      	adds	r3, #16
100023fe:	e730      	b.n	10002262 <p2pPollSlaveWrite+0x276>
10002400:	f7fe fba4 	bl	10000b4c <Watchdog>
10002404:	883b      	ldrh	r3, [r7, #0]
10002406:	2b00      	cmp	r3, #0
10002408:	d000      	beq.n	1000240c <p2pPollSlaveWrite+0x420>
1000240a:	e66d      	b.n	100020e8 <p2pPollSlaveWrite+0xfc>
1000240c:	9b06      	ldr	r3, [sp, #24]
1000240e:	221a      	movs	r2, #26
10002410:	3344      	adds	r3, #68	; 0x44
10002412:	b29b      	uxth	r3, r3
10002414:	469b      	mov	fp, r3
10002416:	4653      	mov	r3, sl
10002418:	0a1b      	lsrs	r3, r3, #8
1000241a:	4053      	eors	r3, r2
1000241c:	9a04      	ldr	r2, [sp, #16]
1000241e:	005b      	lsls	r3, r3, #1
10002420:	5ad2      	ldrh	r2, [r2, r3]
10002422:	4653      	mov	r3, sl
10002424:	021b      	lsls	r3, r3, #8
10002426:	b29b      	uxth	r3, r3
10002428:	4053      	eors	r3, r2
1000242a:	469a      	mov	sl, r3
1000242c:	2321      	movs	r3, #33	; 0x21
1000242e:	9309      	str	r3, [sp, #36]	; 0x24
10002430:	e687      	b.n	10002142 <p2pPollSlaveWrite+0x156>
10002432:	f7fe fb8b 	bl	10000b4c <Watchdog>
10002436:	883b      	ldrh	r3, [r7, #0]
10002438:	2b00      	cmp	r3, #0
1000243a:	d000      	beq.n	1000243e <p2pPollSlaveWrite+0x452>
1000243c:	e75a      	b.n	100022f4 <p2pPollSlaveWrite+0x308>
1000243e:	002a      	movs	r2, r5
10002440:	e76f      	b.n	10002322 <p2pPollSlaveWrite+0x336>
10002442:	f7fe fb83 	bl	10000b4c <Watchdog>
10002446:	883b      	ldrh	r3, [r7, #0]
10002448:	2b00      	cmp	r3, #0
1000244a:	d000      	beq.n	1000244e <p2pPollSlaveWrite+0x462>
1000244c:	e72e      	b.n	100022ac <p2pPollSlaveWrite+0x2c0>
1000244e:	ab0e      	add	r3, sp, #56	; 0x38
10002450:	79db      	ldrb	r3, [r3, #7]
10002452:	4699      	mov	r9, r3
10002454:	e73f      	b.n	100022d6 <p2pPollSlaveWrite+0x2ea>
10002456:	f7fe fb79 	bl	10000b4c <Watchdog>
1000245a:	883b      	ldrh	r3, [r7, #0]
1000245c:	2b00      	cmp	r3, #0
1000245e:	d000      	beq.n	10002462 <p2pPollSlaveWrite+0x476>
10002460:	e770      	b.n	10002344 <p2pPollSlaveWrite+0x358>
10002462:	e784      	b.n	1000236e <p2pPollSlaveWrite+0x382>
10002464:	2300      	movs	r3, #0
10002466:	8023      	strh	r3, [r4, #0]
10002468:	f7fe fb70 	bl	10000b4c <Watchdog>
1000246c:	b2ab      	uxth	r3, r5
1000246e:	e6f8      	b.n	10002262 <p2pPollSlaveWrite+0x276>
10002470:	f7fe fb6c 	bl	10000b4c <Watchdog>
10002474:	883b      	ldrh	r3, [r7, #0]
10002476:	2b00      	cmp	r3, #0
10002478:	d000      	beq.n	1000247c <p2pPollSlaveWrite+0x490>
1000247a:	e77c      	b.n	10002376 <p2pPollSlaveWrite+0x38a>
1000247c:	e78e      	b.n	1000239c <p2pPollSlaveWrite+0x3b0>
1000247e:	2300      	movs	r3, #0
10002480:	8023      	strh	r3, [r4, #0]
10002482:	f7fe fb63 	bl	10000b4c <Watchdog>
10002486:	e644      	b.n	10002112 <p2pPollSlaveWrite+0x126>
10002488:	2300      	movs	r3, #0
1000248a:	8023      	strh	r3, [r4, #0]
1000248c:	f7fe fb5e 	bl	10000b4c <Watchdog>
10002490:	464b      	mov	r3, r9
10002492:	b29a      	uxth	r2, r3
10002494:	e745      	b.n	10002322 <p2pPollSlaveWrite+0x336>
10002496:	2300      	movs	r3, #0
10002498:	8023      	strh	r3, [r4, #0]
1000249a:	f7fe fb57 	bl	10000b4c <Watchdog>
1000249e:	e71a      	b.n	100022d6 <p2pPollSlaveWrite+0x2ea>
100024a0:	2300      	movs	r3, #0
100024a2:	8023      	strh	r3, [r4, #0]
100024a4:	f7fe fb52 	bl	10000b4c <Watchdog>
100024a8:	e761      	b.n	1000236e <p2pPollSlaveWrite+0x382>
100024aa:	2300      	movs	r3, #0
100024ac:	8023      	strh	r3, [r4, #0]
100024ae:	f7fe fb4d 	bl	10000b4c <Watchdog>
100024b2:	e773      	b.n	1000239c <p2pPollSlaveWrite+0x3b0>
100024b4:	9b07      	ldr	r3, [sp, #28]
100024b6:	2b00      	cmp	r3, #0
100024b8:	d100      	bne.n	100024bc <p2pPollSlaveWrite+0x4d0>
100024ba:	e685      	b.n	100021c8 <p2pPollSlaveWrite+0x1dc>
100024bc:	4b86      	ldr	r3, [pc, #536]	; (100026d8 <p2pPollSlaveWrite+0x6ec>)
100024be:	9306      	str	r3, [sp, #24]
100024c0:	781b      	ldrb	r3, [r3, #0]
100024c2:	2b00      	cmp	r3, #0
100024c4:	d000      	beq.n	100024c8 <p2pPollSlaveWrite+0x4dc>
100024c6:	2303      	movs	r3, #3
100024c8:	4699      	mov	r9, r3
100024ca:	3309      	adds	r3, #9
100024cc:	469a      	mov	sl, r3
100024ce:	9b00      	ldr	r3, [sp, #0]
100024d0:	781b      	ldrb	r3, [r3, #0]
100024d2:	2bff      	cmp	r3, #255	; 0xff
100024d4:	d107      	bne.n	100024e6 <p2pPollSlaveWrite+0x4fa>
100024d6:	4653      	mov	r3, sl
100024d8:	3301      	adds	r3, #1
100024da:	b29b      	uxth	r3, r3
100024dc:	469a      	mov	sl, r3
100024de:	464b      	mov	r3, r9
100024e0:	3301      	adds	r3, #1
100024e2:	b29b      	uxth	r3, r3
100024e4:	4699      	mov	r9, r3
100024e6:	4b7d      	ldr	r3, [pc, #500]	; (100026dc <p2pPollSlaveWrite+0x6f0>)
100024e8:	469b      	mov	fp, r3
100024ea:	2300      	movs	r3, #0
100024ec:	465a      	mov	r2, fp
100024ee:	8013      	strh	r3, [r2, #0]
100024f0:	4b7b      	ldr	r3, [pc, #492]	; (100026e0 <p2pPollSlaveWrite+0x6f4>)
100024f2:	781b      	ldrb	r3, [r3, #0]
100024f4:	2b00      	cmp	r3, #0
100024f6:	d044      	beq.n	10002582 <p2pPollSlaveWrite+0x596>
100024f8:	9b00      	ldr	r3, [sp, #0]
100024fa:	2010      	movs	r0, #16
100024fc:	469a      	mov	sl, r3
100024fe:	f7fe fb29 	bl	10000b54 <p2pTxByteMaster>
10002502:	2016      	movs	r0, #22
10002504:	f7fe fb26 	bl	10000b54 <p2pTxByteMaster>
10002508:	4d76      	ldr	r5, [pc, #472]	; (100026e4 <p2pPollSlaveWrite+0x6f8>)
1000250a:	46b1      	mov	r9, r6
1000250c:	782b      	ldrb	r3, [r5, #0]
1000250e:	2bfb      	cmp	r3, #251	; 0xfb
10002510:	d02d      	beq.n	1000256e <p2pPollSlaveWrite+0x582>
10002512:	782b      	ldrb	r3, [r5, #0]
10002514:	2bfc      	cmp	r3, #252	; 0xfc
10002516:	d01b      	beq.n	10002550 <p2pPollSlaveWrite+0x564>
10002518:	2bfd      	cmp	r3, #253	; 0xfd
1000251a:	d000      	beq.n	1000251e <p2pPollSlaveWrite+0x532>
1000251c:	e657      	b.n	100021ce <p2pPollSlaveWrite+0x1e2>
1000251e:	4653      	mov	r3, sl
10002520:	7b99      	ldrb	r1, [r3, #14]
10002522:	7bdb      	ldrb	r3, [r3, #15]
10002524:	4a70      	ldr	r2, [pc, #448]	; (100026e8 <p2pPollSlaveWrite+0x6fc>)
10002526:	021b      	lsls	r3, r3, #8
10002528:	430b      	orrs	r3, r1
1000252a:	8013      	strh	r3, [r2, #0]
1000252c:	e64f      	b.n	100021ce <p2pPollSlaveWrite+0x1e2>
1000252e:	2010      	movs	r0, #16
10002530:	f7fe fb10 	bl	10000b54 <p2pTxByteMaster>
10002534:	2021      	movs	r0, #33	; 0x21
10002536:	f7fe fb0d 	bl	10000b54 <p2pTxByteMaster>
1000253a:	4b6c      	ldr	r3, [pc, #432]	; (100026ec <p2pPollSlaveWrite+0x700>)
1000253c:	7818      	ldrb	r0, [r3, #0]
1000253e:	f7fe fb09 	bl	10000b54 <p2pTxByteMaster>
10002542:	e745      	b.n	100023d0 <p2pPollSlaveWrite+0x3e4>
10002544:	2302      	movs	r3, #2
10002546:	9307      	str	r3, [sp, #28]
10002548:	e7b8      	b.n	100024bc <p2pPollSlaveWrite+0x4d0>
1000254a:	2301      	movs	r3, #1
1000254c:	9307      	str	r3, [sp, #28]
1000254e:	e7b5      	b.n	100024bc <p2pPollSlaveWrite+0x4d0>
10002550:	4653      	mov	r3, sl
10002552:	7b9b      	ldrb	r3, [r3, #14]
10002554:	2b50      	cmp	r3, #80	; 0x50
10002556:	d069      	beq.n	1000262c <p2pPollSlaveWrite+0x640>
10002558:	23d0      	movs	r3, #208	; 0xd0
1000255a:	2280      	movs	r2, #128	; 0x80
1000255c:	061b      	lsls	r3, r3, #24
1000255e:	03d2      	lsls	r2, r2, #15
10002560:	615a      	str	r2, [r3, #20]
10002562:	23c8      	movs	r3, #200	; 0xc8
10002564:	803b      	strh	r3, [r7, #0]
10002566:	883b      	ldrh	r3, [r7, #0]
10002568:	2b00      	cmp	r3, #0
1000256a:	d1fc      	bne.n	10002566 <p2pPollSlaveWrite+0x57a>
1000256c:	e62f      	b.n	100021ce <p2pPollSlaveWrite+0x1e2>
1000256e:	4653      	mov	r3, sl
10002570:	7b9b      	ldrb	r3, [r3, #14]
10002572:	2b02      	cmp	r3, #2
10002574:	d863      	bhi.n	1000263e <p2pPollSlaveWrite+0x652>
10002576:	4a5e      	ldr	r2, [pc, #376]	; (100026f0 <p2pPollSlaveWrite+0x704>)
10002578:	005b      	lsls	r3, r3, #1
1000257a:	5a98      	ldrh	r0, [r3, r2]
1000257c:	f7fe fad6 	bl	10000b2c <BaudRate_Update>
10002580:	e7c7      	b.n	10002512 <p2pPollSlaveWrite+0x526>
10002582:	464b      	mov	r3, r9
10002584:	3304      	adds	r3, #4
10002586:	930b      	str	r3, [sp, #44]	; 0x2c
10002588:	464b      	mov	r3, r9
1000258a:	3305      	adds	r3, #5
1000258c:	930c      	str	r3, [sp, #48]	; 0x30
1000258e:	464b      	mov	r3, r9
10002590:	3306      	adds	r3, #6
10002592:	930a      	str	r3, [sp, #40]	; 0x28
10002594:	9b00      	ldr	r3, [sp, #0]
10002596:	4655      	mov	r5, sl
10002598:	001a      	movs	r2, r3
1000259a:	444a      	add	r2, r9
1000259c:	920d      	str	r2, [sp, #52]	; 0x34
1000259e:	0022      	movs	r2, r4
100025a0:	46b2      	mov	sl, r6
100025a2:	464c      	mov	r4, r9
100025a4:	465e      	mov	r6, fp
100025a6:	4691      	mov	r9, r2
100025a8:	46bb      	mov	fp, r7
100025aa:	001f      	movs	r7, r3
100025ac:	e01c      	b.n	100025e8 <p2pPollSlaveWrite+0x5fc>
100025ae:	5cfb      	ldrb	r3, [r7, r3]
100025b0:	2b10      	cmp	r3, #16
100025b2:	d02c      	beq.n	1000260e <p2pPollSlaveWrite+0x622>
100025b4:	5d38      	ldrb	r0, [r7, r4]
100025b6:	2810      	cmp	r0, #16
100025b8:	d101      	bne.n	100025be <p2pPollSlaveWrite+0x5d2>
100025ba:	3501      	adds	r5, #1
100025bc:	b2ad      	uxth	r5, r5
100025be:	f7fe fae7 	bl	10000b90 <p2pTxByteSlave>
100025c2:	9b07      	ldr	r3, [sp, #28]
100025c4:	2b01      	cmp	r3, #1
100025c6:	d03d      	beq.n	10002644 <p2pPollSlaveWrite+0x658>
100025c8:	990a      	ldr	r1, [sp, #40]	; 0x28
100025ca:	8832      	ldrh	r2, [r6, #0]
100025cc:	5c79      	ldrb	r1, [r7, r1]
100025ce:	0a13      	lsrs	r3, r2, #8
100025d0:	404b      	eors	r3, r1
100025d2:	9904      	ldr	r1, [sp, #16]
100025d4:	005b      	lsls	r3, r3, #1
100025d6:	5acb      	ldrh	r3, [r1, r3]
100025d8:	0212      	lsls	r2, r2, #8
100025da:	4053      	eors	r3, r2
100025dc:	8033      	strh	r3, [r6, #0]
100025de:	1c63      	adds	r3, r4, #1
100025e0:	b29b      	uxth	r3, r3
100025e2:	429d      	cmp	r5, r3
100025e4:	d934      	bls.n	10002650 <p2pPollSlaveWrite+0x664>
100025e6:	001c      	movs	r4, r3
100025e8:	9b0b      	ldr	r3, [sp, #44]	; 0x2c
100025ea:	429c      	cmp	r4, r3
100025ec:	d0f7      	beq.n	100025de <p2pPollSlaveWrite+0x5f2>
100025ee:	9b0c      	ldr	r3, [sp, #48]	; 0x30
100025f0:	429c      	cmp	r4, r3
100025f2:	d0f4      	beq.n	100025de <p2pPollSlaveWrite+0x5f2>
100025f4:	9a0a      	ldr	r2, [sp, #40]	; 0x28
100025f6:	4294      	cmp	r4, r2
100025f8:	d0d9      	beq.n	100025ae <p2pPollSlaveWrite+0x5c2>
100025fa:	5d38      	ldrb	r0, [r7, r4]
100025fc:	f7fe fac8 	bl	10000b90 <p2pTxByteSlave>
10002600:	9b07      	ldr	r3, [sp, #28]
10002602:	2b01      	cmp	r3, #1
10002604:	d00a      	beq.n	1000261c <p2pPollSlaveWrite+0x630>
10002606:	8832      	ldrh	r2, [r6, #0]
10002608:	5d39      	ldrb	r1, [r7, r4]
1000260a:	0a13      	lsrs	r3, r2, #8
1000260c:	e7e0      	b.n	100025d0 <p2pPollSlaveWrite+0x5e4>
1000260e:	9b0d      	ldr	r3, [sp, #52]	; 0x34
10002610:	79db      	ldrb	r3, [r3, #7]
10002612:	2b10      	cmp	r3, #16
10002614:	d007      	beq.n	10002626 <p2pPollSlaveWrite+0x63a>
10002616:	3501      	adds	r5, #1
10002618:	b2ad      	uxth	r5, r5
1000261a:	e7e0      	b.n	100025de <p2pPollSlaveWrite+0x5f2>
1000261c:	8832      	ldrh	r2, [r6, #0]
1000261e:	5d3b      	ldrb	r3, [r7, r4]
10002620:	189b      	adds	r3, r3, r2
10002622:	8033      	strh	r3, [r6, #0]
10002624:	e7db      	b.n	100025de <p2pPollSlaveWrite+0x5f2>
10002626:	3502      	adds	r5, #2
10002628:	b2ad      	uxth	r5, r5
1000262a:	e7d8      	b.n	100025de <p2pPollSlaveWrite+0x5f2>
1000262c:	23d0      	movs	r3, #208	; 0xd0
1000262e:	061b      	lsls	r3, r3, #24
10002630:	685a      	ldr	r2, [r3, #4]
10002632:	0552      	lsls	r2, r2, #21
10002634:	d595      	bpl.n	10002562 <p2pPollSlaveWrite+0x576>
10002636:	2280      	movs	r2, #128	; 0x80
10002638:	03d2      	lsls	r2, r2, #15
1000263a:	619a      	str	r2, [r3, #24]
1000263c:	e791      	b.n	10002562 <p2pPollSlaveWrite+0x576>
1000263e:	2096      	movs	r0, #150	; 0x96
10002640:	0200      	lsls	r0, r0, #8
10002642:	e79b      	b.n	1000257c <p2pPollSlaveWrite+0x590>
10002644:	9b0a      	ldr	r3, [sp, #40]	; 0x28
10002646:	8832      	ldrh	r2, [r6, #0]
10002648:	5cfb      	ldrb	r3, [r7, r3]
1000264a:	189b      	adds	r3, r3, r2
1000264c:	8033      	strh	r3, [r6, #0]
1000264e:	e7c6      	b.n	100025de <p2pPollSlaveWrite+0x5f2>
10002650:	464b      	mov	r3, r9
10002652:	46a1      	mov	r9, r4
10002654:	001c      	movs	r4, r3
10002656:	2300      	movs	r3, #0
10002658:	465f      	mov	r7, fp
1000265a:	46b3      	mov	fp, r6
1000265c:	9a01      	ldr	r2, [sp, #4]
1000265e:	4656      	mov	r6, sl
10002660:	8013      	strh	r3, [r2, #0]
10002662:	9a02      	ldr	r2, [sp, #8]
10002664:	8013      	strh	r3, [r2, #0]
10002666:	465b      	mov	r3, fp
10002668:	881b      	ldrh	r3, [r3, #0]
1000266a:	469a      	mov	sl, r3
1000266c:	0a18      	lsrs	r0, r3, #8
1000266e:	f7fe fa8f 	bl	10000b90 <p2pTxByteSlave>
10002672:	4653      	mov	r3, sl
10002674:	b2d8      	uxtb	r0, r3
10002676:	f7fe fa8b 	bl	10000b90 <p2pTxByteSlave>
1000267a:	9901      	ldr	r1, [sp, #4]
1000267c:	9b02      	ldr	r3, [sp, #8]
1000267e:	880a      	ldrh	r2, [r1, #0]
10002680:	881b      	ldrh	r3, [r3, #0]
10002682:	429a      	cmp	r2, r3
10002684:	d01d      	beq.n	100026c2 <p2pPollSlaveWrite+0x6d6>
10002686:	880a      	ldrh	r2, [r1, #0]
10002688:	1c53      	adds	r3, r2, #1
1000268a:	b29b      	uxth	r3, r3
1000268c:	800b      	strh	r3, [r1, #0]
1000268e:	9b03      	ldr	r3, [sp, #12]
10002690:	5c9b      	ldrb	r3, [r3, r2]
10002692:	aa0e      	add	r2, sp, #56	; 0x38
10002694:	71d3      	strb	r3, [r2, #7]
10002696:	880b      	ldrh	r3, [r1, #0]
10002698:	4543      	cmp	r3, r8
1000269a:	d018      	beq.n	100026ce <p2pPollSlaveWrite+0x6e2>
1000269c:	f7fe fa56 	bl	10000b4c <Watchdog>
100026a0:	883b      	ldrh	r3, [r7, #0]
100026a2:	2b00      	cmp	r3, #0
100026a4:	d131      	bne.n	1000270a <p2pPollSlaveWrite+0x71e>
100026a6:	9b06      	ldr	r3, [sp, #24]
100026a8:	781b      	ldrb	r3, [r3, #0]
100026aa:	2b00      	cmp	r3, #0
100026ac:	d122      	bne.n	100026f4 <p2pPollSlaveWrite+0x708>
100026ae:	2010      	movs	r0, #16
100026b0:	f7fe fa50 	bl	10000b54 <p2pTxByteMaster>
100026b4:	2019      	movs	r0, #25
100026b6:	f7fe fa4d 	bl	10000b54 <p2pTxByteMaster>
100026ba:	200c      	movs	r0, #12
100026bc:	f7fe fa4a 	bl	10000b54 <p2pTxByteMaster>
100026c0:	e5b3      	b.n	1000222a <p2pPollSlaveWrite+0x23e>
100026c2:	f7fe fa43 	bl	10000b4c <Watchdog>
100026c6:	883b      	ldrh	r3, [r7, #0]
100026c8:	2b00      	cmp	r3, #0
100026ca:	d1d6      	bne.n	1000267a <p2pPollSlaveWrite+0x68e>
100026cc:	e7e8      	b.n	100026a0 <p2pPollSlaveWrite+0x6b4>
100026ce:	2300      	movs	r3, #0
100026d0:	800b      	strh	r3, [r1, #0]
100026d2:	f7fe fa3b 	bl	10000b4c <Watchdog>
100026d6:	e7e3      	b.n	100026a0 <p2pPollSlaveWrite+0x6b4>
100026d8:	200021a5 	.word	0x200021a5
100026dc:	20002184 	.word	0x20002184
100026e0:	200021a3 	.word	0x200021a3
100026e4:	200021a9 	.word	0x200021a9
100026e8:	20002192 	.word	0x20002192
100026ec:	200021aa 	.word	0x200021aa
100026f0:	100095f0 	.word	0x100095f0
100026f4:	2010      	movs	r0, #16
100026f6:	f7fe fa2d 	bl	10000b54 <p2pTxByteMaster>
100026fa:	2021      	movs	r0, #33	; 0x21
100026fc:	f7fe fa2a 	bl	10000b54 <p2pTxByteMaster>
10002700:	4b70      	ldr	r3, [pc, #448]	; (100028c4 <p2pPollSlaveWrite+0x8d8>)
10002702:	7818      	ldrb	r0, [r3, #0]
10002704:	f7fe fa26 	bl	10000b54 <p2pTxByteMaster>
10002708:	e7d1      	b.n	100026ae <p2pPollSlaveWrite+0x6c2>
1000270a:	9b00      	ldr	r3, [sp, #0]
1000270c:	464d      	mov	r5, r9
1000270e:	469a      	mov	sl, r3
10002710:	ab0e      	add	r3, sp, #56	; 0x38
10002712:	79db      	ldrb	r3, [r3, #7]
10002714:	46b1      	mov	r9, r6
10002716:	2b10      	cmp	r3, #16
10002718:	d010      	beq.n	1000273c <p2pPollSlaveWrite+0x750>
1000271a:	9b06      	ldr	r3, [sp, #24]
1000271c:	781b      	ldrb	r3, [r3, #0]
1000271e:	2b00      	cmp	r3, #0
10002720:	d129      	bne.n	10002776 <p2pPollSlaveWrite+0x78a>
10002722:	2010      	movs	r0, #16
10002724:	f7fe fa16 	bl	10000b54 <p2pTxByteMaster>
10002728:	2019      	movs	r0, #25
1000272a:	f7fe fa13 	bl	10000b54 <p2pTxByteMaster>
1000272e:	2082      	movs	r0, #130	; 0x82
10002730:	f7fe fa10 	bl	10000b54 <p2pTxByteMaster>
10002734:	e54b      	b.n	100021ce <p2pPollSlaveWrite+0x1e2>
10002736:	883b      	ldrh	r3, [r7, #0]
10002738:	2b00      	cmp	r3, #0
1000273a:	d005      	beq.n	10002748 <p2pPollSlaveWrite+0x75c>
1000273c:	ab0e      	add	r3, sp, #56	; 0x38
1000273e:	1dd8      	adds	r0, r3, #7
10002740:	f7fe fa68 	bl	10000c14 <p2pRxByteSlave>
10002744:	2801      	cmp	r0, #1
10002746:	d1f6      	bne.n	10002736 <p2pPollSlaveWrite+0x74a>
10002748:	883b      	ldrh	r3, [r7, #0]
1000274a:	2b00      	cmp	r3, #0
1000274c:	d01e      	beq.n	1000278c <p2pPollSlaveWrite+0x7a0>
1000274e:	ab0e      	add	r3, sp, #56	; 0x38
10002750:	79db      	ldrb	r3, [r3, #7]
10002752:	2b16      	cmp	r3, #22
10002754:	d056      	beq.n	10002804 <p2pPollSlaveWrite+0x818>
10002756:	2b19      	cmp	r3, #25
10002758:	d03f      	beq.n	100027da <p2pPollSlaveWrite+0x7ee>
1000275a:	9b06      	ldr	r3, [sp, #24]
1000275c:	781b      	ldrb	r3, [r3, #0]
1000275e:	2b00      	cmp	r3, #0
10002760:	d122      	bne.n	100027a8 <p2pPollSlaveWrite+0x7bc>
10002762:	2010      	movs	r0, #16
10002764:	f7fe f9f6 	bl	10000b54 <p2pTxByteMaster>
10002768:	2019      	movs	r0, #25
1000276a:	f7fe f9f3 	bl	10000b54 <p2pTxByteMaster>
1000276e:	2009      	movs	r0, #9
10002770:	f7fe f9f0 	bl	10000b54 <p2pTxByteMaster>
10002774:	e52b      	b.n	100021ce <p2pPollSlaveWrite+0x1e2>
10002776:	2010      	movs	r0, #16
10002778:	f7fe f9ec 	bl	10000b54 <p2pTxByteMaster>
1000277c:	2021      	movs	r0, #33	; 0x21
1000277e:	f7fe f9e9 	bl	10000b54 <p2pTxByteMaster>
10002782:	4b50      	ldr	r3, [pc, #320]	; (100028c4 <p2pPollSlaveWrite+0x8d8>)
10002784:	7818      	ldrb	r0, [r3, #0]
10002786:	f7fe f9e5 	bl	10000b54 <p2pTxByteMaster>
1000278a:	e7ca      	b.n	10002722 <p2pPollSlaveWrite+0x736>
1000278c:	9b06      	ldr	r3, [sp, #24]
1000278e:	781b      	ldrb	r3, [r3, #0]
10002790:	2b00      	cmp	r3, #0
10002792:	d114      	bne.n	100027be <p2pPollSlaveWrite+0x7d2>
10002794:	2010      	movs	r0, #16
10002796:	f7fe f9dd 	bl	10000b54 <p2pTxByteMaster>
1000279a:	2019      	movs	r0, #25
1000279c:	f7fe f9da 	bl	10000b54 <p2pTxByteMaster>
100027a0:	200c      	movs	r0, #12
100027a2:	f7fe f9d7 	bl	10000b54 <p2pTxByteMaster>
100027a6:	e512      	b.n	100021ce <p2pPollSlaveWrite+0x1e2>
100027a8:	2010      	movs	r0, #16
100027aa:	f7fe f9d3 	bl	10000b54 <p2pTxByteMaster>
100027ae:	2021      	movs	r0, #33	; 0x21
100027b0:	f7fe f9d0 	bl	10000b54 <p2pTxByteMaster>
100027b4:	4b43      	ldr	r3, [pc, #268]	; (100028c4 <p2pPollSlaveWrite+0x8d8>)
100027b6:	7818      	ldrb	r0, [r3, #0]
100027b8:	f7fe f9cc 	bl	10000b54 <p2pTxByteMaster>
100027bc:	e7d1      	b.n	10002762 <p2pPollSlaveWrite+0x776>
100027be:	2010      	movs	r0, #16
100027c0:	f7fe f9c8 	bl	10000b54 <p2pTxByteMaster>
100027c4:	2021      	movs	r0, #33	; 0x21
100027c6:	f7fe f9c5 	bl	10000b54 <p2pTxByteMaster>
100027ca:	4b3e      	ldr	r3, [pc, #248]	; (100028c4 <p2pPollSlaveWrite+0x8d8>)
100027cc:	7818      	ldrb	r0, [r3, #0]
100027ce:	f7fe f9c1 	bl	10000b54 <p2pTxByteMaster>
100027d2:	e7df      	b.n	10002794 <p2pPollSlaveWrite+0x7a8>
100027d4:	883b      	ldrh	r3, [r7, #0]
100027d6:	2b00      	cmp	r3, #0
100027d8:	d005      	beq.n	100027e6 <p2pPollSlaveWrite+0x7fa>
100027da:	ab0e      	add	r3, sp, #56	; 0x38
100027dc:	1dd8      	adds	r0, r3, #7
100027de:	f7fe fa19 	bl	10000c14 <p2pRxByteSlave>
100027e2:	2801      	cmp	r0, #1
100027e4:	d1f6      	bne.n	100027d4 <p2pPollSlaveWrite+0x7e8>
100027e6:	9b06      	ldr	r3, [sp, #24]
100027e8:	781b      	ldrb	r3, [r3, #0]
100027ea:	2b00      	cmp	r3, #0
100027ec:	d14a      	bne.n	10002884 <p2pPollSlaveWrite+0x898>
100027ee:	2010      	movs	r0, #16
100027f0:	f7fe f9b0 	bl	10000b54 <p2pTxByteMaster>
100027f4:	2019      	movs	r0, #25
100027f6:	f7fe f9ad 	bl	10000b54 <p2pTxByteMaster>
100027fa:	ab0e      	add	r3, sp, #56	; 0x38
100027fc:	79d8      	ldrb	r0, [r3, #7]
100027fe:	f7fe f9a9 	bl	10000b54 <p2pTxByteMaster>
10002802:	e4e4      	b.n	100021ce <p2pPollSlaveWrite+0x1e2>
10002804:	9b09      	ldr	r3, [sp, #36]	; 0x24
10002806:	3503      	adds	r5, #3
10002808:	b2ad      	uxth	r5, r5
1000280a:	18ee      	adds	r6, r5, r3
1000280c:	e005      	b.n	1000281a <p2pPollSlaveWrite+0x82e>
1000280e:	4653      	mov	r3, sl
10002810:	5d58      	ldrb	r0, [r3, r5]
10002812:	f7fe f9bd 	bl	10000b90 <p2pTxByteSlave>
10002816:	3501      	adds	r5, #1
10002818:	b2ad      	uxth	r5, r5
1000281a:	42b5      	cmp	r5, r6
1000281c:	dbf7      	blt.n	1000280e <p2pPollSlaveWrite+0x822>
1000281e:	23fa      	movs	r3, #250	; 0xfa
10002820:	009b      	lsls	r3, r3, #2
10002822:	803b      	strh	r3, [r7, #0]
10002824:	e002      	b.n	1000282c <p2pPollSlaveWrite+0x840>
10002826:	883b      	ldrh	r3, [r7, #0]
10002828:	2b00      	cmp	r3, #0
1000282a:	d005      	beq.n	10002838 <p2pPollSlaveWrite+0x84c>
1000282c:	ab0e      	add	r3, sp, #56	; 0x38
1000282e:	1dd8      	adds	r0, r3, #7
10002830:	f7fe f9f0 	bl	10000c14 <p2pRxByteSlave>
10002834:	2801      	cmp	r0, #1
10002836:	d1f6      	bne.n	10002826 <p2pPollSlaveWrite+0x83a>
10002838:	883b      	ldrh	r3, [r7, #0]
1000283a:	2b00      	cmp	r3, #0
1000283c:	d0a6      	beq.n	1000278c <p2pPollSlaveWrite+0x7a0>
1000283e:	ab0e      	add	r3, sp, #56	; 0x38
10002840:	79db      	ldrb	r3, [r3, #7]
10002842:	2b10      	cmp	r3, #16
10002844:	d189      	bne.n	1000275a <p2pPollSlaveWrite+0x76e>
10002846:	e002      	b.n	1000284e <p2pPollSlaveWrite+0x862>
10002848:	883b      	ldrh	r3, [r7, #0]
1000284a:	2b00      	cmp	r3, #0
1000284c:	d005      	beq.n	1000285a <p2pPollSlaveWrite+0x86e>
1000284e:	ab0e      	add	r3, sp, #56	; 0x38
10002850:	1dd8      	adds	r0, r3, #7
10002852:	f7fe f9df 	bl	10000c14 <p2pRxByteSlave>
10002856:	2801      	cmp	r0, #1
10002858:	d1f6      	bne.n	10002848 <p2pPollSlaveWrite+0x85c>
1000285a:	883b      	ldrh	r3, [r7, #0]
1000285c:	2b00      	cmp	r3, #0
1000285e:	d095      	beq.n	1000278c <p2pPollSlaveWrite+0x7a0>
10002860:	ab0e      	add	r3, sp, #56	; 0x38
10002862:	79db      	ldrb	r3, [r3, #7]
10002864:	2b16      	cmp	r3, #22
10002866:	d018      	beq.n	1000289a <p2pPollSlaveWrite+0x8ae>
10002868:	2b19      	cmp	r3, #25
1000286a:	d000      	beq.n	1000286e <p2pPollSlaveWrite+0x882>
1000286c:	e775      	b.n	1000275a <p2pPollSlaveWrite+0x76e>
1000286e:	e002      	b.n	10002876 <p2pPollSlaveWrite+0x88a>
10002870:	883b      	ldrh	r3, [r7, #0]
10002872:	2b00      	cmp	r3, #0
10002874:	d0b7      	beq.n	100027e6 <p2pPollSlaveWrite+0x7fa>
10002876:	ab0e      	add	r3, sp, #56	; 0x38
10002878:	1dd8      	adds	r0, r3, #7
1000287a:	f7fe f9cb 	bl	10000c14 <p2pRxByteSlave>
1000287e:	2801      	cmp	r0, #1
10002880:	d1f6      	bne.n	10002870 <p2pPollSlaveWrite+0x884>
10002882:	e7b0      	b.n	100027e6 <p2pPollSlaveWrite+0x7fa>
10002884:	2010      	movs	r0, #16
10002886:	f7fe f965 	bl	10000b54 <p2pTxByteMaster>
1000288a:	2021      	movs	r0, #33	; 0x21
1000288c:	f7fe f962 	bl	10000b54 <p2pTxByteMaster>
10002890:	4b0c      	ldr	r3, [pc, #48]	; (100028c4 <p2pPollSlaveWrite+0x8d8>)
10002892:	7818      	ldrb	r0, [r3, #0]
10002894:	f7fe f95e 	bl	10000b54 <p2pTxByteMaster>
10002898:	e7a9      	b.n	100027ee <p2pPollSlaveWrite+0x802>
1000289a:	9b06      	ldr	r3, [sp, #24]
1000289c:	781b      	ldrb	r3, [r3, #0]
1000289e:	2b00      	cmp	r3, #0
100028a0:	d009      	beq.n	100028b6 <p2pPollSlaveWrite+0x8ca>
100028a2:	2010      	movs	r0, #16
100028a4:	f7fe f956 	bl	10000b54 <p2pTxByteMaster>
100028a8:	2021      	movs	r0, #33	; 0x21
100028aa:	f7fe f953 	bl	10000b54 <p2pTxByteMaster>
100028ae:	4b05      	ldr	r3, [pc, #20]	; (100028c4 <p2pPollSlaveWrite+0x8d8>)
100028b0:	7818      	ldrb	r0, [r3, #0]
100028b2:	f7fe f94f 	bl	10000b54 <p2pTxByteMaster>
100028b6:	2010      	movs	r0, #16
100028b8:	f7fe f94c 	bl	10000b54 <p2pTxByteMaster>
100028bc:	2016      	movs	r0, #22
100028be:	f7fe f949 	bl	10000b54 <p2pTxByteMaster>
100028c2:	e484      	b.n	100021ce <p2pPollSlaveWrite+0x1e2>
100028c4:	200021aa 	.word	0x200021aa

100028c8 <p2pPollSlaveWritePassThrough>:
100028c8:	b5f0      	push	{r4, r5, r6, r7, lr}
100028ca:	4657      	mov	r7, sl
100028cc:	4645      	mov	r5, r8
100028ce:	46de      	mov	lr, fp
100028d0:	464e      	mov	r6, r9
100028d2:	b5e0      	push	{r5, r6, r7, lr}
100028d4:	4fb7      	ldr	r7, [pc, #732]	; (10002bb4 <p2pPollSlaveWritePassThrough+0x2ec>)
100028d6:	4db8      	ldr	r5, [pc, #736]	; (10002bb8 <p2pPollSlaveWritePassThrough+0x2f0>)
100028d8:	7a3b      	ldrb	r3, [r7, #8]
100028da:	b083      	sub	sp, #12
100028dc:	3b10      	subs	r3, #16
100028de:	425a      	negs	r2, r3
100028e0:	4153      	adcs	r3, r2
100028e2:	882a      	ldrh	r2, [r5, #0]
100028e4:	3314      	adds	r3, #20
100028e6:	2a00      	cmp	r2, #0
100028e8:	d100      	bne.n	100028ec <p2pPollSlaveWritePassThrough+0x24>
100028ea:	e0f3      	b.n	10002ad4 <p2pPollSlaveWritePassThrough+0x20c>
100028ec:	2108      	movs	r1, #8
100028ee:	48b3      	ldr	r0, [pc, #716]	; (10002bbc <p2pPollSlaveWritePassThrough+0x2f4>)
100028f0:	6982      	ldr	r2, [r0, #24]
100028f2:	4211      	tst	r1, r2
100028f4:	d1fc      	bne.n	100028f0 <p2pPollSlaveWritePassThrough+0x28>
100028f6:	4ab2      	ldr	r2, [pc, #712]	; (10002bc0 <p2pPollSlaveWritePassThrough+0x2f8>)
100028f8:	9200      	str	r2, [sp, #0]
100028fa:	2102      	movs	r1, #2
100028fc:	5e51      	ldrsh	r1, [r2, r1]
100028fe:	2910      	cmp	r1, #16
10002900:	d100      	bne.n	10002904 <p2pPollSlaveWritePassThrough+0x3c>
10002902:	e14f      	b.n	10002ba4 <p2pPollSlaveWritePassThrough+0x2dc>
10002904:	2420      	movs	r4, #32
10002906:	48ad      	ldr	r0, [pc, #692]	; (10002bbc <p2pPollSlaveWritePassThrough+0x2f4>)
10002908:	6982      	ldr	r2, [r0, #24]
1000290a:	4214      	tst	r4, r2
1000290c:	d1fc      	bne.n	10002908 <p2pPollSlaveWritePassThrough+0x40>
1000290e:	2210      	movs	r2, #16
10002910:	6002      	str	r2, [r0, #0]
10002912:	2008      	movs	r0, #8
10002914:	4ca9      	ldr	r4, [pc, #676]	; (10002bbc <p2pPollSlaveWritePassThrough+0x2f4>)
10002916:	69a2      	ldr	r2, [r4, #24]
10002918:	4210      	tst	r0, r2
1000291a:	d1fc      	bne.n	10002916 <p2pPollSlaveWritePassThrough+0x4e>
1000291c:	2921      	cmp	r1, #33	; 0x21
1000291e:	d100      	bne.n	10002922 <p2pPollSlaveWritePassThrough+0x5a>
10002920:	e15e      	b.n	10002be0 <p2pPollSlaveWritePassThrough+0x318>
10002922:	2420      	movs	r4, #32
10002924:	48a5      	ldr	r0, [pc, #660]	; (10002bbc <p2pPollSlaveWritePassThrough+0x2f4>)
10002926:	6982      	ldr	r2, [r0, #24]
10002928:	4214      	tst	r4, r2
1000292a:	d1fc      	bne.n	10002926 <p2pPollSlaveWritePassThrough+0x5e>
1000292c:	2221      	movs	r2, #33	; 0x21
1000292e:	6002      	str	r2, [r0, #0]
10002930:	2008      	movs	r0, #8
10002932:	4aa4      	ldr	r2, [pc, #656]	; (10002bc4 <p2pPollSlaveWritePassThrough+0x2fc>)
10002934:	4ca1      	ldr	r4, [pc, #644]	; (10002bbc <p2pPollSlaveWritePassThrough+0x2f4>)
10002936:	7816      	ldrb	r6, [r2, #0]
10002938:	69a2      	ldr	r2, [r4, #24]
1000293a:	4210      	tst	r0, r2
1000293c:	d1fc      	bne.n	10002938 <p2pPollSlaveWritePassThrough+0x70>
1000293e:	428e      	cmp	r6, r1
10002940:	d100      	bne.n	10002944 <p2pPollSlaveWritePassThrough+0x7c>
10002942:	e155      	b.n	10002bf0 <p2pPollSlaveWritePassThrough+0x328>
10002944:	2420      	movs	r4, #32
10002946:	489d      	ldr	r0, [pc, #628]	; (10002bbc <p2pPollSlaveWritePassThrough+0x2f4>)
10002948:	6982      	ldr	r2, [r0, #24]
1000294a:	4214      	tst	r4, r2
1000294c:	d1fc      	bne.n	10002948 <p2pPollSlaveWritePassThrough+0x80>
1000294e:	6006      	str	r6, [r0, #0]
10002950:	2008      	movs	r0, #8
10002952:	4c9a      	ldr	r4, [pc, #616]	; (10002bbc <p2pPollSlaveWritePassThrough+0x2f4>)
10002954:	69a2      	ldr	r2, [r4, #24]
10002956:	4210      	tst	r0, r2
10002958:	d1fc      	bne.n	10002954 <p2pPollSlaveWritePassThrough+0x8c>
1000295a:	2910      	cmp	r1, #16
1000295c:	d100      	bne.n	10002960 <p2pPollSlaveWritePassThrough+0x98>
1000295e:	e14f      	b.n	10002c00 <p2pPollSlaveWritePassThrough+0x338>
10002960:	2420      	movs	r4, #32
10002962:	4896      	ldr	r0, [pc, #600]	; (10002bbc <p2pPollSlaveWritePassThrough+0x2f4>)
10002964:	6982      	ldr	r2, [r0, #24]
10002966:	4214      	tst	r4, r2
10002968:	d1fc      	bne.n	10002964 <p2pPollSlaveWritePassThrough+0x9c>
1000296a:	2210      	movs	r2, #16
1000296c:	6002      	str	r2, [r0, #0]
1000296e:	2008      	movs	r0, #8
10002970:	4c92      	ldr	r4, [pc, #584]	; (10002bbc <p2pPollSlaveWritePassThrough+0x2f4>)
10002972:	69a2      	ldr	r2, [r4, #24]
10002974:	4210      	tst	r0, r2
10002976:	d1fc      	bne.n	10002972 <p2pPollSlaveWritePassThrough+0xaa>
10002978:	2916      	cmp	r1, #22
1000297a:	d100      	bne.n	1000297e <p2pPollSlaveWritePassThrough+0xb6>
1000297c:	e148      	b.n	10002c10 <p2pPollSlaveWritePassThrough+0x348>
1000297e:	2020      	movs	r0, #32
10002980:	498e      	ldr	r1, [pc, #568]	; (10002bbc <p2pPollSlaveWritePassThrough+0x2f4>)
10002982:	698a      	ldr	r2, [r1, #24]
10002984:	4210      	tst	r0, r2
10002986:	d1fc      	bne.n	10002982 <p2pPollSlaveWritePassThrough+0xba>
10002988:	2216      	movs	r2, #22
1000298a:	4e8f      	ldr	r6, [pc, #572]	; (10002bc8 <p2pPollSlaveWritePassThrough+0x300>)
1000298c:	600a      	str	r2, [r1, #0]
1000298e:	e002      	b.n	10002996 <p2pPollSlaveWritePassThrough+0xce>
10002990:	882a      	ldrh	r2, [r5, #0]
10002992:	2a00      	cmp	r2, #0
10002994:	d002      	beq.n	1000299c <p2pPollSlaveWritePassThrough+0xd4>
10002996:	8832      	ldrh	r2, [r6, #0]
10002998:	429a      	cmp	r2, r3
1000299a:	d1f9      	bne.n	10002990 <p2pPollSlaveWritePassThrough+0xc8>
1000299c:	2300      	movs	r3, #0
1000299e:	4c8b      	ldr	r4, [pc, #556]	; (10002bcc <p2pPollSlaveWritePassThrough+0x304>)
100029a0:	8023      	strh	r3, [r4, #0]
100029a2:	8033      	strh	r3, [r6, #0]
100029a4:	33f5      	adds	r3, #245	; 0xf5
100029a6:	33ff      	adds	r3, #255	; 0xff
100029a8:	802b      	strh	r3, [r5, #0]
100029aa:	8822      	ldrh	r2, [r4, #0]
100029ac:	8833      	ldrh	r3, [r6, #0]
100029ae:	429a      	cmp	r2, r3
100029b0:	d029      	beq.n	10002a06 <p2pPollSlaveWritePassThrough+0x13e>
100029b2:	8822      	ldrh	r2, [r4, #0]
100029b4:	1c53      	adds	r3, r2, #1
100029b6:	b29b      	uxth	r3, r3
100029b8:	8023      	strh	r3, [r4, #0]
100029ba:	5cbb      	ldrb	r3, [r7, r2]
100029bc:	8822      	ldrh	r2, [r4, #0]
100029be:	4698      	mov	r8, r3
100029c0:	238c      	movs	r3, #140	; 0x8c
100029c2:	009b      	lsls	r3, r3, #2
100029c4:	429a      	cmp	r2, r3
100029c6:	d024      	beq.n	10002a12 <p2pPollSlaveWritePassThrough+0x14a>
100029c8:	f7fe f8c0 	bl	10000b4c <Watchdog>
100029cc:	4643      	mov	r3, r8
100029ce:	2b50      	cmp	r3, #80	; 0x50
100029d0:	d026      	beq.n	10002a20 <p2pPollSlaveWritePassThrough+0x158>
100029d2:	4b7f      	ldr	r3, [pc, #508]	; (10002bd0 <p2pPollSlaveWritePassThrough+0x308>)
100029d4:	469b      	mov	fp, r3
100029d6:	4b7f      	ldr	r3, [pc, #508]	; (10002bd4 <p2pPollSlaveWritePassThrough+0x30c>)
100029d8:	4699      	mov	r9, r3
100029da:	228c      	movs	r2, #140	; 0x8c
100029dc:	2100      	movs	r1, #0
100029de:	0038      	movs	r0, r7
100029e0:	0092      	lsls	r2, r2, #2
100029e2:	f003 ff1d 	bl	10006820 <__wrap_memset>
100029e6:	2300      	movs	r3, #0
100029e8:	465a      	mov	r2, fp
100029ea:	8023      	strh	r3, [r4, #0]
100029ec:	8033      	strh	r3, [r6, #0]
100029ee:	8013      	strh	r3, [r2, #0]
100029f0:	464a      	mov	r2, r9
100029f2:	8013      	strh	r3, [r2, #0]
100029f4:	8828      	ldrh	r0, [r5, #0]
100029f6:	b280      	uxth	r0, r0
100029f8:	b003      	add	sp, #12
100029fa:	bcf0      	pop	{r4, r5, r6, r7}
100029fc:	46bb      	mov	fp, r7
100029fe:	46b2      	mov	sl, r6
10002a00:	46a9      	mov	r9, r5
10002a02:	46a0      	mov	r8, r4
10002a04:	bdf0      	pop	{r4, r5, r6, r7, pc}
10002a06:	f7fe f8a1 	bl	10000b4c <Watchdog>
10002a0a:	882b      	ldrh	r3, [r5, #0]
10002a0c:	2b00      	cmp	r3, #0
10002a0e:	d1cc      	bne.n	100029aa <p2pPollSlaveWritePassThrough+0xe2>
10002a10:	e7df      	b.n	100029d2 <p2pPollSlaveWritePassThrough+0x10a>
10002a12:	2300      	movs	r3, #0
10002a14:	8023      	strh	r3, [r4, #0]
10002a16:	f7fe f899 	bl	10000b4c <Watchdog>
10002a1a:	4643      	mov	r3, r8
10002a1c:	2b50      	cmp	r3, #80	; 0x50
10002a1e:	d1d8      	bne.n	100029d2 <p2pPollSlaveWritePassThrough+0x10a>
10002a20:	228c      	movs	r2, #140	; 0x8c
10002a22:	2100      	movs	r1, #0
10002a24:	0092      	lsls	r2, r2, #2
10002a26:	0038      	movs	r0, r7
10002a28:	f003 fefa 	bl	10006820 <__wrap_memset>
10002a2c:	2300      	movs	r3, #0
10002a2e:	4a68      	ldr	r2, [pc, #416]	; (10002bd0 <p2pPollSlaveWritePassThrough+0x308>)
10002a30:	8023      	strh	r3, [r4, #0]
10002a32:	4693      	mov	fp, r2
10002a34:	8033      	strh	r3, [r6, #0]
10002a36:	8013      	strh	r3, [r2, #0]
10002a38:	4a66      	ldr	r2, [pc, #408]	; (10002bd4 <p2pPollSlaveWritePassThrough+0x30c>)
10002a3a:	4967      	ldr	r1, [pc, #412]	; (10002bd8 <p2pPollSlaveWritePassThrough+0x310>)
10002a3c:	4691      	mov	r9, r2
10002a3e:	8013      	strh	r3, [r2, #0]
10002a40:	2208      	movs	r2, #8
10002a42:	698b      	ldr	r3, [r1, #24]
10002a44:	421a      	tst	r2, r3
10002a46:	d1fc      	bne.n	10002a42 <p2pPollSlaveWritePassThrough+0x17a>
10002a48:	9b00      	ldr	r3, [sp, #0]
10002a4a:	2200      	movs	r2, #0
10002a4c:	5e9b      	ldrsh	r3, [r3, r2]
10002a4e:	2b50      	cmp	r3, #80	; 0x50
10002a50:	d100      	bne.n	10002a54 <p2pPollSlaveWritePassThrough+0x18c>
10002a52:	e114      	b.n	10002c7e <p2pPollSlaveWritePassThrough+0x3b6>
10002a54:	2120      	movs	r1, #32
10002a56:	4a60      	ldr	r2, [pc, #384]	; (10002bd8 <p2pPollSlaveWritePassThrough+0x310>)
10002a58:	6993      	ldr	r3, [r2, #24]
10002a5a:	4219      	tst	r1, r3
10002a5c:	d1fc      	bne.n	10002a58 <p2pPollSlaveWritePassThrough+0x190>
10002a5e:	2350      	movs	r3, #80	; 0x50
10002a60:	6013      	str	r3, [r2, #0]
10002a62:	464a      	mov	r2, r9
10002a64:	e002      	b.n	10002a6c <p2pPollSlaveWritePassThrough+0x1a4>
10002a66:	882b      	ldrh	r3, [r5, #0]
10002a68:	2b00      	cmp	r3, #0
10002a6a:	d002      	beq.n	10002a72 <p2pPollSlaveWritePassThrough+0x1aa>
10002a6c:	8813      	ldrh	r3, [r2, #0]
10002a6e:	2b00      	cmp	r3, #0
10002a70:	d0f9      	beq.n	10002a66 <p2pPollSlaveWritePassThrough+0x19e>
10002a72:	882b      	ldrh	r3, [r5, #0]
10002a74:	4691      	mov	r9, r2
10002a76:	2b00      	cmp	r3, #0
10002a78:	d000      	beq.n	10002a7c <p2pPollSlaveWritePassThrough+0x1b4>
10002a7a:	e108      	b.n	10002c8e <p2pPollSlaveWritePassThrough+0x3c6>
10002a7c:	4b57      	ldr	r3, [pc, #348]	; (10002bdc <p2pPollSlaveWritePassThrough+0x314>)
10002a7e:	9301      	str	r3, [sp, #4]
10002a80:	9b01      	ldr	r3, [sp, #4]
10002a82:	46ba      	mov	sl, r7
10002a84:	781b      	ldrb	r3, [r3, #0]
10002a86:	2b42      	cmp	r3, #66	; 0x42
10002a88:	d1a7      	bne.n	100029da <p2pPollSlaveWritePassThrough+0x112>
10002a8a:	278c      	movs	r7, #140	; 0x8c
10002a8c:	00bf      	lsls	r7, r7, #2
10002a8e:	e010      	b.n	10002ab2 <p2pPollSlaveWritePassThrough+0x1ea>
10002a90:	8822      	ldrh	r2, [r4, #0]
10002a92:	1c53      	adds	r3, r2, #1
10002a94:	b29b      	uxth	r3, r3
10002a96:	8023      	strh	r3, [r4, #0]
10002a98:	4653      	mov	r3, sl
10002a9a:	5c9b      	ldrb	r3, [r3, r2]
10002a9c:	4698      	mov	r8, r3
10002a9e:	8823      	ldrh	r3, [r4, #0]
10002aa0:	42bb      	cmp	r3, r7
10002aa2:	d100      	bne.n	10002aa6 <p2pPollSlaveWritePassThrough+0x1de>
10002aa4:	e0e4      	b.n	10002c70 <p2pPollSlaveWritePassThrough+0x3a8>
10002aa6:	f7fe f851 	bl	10000b4c <Watchdog>
10002aaa:	882b      	ldrh	r3, [r5, #0]
10002aac:	2b00      	cmp	r3, #0
10002aae:	d000      	beq.n	10002ab2 <p2pPollSlaveWritePassThrough+0x1ea>
10002ab0:	e101      	b.n	10002cb6 <p2pPollSlaveWritePassThrough+0x3ee>
10002ab2:	882b      	ldrh	r3, [r5, #0]
10002ab4:	2b00      	cmp	r3, #0
10002ab6:	d100      	bne.n	10002aba <p2pPollSlaveWritePassThrough+0x1f2>
10002ab8:	e0df      	b.n	10002c7a <p2pPollSlaveWritePassThrough+0x3b2>
10002aba:	464b      	mov	r3, r9
10002abc:	2200      	movs	r2, #0
10002abe:	801a      	strh	r2, [r3, #0]
10002ac0:	8822      	ldrh	r2, [r4, #0]
10002ac2:	8833      	ldrh	r3, [r6, #0]
10002ac4:	429a      	cmp	r2, r3
10002ac6:	d1e3      	bne.n	10002a90 <p2pPollSlaveWritePassThrough+0x1c8>
10002ac8:	f7fe f840 	bl	10000b4c <Watchdog>
10002acc:	882b      	ldrh	r3, [r5, #0]
10002ace:	2b00      	cmp	r3, #0
10002ad0:	d1f6      	bne.n	10002ac0 <p2pPollSlaveWritePassThrough+0x1f8>
10002ad2:	e7ea      	b.n	10002aaa <p2pPollSlaveWritePassThrough+0x1e2>
10002ad4:	2208      	movs	r2, #8
10002ad6:	4939      	ldr	r1, [pc, #228]	; (10002bbc <p2pPollSlaveWritePassThrough+0x2f4>)
10002ad8:	698b      	ldr	r3, [r1, #24]
10002ada:	421a      	tst	r2, r3
10002adc:	d1fc      	bne.n	10002ad8 <p2pPollSlaveWritePassThrough+0x210>
10002ade:	4b38      	ldr	r3, [pc, #224]	; (10002bc0 <p2pPollSlaveWritePassThrough+0x2f8>)
10002ae0:	2202      	movs	r2, #2
10002ae2:	5e9a      	ldrsh	r2, [r3, r2]
10002ae4:	2a10      	cmp	r2, #16
10002ae6:	d100      	bne.n	10002aea <p2pPollSlaveWritePassThrough+0x222>
10002ae8:	e09a      	b.n	10002c20 <p2pPollSlaveWritePassThrough+0x358>
10002aea:	2020      	movs	r0, #32
10002aec:	4933      	ldr	r1, [pc, #204]	; (10002bbc <p2pPollSlaveWritePassThrough+0x2f4>)
10002aee:	698b      	ldr	r3, [r1, #24]
10002af0:	4218      	tst	r0, r3
10002af2:	d1fc      	bne.n	10002aee <p2pPollSlaveWritePassThrough+0x226>
10002af4:	2310      	movs	r3, #16
10002af6:	600b      	str	r3, [r1, #0]
10002af8:	2108      	movs	r1, #8
10002afa:	4830      	ldr	r0, [pc, #192]	; (10002bbc <p2pPollSlaveWritePassThrough+0x2f4>)
10002afc:	6983      	ldr	r3, [r0, #24]
10002afe:	4219      	tst	r1, r3
10002b00:	d1fc      	bne.n	10002afc <p2pPollSlaveWritePassThrough+0x234>
10002b02:	2a21      	cmp	r2, #33	; 0x21
10002b04:	d100      	bne.n	10002b08 <p2pPollSlaveWritePassThrough+0x240>
10002b06:	e093      	b.n	10002c30 <p2pPollSlaveWritePassThrough+0x368>
10002b08:	2020      	movs	r0, #32
10002b0a:	492c      	ldr	r1, [pc, #176]	; (10002bbc <p2pPollSlaveWritePassThrough+0x2f4>)
10002b0c:	698b      	ldr	r3, [r1, #24]
10002b0e:	4218      	tst	r0, r3
10002b10:	d1fc      	bne.n	10002b0c <p2pPollSlaveWritePassThrough+0x244>
10002b12:	2321      	movs	r3, #33	; 0x21
10002b14:	600b      	str	r3, [r1, #0]
10002b16:	2108      	movs	r1, #8
10002b18:	4b2a      	ldr	r3, [pc, #168]	; (10002bc4 <p2pPollSlaveWritePassThrough+0x2fc>)
10002b1a:	4828      	ldr	r0, [pc, #160]	; (10002bbc <p2pPollSlaveWritePassThrough+0x2f4>)
10002b1c:	781c      	ldrb	r4, [r3, #0]
10002b1e:	6983      	ldr	r3, [r0, #24]
10002b20:	4219      	tst	r1, r3
10002b22:	d1fc      	bne.n	10002b1e <p2pPollSlaveWritePassThrough+0x256>
10002b24:	4294      	cmp	r4, r2
10002b26:	d100      	bne.n	10002b2a <p2pPollSlaveWritePassThrough+0x262>
10002b28:	e08a      	b.n	10002c40 <p2pPollSlaveWritePassThrough+0x378>
10002b2a:	2020      	movs	r0, #32
10002b2c:	4923      	ldr	r1, [pc, #140]	; (10002bbc <p2pPollSlaveWritePassThrough+0x2f4>)
10002b2e:	698b      	ldr	r3, [r1, #24]
10002b30:	4218      	tst	r0, r3
10002b32:	d1fc      	bne.n	10002b2e <p2pPollSlaveWritePassThrough+0x266>
10002b34:	600c      	str	r4, [r1, #0]
10002b36:	2108      	movs	r1, #8
10002b38:	4820      	ldr	r0, [pc, #128]	; (10002bbc <p2pPollSlaveWritePassThrough+0x2f4>)
10002b3a:	6983      	ldr	r3, [r0, #24]
10002b3c:	4219      	tst	r1, r3
10002b3e:	d1fc      	bne.n	10002b3a <p2pPollSlaveWritePassThrough+0x272>
10002b40:	2a10      	cmp	r2, #16
10002b42:	d100      	bne.n	10002b46 <p2pPollSlaveWritePassThrough+0x27e>
10002b44:	e084      	b.n	10002c50 <p2pPollSlaveWritePassThrough+0x388>
10002b46:	2020      	movs	r0, #32
10002b48:	491c      	ldr	r1, [pc, #112]	; (10002bbc <p2pPollSlaveWritePassThrough+0x2f4>)
10002b4a:	698b      	ldr	r3, [r1, #24]
10002b4c:	4218      	tst	r0, r3
10002b4e:	d1fc      	bne.n	10002b4a <p2pPollSlaveWritePassThrough+0x282>
10002b50:	2310      	movs	r3, #16
10002b52:	600b      	str	r3, [r1, #0]
10002b54:	2108      	movs	r1, #8
10002b56:	4819      	ldr	r0, [pc, #100]	; (10002bbc <p2pPollSlaveWritePassThrough+0x2f4>)
10002b58:	6983      	ldr	r3, [r0, #24]
10002b5a:	4219      	tst	r1, r3
10002b5c:	d1fc      	bne.n	10002b58 <p2pPollSlaveWritePassThrough+0x290>
10002b5e:	2a19      	cmp	r2, #25
10002b60:	d100      	bne.n	10002b64 <p2pPollSlaveWritePassThrough+0x29c>
10002b62:	e07d      	b.n	10002c60 <p2pPollSlaveWritePassThrough+0x398>
10002b64:	2020      	movs	r0, #32
10002b66:	4915      	ldr	r1, [pc, #84]	; (10002bbc <p2pPollSlaveWritePassThrough+0x2f4>)
10002b68:	698b      	ldr	r3, [r1, #24]
10002b6a:	4218      	tst	r0, r3
10002b6c:	d1fc      	bne.n	10002b68 <p2pPollSlaveWritePassThrough+0x2a0>
10002b6e:	2319      	movs	r3, #25
10002b70:	600b      	str	r3, [r1, #0]
10002b72:	2108      	movs	r1, #8
10002b74:	4811      	ldr	r0, [pc, #68]	; (10002bbc <p2pPollSlaveWritePassThrough+0x2f4>)
10002b76:	6983      	ldr	r3, [r0, #24]
10002b78:	4219      	tst	r1, r3
10002b7a:	d1fc      	bne.n	10002b76 <p2pPollSlaveWritePassThrough+0x2ae>
10002b7c:	2a82      	cmp	r2, #130	; 0x82
10002b7e:	d009      	beq.n	10002b94 <p2pPollSlaveWritePassThrough+0x2cc>
10002b80:	2120      	movs	r1, #32
10002b82:	4a0e      	ldr	r2, [pc, #56]	; (10002bbc <p2pPollSlaveWritePassThrough+0x2f4>)
10002b84:	6993      	ldr	r3, [r2, #24]
10002b86:	4219      	tst	r1, r3
10002b88:	d1fc      	bne.n	10002b84 <p2pPollSlaveWritePassThrough+0x2bc>
10002b8a:	2382      	movs	r3, #130	; 0x82
10002b8c:	4e0e      	ldr	r6, [pc, #56]	; (10002bc8 <p2pPollSlaveWritePassThrough+0x300>)
10002b8e:	4c0f      	ldr	r4, [pc, #60]	; (10002bcc <p2pPollSlaveWritePassThrough+0x304>)
10002b90:	6013      	str	r3, [r2, #0]
10002b92:	e71e      	b.n	100029d2 <p2pPollSlaveWritePassThrough+0x10a>
10002b94:	2120      	movs	r1, #32
10002b96:	4a09      	ldr	r2, [pc, #36]	; (10002bbc <p2pPollSlaveWritePassThrough+0x2f4>)
10002b98:	6993      	ldr	r3, [r2, #24]
10002b9a:	4219      	tst	r1, r3
10002b9c:	d1fc      	bne.n	10002b98 <p2pPollSlaveWritePassThrough+0x2d0>
10002b9e:	230d      	movs	r3, #13
10002ba0:	6013      	str	r3, [r2, #0]
10002ba2:	e7ed      	b.n	10002b80 <p2pPollSlaveWritePassThrough+0x2b8>
10002ba4:	2420      	movs	r4, #32
10002ba6:	4805      	ldr	r0, [pc, #20]	; (10002bbc <p2pPollSlaveWritePassThrough+0x2f4>)
10002ba8:	6982      	ldr	r2, [r0, #24]
10002baa:	4214      	tst	r4, r2
10002bac:	d1fc      	bne.n	10002ba8 <p2pPollSlaveWritePassThrough+0x2e0>
10002bae:	220d      	movs	r2, #13
10002bb0:	6002      	str	r2, [r0, #0]
10002bb2:	e6a7      	b.n	10002904 <p2pPollSlaveWritePassThrough+0x3c>
10002bb4:	20000ee0 	.word	0x20000ee0
10002bb8:	20002188 	.word	0x20002188
10002bbc:	40038000 	.word	0x40038000
10002bc0:	2000216c 	.word	0x2000216c
10002bc4:	200021aa 	.word	0x200021aa
10002bc8:	2000218c 	.word	0x2000218c
10002bcc:	2000218a 	.word	0x2000218a
10002bd0:	2000218e 	.word	0x2000218e
10002bd4:	20002190 	.word	0x20002190
10002bd8:	40034000 	.word	0x40034000
10002bdc:	20001110 	.word	0x20001110
10002be0:	2420      	movs	r4, #32
10002be2:	485e      	ldr	r0, [pc, #376]	; (10002d5c <p2pPollSlaveWritePassThrough+0x494>)
10002be4:	6982      	ldr	r2, [r0, #24]
10002be6:	4214      	tst	r4, r2
10002be8:	d1fc      	bne.n	10002be4 <p2pPollSlaveWritePassThrough+0x31c>
10002bea:	220d      	movs	r2, #13
10002bec:	6002      	str	r2, [r0, #0]
10002bee:	e698      	b.n	10002922 <p2pPollSlaveWritePassThrough+0x5a>
10002bf0:	2420      	movs	r4, #32
10002bf2:	485a      	ldr	r0, [pc, #360]	; (10002d5c <p2pPollSlaveWritePassThrough+0x494>)
10002bf4:	6982      	ldr	r2, [r0, #24]
10002bf6:	4214      	tst	r4, r2
10002bf8:	d1fc      	bne.n	10002bf4 <p2pPollSlaveWritePassThrough+0x32c>
10002bfa:	220d      	movs	r2, #13
10002bfc:	6002      	str	r2, [r0, #0]
10002bfe:	e6a1      	b.n	10002944 <p2pPollSlaveWritePassThrough+0x7c>
10002c00:	2420      	movs	r4, #32
10002c02:	4856      	ldr	r0, [pc, #344]	; (10002d5c <p2pPollSlaveWritePassThrough+0x494>)
10002c04:	6982      	ldr	r2, [r0, #24]
10002c06:	4214      	tst	r4, r2
10002c08:	d1fc      	bne.n	10002c04 <p2pPollSlaveWritePassThrough+0x33c>
10002c0a:	220d      	movs	r2, #13
10002c0c:	6002      	str	r2, [r0, #0]
10002c0e:	e6a7      	b.n	10002960 <p2pPollSlaveWritePassThrough+0x98>
10002c10:	2020      	movs	r0, #32
10002c12:	4952      	ldr	r1, [pc, #328]	; (10002d5c <p2pPollSlaveWritePassThrough+0x494>)
10002c14:	698a      	ldr	r2, [r1, #24]
10002c16:	4210      	tst	r0, r2
10002c18:	d1fc      	bne.n	10002c14 <p2pPollSlaveWritePassThrough+0x34c>
10002c1a:	220d      	movs	r2, #13
10002c1c:	600a      	str	r2, [r1, #0]
10002c1e:	e6ae      	b.n	1000297e <p2pPollSlaveWritePassThrough+0xb6>
10002c20:	2020      	movs	r0, #32
10002c22:	494e      	ldr	r1, [pc, #312]	; (10002d5c <p2pPollSlaveWritePassThrough+0x494>)
10002c24:	698b      	ldr	r3, [r1, #24]
10002c26:	4218      	tst	r0, r3
10002c28:	d1fc      	bne.n	10002c24 <p2pPollSlaveWritePassThrough+0x35c>
10002c2a:	230d      	movs	r3, #13
10002c2c:	600b      	str	r3, [r1, #0]
10002c2e:	e75c      	b.n	10002aea <p2pPollSlaveWritePassThrough+0x222>
10002c30:	2020      	movs	r0, #32
10002c32:	494a      	ldr	r1, [pc, #296]	; (10002d5c <p2pPollSlaveWritePassThrough+0x494>)
10002c34:	698b      	ldr	r3, [r1, #24]
10002c36:	4218      	tst	r0, r3
10002c38:	d1fc      	bne.n	10002c34 <p2pPollSlaveWritePassThrough+0x36c>
10002c3a:	230d      	movs	r3, #13
10002c3c:	600b      	str	r3, [r1, #0]
10002c3e:	e763      	b.n	10002b08 <p2pPollSlaveWritePassThrough+0x240>
10002c40:	2020      	movs	r0, #32
10002c42:	4946      	ldr	r1, [pc, #280]	; (10002d5c <p2pPollSlaveWritePassThrough+0x494>)
10002c44:	698b      	ldr	r3, [r1, #24]
10002c46:	4218      	tst	r0, r3
10002c48:	d1fc      	bne.n	10002c44 <p2pPollSlaveWritePassThrough+0x37c>
10002c4a:	230d      	movs	r3, #13
10002c4c:	600b      	str	r3, [r1, #0]
10002c4e:	e76c      	b.n	10002b2a <p2pPollSlaveWritePassThrough+0x262>
10002c50:	2020      	movs	r0, #32
10002c52:	4942      	ldr	r1, [pc, #264]	; (10002d5c <p2pPollSlaveWritePassThrough+0x494>)
10002c54:	698b      	ldr	r3, [r1, #24]
10002c56:	4218      	tst	r0, r3
10002c58:	d1fc      	bne.n	10002c54 <p2pPollSlaveWritePassThrough+0x38c>
10002c5a:	230d      	movs	r3, #13
10002c5c:	600b      	str	r3, [r1, #0]
10002c5e:	e772      	b.n	10002b46 <p2pPollSlaveWritePassThrough+0x27e>
10002c60:	2020      	movs	r0, #32
10002c62:	493e      	ldr	r1, [pc, #248]	; (10002d5c <p2pPollSlaveWritePassThrough+0x494>)
10002c64:	698b      	ldr	r3, [r1, #24]
10002c66:	4218      	tst	r0, r3
10002c68:	d1fc      	bne.n	10002c64 <p2pPollSlaveWritePassThrough+0x39c>
10002c6a:	230d      	movs	r3, #13
10002c6c:	600b      	str	r3, [r1, #0]
10002c6e:	e779      	b.n	10002b64 <p2pPollSlaveWritePassThrough+0x29c>
10002c70:	2300      	movs	r3, #0
10002c72:	8023      	strh	r3, [r4, #0]
10002c74:	f7fd ff6a 	bl	10000b4c <Watchdog>
10002c78:	e717      	b.n	10002aaa <p2pPollSlaveWritePassThrough+0x1e2>
10002c7a:	4657      	mov	r7, sl
10002c7c:	e6ad      	b.n	100029da <p2pPollSlaveWritePassThrough+0x112>
10002c7e:	2120      	movs	r1, #32
10002c80:	4a37      	ldr	r2, [pc, #220]	; (10002d60 <p2pPollSlaveWritePassThrough+0x498>)
10002c82:	6993      	ldr	r3, [r2, #24]
10002c84:	4219      	tst	r1, r3
10002c86:	d1fc      	bne.n	10002c82 <p2pPollSlaveWritePassThrough+0x3ba>
10002c88:	230d      	movs	r3, #13
10002c8a:	6013      	str	r3, [r2, #0]
10002c8c:	e6e2      	b.n	10002a54 <p2pPollSlaveWritePassThrough+0x18c>
10002c8e:	2208      	movs	r2, #8
10002c90:	4b34      	ldr	r3, [pc, #208]	; (10002d64 <p2pPollSlaveWritePassThrough+0x49c>)
10002c92:	4932      	ldr	r1, [pc, #200]	; (10002d5c <p2pPollSlaveWritePassThrough+0x494>)
10002c94:	7818      	ldrb	r0, [r3, #0]
10002c96:	9301      	str	r3, [sp, #4]
10002c98:	698b      	ldr	r3, [r1, #24]
10002c9a:	421a      	tst	r2, r3
10002c9c:	d1fc      	bne.n	10002c98 <p2pPollSlaveWritePassThrough+0x3d0>
10002c9e:	9b00      	ldr	r3, [sp, #0]
10002ca0:	2202      	movs	r2, #2
10002ca2:	5e9b      	ldrsh	r3, [r3, r2]
10002ca4:	4283      	cmp	r3, r0
10002ca6:	d040      	beq.n	10002d2a <p2pPollSlaveWritePassThrough+0x462>
10002ca8:	2120      	movs	r1, #32
10002caa:	4a2c      	ldr	r2, [pc, #176]	; (10002d5c <p2pPollSlaveWritePassThrough+0x494>)
10002cac:	6993      	ldr	r3, [r2, #24]
10002cae:	4219      	tst	r1, r3
10002cb0:	d1fc      	bne.n	10002cac <p2pPollSlaveWritePassThrough+0x3e4>
10002cb2:	6010      	str	r0, [r2, #0]
10002cb4:	e6e4      	b.n	10002a80 <p2pPollSlaveWritePassThrough+0x1b8>
10002cb6:	4643      	mov	r3, r8
10002cb8:	2bff      	cmp	r3, #255	; 0xff
10002cba:	d0de      	beq.n	10002c7a <p2pPollSlaveWritePassThrough+0x3b2>
10002cbc:	2208      	movs	r2, #8
10002cbe:	4928      	ldr	r1, [pc, #160]	; (10002d60 <p2pPollSlaveWritePassThrough+0x498>)
10002cc0:	698b      	ldr	r3, [r1, #24]
10002cc2:	421a      	tst	r2, r3
10002cc4:	d1fc      	bne.n	10002cc0 <p2pPollSlaveWritePassThrough+0x3f8>
10002cc6:	9b00      	ldr	r3, [sp, #0]
10002cc8:	2200      	movs	r2, #0
10002cca:	5e9b      	ldrsh	r3, [r3, r2]
10002ccc:	4543      	cmp	r3, r8
10002cce:	d034      	beq.n	10002d3a <p2pPollSlaveWritePassThrough+0x472>
10002cd0:	2120      	movs	r1, #32
10002cd2:	4a23      	ldr	r2, [pc, #140]	; (10002d60 <p2pPollSlaveWritePassThrough+0x498>)
10002cd4:	6993      	ldr	r3, [r2, #24]
10002cd6:	4219      	tst	r1, r3
10002cd8:	d1fc      	bne.n	10002cd4 <p2pPollSlaveWritePassThrough+0x40c>
10002cda:	4643      	mov	r3, r8
10002cdc:	6013      	str	r3, [r2, #0]
10002cde:	2b0a      	cmp	r3, #10
10002ce0:	d000      	beq.n	10002ce4 <p2pPollSlaveWritePassThrough+0x41c>
10002ce2:	e6e6      	b.n	10002ab2 <p2pPollSlaveWritePassThrough+0x1ea>
10002ce4:	464a      	mov	r2, r9
10002ce6:	e002      	b.n	10002cee <p2pPollSlaveWritePassThrough+0x426>
10002ce8:	882b      	ldrh	r3, [r5, #0]
10002cea:	2b00      	cmp	r3, #0
10002cec:	d002      	beq.n	10002cf4 <p2pPollSlaveWritePassThrough+0x42c>
10002cee:	8813      	ldrh	r3, [r2, #0]
10002cf0:	2b00      	cmp	r3, #0
10002cf2:	d0f9      	beq.n	10002ce8 <p2pPollSlaveWritePassThrough+0x420>
10002cf4:	882b      	ldrh	r3, [r5, #0]
10002cf6:	4691      	mov	r9, r2
10002cf8:	2b00      	cmp	r3, #0
10002cfa:	d0be      	beq.n	10002c7a <p2pPollSlaveWritePassThrough+0x3b2>
10002cfc:	9b01      	ldr	r3, [sp, #4]
10002cfe:	4917      	ldr	r1, [pc, #92]	; (10002d5c <p2pPollSlaveWritePassThrough+0x494>)
10002d00:	781a      	ldrb	r2, [r3, #0]
10002d02:	2308      	movs	r3, #8
10002d04:	6988      	ldr	r0, [r1, #24]
10002d06:	4203      	tst	r3, r0
10002d08:	d1fc      	bne.n	10002d04 <p2pPollSlaveWritePassThrough+0x43c>
10002d0a:	9b00      	ldr	r3, [sp, #0]
10002d0c:	2102      	movs	r1, #2
10002d0e:	5e5b      	ldrsh	r3, [r3, r1]
10002d10:	4293      	cmp	r3, r2
10002d12:	d01a      	beq.n	10002d4a <p2pPollSlaveWritePassThrough+0x482>
10002d14:	2120      	movs	r1, #32
10002d16:	4b11      	ldr	r3, [pc, #68]	; (10002d5c <p2pPollSlaveWritePassThrough+0x494>)
10002d18:	6998      	ldr	r0, [r3, #24]
10002d1a:	4201      	tst	r1, r0
10002d1c:	d1fc      	bne.n	10002d18 <p2pPollSlaveWritePassThrough+0x450>
10002d1e:	601a      	str	r2, [r3, #0]
10002d20:	23c8      	movs	r3, #200	; 0xc8
10002d22:	802b      	strh	r3, [r5, #0]
10002d24:	f7fd ff12 	bl	10000b4c <Watchdog>
10002d28:	e6af      	b.n	10002a8a <p2pPollSlaveWritePassThrough+0x1c2>
10002d2a:	2120      	movs	r1, #32
10002d2c:	4a0b      	ldr	r2, [pc, #44]	; (10002d5c <p2pPollSlaveWritePassThrough+0x494>)
10002d2e:	6993      	ldr	r3, [r2, #24]
10002d30:	4219      	tst	r1, r3
10002d32:	d1fc      	bne.n	10002d2e <p2pPollSlaveWritePassThrough+0x466>
10002d34:	230d      	movs	r3, #13
10002d36:	6013      	str	r3, [r2, #0]
10002d38:	e7b6      	b.n	10002ca8 <p2pPollSlaveWritePassThrough+0x3e0>
10002d3a:	2120      	movs	r1, #32
10002d3c:	4a08      	ldr	r2, [pc, #32]	; (10002d60 <p2pPollSlaveWritePassThrough+0x498>)
10002d3e:	6993      	ldr	r3, [r2, #24]
10002d40:	4219      	tst	r1, r3
10002d42:	d1fc      	bne.n	10002d3e <p2pPollSlaveWritePassThrough+0x476>
10002d44:	230d      	movs	r3, #13
10002d46:	6013      	str	r3, [r2, #0]
10002d48:	e7c2      	b.n	10002cd0 <p2pPollSlaveWritePassThrough+0x408>
10002d4a:	2120      	movs	r1, #32
10002d4c:	4b03      	ldr	r3, [pc, #12]	; (10002d5c <p2pPollSlaveWritePassThrough+0x494>)
10002d4e:	6998      	ldr	r0, [r3, #24]
10002d50:	4201      	tst	r1, r0
10002d52:	d1fc      	bne.n	10002d4e <p2pPollSlaveWritePassThrough+0x486>
10002d54:	210d      	movs	r1, #13
10002d56:	6019      	str	r1, [r3, #0]
10002d58:	e7dc      	b.n	10002d14 <p2pPollSlaveWritePassThrough+0x44c>
10002d5a:	46c0      	nop			; (mov r8, r8)
10002d5c:	40038000 	.word	0x40038000
10002d60:	40034000 	.word	0x40034000
10002d64:	20001110 	.word	0x20001110

10002d68 <UART_CheckResponse>:
10002d68:	2300      	movs	r3, #0
10002d6a:	4a19      	ldr	r2, [pc, #100]	; (10002dd0 <UART_CheckResponse+0x68>)
10002d6c:	b510      	push	{r4, lr}
10002d6e:	4c19      	ldr	r4, [pc, #100]	; (10002dd4 <UART_CheckResponse+0x6c>)
10002d70:	8013      	strh	r3, [r2, #0]
10002d72:	8811      	ldrh	r1, [r2, #0]
10002d74:	8823      	ldrh	r3, [r4, #0]
10002d76:	4818      	ldr	r0, [pc, #96]	; (10002dd8 <UART_CheckResponse+0x70>)
10002d78:	4299      	cmp	r1, r3
10002d7a:	d308      	bcc.n	10002d8e <UART_CheckResponse+0x26>
10002d7c:	e00b      	b.n	10002d96 <UART_CheckResponse+0x2e>
10002d7e:	8813      	ldrh	r3, [r2, #0]
10002d80:	3301      	adds	r3, #1
10002d82:	b29b      	uxth	r3, r3
10002d84:	8013      	strh	r3, [r2, #0]
10002d86:	8811      	ldrh	r1, [r2, #0]
10002d88:	8823      	ldrh	r3, [r4, #0]
10002d8a:	4299      	cmp	r1, r3
10002d8c:	d203      	bcs.n	10002d96 <UART_CheckResponse+0x2e>
10002d8e:	8813      	ldrh	r3, [r2, #0]
10002d90:	5cc3      	ldrb	r3, [r0, r3]
10002d92:	2b10      	cmp	r3, #16
10002d94:	d1f3      	bne.n	10002d7e <UART_CheckResponse+0x16>
10002d96:	8813      	ldrh	r3, [r2, #0]
10002d98:	18c1      	adds	r1, r0, r3
10002d9a:	5cc3      	ldrb	r3, [r0, r3]
10002d9c:	2b10      	cmp	r3, #16
10002d9e:	d007      	beq.n	10002db0 <UART_CheckResponse+0x48>
10002da0:	8813      	ldrh	r3, [r2, #0]
10002da2:	18c1      	adds	r1, r0, r3
10002da4:	5cc3      	ldrb	r3, [r0, r3]
10002da6:	2b10      	cmp	r3, #16
10002da8:	d00a      	beq.n	10002dc0 <UART_CheckResponse+0x58>
10002daa:	2009      	movs	r0, #9
10002dac:	8823      	ldrh	r3, [r4, #0]
10002dae:	bd10      	pop	{r4, pc}
10002db0:	784b      	ldrb	r3, [r1, #1]
10002db2:	2b16      	cmp	r3, #22
10002db4:	d1f4      	bne.n	10002da0 <UART_CheckResponse+0x38>
10002db6:	8823      	ldrh	r3, [r4, #0]
10002db8:	2001      	movs	r0, #1
10002dba:	b29b      	uxth	r3, r3
10002dbc:	8013      	strh	r3, [r2, #0]
10002dbe:	e7f5      	b.n	10002dac <UART_CheckResponse+0x44>
10002dc0:	784b      	ldrb	r3, [r1, #1]
10002dc2:	2b19      	cmp	r3, #25
10002dc4:	d1f1      	bne.n	10002daa <UART_CheckResponse+0x42>
10002dc6:	8823      	ldrh	r3, [r4, #0]
10002dc8:	2002      	movs	r0, #2
10002dca:	b29b      	uxth	r3, r3
10002dcc:	8013      	strh	r3, [r2, #0]
10002dce:	e7ed      	b.n	10002dac <UART_CheckResponse+0x44>
10002dd0:	2000218e 	.word	0x2000218e
10002dd4:	20002190 	.word	0x20002190
10002dd8:	20001110 	.word	0x20001110

10002ddc <MUX_Set>:
10002ddc:	22d0      	movs	r2, #208	; 0xd0
10002dde:	0612      	lsls	r2, r2, #24
10002de0:	6853      	ldr	r3, [r2, #4]
10002de2:	b500      	push	{lr}
10002de4:	055b      	lsls	r3, r3, #21
10002de6:	d506      	bpl.n	10002df6 <MUX_Set+0x1a>
10002de8:	2817      	cmp	r0, #23
10002dea:	d900      	bls.n	10002dee <MUX_Set+0x12>
10002dec:	e0fd      	b.n	10002fea <MUX_Set+0x20e>
10002dee:	4b88      	ldr	r3, [pc, #544]	; (10003010 <MUX_Set+0x234>)
10002df0:	0080      	lsls	r0, r0, #2
10002df2:	581b      	ldr	r3, [r3, r0]
10002df4:	469f      	mov	pc, r3
10002df6:	2817      	cmp	r0, #23
10002df8:	d900      	bls.n	10002dfc <MUX_Set+0x20>
10002dfa:	e0f6      	b.n	10002fea <MUX_Set+0x20e>
10002dfc:	4b85      	ldr	r3, [pc, #532]	; (10003014 <MUX_Set+0x238>)
10002dfe:	0080      	lsls	r0, r0, #2
10002e00:	581b      	ldr	r3, [r3, r0]
10002e02:	469f      	mov	pc, r3
10002e04:	23d0      	movs	r3, #208	; 0xd0
10002e06:	2280      	movs	r2, #128	; 0x80
10002e08:	061b      	lsls	r3, r3, #24
10002e0a:	0352      	lsls	r2, r2, #13
10002e0c:	615a      	str	r2, [r3, #20]
10002e0e:	2280      	movs	r2, #128	; 0x80
10002e10:	0312      	lsls	r2, r2, #12
10002e12:	615a      	str	r2, [r3, #20]
10002e14:	2280      	movs	r2, #128	; 0x80
10002e16:	02d2      	lsls	r2, r2, #11
10002e18:	615a      	str	r2, [r3, #20]
10002e1a:	2280      	movs	r2, #128	; 0x80
10002e1c:	0392      	lsls	r2, r2, #14
10002e1e:	619a      	str	r2, [r3, #24]
10002e20:	2280      	movs	r2, #128	; 0x80
10002e22:	04d2      	lsls	r2, r2, #19
10002e24:	619a      	str	r2, [r3, #24]
10002e26:	2280      	movs	r2, #128	; 0x80
10002e28:	0512      	lsls	r2, r2, #20
10002e2a:	615a      	str	r2, [r3, #20]
10002e2c:	bd00      	pop	{pc}
10002e2e:	23d0      	movs	r3, #208	; 0xd0
10002e30:	2280      	movs	r2, #128	; 0x80
10002e32:	061b      	lsls	r3, r3, #24
10002e34:	0352      	lsls	r2, r2, #13
10002e36:	615a      	str	r2, [r3, #20]
10002e38:	2280      	movs	r2, #128	; 0x80
10002e3a:	0312      	lsls	r2, r2, #12
10002e3c:	615a      	str	r2, [r3, #20]
10002e3e:	2280      	movs	r2, #128	; 0x80
10002e40:	02d2      	lsls	r2, r2, #11
10002e42:	615a      	str	r2, [r3, #20]
10002e44:	2280      	movs	r2, #128	; 0x80
10002e46:	0392      	lsls	r2, r2, #14
10002e48:	619a      	str	r2, [r3, #24]
10002e4a:	2280      	movs	r2, #128	; 0x80
10002e4c:	04d2      	lsls	r2, r2, #19
10002e4e:	615a      	str	r2, [r3, #20]
10002e50:	2280      	movs	r2, #128	; 0x80
10002e52:	0512      	lsls	r2, r2, #20
10002e54:	619a      	str	r2, [r3, #24]
10002e56:	e7e9      	b.n	10002e2c <MUX_Set+0x50>
10002e58:	23d0      	movs	r3, #208	; 0xd0
10002e5a:	2280      	movs	r2, #128	; 0x80
10002e5c:	061b      	lsls	r3, r3, #24
10002e5e:	0352      	lsls	r2, r2, #13
10002e60:	615a      	str	r2, [r3, #20]
10002e62:	2280      	movs	r2, #128	; 0x80
10002e64:	0312      	lsls	r2, r2, #12
10002e66:	615a      	str	r2, [r3, #20]
10002e68:	2280      	movs	r2, #128	; 0x80
10002e6a:	02d2      	lsls	r2, r2, #11
10002e6c:	619a      	str	r2, [r3, #24]
10002e6e:	e7e9      	b.n	10002e44 <MUX_Set+0x68>
10002e70:	23d0      	movs	r3, #208	; 0xd0
10002e72:	2280      	movs	r2, #128	; 0x80
10002e74:	061b      	lsls	r3, r3, #24
10002e76:	0352      	lsls	r2, r2, #13
10002e78:	615a      	str	r2, [r3, #20]
10002e7a:	2280      	movs	r2, #128	; 0x80
10002e7c:	0312      	lsls	r2, r2, #12
10002e7e:	619a      	str	r2, [r3, #24]
10002e80:	e7dd      	b.n	10002e3e <MUX_Set+0x62>
10002e82:	23d0      	movs	r3, #208	; 0xd0
10002e84:	2280      	movs	r2, #128	; 0x80
10002e86:	061b      	lsls	r3, r3, #24
10002e88:	0352      	lsls	r2, r2, #13
10002e8a:	615a      	str	r2, [r3, #20]
10002e8c:	2280      	movs	r2, #128	; 0x80
10002e8e:	0312      	lsls	r2, r2, #12
10002e90:	619a      	str	r2, [r3, #24]
10002e92:	2280      	movs	r2, #128	; 0x80
10002e94:	02d2      	lsls	r2, r2, #11
10002e96:	619a      	str	r2, [r3, #24]
10002e98:	e7d4      	b.n	10002e44 <MUX_Set+0x68>
10002e9a:	23d0      	movs	r3, #208	; 0xd0
10002e9c:	2280      	movs	r2, #128	; 0x80
10002e9e:	061b      	lsls	r3, r3, #24
10002ea0:	0352      	lsls	r2, r2, #13
10002ea2:	619a      	str	r2, [r3, #24]
10002ea4:	2280      	movs	r2, #128	; 0x80
10002ea6:	0312      	lsls	r2, r2, #12
10002ea8:	615a      	str	r2, [r3, #20]
10002eaa:	2280      	movs	r2, #128	; 0x80
10002eac:	02d2      	lsls	r2, r2, #11
10002eae:	619a      	str	r2, [r3, #24]
10002eb0:	e7b3      	b.n	10002e1a <MUX_Set+0x3e>
10002eb2:	23d0      	movs	r3, #208	; 0xd0
10002eb4:	2280      	movs	r2, #128	; 0x80
10002eb6:	061b      	lsls	r3, r3, #24
10002eb8:	0352      	lsls	r2, r2, #13
10002eba:	615a      	str	r2, [r3, #20]
10002ebc:	e7f2      	b.n	10002ea4 <MUX_Set+0xc8>
10002ebe:	23d0      	movs	r3, #208	; 0xd0
10002ec0:	2280      	movs	r2, #128	; 0x80
10002ec2:	061b      	lsls	r3, r3, #24
10002ec4:	0352      	lsls	r2, r2, #13
10002ec6:	619a      	str	r2, [r3, #24]
10002ec8:	e7b6      	b.n	10002e38 <MUX_Set+0x5c>
10002eca:	23d0      	movs	r3, #208	; 0xd0
10002ecc:	2280      	movs	r2, #128	; 0x80
10002ece:	061b      	lsls	r3, r3, #24
10002ed0:	0352      	lsls	r2, r2, #13
10002ed2:	619a      	str	r2, [r3, #24]
10002ed4:	e7c5      	b.n	10002e62 <MUX_Set+0x86>
10002ed6:	23d0      	movs	r3, #208	; 0xd0
10002ed8:	2280      	movs	r2, #128	; 0x80
10002eda:	061b      	lsls	r3, r3, #24
10002edc:	0352      	lsls	r2, r2, #13
10002ede:	619a      	str	r2, [r3, #24]
10002ee0:	2280      	movs	r2, #128	; 0x80
10002ee2:	0312      	lsls	r2, r2, #12
10002ee4:	619a      	str	r2, [r3, #24]
10002ee6:	e7aa      	b.n	10002e3e <MUX_Set+0x62>
10002ee8:	23d0      	movs	r3, #208	; 0xd0
10002eea:	2280      	movs	r2, #128	; 0x80
10002eec:	061b      	lsls	r3, r3, #24
10002eee:	0352      	lsls	r2, r2, #13
10002ef0:	619a      	str	r2, [r3, #24]
10002ef2:	e7cb      	b.n	10002e8c <MUX_Set+0xb0>
10002ef4:	23d0      	movs	r3, #208	; 0xd0
10002ef6:	2280      	movs	r2, #128	; 0x80
10002ef8:	061b      	lsls	r3, r3, #24
10002efa:	0352      	lsls	r2, r2, #13
10002efc:	619a      	str	r2, [r3, #24]
10002efe:	2280      	movs	r2, #128	; 0x80
10002f00:	0312      	lsls	r2, r2, #12
10002f02:	619a      	str	r2, [r3, #24]
10002f04:	e786      	b.n	10002e14 <MUX_Set+0x38>
10002f06:	23d0      	movs	r3, #208	; 0xd0
10002f08:	2280      	movs	r2, #128	; 0x80
10002f0a:	061b      	lsls	r3, r3, #24
10002f0c:	0352      	lsls	r2, r2, #13
10002f0e:	615a      	str	r2, [r3, #20]
10002f10:	2280      	movs	r2, #128	; 0x80
10002f12:	0312      	lsls	r2, r2, #12
10002f14:	619a      	str	r2, [r3, #24]
10002f16:	e77d      	b.n	10002e14 <MUX_Set+0x38>
10002f18:	23d0      	movs	r3, #208	; 0xd0
10002f1a:	2280      	movs	r2, #128	; 0x80
10002f1c:	061b      	lsls	r3, r3, #24
10002f1e:	0352      	lsls	r2, r2, #13
10002f20:	615a      	str	r2, [r3, #20]
10002f22:	2280      	movs	r2, #128	; 0x80
10002f24:	0312      	lsls	r2, r2, #12
10002f26:	615a      	str	r2, [r3, #20]
10002f28:	2280      	movs	r2, #128	; 0x80
10002f2a:	02d2      	lsls	r2, r2, #11
10002f2c:	615a      	str	r2, [r3, #20]
10002f2e:	2280      	movs	r2, #128	; 0x80
10002f30:	0392      	lsls	r2, r2, #14
10002f32:	615a      	str	r2, [r3, #20]
10002f34:	2280      	movs	r2, #128	; 0x80
10002f36:	04d2      	lsls	r2, r2, #19
10002f38:	619a      	str	r2, [r3, #24]
10002f3a:	2280      	movs	r2, #128	; 0x80
10002f3c:	0512      	lsls	r2, r2, #20
10002f3e:	619a      	str	r2, [r3, #24]
10002f40:	e774      	b.n	10002e2c <MUX_Set+0x50>
10002f42:	23d0      	movs	r3, #208	; 0xd0
10002f44:	2280      	movs	r2, #128	; 0x80
10002f46:	061b      	lsls	r3, r3, #24
10002f48:	0352      	lsls	r2, r2, #13
10002f4a:	615a      	str	r2, [r3, #20]
10002f4c:	2280      	movs	r2, #128	; 0x80
10002f4e:	0312      	lsls	r2, r2, #12
10002f50:	615a      	str	r2, [r3, #20]
10002f52:	2280      	movs	r2, #128	; 0x80
10002f54:	02d2      	lsls	r2, r2, #11
10002f56:	619a      	str	r2, [r3, #24]
10002f58:	e7e9      	b.n	10002f2e <MUX_Set+0x152>
10002f5a:	23d0      	movs	r3, #208	; 0xd0
10002f5c:	2280      	movs	r2, #128	; 0x80
10002f5e:	061b      	lsls	r3, r3, #24
10002f60:	0352      	lsls	r2, r2, #13
10002f62:	615a      	str	r2, [r3, #20]
10002f64:	2280      	movs	r2, #128	; 0x80
10002f66:	0312      	lsls	r2, r2, #12
10002f68:	619a      	str	r2, [r3, #24]
10002f6a:	e7dd      	b.n	10002f28 <MUX_Set+0x14c>
10002f6c:	23d0      	movs	r3, #208	; 0xd0
10002f6e:	2280      	movs	r2, #128	; 0x80
10002f70:	061b      	lsls	r3, r3, #24
10002f72:	0352      	lsls	r2, r2, #13
10002f74:	615a      	str	r2, [r3, #20]
10002f76:	2280      	movs	r2, #128	; 0x80
10002f78:	0312      	lsls	r2, r2, #12
10002f7a:	619a      	str	r2, [r3, #24]
10002f7c:	2280      	movs	r2, #128	; 0x80
10002f7e:	02d2      	lsls	r2, r2, #11
10002f80:	619a      	str	r2, [r3, #24]
10002f82:	e7d4      	b.n	10002f2e <MUX_Set+0x152>
10002f84:	23d0      	movs	r3, #208	; 0xd0
10002f86:	2280      	movs	r2, #128	; 0x80
10002f88:	061b      	lsls	r3, r3, #24
10002f8a:	0352      	lsls	r2, r2, #13
10002f8c:	619a      	str	r2, [r3, #24]
10002f8e:	2280      	movs	r2, #128	; 0x80
10002f90:	0312      	lsls	r2, r2, #12
10002f92:	619a      	str	r2, [r3, #24]
10002f94:	2280      	movs	r2, #128	; 0x80
10002f96:	02d2      	lsls	r2, r2, #11
10002f98:	619a      	str	r2, [r3, #24]
10002f9a:	e73e      	b.n	10002e1a <MUX_Set+0x3e>
10002f9c:	23d0      	movs	r3, #208	; 0xd0
10002f9e:	2280      	movs	r2, #128	; 0x80
10002fa0:	061b      	lsls	r3, r3, #24
10002fa2:	0352      	lsls	r2, r2, #13
10002fa4:	615a      	str	r2, [r3, #20]
10002fa6:	e7f2      	b.n	10002f8e <MUX_Set+0x1b2>
10002fa8:	23d0      	movs	r3, #208	; 0xd0
10002faa:	2280      	movs	r2, #128	; 0x80
10002fac:	061b      	lsls	r3, r3, #24
10002fae:	0352      	lsls	r2, r2, #13
10002fb0:	619a      	str	r2, [r3, #24]
10002fb2:	2280      	movs	r2, #128	; 0x80
10002fb4:	0312      	lsls	r2, r2, #12
10002fb6:	615a      	str	r2, [r3, #20]
10002fb8:	e7b6      	b.n	10002f28 <MUX_Set+0x14c>
10002fba:	23d0      	movs	r3, #208	; 0xd0
10002fbc:	2280      	movs	r2, #128	; 0x80
10002fbe:	061b      	lsls	r3, r3, #24
10002fc0:	0352      	lsls	r2, r2, #13
10002fc2:	619a      	str	r2, [r3, #24]
10002fc4:	e7c2      	b.n	10002f4c <MUX_Set+0x170>
10002fc6:	23d0      	movs	r3, #208	; 0xd0
10002fc8:	2280      	movs	r2, #128	; 0x80
10002fca:	061b      	lsls	r3, r3, #24
10002fcc:	0352      	lsls	r2, r2, #13
10002fce:	619a      	str	r2, [r3, #24]
10002fd0:	e7c8      	b.n	10002f64 <MUX_Set+0x188>
10002fd2:	23d0      	movs	r3, #208	; 0xd0
10002fd4:	2280      	movs	r2, #128	; 0x80
10002fd6:	061b      	lsls	r3, r3, #24
10002fd8:	0352      	lsls	r2, r2, #13
10002fda:	619a      	str	r2, [r3, #24]
10002fdc:	e7cb      	b.n	10002f76 <MUX_Set+0x19a>
10002fde:	23d0      	movs	r3, #208	; 0xd0
10002fe0:	2280      	movs	r2, #128	; 0x80
10002fe2:	061b      	lsls	r3, r3, #24
10002fe4:	0352      	lsls	r2, r2, #13
10002fe6:	619a      	str	r2, [r3, #24]
10002fe8:	e711      	b.n	10002e0e <MUX_Set+0x32>
10002fea:	2380      	movs	r3, #128	; 0x80
10002fec:	035b      	lsls	r3, r3, #13
10002fee:	6193      	str	r3, [r2, #24]
10002ff0:	2380      	movs	r3, #128	; 0x80
10002ff2:	031b      	lsls	r3, r3, #12
10002ff4:	6193      	str	r3, [r2, #24]
10002ff6:	2380      	movs	r3, #128	; 0x80
10002ff8:	02db      	lsls	r3, r3, #11
10002ffa:	6193      	str	r3, [r2, #24]
10002ffc:	2380      	movs	r3, #128	; 0x80
10002ffe:	039b      	lsls	r3, r3, #14
10003000:	6193      	str	r3, [r2, #24]
10003002:	2380      	movs	r3, #128	; 0x80
10003004:	04db      	lsls	r3, r3, #19
10003006:	6193      	str	r3, [r2, #24]
10003008:	2380      	movs	r3, #128	; 0x80
1000300a:	051b      	lsls	r3, r3, #20
1000300c:	6193      	str	r3, [r2, #24]
1000300e:	e70d      	b.n	10002e2c <MUX_Set+0x50>
10003010:	100095f8 	.word	0x100095f8
10003014:	10009658 	.word	0x10009658

10003018 <DAC_Check>:
10003018:	b5f0      	push	{r4, r5, r6, r7, lr}
1000301a:	46de      	mov	lr, fp
1000301c:	4657      	mov	r7, sl
1000301e:	464e      	mov	r6, r9
10003020:	4645      	mov	r5, r8
10003022:	b5e0      	push	{r5, r6, r7, lr}
10003024:	4cad      	ldr	r4, [pc, #692]	; (100032dc <DAC_Check+0x2c4>)
10003026:	2214      	movs	r2, #20
10003028:	44a5      	add	sp, r4
1000302a:	2400      	movs	r4, #0
1000302c:	2100      	movs	r1, #0
1000302e:	a817      	add	r0, sp, #92	; 0x5c
10003030:	9415      	str	r4, [sp, #84]	; 0x54
10003032:	9416      	str	r4, [sp, #88]	; 0x58
10003034:	f003 fbf4 	bl	10006820 <__wrap_memset>
10003038:	4ba9      	ldr	r3, [pc, #676]	; (100032e0 <DAC_Check+0x2c8>)
1000303a:	9313      	str	r3, [sp, #76]	; 0x4c
1000303c:	781b      	ldrb	r3, [r3, #0]
1000303e:	2b01      	cmp	r3, #1
10003040:	d01a      	beq.n	10003078 <DAC_Check+0x60>
10003042:	2b02      	cmp	r3, #2
10003044:	d100      	bne.n	10003048 <DAC_Check+0x30>
10003046:	e07b      	b.n	10003140 <DAC_Check+0x128>
10003048:	2b04      	cmp	r3, #4
1000304a:	d100      	bne.n	1000304e <DAC_Check+0x36>
1000304c:	e229      	b.n	100034a2 <DAC_Check+0x48a>
1000304e:	2b08      	cmp	r3, #8
10003050:	d100      	bne.n	10003054 <DAC_Check+0x3c>
10003052:	e072      	b.n	1000313a <DAC_Check+0x122>
10003054:	4ba3      	ldr	r3, [pc, #652]	; (100032e4 <DAC_Check+0x2cc>)
10003056:	9312      	str	r3, [sp, #72]	; 0x48
10003058:	2301      	movs	r3, #1
1000305a:	9a12      	ldr	r2, [sp, #72]	; 0x48
1000305c:	7013      	strb	r3, [r2, #0]
1000305e:	2300      	movs	r3, #0
10003060:	9a13      	ldr	r2, [sp, #76]	; 0x4c
10003062:	7013      	strb	r3, [r2, #0]
10003064:	f7fd fd72 	bl	10000b4c <Watchdog>
10003068:	4b9f      	ldr	r3, [pc, #636]	; (100032e8 <DAC_Check+0x2d0>)
1000306a:	449d      	add	sp, r3
1000306c:	bcf0      	pop	{r4, r5, r6, r7}
1000306e:	46bb      	mov	fp, r7
10003070:	46b2      	mov	sl, r6
10003072:	46a9      	mov	r9, r5
10003074:	46a0      	mov	r8, r4
10003076:	bdf0      	pop	{r4, r5, r6, r7, pc}
10003078:	4b9a      	ldr	r3, [pc, #616]	; (100032e4 <DAC_Check+0x2cc>)
1000307a:	4a9c      	ldr	r2, [pc, #624]	; (100032ec <DAC_Check+0x2d4>)
1000307c:	701c      	strb	r4, [r3, #0]
1000307e:	9312      	str	r3, [sp, #72]	; 0x48
10003080:	4b9b      	ldr	r3, [pc, #620]	; (100032f0 <DAC_Check+0x2d8>)
10003082:	6014      	str	r4, [r2, #0]
10003084:	801c      	strh	r4, [r3, #0]
10003086:	2580      	movs	r5, #128	; 0x80
10003088:	24d0      	movs	r4, #208	; 0xd0
1000308a:	03ed      	lsls	r5, r5, #15
1000308c:	0624      	lsls	r4, r4, #24
1000308e:	920f      	str	r2, [sp, #60]	; 0x3c
10003090:	9300      	str	r3, [sp, #0]
10003092:	2064      	movs	r0, #100	; 0x64
10003094:	61a5      	str	r5, [r4, #24]
10003096:	f001 fff7 	bl	10005088 <sleep_ms>
1000309a:	6165      	str	r5, [r4, #20]
1000309c:	20c8      	movs	r0, #200	; 0xc8
1000309e:	f001 fff3 	bl	10005088 <sleep_ms>
100030a2:	2200      	movs	r2, #0
100030a4:	2700      	movs	r7, #0
100030a6:	4691      	mov	r9, r2
100030a8:	4a92      	ldr	r2, [pc, #584]	; (100032f4 <DAC_Check+0x2dc>)
100030aa:	46ba      	mov	sl, r7
100030ac:	4690      	mov	r8, r2
100030ae:	9d00      	ldr	r5, [sp, #0]
100030b0:	4653      	mov	r3, sl
100030b2:	b2de      	uxtb	r6, r3
100030b4:	0030      	movs	r0, r6
100030b6:	f7ff fe91 	bl	10002ddc <MUX_Set>
100030ba:	200a      	movs	r0, #10
100030bc:	f001 ffe4 	bl	10005088 <sleep_ms>
100030c0:	464b      	mov	r3, r9
100030c2:	2400      	movs	r4, #0
100030c4:	802b      	strh	r3, [r5, #0]
100030c6:	2001      	movs	r0, #1
100030c8:	f7fd fab6 	bl	10000638 <ADC_Read>
100030cc:	b203      	sxth	r3, r0
100030ce:	43db      	mvns	r3, r3
100030d0:	17db      	asrs	r3, r3, #31
100030d2:	4018      	ands	r0, r3
100030d4:	8028      	strh	r0, [r5, #0]
100030d6:	2064      	movs	r0, #100	; 0x64
100030d8:	f001 ffd6 	bl	10005088 <sleep_ms>
100030dc:	882b      	ldrh	r3, [r5, #0]
100030de:	3401      	adds	r4, #1
100030e0:	b2e4      	uxtb	r4, r4
100030e2:	2b00      	cmp	r3, #0
100030e4:	d120      	bne.n	10003128 <DAC_Check+0x110>
100030e6:	2c05      	cmp	r4, #5
100030e8:	d1ed      	bne.n	100030c6 <DAC_Check+0xae>
100030ea:	f7fd fd2f 	bl	10000b4c <Watchdog>
100030ee:	882b      	ldrh	r3, [r5, #0]
100030f0:	2b64      	cmp	r3, #100	; 0x64
100030f2:	d91d      	bls.n	10003130 <DAC_Check+0x118>
100030f4:	2301      	movs	r3, #1
100030f6:	4652      	mov	r2, sl
100030f8:	4093      	lsls	r3, r2
100030fa:	431f      	orrs	r7, r3
100030fc:	22ff      	movs	r2, #255	; 0xff
100030fe:	4641      	mov	r1, r8
10003100:	0c3b      	lsrs	r3, r7, #16
10003102:	0212      	lsls	r2, r2, #8
10003104:	403a      	ands	r2, r7
10003106:	400b      	ands	r3, r1
10003108:	4313      	orrs	r3, r2
1000310a:	b2fa      	uxtb	r2, r7
1000310c:	0412      	lsls	r2, r2, #16
1000310e:	3601      	adds	r6, #1
10003110:	4313      	orrs	r3, r2
10003112:	0636      	lsls	r6, r6, #24
10003114:	9a0f      	ldr	r2, [sp, #60]	; 0x3c
10003116:	4333      	orrs	r3, r6
10003118:	6013      	str	r3, [r2, #0]
1000311a:	2301      	movs	r3, #1
1000311c:	469c      	mov	ip, r3
1000311e:	44e2      	add	sl, ip
10003120:	4653      	mov	r3, sl
10003122:	2b18      	cmp	r3, #24
10003124:	d1c4      	bne.n	100030b0 <DAC_Check+0x98>
10003126:	e797      	b.n	10003058 <DAC_Check+0x40>
10003128:	2c05      	cmp	r4, #5
1000312a:	d0de      	beq.n	100030ea <DAC_Check+0xd2>
1000312c:	2b64      	cmp	r3, #100	; 0x64
1000312e:	d8e1      	bhi.n	100030f4 <DAC_Check+0xdc>
10003130:	2301      	movs	r3, #1
10003132:	4652      	mov	r2, sl
10003134:	4093      	lsls	r3, r2
10003136:	439f      	bics	r7, r3
10003138:	e7e0      	b.n	100030fc <DAC_Check+0xe4>
1000313a:	4b6c      	ldr	r3, [pc, #432]	; (100032ec <DAC_Check+0x2d4>)
1000313c:	601c      	str	r4, [r3, #0]
1000313e:	e789      	b.n	10003054 <DAC_Check+0x3c>
10003140:	228c      	movs	r2, #140	; 0x8c
10003142:	4b68      	ldr	r3, [pc, #416]	; (100032e4 <DAC_Check+0x2cc>)
10003144:	0092      	lsls	r2, r2, #2
10003146:	701c      	strb	r4, [r3, #0]
10003148:	9312      	str	r3, [sp, #72]	; 0x48
1000314a:	4b68      	ldr	r3, [pc, #416]	; (100032ec <DAC_Check+0x2d4>)
1000314c:	2100      	movs	r1, #0
1000314e:	930f      	str	r3, [sp, #60]	; 0x3c
10003150:	601c      	str	r4, [r3, #0]
10003152:	ab1c      	add	r3, sp, #112	; 0x70
10003154:	0018      	movs	r0, r3
10003156:	469b      	mov	fp, r3
10003158:	9415      	str	r4, [sp, #84]	; 0x54
1000315a:	9416      	str	r4, [sp, #88]	; 0x58
1000315c:	f003 fb60 	bl	10006820 <__wrap_memset>
10003160:	4b63      	ldr	r3, [pc, #396]	; (100032f0 <DAC_Check+0x2d8>)
10003162:	aa14      	add	r2, sp, #80	; 0x50
10003164:	9300      	str	r3, [sp, #0]
10003166:	805c      	strh	r4, [r3, #2]
10003168:	605c      	str	r4, [r3, #4]
1000316a:	811c      	strh	r4, [r3, #8]
1000316c:	2300      	movs	r3, #0
1000316e:	4698      	mov	r8, r3
10003170:	9301      	str	r3, [sp, #4]
10003172:	4b61      	ldr	r3, [pc, #388]	; (100032f8 <DAC_Check+0x2e0>)
10003174:	4694      	mov	ip, r2
10003176:	469a      	mov	sl, r3
10003178:	4b60      	ldr	r3, [pc, #384]	; (100032fc <DAC_Check+0x2e4>)
1000317a:	4657      	mov	r7, sl
1000317c:	4699      	mov	r9, r3
1000317e:	4b60      	ldr	r3, [pc, #384]	; (10003300 <DAC_Check+0x2e8>)
10003180:	464d      	mov	r5, r9
10003182:	930a      	str	r3, [sp, #40]	; 0x28
10003184:	23c7      	movs	r3, #199	; 0xc7
10003186:	4463      	add	r3, ip
10003188:	9309      	str	r3, [sp, #36]	; 0x24
1000318a:	4b5e      	ldr	r3, [pc, #376]	; (10003304 <DAC_Check+0x2ec>)
1000318c:	4e5e      	ldr	r6, [pc, #376]	; (10003308 <DAC_Check+0x2f0>)
1000318e:	9302      	str	r3, [sp, #8]
10003190:	466b      	mov	r3, sp
10003192:	791b      	ldrb	r3, [r3, #4]
10003194:	469a      	mov	sl, r3
10003196:	2300      	movs	r3, #0
10003198:	803b      	strh	r3, [r7, #0]
1000319a:	802b      	strh	r3, [r5, #0]
1000319c:	f7fd fcd6 	bl	10000b4c <Watchdog>
100031a0:	4650      	mov	r0, sl
100031a2:	f7ff fe1b 	bl	10002ddc <MUX_Set>
100031a6:	200a      	movs	r0, #10
100031a8:	f001 ff6e 	bl	10005088 <sleep_ms>
100031ac:	9b0a      	ldr	r3, [sp, #40]	; 0x28
100031ae:	2120      	movs	r1, #32
100031b0:	0018      	movs	r0, r3
100031b2:	4a56      	ldr	r2, [pc, #344]	; (1000330c <DAC_Check+0x2f4>)
100031b4:	1ddc      	adds	r4, r3, #7
100031b6:	6993      	ldr	r3, [r2, #24]
100031b8:	4219      	tst	r1, r3
100031ba:	d1fc      	bne.n	100031b6 <DAC_Check+0x19e>
100031bc:	7803      	ldrb	r3, [r0, #0]
100031be:	3001      	adds	r0, #1
100031c0:	6013      	str	r3, [r2, #0]
100031c2:	42a0      	cmp	r0, r4
100031c4:	d1f7      	bne.n	100031b6 <DAC_Check+0x19e>
100031c6:	2364      	movs	r3, #100	; 0x64
100031c8:	8033      	strh	r3, [r6, #0]
100031ca:	8832      	ldrh	r2, [r6, #0]
100031cc:	b293      	uxth	r3, r2
100031ce:	2a00      	cmp	r2, #0
100031d0:	d1fb      	bne.n	100031ca <DAC_Check+0x1b2>
100031d2:	882a      	ldrh	r2, [r5, #0]
100031d4:	b294      	uxth	r4, r2
100031d6:	2a00      	cmp	r2, #0
100031d8:	d025      	beq.n	10003226 <DAC_Check+0x20e>
100031da:	2000      	movs	r0, #0
100031dc:	46ac      	mov	ip, r5
100031de:	46b1      	mov	r9, r6
100031e0:	0025      	movs	r5, r4
100031e2:	465e      	mov	r6, fp
100031e4:	0004      	movs	r4, r0
100031e6:	4a4a      	ldr	r2, [pc, #296]	; (10003310 <DAC_Check+0x2f8>)
100031e8:	9703      	str	r7, [sp, #12]
100031ea:	e006      	b.n	100031fa <DAC_Check+0x1e2>
100031ec:	18d0      	adds	r0, r2, r3
100031ee:	5d00      	ldrb	r0, [r0, r4]
100031f0:	3301      	adds	r3, #1
100031f2:	b29b      	uxth	r3, r3
100031f4:	5470      	strb	r0, [r6, r1]
100031f6:	429d      	cmp	r5, r3
100031f8:	d911      	bls.n	1000321e <DAC_Check+0x206>
100031fa:	5cd0      	ldrb	r0, [r2, r3]
100031fc:	0019      	movs	r1, r3
100031fe:	2810      	cmp	r0, #16
10003200:	d1f4      	bne.n	100031ec <DAC_Check+0x1d4>
10003202:	18d0      	adds	r0, r2, r3
10003204:	7847      	ldrb	r7, [r0, #1]
10003206:	2f10      	cmp	r7, #16
10003208:	d1f0      	bne.n	100031ec <DAC_Check+0x1d4>
1000320a:	3301      	adds	r3, #1
1000320c:	b29b      	uxth	r3, r3
1000320e:	5d00      	ldrb	r0, [r0, r4]
10003210:	3301      	adds	r3, #1
10003212:	3401      	adds	r4, #1
10003214:	b29b      	uxth	r3, r3
10003216:	b2e4      	uxtb	r4, r4
10003218:	5470      	strb	r0, [r6, r1]
1000321a:	429d      	cmp	r5, r3
1000321c:	d8ed      	bhi.n	100031fa <DAC_Check+0x1e2>
1000321e:	46b3      	mov	fp, r6
10003220:	4665      	mov	r5, ip
10003222:	464e      	mov	r6, r9
10003224:	9f03      	ldr	r7, [sp, #12]
10003226:	9909      	ldr	r1, [sp, #36]	; 0x24
10003228:	465c      	mov	r4, fp
1000322a:	784a      	ldrb	r2, [r1, #1]
1000322c:	780b      	ldrb	r3, [r1, #0]
1000322e:	0212      	lsls	r2, r2, #8
10003230:	431a      	orrs	r2, r3
10003232:	788b      	ldrb	r3, [r1, #2]
10003234:	78c8      	ldrb	r0, [r1, #3]
10003236:	041b      	lsls	r3, r3, #16
10003238:	4313      	orrs	r3, r2
1000323a:	0600      	lsls	r0, r0, #24
1000323c:	4318      	orrs	r0, r3
1000323e:	465a      	mov	r2, fp
10003240:	23ab      	movs	r3, #171	; 0xab
10003242:	4659      	mov	r1, fp
10003244:	5cd3      	ldrb	r3, [r2, r3]
10003246:	22ac      	movs	r2, #172	; 0xac
10003248:	5c8a      	ldrb	r2, [r1, r2]
1000324a:	21ad      	movs	r1, #173	; 0xad
1000324c:	0212      	lsls	r2, r2, #8
1000324e:	4313      	orrs	r3, r2
10003250:	469c      	mov	ip, r3
10003252:	22ae      	movs	r2, #174	; 0xae
10003254:	465b      	mov	r3, fp
10003256:	5c61      	ldrb	r1, [r4, r1]
10003258:	9016      	str	r0, [sp, #88]	; 0x58
1000325a:	5c9a      	ldrb	r2, [r3, r2]
1000325c:	4663      	mov	r3, ip
1000325e:	0409      	lsls	r1, r1, #16
10003260:	0612      	lsls	r2, r2, #24
10003262:	430b      	orrs	r3, r1
10003264:	4313      	orrs	r3, r2
10003266:	492b      	ldr	r1, [pc, #172]	; (10003314 <DAC_Check+0x2fc>)
10003268:	9315      	str	r3, [sp, #84]	; 0x54
1000326a:	9305      	str	r3, [sp, #20]
1000326c:	f003 fa53 	bl	10006716 <__wrap___aeabi_fmul>
10003270:	f003 fa80 	bl	10006774 <__wrap___aeabi_f2uiz>
10003274:	b283      	uxth	r3, r0
10003276:	2209      	movs	r2, #9
10003278:	9304      	str	r3, [sp, #16]
1000327a:	2364      	movs	r3, #100	; 0x64
1000327c:	9802      	ldr	r0, [sp, #8]
1000327e:	8033      	strh	r3, [r6, #0]
10003280:	4694      	mov	ip, r2
10003282:	0003      	movs	r3, r0
10003284:	2400      	movs	r4, #0
10003286:	4463      	add	r3, ip
10003288:	803c      	strh	r4, [r7, #0]
1000328a:	4699      	mov	r9, r3
1000328c:	802c      	strh	r4, [r5, #0]
1000328e:	2120      	movs	r1, #32
10003290:	0004      	movs	r4, r0
10003292:	4a1e      	ldr	r2, [pc, #120]	; (1000330c <DAC_Check+0x2f4>)
10003294:	6993      	ldr	r3, [r2, #24]
10003296:	4219      	tst	r1, r3
10003298:	d1fc      	bne.n	10003294 <DAC_Check+0x27c>
1000329a:	7803      	ldrb	r3, [r0, #0]
1000329c:	3001      	adds	r0, #1
1000329e:	6013      	str	r3, [r2, #0]
100032a0:	4548      	cmp	r0, r9
100032a2:	d1f7      	bne.n	10003294 <DAC_Check+0x27c>
100032a4:	e002      	b.n	100032ac <DAC_Check+0x294>
100032a6:	8833      	ldrh	r3, [r6, #0]
100032a8:	2b00      	cmp	r3, #0
100032aa:	d004      	beq.n	100032b6 <DAC_Check+0x29e>
100032ac:	883b      	ldrh	r3, [r7, #0]
100032ae:	882a      	ldrh	r2, [r5, #0]
100032b0:	3301      	adds	r3, #1
100032b2:	4293      	cmp	r3, r2
100032b4:	daf7      	bge.n	100032a6 <DAC_Check+0x28e>
100032b6:	f7ff fd57 	bl	10002d68 <UART_CheckResponse>
100032ba:	2801      	cmp	r0, #1
100032bc:	d100      	bne.n	100032c0 <DAC_Check+0x2a8>
100032be:	e0bf      	b.n	10003440 <DAC_Check+0x428>
100032c0:	2300      	movs	r3, #0
100032c2:	2120      	movs	r1, #32
100032c4:	4a11      	ldr	r2, [pc, #68]	; (1000330c <DAC_Check+0x2f4>)
100032c6:	803b      	strh	r3, [r7, #0]
100032c8:	802b      	strh	r3, [r5, #0]
100032ca:	6993      	ldr	r3, [r2, #24]
100032cc:	4219      	tst	r1, r3
100032ce:	d1fc      	bne.n	100032ca <DAC_Check+0x2b2>
100032d0:	7823      	ldrb	r3, [r4, #0]
100032d2:	3401      	adds	r4, #1
100032d4:	6013      	str	r3, [r2, #0]
100032d6:	45a1      	cmp	r9, r4
100032d8:	d1f7      	bne.n	100032ca <DAC_Check+0x2b2>
100032da:	e020      	b.n	1000331e <DAC_Check+0x306>
100032dc:	fffffb2c 	.word	0xfffffb2c
100032e0:	200021a1 	.word	0x200021a1
100032e4:	20000dd0 	.word	0x20000dd0
100032e8:	000004d4 	.word	0x000004d4
100032ec:	20001708 	.word	0x20001708
100032f0:	20001690 	.word	0x20001690
100032f4:	ffff00ff 	.word	0xffff00ff
100032f8:	2000218e 	.word	0x2000218e
100032fc:	20002190 	.word	0x20002190
10003300:	100096ec 	.word	0x100096ec
10003304:	100096cc 	.word	0x100096cc
10003308:	20002188 	.word	0x20002188
1000330c:	40034000 	.word	0x40034000
10003310:	20001110 	.word	0x20001110
10003314:	447a0000 	.word	0x447a0000
10003318:	8833      	ldrh	r3, [r6, #0]
1000331a:	2b00      	cmp	r3, #0
1000331c:	d004      	beq.n	10003328 <DAC_Check+0x310>
1000331e:	883b      	ldrh	r3, [r7, #0]
10003320:	882a      	ldrh	r2, [r5, #0]
10003322:	3301      	adds	r3, #1
10003324:	4293      	cmp	r3, r2
10003326:	daf7      	bge.n	10003318 <DAC_Check+0x300>
10003328:	f7ff fd1e 	bl	10002d68 <UART_CheckResponse>
1000332c:	2801      	cmp	r0, #1
1000332e:	d057      	beq.n	100033e0 <DAC_Check+0x3c8>
10003330:	9b00      	ldr	r3, [sp, #0]
10003332:	88db      	ldrh	r3, [r3, #6]
10003334:	4699      	mov	r9, r3
10003336:	9b00      	ldr	r3, [sp, #0]
10003338:	8858      	ldrh	r0, [r3, #2]
1000333a:	f002 fe97 	bl	1000606c <__wrap___aeabi_i2d>
1000333e:	4acb      	ldr	r2, [pc, #812]	; (1000366c <DAC_Check+0x654>)
10003340:	4bcb      	ldr	r3, [pc, #812]	; (10003670 <DAC_Check+0x658>)
10003342:	f002 fe64 	bl	1000600e <__wrap___aeabi_ddiv>
10003346:	f002 fea9 	bl	1000609c <__wrap___aeabi_d2uiz>
1000334a:	9b00      	ldr	r3, [sp, #0]
1000334c:	b284      	uxth	r4, r0
1000334e:	809c      	strh	r4, [r3, #4]
10003350:	4648      	mov	r0, r9
10003352:	f002 fe8b 	bl	1000606c <__wrap___aeabi_i2d>
10003356:	4ac7      	ldr	r2, [pc, #796]	; (10003674 <DAC_Check+0x65c>)
10003358:	4bc7      	ldr	r3, [pc, #796]	; (10003678 <DAC_Check+0x660>)
1000335a:	f002 fe58 	bl	1000600e <__wrap___aeabi_ddiv>
1000335e:	f002 fe9d 	bl	1000609c <__wrap___aeabi_d2uiz>
10003362:	9b00      	ldr	r3, [sp, #0]
10003364:	b282      	uxth	r2, r0
10003366:	811a      	strh	r2, [r3, #8]
10003368:	4691      	mov	r9, r2
1000336a:	9a04      	ldr	r2, [sp, #16]
1000336c:	0013      	movs	r3, r2
1000336e:	3b0a      	subs	r3, #10
10003370:	42a3      	cmp	r3, r4
10003372:	dc2e      	bgt.n	100033d2 <DAC_Check+0x3ba>
10003374:	3314      	adds	r3, #20
10003376:	429c      	cmp	r4, r3
10003378:	dc2b      	bgt.n	100033d2 <DAC_Check+0x3ba>
1000337a:	49c0      	ldr	r1, [pc, #768]	; (1000367c <DAC_Check+0x664>)
1000337c:	9805      	ldr	r0, [sp, #20]
1000337e:	f003 f9ca 	bl	10006716 <__wrap___aeabi_fmul>
10003382:	f003 f9f7 	bl	10006774 <__wrap___aeabi_f2uiz>
10003386:	b280      	uxth	r0, r0
10003388:	0003      	movs	r3, r0
1000338a:	3b0a      	subs	r3, #10
1000338c:	454b      	cmp	r3, r9
1000338e:	dc20      	bgt.n	100033d2 <DAC_Check+0x3ba>
10003390:	300a      	adds	r0, #10
10003392:	4581      	cmp	r9, r0
10003394:	dc1d      	bgt.n	100033d2 <DAC_Check+0x3ba>
10003396:	2301      	movs	r3, #1
10003398:	9a01      	ldr	r2, [sp, #4]
1000339a:	4093      	lsls	r3, r2
1000339c:	4642      	mov	r2, r8
1000339e:	431a      	orrs	r2, r3
100033a0:	4690      	mov	r8, r2
100033a2:	22ff      	movs	r2, #255	; 0xff
100033a4:	4643      	mov	r3, r8
100033a6:	0212      	lsls	r2, r2, #8
100033a8:	401a      	ands	r2, r3
100033aa:	021b      	lsls	r3, r3, #8
100033ac:	4641      	mov	r1, r8
100033ae:	0e1b      	lsrs	r3, r3, #24
100033b0:	4313      	orrs	r3, r2
100033b2:	4652      	mov	r2, sl
100033b4:	b2c9      	uxtb	r1, r1
100033b6:	0409      	lsls	r1, r1, #16
100033b8:	3201      	adds	r2, #1
100033ba:	0612      	lsls	r2, r2, #24
100033bc:	430b      	orrs	r3, r1
100033be:	4313      	orrs	r3, r2
100033c0:	9a0f      	ldr	r2, [sp, #60]	; 0x3c
100033c2:	6013      	str	r3, [r2, #0]
100033c4:	9b01      	ldr	r3, [sp, #4]
100033c6:	3301      	adds	r3, #1
100033c8:	9301      	str	r3, [sp, #4]
100033ca:	2b18      	cmp	r3, #24
100033cc:	d000      	beq.n	100033d0 <DAC_Check+0x3b8>
100033ce:	e6df      	b.n	10003190 <DAC_Check+0x178>
100033d0:	e642      	b.n	10003058 <DAC_Check+0x40>
100033d2:	2301      	movs	r3, #1
100033d4:	9a01      	ldr	r2, [sp, #4]
100033d6:	4093      	lsls	r3, r2
100033d8:	4642      	mov	r2, r8
100033da:	439a      	bics	r2, r3
100033dc:	4690      	mov	r8, r2
100033de:	e7e0      	b.n	100033a2 <DAC_Check+0x38a>
100033e0:	8833      	ldrh	r3, [r6, #0]
100033e2:	2b00      	cmp	r3, #0
100033e4:	d0a4      	beq.n	10003330 <DAC_Check+0x318>
100033e6:	48a6      	ldr	r0, [pc, #664]	; (10003680 <DAC_Check+0x668>)
100033e8:	2300      	movs	r3, #0
100033ea:	0004      	movs	r4, r0
100033ec:	2120      	movs	r1, #32
100033ee:	4aa5      	ldr	r2, [pc, #660]	; (10003684 <DAC_Check+0x66c>)
100033f0:	803b      	strh	r3, [r7, #0]
100033f2:	3408      	adds	r4, #8
100033f4:	802b      	strh	r3, [r5, #0]
100033f6:	6993      	ldr	r3, [r2, #24]
100033f8:	4219      	tst	r1, r3
100033fa:	d1fc      	bne.n	100033f6 <DAC_Check+0x3de>
100033fc:	7803      	ldrb	r3, [r0, #0]
100033fe:	3001      	adds	r0, #1
10003400:	6013      	str	r3, [r2, #0]
10003402:	4284      	cmp	r4, r0
10003404:	d1f7      	bne.n	100033f6 <DAC_Check+0x3de>
10003406:	e002      	b.n	1000340e <DAC_Check+0x3f6>
10003408:	8833      	ldrh	r3, [r6, #0]
1000340a:	2b00      	cmp	r3, #0
1000340c:	d004      	beq.n	10003418 <DAC_Check+0x400>
1000340e:	883b      	ldrh	r3, [r7, #0]
10003410:	882a      	ldrh	r2, [r5, #0]
10003412:	3301      	adds	r3, #1
10003414:	4293      	cmp	r3, r2
10003416:	daf7      	bge.n	10003408 <DAC_Check+0x3f0>
10003418:	f7ff fca6 	bl	10002d68 <UART_CheckResponse>
1000341c:	2801      	cmp	r0, #1
1000341e:	d101      	bne.n	10003424 <DAC_Check+0x40c>
10003420:	f000 fdb7 	bl	10003f92 <DAC_Check+0xf7a>
10003424:	ab14      	add	r3, sp, #80	; 0x50
10003426:	8a18      	ldrh	r0, [r3, #16]
10003428:	8a5b      	ldrh	r3, [r3, #18]
1000342a:	2103      	movs	r1, #3
1000342c:	18c0      	adds	r0, r0, r3
1000342e:	ab14      	add	r3, sp, #80	; 0x50
10003430:	8a9b      	ldrh	r3, [r3, #20]
10003432:	18c0      	adds	r0, r0, r3
10003434:	f002 fd88 	bl	10005f48 <__wrap___aeabi_idiv>
10003438:	9b00      	ldr	r3, [sp, #0]
1000343a:	4681      	mov	r9, r0
1000343c:	80d8      	strh	r0, [r3, #6]
1000343e:	e77a      	b.n	10003336 <DAC_Check+0x31e>
10003440:	8833      	ldrh	r3, [r6, #0]
10003442:	2b00      	cmp	r3, #0
10003444:	d100      	bne.n	10003448 <DAC_Check+0x430>
10003446:	e73b      	b.n	100032c0 <DAC_Check+0x2a8>
10003448:	2300      	movs	r3, #0
1000344a:	803b      	strh	r3, [r7, #0]
1000344c:	802b      	strh	r3, [r5, #0]
1000344e:	3308      	adds	r3, #8
10003450:	469c      	mov	ip, r3
10003452:	2120      	movs	r1, #32
10003454:	488c      	ldr	r0, [pc, #560]	; (10003688 <DAC_Check+0x670>)
10003456:	4a8b      	ldr	r2, [pc, #556]	; (10003684 <DAC_Check+0x66c>)
10003458:	4484      	add	ip, r0
1000345a:	6993      	ldr	r3, [r2, #24]
1000345c:	4219      	tst	r1, r3
1000345e:	d1fc      	bne.n	1000345a <DAC_Check+0x442>
10003460:	7803      	ldrb	r3, [r0, #0]
10003462:	3001      	adds	r0, #1
10003464:	6013      	str	r3, [r2, #0]
10003466:	4584      	cmp	ip, r0
10003468:	d1f7      	bne.n	1000345a <DAC_Check+0x442>
1000346a:	e002      	b.n	10003472 <DAC_Check+0x45a>
1000346c:	8833      	ldrh	r3, [r6, #0]
1000346e:	2b00      	cmp	r3, #0
10003470:	d004      	beq.n	1000347c <DAC_Check+0x464>
10003472:	883b      	ldrh	r3, [r7, #0]
10003474:	882a      	ldrh	r2, [r5, #0]
10003476:	3301      	adds	r3, #1
10003478:	4293      	cmp	r3, r2
1000347a:	daf7      	bge.n	1000346c <DAC_Check+0x454>
1000347c:	f7ff fc74 	bl	10002d68 <UART_CheckResponse>
10003480:	2801      	cmp	r0, #1
10003482:	d101      	bne.n	10003488 <DAC_Check+0x470>
10003484:	f000 fda3 	bl	10003fce <DAC_Check+0xfb6>
10003488:	ab14      	add	r3, sp, #80	; 0x50
1000348a:	8a18      	ldrh	r0, [r3, #16]
1000348c:	8a5b      	ldrh	r3, [r3, #18]
1000348e:	2103      	movs	r1, #3
10003490:	18c0      	adds	r0, r0, r3
10003492:	ab14      	add	r3, sp, #80	; 0x50
10003494:	8a9b      	ldrh	r3, [r3, #20]
10003496:	18c0      	adds	r0, r0, r3
10003498:	f002 fd56 	bl	10005f48 <__wrap___aeabi_idiv>
1000349c:	9b00      	ldr	r3, [sp, #0]
1000349e:	8058      	strh	r0, [r3, #2]
100034a0:	e70e      	b.n	100032c0 <DAC_Check+0x2a8>
100034a2:	228c      	movs	r2, #140	; 0x8c
100034a4:	4b79      	ldr	r3, [pc, #484]	; (1000368c <DAC_Check+0x674>)
100034a6:	2100      	movs	r1, #0
100034a8:	701c      	strb	r4, [r3, #0]
100034aa:	9312      	str	r3, [sp, #72]	; 0x48
100034ac:	4b78      	ldr	r3, [pc, #480]	; (10003690 <DAC_Check+0x678>)
100034ae:	0092      	lsls	r2, r2, #2
100034b0:	930f      	str	r3, [sp, #60]	; 0x3c
100034b2:	601c      	str	r4, [r3, #0]
100034b4:	ab1c      	add	r3, sp, #112	; 0x70
100034b6:	0018      	movs	r0, r3
100034b8:	469b      	mov	fp, r3
100034ba:	9415      	str	r4, [sp, #84]	; 0x54
100034bc:	9416      	str	r4, [sp, #88]	; 0x58
100034be:	f003 f9af 	bl	10006820 <__wrap_memset>
100034c2:	228c      	movs	r2, #140	; 0x8c
100034c4:	2100      	movs	r1, #0
100034c6:	0092      	lsls	r2, r2, #2
100034c8:	a8a8      	add	r0, sp, #672	; 0x2a0
100034ca:	f003 f9a9 	bl	10006820 <__wrap_memset>
100034ce:	2300      	movs	r3, #0
100034d0:	9310      	str	r3, [sp, #64]	; 0x40
100034d2:	9311      	str	r3, [sp, #68]	; 0x44
100034d4:	4b6f      	ldr	r3, [pc, #444]	; (10003694 <DAC_Check+0x67c>)
100034d6:	aa14      	add	r2, sp, #80	; 0x50
100034d8:	9300      	str	r3, [sp, #0]
100034da:	4b6f      	ldr	r3, [pc, #444]	; (10003698 <DAC_Check+0x680>)
100034dc:	4694      	mov	ip, r2
100034de:	469a      	mov	sl, r3
100034e0:	4b6e      	ldr	r3, [pc, #440]	; (1000369c <DAC_Check+0x684>)
100034e2:	4e6f      	ldr	r6, [pc, #444]	; (100036a0 <DAC_Check+0x688>)
100034e4:	4699      	mov	r9, r3
100034e6:	4b6f      	ldr	r3, [pc, #444]	; (100036a4 <DAC_Check+0x68c>)
100034e8:	464f      	mov	r7, r9
100034ea:	930a      	str	r3, [sp, #40]	; 0x28
100034ec:	23c7      	movs	r3, #199	; 0xc7
100034ee:	4463      	add	r3, ip
100034f0:	9309      	str	r3, [sp, #36]	; 0x24
100034f2:	4b6d      	ldr	r3, [pc, #436]	; (100036a8 <DAC_Check+0x690>)
100034f4:	9302      	str	r3, [sp, #8]
100034f6:	4b6d      	ldr	r3, [pc, #436]	; (100036ac <DAC_Check+0x694>)
100034f8:	930e      	str	r3, [sp, #56]	; 0x38
100034fa:	465b      	mov	r3, fp
100034fc:	46d3      	mov	fp, sl
100034fe:	469a      	mov	sl, r3
10003500:	466b      	mov	r3, sp
10003502:	2240      	movs	r2, #64	; 0x40
10003504:	189b      	adds	r3, r3, r2
10003506:	781b      	ldrb	r3, [r3, #0]
10003508:	930b      	str	r3, [sp, #44]	; 0x2c
1000350a:	2305      	movs	r3, #5
1000350c:	9304      	str	r3, [sp, #16]
1000350e:	2300      	movs	r3, #0
10003510:	465a      	mov	r2, fp
10003512:	8013      	strh	r3, [r2, #0]
10003514:	9a00      	ldr	r2, [sp, #0]
10003516:	803b      	strh	r3, [r7, #0]
10003518:	6053      	str	r3, [r2, #4]
1000351a:	6093      	str	r3, [r2, #8]
1000351c:	60d3      	str	r3, [r2, #12]
1000351e:	8053      	strh	r3, [r2, #2]
10003520:	8213      	strh	r3, [r2, #16]
10003522:	f7fd fb13 	bl	10000b4c <Watchdog>
10003526:	980b      	ldr	r0, [sp, #44]	; 0x2c
10003528:	f7ff fc58 	bl	10002ddc <MUX_Set>
1000352c:	200a      	movs	r0, #10
1000352e:	f001 fdab 	bl	10005088 <sleep_ms>
10003532:	9b0a      	ldr	r3, [sp, #40]	; 0x28
10003534:	2120      	movs	r1, #32
10003536:	0018      	movs	r0, r3
10003538:	4a52      	ldr	r2, [pc, #328]	; (10003684 <DAC_Check+0x66c>)
1000353a:	1ddc      	adds	r4, r3, #7
1000353c:	6993      	ldr	r3, [r2, #24]
1000353e:	4219      	tst	r1, r3
10003540:	d1fc      	bne.n	1000353c <DAC_Check+0x524>
10003542:	7803      	ldrb	r3, [r0, #0]
10003544:	3001      	adds	r0, #1
10003546:	6013      	str	r3, [r2, #0]
10003548:	4284      	cmp	r4, r0
1000354a:	d1f7      	bne.n	1000353c <DAC_Check+0x524>
1000354c:	2364      	movs	r3, #100	; 0x64
1000354e:	8033      	strh	r3, [r6, #0]
10003550:	8832      	ldrh	r2, [r6, #0]
10003552:	b293      	uxth	r3, r2
10003554:	2a00      	cmp	r2, #0
10003556:	d1fb      	bne.n	10003550 <DAC_Check+0x538>
10003558:	883a      	ldrh	r2, [r7, #0]
1000355a:	2100      	movs	r1, #0
1000355c:	b290      	uxth	r0, r2
1000355e:	2a00      	cmp	r2, #0
10003560:	d020      	beq.n	100035a4 <DAC_Check+0x58c>
10003562:	46b4      	mov	ip, r6
10003564:	46b9      	mov	r9, r7
10003566:	4656      	mov	r6, sl
10003568:	9a0e      	ldr	r2, [sp, #56]	; 0x38
1000356a:	e006      	b.n	1000357a <DAC_Check+0x562>
1000356c:	18d5      	adds	r5, r2, r3
1000356e:	5c6d      	ldrb	r5, [r5, r1]
10003570:	3301      	adds	r3, #1
10003572:	b29b      	uxth	r3, r3
10003574:	5535      	strb	r5, [r6, r4]
10003576:	4298      	cmp	r0, r3
10003578:	d911      	bls.n	1000359e <DAC_Check+0x586>
1000357a:	5cd5      	ldrb	r5, [r2, r3]
1000357c:	001c      	movs	r4, r3
1000357e:	2d10      	cmp	r5, #16
10003580:	d1f4      	bne.n	1000356c <DAC_Check+0x554>
10003582:	18d5      	adds	r5, r2, r3
10003584:	786f      	ldrb	r7, [r5, #1]
10003586:	2f10      	cmp	r7, #16
10003588:	d1f0      	bne.n	1000356c <DAC_Check+0x554>
1000358a:	3301      	adds	r3, #1
1000358c:	b29b      	uxth	r3, r3
1000358e:	5c6d      	ldrb	r5, [r5, r1]
10003590:	3301      	adds	r3, #1
10003592:	3101      	adds	r1, #1
10003594:	b29b      	uxth	r3, r3
10003596:	b2c9      	uxtb	r1, r1
10003598:	5535      	strb	r5, [r6, r4]
1000359a:	4298      	cmp	r0, r3
1000359c:	d8ed      	bhi.n	1000357a <DAC_Check+0x562>
1000359e:	46b2      	mov	sl, r6
100035a0:	464f      	mov	r7, r9
100035a2:	4666      	mov	r6, ip
100035a4:	9909      	ldr	r1, [sp, #36]	; 0x24
100035a6:	2500      	movs	r5, #0
100035a8:	784a      	ldrb	r2, [r1, #1]
100035aa:	780b      	ldrb	r3, [r1, #0]
100035ac:	0212      	lsls	r2, r2, #8
100035ae:	431a      	orrs	r2, r3
100035b0:	788b      	ldrb	r3, [r1, #2]
100035b2:	78c8      	ldrb	r0, [r1, #3]
100035b4:	041b      	lsls	r3, r3, #16
100035b6:	4313      	orrs	r3, r2
100035b8:	0600      	lsls	r0, r0, #24
100035ba:	4652      	mov	r2, sl
100035bc:	4318      	orrs	r0, r3
100035be:	23ab      	movs	r3, #171	; 0xab
100035c0:	5cd4      	ldrb	r4, [r2, r3]
100035c2:	3301      	adds	r3, #1
100035c4:	5cd3      	ldrb	r3, [r2, r3]
100035c6:	4651      	mov	r1, sl
100035c8:	021b      	lsls	r3, r3, #8
100035ca:	22ad      	movs	r2, #173	; 0xad
100035cc:	431c      	orrs	r4, r3
100035ce:	23ae      	movs	r3, #174	; 0xae
100035d0:	5c8a      	ldrb	r2, [r1, r2]
100035d2:	9016      	str	r0, [sp, #88]	; 0x58
100035d4:	5ccb      	ldrb	r3, [r1, r3]
100035d6:	0412      	lsls	r2, r2, #16
100035d8:	4314      	orrs	r4, r2
100035da:	061b      	lsls	r3, r3, #24
100035dc:	431c      	orrs	r4, r3
100035de:	4927      	ldr	r1, [pc, #156]	; (1000367c <DAC_Check+0x664>)
100035e0:	9415      	str	r4, [sp, #84]	; 0x54
100035e2:	f003 f898 	bl	10006716 <__wrap___aeabi_fmul>
100035e6:	f003 f8c5 	bl	10006774 <__wrap___aeabi_f2uiz>
100035ea:	4924      	ldr	r1, [pc, #144]	; (1000367c <DAC_Check+0x664>)
100035ec:	b283      	uxth	r3, r0
100035ee:	1c20      	adds	r0, r4, #0
100035f0:	9305      	str	r3, [sp, #20]
100035f2:	f003 f890 	bl	10006716 <__wrap___aeabi_fmul>
100035f6:	f003 f8bd 	bl	10006774 <__wrap___aeabi_f2uiz>
100035fa:	b283      	uxth	r3, r0
100035fc:	9308      	str	r3, [sp, #32]
100035fe:	2364      	movs	r3, #100	; 0x64
10003600:	9802      	ldr	r0, [sp, #8]
10003602:	2209      	movs	r2, #9
10003604:	4684      	mov	ip, r0
10003606:	8033      	strh	r3, [r6, #0]
10003608:	465b      	mov	r3, fp
1000360a:	2120      	movs	r1, #32
1000360c:	4462      	add	r2, ip
1000360e:	4691      	mov	r9, r2
10003610:	4a1c      	ldr	r2, [pc, #112]	; (10003684 <DAC_Check+0x66c>)
10003612:	801d      	strh	r5, [r3, #0]
10003614:	900d      	str	r0, [sp, #52]	; 0x34
10003616:	803d      	strh	r5, [r7, #0]
10003618:	6993      	ldr	r3, [r2, #24]
1000361a:	4219      	tst	r1, r3
1000361c:	d1fc      	bne.n	10003618 <DAC_Check+0x600>
1000361e:	7803      	ldrb	r3, [r0, #0]
10003620:	3001      	adds	r0, #1
10003622:	6013      	str	r3, [r2, #0]
10003624:	4581      	cmp	r9, r0
10003626:	d1f7      	bne.n	10003618 <DAC_Check+0x600>
10003628:	4659      	mov	r1, fp
1000362a:	e002      	b.n	10003632 <DAC_Check+0x61a>
1000362c:	8833      	ldrh	r3, [r6, #0]
1000362e:	2b00      	cmp	r3, #0
10003630:	d004      	beq.n	1000363c <DAC_Check+0x624>
10003632:	880b      	ldrh	r3, [r1, #0]
10003634:	883a      	ldrh	r2, [r7, #0]
10003636:	3301      	adds	r3, #1
10003638:	4293      	cmp	r3, r2
1000363a:	daf7      	bge.n	1000362c <DAC_Check+0x614>
1000363c:	468b      	mov	fp, r1
1000363e:	f7ff fb93 	bl	10002d68 <UART_CheckResponse>
10003642:	2801      	cmp	r0, #1
10003644:	d100      	bne.n	10003648 <DAC_Check+0x630>
10003646:	e349      	b.n	10003cdc <DAC_Check+0xcc4>
10003648:	2300      	movs	r3, #0
1000364a:	465a      	mov	r2, fp
1000364c:	2120      	movs	r1, #32
1000364e:	8013      	strh	r3, [r2, #0]
10003650:	9802      	ldr	r0, [sp, #8]
10003652:	4a0c      	ldr	r2, [pc, #48]	; (10003684 <DAC_Check+0x66c>)
10003654:	803b      	strh	r3, [r7, #0]
10003656:	6993      	ldr	r3, [r2, #24]
10003658:	4219      	tst	r1, r3
1000365a:	d1fc      	bne.n	10003656 <DAC_Check+0x63e>
1000365c:	7803      	ldrb	r3, [r0, #0]
1000365e:	3001      	adds	r0, #1
10003660:	6013      	str	r3, [r2, #0]
10003662:	4581      	cmp	r9, r0
10003664:	d1f7      	bne.n	10003656 <DAC_Check+0x63e>
10003666:	4659      	mov	r1, fp
10003668:	e025      	b.n	100036b6 <DAC_Check+0x69e>
1000366a:	46c0      	nop			; (mov r8, r8)
1000366c:	22d0e560 	.word	0x22d0e560
10003670:	402379db 	.word	0x402379db
10003674:	53f7ced9 	.word	0x53f7ced9
10003678:	4022a5e3 	.word	0x4022a5e3
1000367c:	447a0000 	.word	0x447a0000
10003680:	100096e4 	.word	0x100096e4
10003684:	40034000 	.word	0x40034000
10003688:	10009704 	.word	0x10009704
1000368c:	20000dd0 	.word	0x20000dd0
10003690:	20001708 	.word	0x20001708
10003694:	20001690 	.word	0x20001690
10003698:	2000218e 	.word	0x2000218e
1000369c:	20002190 	.word	0x20002190
100036a0:	20002188 	.word	0x20002188
100036a4:	100096ec 	.word	0x100096ec
100036a8:	100096cc 	.word	0x100096cc
100036ac:	20001110 	.word	0x20001110
100036b0:	8833      	ldrh	r3, [r6, #0]
100036b2:	2b00      	cmp	r3, #0
100036b4:	d004      	beq.n	100036c0 <DAC_Check+0x6a8>
100036b6:	880b      	ldrh	r3, [r1, #0]
100036b8:	883a      	ldrh	r2, [r7, #0]
100036ba:	3301      	adds	r3, #1
100036bc:	4293      	cmp	r3, r2
100036be:	daf7      	bge.n	100036b0 <DAC_Check+0x698>
100036c0:	468b      	mov	fp, r1
100036c2:	f7ff fb51 	bl	10002d68 <UART_CheckResponse>
100036c6:	2801      	cmp	r0, #1
100036c8:	d100      	bne.n	100036cc <DAC_Check+0x6b4>
100036ca:	e343      	b.n	10003d54 <DAC_Check+0xd3c>
100036cc:	9b00      	ldr	r3, [sp, #0]
100036ce:	88dd      	ldrh	r5, [r3, #6]
100036d0:	8858      	ldrh	r0, [r3, #2]
100036d2:	f002 fccb 	bl	1000606c <__wrap___aeabi_i2d>
100036d6:	4abb      	ldr	r2, [pc, #748]	; (100039c4 <DAC_Check+0x9ac>)
100036d8:	4bbb      	ldr	r3, [pc, #748]	; (100039c8 <DAC_Check+0x9b0>)
100036da:	f002 fc98 	bl	1000600e <__wrap___aeabi_ddiv>
100036de:	f002 fcdd 	bl	1000609c <__wrap___aeabi_d2uiz>
100036e2:	9b00      	ldr	r3, [sp, #0]
100036e4:	b284      	uxth	r4, r0
100036e6:	809c      	strh	r4, [r3, #4]
100036e8:	0028      	movs	r0, r5
100036ea:	f002 fcbf 	bl	1000606c <__wrap___aeabi_i2d>
100036ee:	4ab7      	ldr	r2, [pc, #732]	; (100039cc <DAC_Check+0x9b4>)
100036f0:	4bb7      	ldr	r3, [pc, #732]	; (100039d0 <DAC_Check+0x9b8>)
100036f2:	f002 fc8c 	bl	1000600e <__wrap___aeabi_ddiv>
100036f6:	f002 fcd1 	bl	1000609c <__wrap___aeabi_d2uiz>
100036fa:	9b00      	ldr	r3, [sp, #0]
100036fc:	b280      	uxth	r0, r0
100036fe:	8118      	strh	r0, [r3, #8]
10003700:	9b05      	ldr	r3, [sp, #20]
10003702:	001a      	movs	r2, r3
10003704:	3a0a      	subs	r2, #10
10003706:	920c      	str	r2, [sp, #48]	; 0x30
10003708:	42a2      	cmp	r2, r4
1000370a:	dc0b      	bgt.n	10003724 <DAC_Check+0x70c>
1000370c:	330a      	adds	r3, #10
1000370e:	429c      	cmp	r4, r3
10003710:	dc08      	bgt.n	10003724 <DAC_Check+0x70c>
10003712:	9a08      	ldr	r2, [sp, #32]
10003714:	0013      	movs	r3, r2
10003716:	3b0a      	subs	r3, #10
10003718:	4283      	cmp	r3, r0
1000371a:	dc03      	bgt.n	10003724 <DAC_Check+0x70c>
1000371c:	320a      	adds	r2, #10
1000371e:	4290      	cmp	r0, r2
10003720:	dc00      	bgt.n	10003724 <DAC_Check+0x70c>
10003722:	e380      	b.n	10003e26 <DAC_Check+0xe0e>
10003724:	228c      	movs	r2, #140	; 0x8c
10003726:	2100      	movs	r1, #0
10003728:	0092      	lsls	r2, r2, #2
1000372a:	4650      	mov	r0, sl
1000372c:	f003 f878 	bl	10006820 <__wrap_memset>
10003730:	228c      	movs	r2, #140	; 0x8c
10003732:	2100      	movs	r1, #0
10003734:	0092      	lsls	r2, r2, #2
10003736:	a8a8      	add	r0, sp, #672	; 0x2a0
10003738:	f003 f872 	bl	10006820 <__wrap_memset>
1000373c:	2300      	movs	r3, #0
1000373e:	465a      	mov	r2, fp
10003740:	2120      	movs	r1, #32
10003742:	48a4      	ldr	r0, [pc, #656]	; (100039d4 <DAC_Check+0x9bc>)
10003744:	8013      	strh	r3, [r2, #0]
10003746:	4aa4      	ldr	r2, [pc, #656]	; (100039d8 <DAC_Check+0x9c0>)
10003748:	803b      	strh	r3, [r7, #0]
1000374a:	1dc4      	adds	r4, r0, #7
1000374c:	6993      	ldr	r3, [r2, #24]
1000374e:	4219      	tst	r1, r3
10003750:	d1fc      	bne.n	1000374c <DAC_Check+0x734>
10003752:	7803      	ldrb	r3, [r0, #0]
10003754:	3001      	adds	r0, #1
10003756:	6013      	str	r3, [r2, #0]
10003758:	4284      	cmp	r4, r0
1000375a:	d1f7      	bne.n	1000374c <DAC_Check+0x734>
1000375c:	2364      	movs	r3, #100	; 0x64
1000375e:	8033      	strh	r3, [r6, #0]
10003760:	8833      	ldrh	r3, [r6, #0]
10003762:	b29d      	uxth	r5, r3
10003764:	2b00      	cmp	r3, #0
10003766:	d1fb      	bne.n	10003760 <DAC_Check+0x748>
10003768:	883b      	ldrh	r3, [r7, #0]
1000376a:	b29c      	uxth	r4, r3
1000376c:	2b00      	cmp	r3, #0
1000376e:	d026      	beq.n	100037be <DAC_Check+0x7a6>
10003770:	2000      	movs	r0, #0
10003772:	46ac      	mov	ip, r5
10003774:	46b0      	mov	r8, r6
10003776:	0025      	movs	r5, r4
10003778:	2300      	movs	r3, #0
1000377a:	0004      	movs	r4, r0
1000377c:	4656      	mov	r6, sl
1000377e:	4a97      	ldr	r2, [pc, #604]	; (100039dc <DAC_Check+0x9c4>)
10003780:	9701      	str	r7, [sp, #4]
10003782:	e006      	b.n	10003792 <DAC_Check+0x77a>
10003784:	18d0      	adds	r0, r2, r3
10003786:	5d00      	ldrb	r0, [r0, r4]
10003788:	3301      	adds	r3, #1
1000378a:	b29b      	uxth	r3, r3
1000378c:	5470      	strb	r0, [r6, r1]
1000378e:	429d      	cmp	r5, r3
10003790:	d911      	bls.n	100037b6 <DAC_Check+0x79e>
10003792:	5cd0      	ldrb	r0, [r2, r3]
10003794:	0019      	movs	r1, r3
10003796:	2810      	cmp	r0, #16
10003798:	d1f4      	bne.n	10003784 <DAC_Check+0x76c>
1000379a:	18d0      	adds	r0, r2, r3
1000379c:	7847      	ldrb	r7, [r0, #1]
1000379e:	2f10      	cmp	r7, #16
100037a0:	d1f0      	bne.n	10003784 <DAC_Check+0x76c>
100037a2:	3301      	adds	r3, #1
100037a4:	b29b      	uxth	r3, r3
100037a6:	5d00      	ldrb	r0, [r0, r4]
100037a8:	3301      	adds	r3, #1
100037aa:	3401      	adds	r4, #1
100037ac:	b29b      	uxth	r3, r3
100037ae:	b2e4      	uxtb	r4, r4
100037b0:	5470      	strb	r0, [r6, r1]
100037b2:	429d      	cmp	r5, r3
100037b4:	d8ed      	bhi.n	10003792 <DAC_Check+0x77a>
100037b6:	46b2      	mov	sl, r6
100037b8:	4665      	mov	r5, ip
100037ba:	4646      	mov	r6, r8
100037bc:	9f01      	ldr	r7, [sp, #4]
100037be:	2364      	movs	r3, #100	; 0x64
100037c0:	465a      	mov	r2, fp
100037c2:	8033      	strh	r3, [r6, #0]
100037c4:	2300      	movs	r3, #0
100037c6:	2120      	movs	r1, #32
100037c8:	8013      	strh	r3, [r2, #0]
100037ca:	9802      	ldr	r0, [sp, #8]
100037cc:	4a82      	ldr	r2, [pc, #520]	; (100039d8 <DAC_Check+0x9c0>)
100037ce:	803b      	strh	r3, [r7, #0]
100037d0:	6993      	ldr	r3, [r2, #24]
100037d2:	4219      	tst	r1, r3
100037d4:	d1fc      	bne.n	100037d0 <DAC_Check+0x7b8>
100037d6:	7803      	ldrb	r3, [r0, #0]
100037d8:	3001      	adds	r0, #1
100037da:	6013      	str	r3, [r2, #0]
100037dc:	4581      	cmp	r9, r0
100037de:	d1f7      	bne.n	100037d0 <DAC_Check+0x7b8>
100037e0:	4659      	mov	r1, fp
100037e2:	e002      	b.n	100037ea <DAC_Check+0x7d2>
100037e4:	8833      	ldrh	r3, [r6, #0]
100037e6:	2b00      	cmp	r3, #0
100037e8:	d004      	beq.n	100037f4 <DAC_Check+0x7dc>
100037ea:	880b      	ldrh	r3, [r1, #0]
100037ec:	883a      	ldrh	r2, [r7, #0]
100037ee:	3301      	adds	r3, #1
100037f0:	4293      	cmp	r3, r2
100037f2:	daf7      	bge.n	100037e4 <DAC_Check+0x7cc>
100037f4:	468b      	mov	fp, r1
100037f6:	f7ff fab7 	bl	10002d68 <UART_CheckResponse>
100037fa:	2801      	cmp	r0, #1
100037fc:	d100      	bne.n	10003800 <DAC_Check+0x7e8>
100037fe:	e2dc      	b.n	10003dba <DAC_Check+0xda2>
10003800:	2364      	movs	r3, #100	; 0x64
10003802:	465a      	mov	r2, fp
10003804:	8033      	strh	r3, [r6, #0]
10003806:	2300      	movs	r3, #0
10003808:	8013      	strh	r3, [r2, #0]
1000380a:	2220      	movs	r2, #32
1000380c:	9802      	ldr	r0, [sp, #8]
1000380e:	4972      	ldr	r1, [pc, #456]	; (100039d8 <DAC_Check+0x9c0>)
10003810:	803b      	strh	r3, [r7, #0]
10003812:	0014      	movs	r4, r2
10003814:	698b      	ldr	r3, [r1, #24]
10003816:	401c      	ands	r4, r3
10003818:	421a      	tst	r2, r3
1000381a:	d1fa      	bne.n	10003812 <DAC_Check+0x7fa>
1000381c:	7803      	ldrb	r3, [r0, #0]
1000381e:	3001      	adds	r0, #1
10003820:	600b      	str	r3, [r1, #0]
10003822:	4581      	cmp	r9, r0
10003824:	d1f5      	bne.n	10003812 <DAC_Check+0x7fa>
10003826:	4659      	mov	r1, fp
10003828:	e002      	b.n	10003830 <DAC_Check+0x818>
1000382a:	8833      	ldrh	r3, [r6, #0]
1000382c:	2b00      	cmp	r3, #0
1000382e:	d004      	beq.n	1000383a <DAC_Check+0x822>
10003830:	880b      	ldrh	r3, [r1, #0]
10003832:	883a      	ldrh	r2, [r7, #0]
10003834:	3301      	adds	r3, #1
10003836:	4293      	cmp	r3, r2
10003838:	daf7      	bge.n	1000382a <DAC_Check+0x812>
1000383a:	468b      	mov	fp, r1
1000383c:	f7ff fa94 	bl	10002d68 <UART_CheckResponse>
10003840:	2801      	cmp	r0, #1
10003842:	d100      	bne.n	10003846 <DAC_Check+0x82e>
10003844:	e114      	b.n	10003a70 <DAC_Check+0xa58>
10003846:	9b00      	ldr	r3, [sp, #0]
10003848:	89db      	ldrh	r3, [r3, #14]
1000384a:	9301      	str	r3, [sp, #4]
1000384c:	9b00      	ldr	r3, [sp, #0]
1000384e:	8958      	ldrh	r0, [r3, #10]
10003850:	f002 fc0c 	bl	1000606c <__wrap___aeabi_i2d>
10003854:	4a62      	ldr	r2, [pc, #392]	; (100039e0 <DAC_Check+0x9c8>)
10003856:	4b63      	ldr	r3, [pc, #396]	; (100039e4 <DAC_Check+0x9cc>)
10003858:	f002 fbd9 	bl	1000600e <__wrap___aeabi_ddiv>
1000385c:	f002 fc1e 	bl	1000609c <__wrap___aeabi_d2uiz>
10003860:	9b00      	ldr	r3, [sp, #0]
10003862:	b282      	uxth	r2, r0
10003864:	819a      	strh	r2, [r3, #12]
10003866:	9801      	ldr	r0, [sp, #4]
10003868:	4690      	mov	r8, r2
1000386a:	f002 fbff 	bl	1000606c <__wrap___aeabi_i2d>
1000386e:	4a5e      	ldr	r2, [pc, #376]	; (100039e8 <DAC_Check+0x9d0>)
10003870:	4b5e      	ldr	r3, [pc, #376]	; (100039ec <DAC_Check+0x9d4>)
10003872:	f002 fbcc 	bl	1000600e <__wrap___aeabi_ddiv>
10003876:	f002 fc11 	bl	1000609c <__wrap___aeabi_d2uiz>
1000387a:	9b00      	ldr	r3, [sp, #0]
1000387c:	b282      	uxth	r2, r0
1000387e:	821a      	strh	r2, [r3, #16]
10003880:	4640      	mov	r0, r8
10003882:	9201      	str	r2, [sp, #4]
10003884:	f002 ff4e 	bl	10006724 <__wrap___aeabi_ui2f>
10003888:	4959      	ldr	r1, [pc, #356]	; (100039f0 <DAC_Check+0x9d8>)
1000388a:	f002 ff30 	bl	100066ee <__wrap___aeabi_fdiv>
1000388e:	4680      	mov	r8, r0
10003890:	9003      	str	r0, [sp, #12]
10003892:	9801      	ldr	r0, [sp, #4]
10003894:	f002 ff46 	bl	10006724 <__wrap___aeabi_ui2f>
10003898:	4955      	ldr	r1, [pc, #340]	; (100039f0 <DAC_Check+0x9d8>)
1000389a:	f002 ff28 	bl	100066ee <__wrap___aeabi_fdiv>
1000389e:	4651      	mov	r1, sl
100038a0:	0e02      	lsrs	r2, r0, #24
100038a2:	728a      	strb	r2, [r1, #10]
100038a4:	0c02      	lsrs	r2, r0, #16
100038a6:	0003      	movs	r3, r0
100038a8:	724a      	strb	r2, [r1, #9]
100038aa:	4642      	mov	r2, r8
100038ac:	71cb      	strb	r3, [r1, #7]
100038ae:	0e13      	lsrs	r3, r2, #24
100038b0:	718b      	strb	r3, [r1, #6]
100038b2:	0c13      	lsrs	r3, r2, #16
100038b4:	714b      	strb	r3, [r1, #5]
100038b6:	0a13      	lsrs	r3, r2, #8
100038b8:	710b      	strb	r3, [r1, #4]
100038ba:	466b      	mov	r3, sp
100038bc:	7b1b      	ldrb	r3, [r3, #12]
100038be:	0a00      	lsrs	r0, r0, #8
100038c0:	70cb      	strb	r3, [r1, #3]
100038c2:	4698      	mov	r8, r3
100038c4:	788b      	ldrb	r3, [r1, #2]
100038c6:	7208      	strb	r0, [r1, #8]
100038c8:	9306      	str	r3, [sp, #24]
100038ca:	7889      	ldrb	r1, [r1, #2]
100038cc:	2203      	movs	r2, #3
100038ce:	9103      	str	r1, [sp, #12]
100038d0:	a8a8      	add	r0, sp, #672	; 0x2a0
100038d2:	4651      	mov	r1, sl
100038d4:	f002 ffaa 	bl	1000682c <__wrap___aeabi_memcpy>
100038d8:	9903      	ldr	r1, [sp, #12]
100038da:	2300      	movs	r3, #0
100038dc:	2900      	cmp	r1, #0
100038de:	d100      	bne.n	100038e2 <DAC_Check+0x8ca>
100038e0:	e29d      	b.n	10003e1e <DAC_Check+0xe06>
100038e2:	46ac      	mov	ip, r5
100038e4:	4650      	mov	r0, sl
100038e6:	4645      	mov	r5, r8
100038e8:	9101      	str	r1, [sp, #4]
100038ea:	46b0      	mov	r8, r6
100038ec:	9707      	str	r7, [sp, #28]
100038ee:	e00e      	b.n	1000390e <DAC_Check+0x8f6>
100038f0:	2194      	movs	r1, #148	; 0x94
100038f2:	1905      	adds	r5, r0, r4
100038f4:	0089      	lsls	r1, r1, #2
100038f6:	78ed      	ldrb	r5, [r5, #3]
100038f8:	af14      	add	r7, sp, #80	; 0x50
100038fa:	187f      	adds	r7, r7, r1
100038fc:	3401      	adds	r4, #1
100038fe:	9901      	ldr	r1, [sp, #4]
10003900:	54bd      	strb	r5, [r7, r2]
10003902:	b2a2      	uxth	r2, r4
10003904:	4291      	cmp	r1, r2
10003906:	d918      	bls.n	1000393a <DAC_Check+0x922>
10003908:	18c2      	adds	r2, r0, r3
1000390a:	1912      	adds	r2, r2, r4
1000390c:	78d5      	ldrb	r5, [r2, #3]
1000390e:	18e2      	adds	r2, r4, r3
10003910:	001e      	movs	r6, r3
10003912:	3203      	adds	r2, #3
10003914:	2d10      	cmp	r5, #16
10003916:	d1eb      	bne.n	100038f0 <DAC_Check+0x8d8>
10003918:	2694      	movs	r6, #148	; 0x94
1000391a:	a914      	add	r1, sp, #80	; 0x50
1000391c:	00b6      	lsls	r6, r6, #2
1000391e:	1989      	adds	r1, r1, r6
10003920:	548d      	strb	r5, [r1, r2]
10003922:	3301      	adds	r3, #1
10003924:	aaa8      	add	r2, sp, #672	; 0x2a0
10003926:	b2db      	uxtb	r3, r3
10003928:	1912      	adds	r2, r2, r4
1000392a:	18d2      	adds	r2, r2, r3
1000392c:	3401      	adds	r4, #1
1000392e:	9901      	ldr	r1, [sp, #4]
10003930:	70d5      	strb	r5, [r2, #3]
10003932:	b2a2      	uxth	r2, r4
10003934:	001e      	movs	r6, r3
10003936:	4291      	cmp	r1, r2
10003938:	d8e6      	bhi.n	10003908 <DAC_Check+0x8f0>
1000393a:	0031      	movs	r1, r6
1000393c:	4665      	mov	r5, ip
1000393e:	4646      	mov	r6, r8
10003940:	4682      	mov	sl, r0
10003942:	9f07      	ldr	r7, [sp, #28]
10003944:	b29b      	uxth	r3, r3
10003946:	9a06      	ldr	r2, [sp, #24]
10003948:	2494      	movs	r4, #148	; 0x94
1000394a:	3203      	adds	r2, #3
1000394c:	1852      	adds	r2, r2, r1
1000394e:	2110      	movs	r1, #16
10003950:	00a4      	lsls	r4, r4, #2
10003952:	a814      	add	r0, sp, #80	; 0x50
10003954:	1900      	adds	r0, r0, r4
10003956:	5481      	strb	r1, [r0, r2]
10003958:	a9a8      	add	r1, sp, #672	; 0x2a0
1000395a:	468c      	mov	ip, r1
1000395c:	211f      	movs	r1, #31
1000395e:	9c03      	ldr	r4, [sp, #12]
10003960:	4462      	add	r2, ip
10003962:	3405      	adds	r4, #5
10003964:	18e4      	adds	r4, r4, r3
10003966:	7051      	strb	r1, [r2, #1]
10003968:	46e0      	mov	r8, ip
1000396a:	4661      	mov	r1, ip
1000396c:	2300      	movs	r3, #0
1000396e:	b2a4      	uxth	r4, r4
10003970:	780a      	ldrb	r2, [r1, #0]
10003972:	3301      	adds	r3, #1
10003974:	18ad      	adds	r5, r5, r2
10003976:	b29b      	uxth	r3, r3
10003978:	b2ad      	uxth	r5, r5
1000397a:	3101      	adds	r1, #1
1000397c:	429c      	cmp	r4, r3
1000397e:	d1f7      	bne.n	10003970 <DAC_Check+0x958>
10003980:	2194      	movs	r1, #148	; 0x94
10003982:	aa14      	add	r2, sp, #80	; 0x50
10003984:	0089      	lsls	r1, r1, #2
10003986:	1852      	adds	r2, r2, r1
10003988:	0a2b      	lsrs	r3, r5, #8
1000398a:	5513      	strb	r3, [r2, r4]
1000398c:	aba8      	add	r3, sp, #672	; 0x2a0
1000398e:	191b      	adds	r3, r3, r4
10003990:	705d      	strb	r5, [r3, #1]
10003992:	2364      	movs	r3, #100	; 0x64
10003994:	465a      	mov	r2, fp
10003996:	8033      	strh	r3, [r6, #0]
10003998:	2300      	movs	r3, #0
1000399a:	8013      	strh	r3, [r2, #0]
1000399c:	803b      	strh	r3, [r7, #0]
1000399e:	3309      	adds	r3, #9
100039a0:	469c      	mov	ip, r3
100039a2:	2220      	movs	r2, #32
100039a4:	4813      	ldr	r0, [pc, #76]	; (100039f4 <DAC_Check+0x9dc>)
100039a6:	490c      	ldr	r1, [pc, #48]	; (100039d8 <DAC_Check+0x9c0>)
100039a8:	4484      	add	ip, r0
100039aa:	0015      	movs	r5, r2
100039ac:	698b      	ldr	r3, [r1, #24]
100039ae:	401d      	ands	r5, r3
100039b0:	421a      	tst	r2, r3
100039b2:	d1fa      	bne.n	100039aa <DAC_Check+0x992>
100039b4:	7803      	ldrb	r3, [r0, #0]
100039b6:	3001      	adds	r0, #1
100039b8:	600b      	str	r3, [r1, #0]
100039ba:	4560      	cmp	r0, ip
100039bc:	d1f5      	bne.n	100039aa <DAC_Check+0x992>
100039be:	4659      	mov	r1, fp
100039c0:	e01d      	b.n	100039fe <DAC_Check+0x9e6>
100039c2:	46c0      	nop			; (mov r8, r8)
100039c4:	22d0e560 	.word	0x22d0e560
100039c8:	402379db 	.word	0x402379db
100039cc:	53f7ced9 	.word	0x53f7ced9
100039d0:	4022a5e3 	.word	0x4022a5e3
100039d4:	100096f4 	.word	0x100096f4
100039d8:	40034000 	.word	0x40034000
100039dc:	20001110 	.word	0x20001110
100039e0:	0c49ba5e 	.word	0x0c49ba5e
100039e4:	40242b02 	.word	0x40242b02
100039e8:	f1a9fbe7 	.word	0xf1a9fbe7
100039ec:	40228dd2 	.word	0x40228dd2
100039f0:	447a0000 	.word	0x447a0000
100039f4:	100096d8 	.word	0x100096d8
100039f8:	8833      	ldrh	r3, [r6, #0]
100039fa:	2b00      	cmp	r3, #0
100039fc:	d004      	beq.n	10003a08 <DAC_Check+0x9f0>
100039fe:	880b      	ldrh	r3, [r1, #0]
10003a00:	883a      	ldrh	r2, [r7, #0]
10003a02:	3301      	adds	r3, #1
10003a04:	4293      	cmp	r3, r2
10003a06:	daf7      	bge.n	100039f8 <DAC_Check+0x9e0>
10003a08:	468b      	mov	fp, r1
10003a0a:	f7ff f9ad 	bl	10002d68 <UART_CheckResponse>
10003a0e:	2801      	cmp	r0, #1
10003a10:	d062      	beq.n	10003ad8 <DAC_Check+0xac0>
10003a12:	9b04      	ldr	r3, [sp, #16]
10003a14:	3b01      	subs	r3, #1
10003a16:	b2db      	uxtb	r3, r3
10003a18:	9304      	str	r3, [sp, #16]
10003a1a:	2b00      	cmp	r3, #0
10003a1c:	d000      	beq.n	10003a20 <DAC_Check+0xa08>
10003a1e:	e576      	b.n	1000350e <DAC_Check+0x4f6>
10003a20:	9b00      	ldr	r3, [sp, #0]
10003a22:	889a      	ldrh	r2, [r3, #4]
10003a24:	9b0c      	ldr	r3, [sp, #48]	; 0x30
10003a26:	4293      	cmp	r3, r2
10003a28:	dc04      	bgt.n	10003a34 <DAC_Check+0xa1c>
10003a2a:	9b05      	ldr	r3, [sp, #20]
10003a2c:	330a      	adds	r3, #10
10003a2e:	429a      	cmp	r2, r3
10003a30:	dc00      	bgt.n	10003a34 <DAC_Check+0xa1c>
10003a32:	e1f6      	b.n	10003e22 <DAC_Check+0xe0a>
10003a34:	2301      	movs	r3, #1
10003a36:	9a10      	ldr	r2, [sp, #64]	; 0x40
10003a38:	4093      	lsls	r3, r2
10003a3a:	9a11      	ldr	r2, [sp, #68]	; 0x44
10003a3c:	439a      	bics	r2, r3
10003a3e:	0011      	movs	r1, r2
10003a40:	9211      	str	r2, [sp, #68]	; 0x44
10003a42:	23ff      	movs	r3, #255	; 0xff
10003a44:	020a      	lsls	r2, r1, #8
10003a46:	021b      	lsls	r3, r3, #8
10003a48:	400b      	ands	r3, r1
10003a4a:	0e12      	lsrs	r2, r2, #24
10003a4c:	431a      	orrs	r2, r3
10003a4e:	9b0b      	ldr	r3, [sp, #44]	; 0x2c
10003a50:	b2c9      	uxtb	r1, r1
10003a52:	0409      	lsls	r1, r1, #16
10003a54:	3301      	adds	r3, #1
10003a56:	430a      	orrs	r2, r1
10003a58:	061b      	lsls	r3, r3, #24
10003a5a:	4313      	orrs	r3, r2
10003a5c:	9a0f      	ldr	r2, [sp, #60]	; 0x3c
10003a5e:	6013      	str	r3, [r2, #0]
10003a60:	9b10      	ldr	r3, [sp, #64]	; 0x40
10003a62:	3301      	adds	r3, #1
10003a64:	9310      	str	r3, [sp, #64]	; 0x40
10003a66:	2b18      	cmp	r3, #24
10003a68:	d000      	beq.n	10003a6c <DAC_Check+0xa54>
10003a6a:	e549      	b.n	10003500 <DAC_Check+0x4e8>
10003a6c:	f7ff faf4 	bl	10003058 <DAC_Check+0x40>
10003a70:	8833      	ldrh	r3, [r6, #0]
10003a72:	2b00      	cmp	r3, #0
10003a74:	d100      	bne.n	10003a78 <DAC_Check+0xa60>
10003a76:	e6e6      	b.n	10003846 <DAC_Check+0x82e>
10003a78:	2300      	movs	r3, #0
10003a7a:	465a      	mov	r2, fp
10003a7c:	8013      	strh	r3, [r2, #0]
10003a7e:	803b      	strh	r3, [r7, #0]
10003a80:	3308      	adds	r3, #8
10003a82:	469c      	mov	ip, r3
10003a84:	2120      	movs	r1, #32
10003a86:	48ae      	ldr	r0, [pc, #696]	; (10003d40 <DAC_Check+0xd28>)
10003a88:	4aae      	ldr	r2, [pc, #696]	; (10003d44 <DAC_Check+0xd2c>)
10003a8a:	4484      	add	ip, r0
10003a8c:	6993      	ldr	r3, [r2, #24]
10003a8e:	4219      	tst	r1, r3
10003a90:	d1fc      	bne.n	10003a8c <DAC_Check+0xa74>
10003a92:	7803      	ldrb	r3, [r0, #0]
10003a94:	3001      	adds	r0, #1
10003a96:	6013      	str	r3, [r2, #0]
10003a98:	4584      	cmp	ip, r0
10003a9a:	d1f7      	bne.n	10003a8c <DAC_Check+0xa74>
10003a9c:	4659      	mov	r1, fp
10003a9e:	e002      	b.n	10003aa6 <DAC_Check+0xa8e>
10003aa0:	8833      	ldrh	r3, [r6, #0]
10003aa2:	2b00      	cmp	r3, #0
10003aa4:	d004      	beq.n	10003ab0 <DAC_Check+0xa98>
10003aa6:	880b      	ldrh	r3, [r1, #0]
10003aa8:	883a      	ldrh	r2, [r7, #0]
10003aaa:	3301      	adds	r3, #1
10003aac:	4293      	cmp	r3, r2
10003aae:	daf7      	bge.n	10003aa0 <DAC_Check+0xa88>
10003ab0:	468b      	mov	fp, r1
10003ab2:	f7ff f959 	bl	10002d68 <UART_CheckResponse>
10003ab6:	2801      	cmp	r0, #1
10003ab8:	d100      	bne.n	10003abc <DAC_Check+0xaa4>
10003aba:	e1c6      	b.n	10003e4a <DAC_Check+0xe32>
10003abc:	ab14      	add	r3, sp, #80	; 0x50
10003abe:	8a18      	ldrh	r0, [r3, #16]
10003ac0:	8a5b      	ldrh	r3, [r3, #18]
10003ac2:	2103      	movs	r1, #3
10003ac4:	18c0      	adds	r0, r0, r3
10003ac6:	ab14      	add	r3, sp, #80	; 0x50
10003ac8:	8a9b      	ldrh	r3, [r3, #20]
10003aca:	18c0      	adds	r0, r0, r3
10003acc:	f002 fa3c 	bl	10005f48 <__wrap___aeabi_idiv>
10003ad0:	9b00      	ldr	r3, [sp, #0]
10003ad2:	9001      	str	r0, [sp, #4]
10003ad4:	81d8      	strh	r0, [r3, #14]
10003ad6:	e6b9      	b.n	1000384c <DAC_Check+0x834>
10003ad8:	8833      	ldrh	r3, [r6, #0]
10003ada:	2b00      	cmp	r3, #0
10003adc:	d099      	beq.n	10003a12 <DAC_Check+0x9fa>
10003ade:	2300      	movs	r3, #0
10003ae0:	465a      	mov	r2, fp
10003ae2:	2120      	movs	r1, #32
10003ae4:	4640      	mov	r0, r8
10003ae6:	8013      	strh	r3, [r2, #0]
10003ae8:	4a96      	ldr	r2, [pc, #600]	; (10003d44 <DAC_Check+0xd2c>)
10003aea:	803b      	strh	r3, [r7, #0]
10003aec:	3402      	adds	r4, #2
10003aee:	6993      	ldr	r3, [r2, #24]
10003af0:	4219      	tst	r1, r3
10003af2:	d1fc      	bne.n	10003aee <DAC_Check+0xad6>
10003af4:	7803      	ldrb	r3, [r0, #0]
10003af6:	3501      	adds	r5, #1
10003af8:	6013      	str	r3, [r2, #0]
10003afa:	3001      	adds	r0, #1
10003afc:	42ac      	cmp	r4, r5
10003afe:	d8f6      	bhi.n	10003aee <DAC_Check+0xad6>
10003b00:	4659      	mov	r1, fp
10003b02:	e002      	b.n	10003b0a <DAC_Check+0xaf2>
10003b04:	8833      	ldrh	r3, [r6, #0]
10003b06:	2b00      	cmp	r3, #0
10003b08:	d004      	beq.n	10003b14 <DAC_Check+0xafc>
10003b0a:	880b      	ldrh	r3, [r1, #0]
10003b0c:	883a      	ldrh	r2, [r7, #0]
10003b0e:	3301      	adds	r3, #1
10003b10:	4293      	cmp	r3, r2
10003b12:	daf7      	bge.n	10003b04 <DAC_Check+0xaec>
10003b14:	468b      	mov	fp, r1
10003b16:	f7ff f927 	bl	10002d68 <UART_CheckResponse>
10003b1a:	2801      	cmp	r0, #1
10003b1c:	d000      	beq.n	10003b20 <DAC_Check+0xb08>
10003b1e:	e778      	b.n	10003a12 <DAC_Check+0x9fa>
10003b20:	8833      	ldrh	r3, [r6, #0]
10003b22:	2b00      	cmp	r3, #0
10003b24:	d100      	bne.n	10003b28 <DAC_Check+0xb10>
10003b26:	e774      	b.n	10003a12 <DAC_Check+0x9fa>
10003b28:	2364      	movs	r3, #100	; 0x64
10003b2a:	465a      	mov	r2, fp
10003b2c:	8033      	strh	r3, [r6, #0]
10003b2e:	2300      	movs	r3, #0
10003b30:	2120      	movs	r1, #32
10003b32:	8013      	strh	r3, [r2, #0]
10003b34:	9802      	ldr	r0, [sp, #8]
10003b36:	4a83      	ldr	r2, [pc, #524]	; (10003d44 <DAC_Check+0xd2c>)
10003b38:	803b      	strh	r3, [r7, #0]
10003b3a:	6993      	ldr	r3, [r2, #24]
10003b3c:	4219      	tst	r1, r3
10003b3e:	d1fc      	bne.n	10003b3a <DAC_Check+0xb22>
10003b40:	7803      	ldrb	r3, [r0, #0]
10003b42:	3001      	adds	r0, #1
10003b44:	6013      	str	r3, [r2, #0]
10003b46:	4581      	cmp	r9, r0
10003b48:	d1f7      	bne.n	10003b3a <DAC_Check+0xb22>
10003b4a:	4659      	mov	r1, fp
10003b4c:	e002      	b.n	10003b54 <DAC_Check+0xb3c>
10003b4e:	8833      	ldrh	r3, [r6, #0]
10003b50:	2b00      	cmp	r3, #0
10003b52:	d004      	beq.n	10003b5e <DAC_Check+0xb46>
10003b54:	880b      	ldrh	r3, [r1, #0]
10003b56:	883a      	ldrh	r2, [r7, #0]
10003b58:	3301      	adds	r3, #1
10003b5a:	4293      	cmp	r3, r2
10003b5c:	daf7      	bge.n	10003b4e <DAC_Check+0xb36>
10003b5e:	468b      	mov	fp, r1
10003b60:	f7ff f902 	bl	10002d68 <UART_CheckResponse>
10003b64:	2801      	cmp	r0, #1
10003b66:	d000      	beq.n	10003b6a <DAC_Check+0xb52>
10003b68:	e753      	b.n	10003a12 <DAC_Check+0x9fa>
10003b6a:	8833      	ldrh	r3, [r6, #0]
10003b6c:	2b00      	cmp	r3, #0
10003b6e:	d100      	bne.n	10003b72 <DAC_Check+0xb5a>
10003b70:	e74f      	b.n	10003a12 <DAC_Check+0x9fa>
10003b72:	2300      	movs	r3, #0
10003b74:	465a      	mov	r2, fp
10003b76:	8013      	strh	r3, [r2, #0]
10003b78:	803b      	strh	r3, [r7, #0]
10003b7a:	4b73      	ldr	r3, [pc, #460]	; (10003d48 <DAC_Check+0xd30>)
10003b7c:	2120      	movs	r1, #32
10003b7e:	0018      	movs	r0, r3
10003b80:	4a70      	ldr	r2, [pc, #448]	; (10003d44 <DAC_Check+0xd2c>)
10003b82:	3008      	adds	r0, #8
10003b84:	6994      	ldr	r4, [r2, #24]
10003b86:	4221      	tst	r1, r4
10003b88:	d1fc      	bne.n	10003b84 <DAC_Check+0xb6c>
10003b8a:	781c      	ldrb	r4, [r3, #0]
10003b8c:	3301      	adds	r3, #1
10003b8e:	6014      	str	r4, [r2, #0]
10003b90:	4283      	cmp	r3, r0
10003b92:	d1f7      	bne.n	10003b84 <DAC_Check+0xb6c>
10003b94:	4659      	mov	r1, fp
10003b96:	e002      	b.n	10003b9e <DAC_Check+0xb86>
10003b98:	8833      	ldrh	r3, [r6, #0]
10003b9a:	2b00      	cmp	r3, #0
10003b9c:	d004      	beq.n	10003ba8 <DAC_Check+0xb90>
10003b9e:	880b      	ldrh	r3, [r1, #0]
10003ba0:	883a      	ldrh	r2, [r7, #0]
10003ba2:	3301      	adds	r3, #1
10003ba4:	4293      	cmp	r3, r2
10003ba6:	daf7      	bge.n	10003b98 <DAC_Check+0xb80>
10003ba8:	468b      	mov	fp, r1
10003baa:	f7ff f8dd 	bl	10002d68 <UART_CheckResponse>
10003bae:	2801      	cmp	r0, #1
10003bb0:	d000      	beq.n	10003bb4 <DAC_Check+0xb9c>
10003bb2:	e72e      	b.n	10003a12 <DAC_Check+0x9fa>
10003bb4:	8833      	ldrh	r3, [r6, #0]
10003bb6:	2b00      	cmp	r3, #0
10003bb8:	d100      	bne.n	10003bbc <DAC_Check+0xba4>
10003bba:	e72a      	b.n	10003a12 <DAC_Check+0x9fa>
10003bbc:	2364      	movs	r3, #100	; 0x64
10003bbe:	465a      	mov	r2, fp
10003bc0:	8033      	strh	r3, [r6, #0]
10003bc2:	2300      	movs	r3, #0
10003bc4:	990d      	ldr	r1, [sp, #52]	; 0x34
10003bc6:	8013      	strh	r3, [r2, #0]
10003bc8:	4a5e      	ldr	r2, [pc, #376]	; (10003d44 <DAC_Check+0xd2c>)
10003bca:	803b      	strh	r3, [r7, #0]
10003bcc:	3320      	adds	r3, #32
10003bce:	001c      	movs	r4, r3
10003bd0:	6990      	ldr	r0, [r2, #24]
10003bd2:	4004      	ands	r4, r0
10003bd4:	4203      	tst	r3, r0
10003bd6:	d1fa      	bne.n	10003bce <DAC_Check+0xbb6>
10003bd8:	7808      	ldrb	r0, [r1, #0]
10003bda:	3101      	adds	r1, #1
10003bdc:	6010      	str	r0, [r2, #0]
10003bde:	4589      	cmp	r9, r1
10003be0:	d1f5      	bne.n	10003bce <DAC_Check+0xbb6>
10003be2:	4659      	mov	r1, fp
10003be4:	e002      	b.n	10003bec <DAC_Check+0xbd4>
10003be6:	8833      	ldrh	r3, [r6, #0]
10003be8:	2b00      	cmp	r3, #0
10003bea:	d004      	beq.n	10003bf6 <DAC_Check+0xbde>
10003bec:	880b      	ldrh	r3, [r1, #0]
10003bee:	883a      	ldrh	r2, [r7, #0]
10003bf0:	3301      	adds	r3, #1
10003bf2:	4293      	cmp	r3, r2
10003bf4:	daf7      	bge.n	10003be6 <DAC_Check+0xbce>
10003bf6:	468b      	mov	fp, r1
10003bf8:	f7ff f8b6 	bl	10002d68 <UART_CheckResponse>
10003bfc:	2801      	cmp	r0, #1
10003bfe:	d000      	beq.n	10003c02 <DAC_Check+0xbea>
10003c00:	e707      	b.n	10003a12 <DAC_Check+0x9fa>
10003c02:	8833      	ldrh	r3, [r6, #0]
10003c04:	2b00      	cmp	r3, #0
10003c06:	d100      	bne.n	10003c0a <DAC_Check+0xbf2>
10003c08:	e703      	b.n	10003a12 <DAC_Check+0x9fa>
10003c0a:	2300      	movs	r3, #0
10003c0c:	465a      	mov	r2, fp
10003c0e:	484f      	ldr	r0, [pc, #316]	; (10003d4c <DAC_Check+0xd34>)
10003c10:	8013      	strh	r3, [r2, #0]
10003c12:	4a4c      	ldr	r2, [pc, #304]	; (10003d44 <DAC_Check+0xd2c>)
10003c14:	803b      	strh	r3, [r7, #0]
10003c16:	3320      	adds	r3, #32
10003c18:	001d      	movs	r5, r3
10003c1a:	6991      	ldr	r1, [r2, #24]
10003c1c:	400d      	ands	r5, r1
10003c1e:	420b      	tst	r3, r1
10003c20:	d1fa      	bne.n	10003c18 <DAC_Check+0xc00>
10003c22:	5d01      	ldrb	r1, [r0, r4]
10003c24:	3401      	adds	r4, #1
10003c26:	6011      	str	r1, [r2, #0]
10003c28:	2c08      	cmp	r4, #8
10003c2a:	d1f5      	bne.n	10003c18 <DAC_Check+0xc00>
10003c2c:	4659      	mov	r1, fp
10003c2e:	e002      	b.n	10003c36 <DAC_Check+0xc1e>
10003c30:	8833      	ldrh	r3, [r6, #0]
10003c32:	2b00      	cmp	r3, #0
10003c34:	d004      	beq.n	10003c40 <DAC_Check+0xc28>
10003c36:	880b      	ldrh	r3, [r1, #0]
10003c38:	883a      	ldrh	r2, [r7, #0]
10003c3a:	3301      	adds	r3, #1
10003c3c:	4293      	cmp	r3, r2
10003c3e:	daf7      	bge.n	10003c30 <DAC_Check+0xc18>
10003c40:	468b      	mov	fp, r1
10003c42:	f7ff f891 	bl	10002d68 <UART_CheckResponse>
10003c46:	2801      	cmp	r0, #1
10003c48:	d000      	beq.n	10003c4c <DAC_Check+0xc34>
10003c4a:	e6e2      	b.n	10003a12 <DAC_Check+0x9fa>
10003c4c:	8833      	ldrh	r3, [r6, #0]
10003c4e:	2b00      	cmp	r3, #0
10003c50:	d100      	bne.n	10003c54 <DAC_Check+0xc3c>
10003c52:	e6de      	b.n	10003a12 <DAC_Check+0x9fa>
10003c54:	2364      	movs	r3, #100	; 0x64
10003c56:	465a      	mov	r2, fp
10003c58:	8033      	strh	r3, [r6, #0]
10003c5a:	2300      	movs	r3, #0
10003c5c:	8013      	strh	r3, [r2, #0]
10003c5e:	4a39      	ldr	r2, [pc, #228]	; (10003d44 <DAC_Check+0xd2c>)
10003c60:	803b      	strh	r3, [r7, #0]
10003c62:	3320      	adds	r3, #32
10003c64:	6991      	ldr	r1, [r2, #24]
10003c66:	000c      	movs	r4, r1
10003c68:	401c      	ands	r4, r3
10003c6a:	4219      	tst	r1, r3
10003c6c:	d1fa      	bne.n	10003c64 <DAC_Check+0xc4c>
10003c6e:	9902      	ldr	r1, [sp, #8]
10003c70:	5d49      	ldrb	r1, [r1, r5]
10003c72:	3501      	adds	r5, #1
10003c74:	6011      	str	r1, [r2, #0]
10003c76:	2d09      	cmp	r5, #9
10003c78:	d1f4      	bne.n	10003c64 <DAC_Check+0xc4c>
10003c7a:	4659      	mov	r1, fp
10003c7c:	e002      	b.n	10003c84 <DAC_Check+0xc6c>
10003c7e:	8833      	ldrh	r3, [r6, #0]
10003c80:	2b00      	cmp	r3, #0
10003c82:	d004      	beq.n	10003c8e <DAC_Check+0xc76>
10003c84:	880b      	ldrh	r3, [r1, #0]
10003c86:	883a      	ldrh	r2, [r7, #0]
10003c88:	3301      	adds	r3, #1
10003c8a:	4293      	cmp	r3, r2
10003c8c:	daf7      	bge.n	10003c7e <DAC_Check+0xc66>
10003c8e:	468b      	mov	fp, r1
10003c90:	f7ff f86a 	bl	10002d68 <UART_CheckResponse>
10003c94:	2801      	cmp	r0, #1
10003c96:	d000      	beq.n	10003c9a <DAC_Check+0xc82>
10003c98:	e6bb      	b.n	10003a12 <DAC_Check+0x9fa>
10003c9a:	8833      	ldrh	r3, [r6, #0]
10003c9c:	2b00      	cmp	r3, #0
10003c9e:	d100      	bne.n	10003ca2 <DAC_Check+0xc8a>
10003ca0:	e6b7      	b.n	10003a12 <DAC_Check+0x9fa>
10003ca2:	2300      	movs	r3, #0
10003ca4:	465a      	mov	r2, fp
10003ca6:	8013      	strh	r3, [r2, #0]
10003ca8:	2220      	movs	r2, #32
10003caa:	803b      	strh	r3, [r7, #0]
10003cac:	4924      	ldr	r1, [pc, #144]	; (10003d40 <DAC_Check+0xd28>)
10003cae:	4b25      	ldr	r3, [pc, #148]	; (10003d44 <DAC_Check+0xd2c>)
10003cb0:	6998      	ldr	r0, [r3, #24]
10003cb2:	4210      	tst	r0, r2
10003cb4:	d1fc      	bne.n	10003cb0 <DAC_Check+0xc98>
10003cb6:	5d08      	ldrb	r0, [r1, r4]
10003cb8:	3401      	adds	r4, #1
10003cba:	6018      	str	r0, [r3, #0]
10003cbc:	2c08      	cmp	r4, #8
10003cbe:	d1f7      	bne.n	10003cb0 <DAC_Check+0xc98>
10003cc0:	4659      	mov	r1, fp
10003cc2:	e002      	b.n	10003cca <DAC_Check+0xcb2>
10003cc4:	8833      	ldrh	r3, [r6, #0]
10003cc6:	2b00      	cmp	r3, #0
10003cc8:	d004      	beq.n	10003cd4 <DAC_Check+0xcbc>
10003cca:	880b      	ldrh	r3, [r1, #0]
10003ccc:	883a      	ldrh	r2, [r7, #0]
10003cce:	3301      	adds	r3, #1
10003cd0:	4293      	cmp	r3, r2
10003cd2:	daf7      	bge.n	10003cc4 <DAC_Check+0xcac>
10003cd4:	468b      	mov	fp, r1
10003cd6:	f7ff f847 	bl	10002d68 <UART_CheckResponse>
10003cda:	e69a      	b.n	10003a12 <DAC_Check+0x9fa>
10003cdc:	8833      	ldrh	r3, [r6, #0]
10003cde:	2b00      	cmp	r3, #0
10003ce0:	d100      	bne.n	10003ce4 <DAC_Check+0xccc>
10003ce2:	e4b1      	b.n	10003648 <DAC_Check+0x630>
10003ce4:	481a      	ldr	r0, [pc, #104]	; (10003d50 <DAC_Check+0xd38>)
10003ce6:	2300      	movs	r3, #0
10003ce8:	465a      	mov	r2, fp
10003cea:	0004      	movs	r4, r0
10003cec:	2120      	movs	r1, #32
10003cee:	8013      	strh	r3, [r2, #0]
10003cf0:	4a14      	ldr	r2, [pc, #80]	; (10003d44 <DAC_Check+0xd2c>)
10003cf2:	803b      	strh	r3, [r7, #0]
10003cf4:	3408      	adds	r4, #8
10003cf6:	6993      	ldr	r3, [r2, #24]
10003cf8:	4219      	tst	r1, r3
10003cfa:	d1fc      	bne.n	10003cf6 <DAC_Check+0xcde>
10003cfc:	7803      	ldrb	r3, [r0, #0]
10003cfe:	3001      	adds	r0, #1
10003d00:	6013      	str	r3, [r2, #0]
10003d02:	4284      	cmp	r4, r0
10003d04:	d1f7      	bne.n	10003cf6 <DAC_Check+0xcde>
10003d06:	4659      	mov	r1, fp
10003d08:	e002      	b.n	10003d10 <DAC_Check+0xcf8>
10003d0a:	8833      	ldrh	r3, [r6, #0]
10003d0c:	2b00      	cmp	r3, #0
10003d0e:	d004      	beq.n	10003d1a <DAC_Check+0xd02>
10003d10:	880b      	ldrh	r3, [r1, #0]
10003d12:	883a      	ldrh	r2, [r7, #0]
10003d14:	3301      	adds	r3, #1
10003d16:	4293      	cmp	r3, r2
10003d18:	daf7      	bge.n	10003d0a <DAC_Check+0xcf2>
10003d1a:	468b      	mov	fp, r1
10003d1c:	f7ff f824 	bl	10002d68 <UART_CheckResponse>
10003d20:	2801      	cmp	r0, #1
10003d22:	d100      	bne.n	10003d26 <DAC_Check+0xd0e>
10003d24:	e0dd      	b.n	10003ee2 <DAC_Check+0xeca>
10003d26:	ab14      	add	r3, sp, #80	; 0x50
10003d28:	8a18      	ldrh	r0, [r3, #16]
10003d2a:	8a5b      	ldrh	r3, [r3, #18]
10003d2c:	2103      	movs	r1, #3
10003d2e:	18c0      	adds	r0, r0, r3
10003d30:	ab14      	add	r3, sp, #80	; 0x50
10003d32:	8a9b      	ldrh	r3, [r3, #20]
10003d34:	18c0      	adds	r0, r0, r3
10003d36:	f002 f907 	bl	10005f48 <__wrap___aeabi_idiv>
10003d3a:	9b00      	ldr	r3, [sp, #0]
10003d3c:	8058      	strh	r0, [r3, #2]
10003d3e:	e483      	b.n	10003648 <DAC_Check+0x630>
10003d40:	100096c0 	.word	0x100096c0
10003d44:	40034000 	.word	0x40034000
10003d48:	100096fc 	.word	0x100096fc
10003d4c:	100096b8 	.word	0x100096b8
10003d50:	10009704 	.word	0x10009704
10003d54:	8833      	ldrh	r3, [r6, #0]
10003d56:	2b00      	cmp	r3, #0
10003d58:	d100      	bne.n	10003d5c <DAC_Check+0xd44>
10003d5a:	e4b7      	b.n	100036cc <DAC_Check+0x6b4>
10003d5c:	48b3      	ldr	r0, [pc, #716]	; (1000402c <DAC_Check+0x1014>)
10003d5e:	2300      	movs	r3, #0
10003d60:	465a      	mov	r2, fp
10003d62:	0004      	movs	r4, r0
10003d64:	2120      	movs	r1, #32
10003d66:	8013      	strh	r3, [r2, #0]
10003d68:	4ab1      	ldr	r2, [pc, #708]	; (10004030 <DAC_Check+0x1018>)
10003d6a:	803b      	strh	r3, [r7, #0]
10003d6c:	3408      	adds	r4, #8
10003d6e:	6993      	ldr	r3, [r2, #24]
10003d70:	4219      	tst	r1, r3
10003d72:	d1fc      	bne.n	10003d6e <DAC_Check+0xd56>
10003d74:	7803      	ldrb	r3, [r0, #0]
10003d76:	3001      	adds	r0, #1
10003d78:	6013      	str	r3, [r2, #0]
10003d7a:	4284      	cmp	r4, r0
10003d7c:	d1f7      	bne.n	10003d6e <DAC_Check+0xd56>
10003d7e:	4659      	mov	r1, fp
10003d80:	e002      	b.n	10003d88 <DAC_Check+0xd70>
10003d82:	8833      	ldrh	r3, [r6, #0]
10003d84:	2b00      	cmp	r3, #0
10003d86:	d004      	beq.n	10003d92 <DAC_Check+0xd7a>
10003d88:	880b      	ldrh	r3, [r1, #0]
10003d8a:	883a      	ldrh	r2, [r7, #0]
10003d8c:	3301      	adds	r3, #1
10003d8e:	4293      	cmp	r3, r2
10003d90:	daf7      	bge.n	10003d82 <DAC_Check+0xd6a>
10003d92:	468b      	mov	fp, r1
10003d94:	f7fe ffe8 	bl	10002d68 <UART_CheckResponse>
10003d98:	2801      	cmp	r0, #1
10003d9a:	d100      	bne.n	10003d9e <DAC_Check+0xd86>
10003d9c:	e076      	b.n	10003e8c <DAC_Check+0xe74>
10003d9e:	ab14      	add	r3, sp, #80	; 0x50
10003da0:	8a18      	ldrh	r0, [r3, #16]
10003da2:	8a5b      	ldrh	r3, [r3, #18]
10003da4:	2103      	movs	r1, #3
10003da6:	18c0      	adds	r0, r0, r3
10003da8:	ab14      	add	r3, sp, #80	; 0x50
10003daa:	8a9b      	ldrh	r3, [r3, #20]
10003dac:	18c0      	adds	r0, r0, r3
10003dae:	f002 f8cb 	bl	10005f48 <__wrap___aeabi_idiv>
10003db2:	9b00      	ldr	r3, [sp, #0]
10003db4:	0005      	movs	r5, r0
10003db6:	80d8      	strh	r0, [r3, #6]
10003db8:	e48a      	b.n	100036d0 <DAC_Check+0x6b8>
10003dba:	8833      	ldrh	r3, [r6, #0]
10003dbc:	2b00      	cmp	r3, #0
10003dbe:	d100      	bne.n	10003dc2 <DAC_Check+0xdaa>
10003dc0:	e51e      	b.n	10003800 <DAC_Check+0x7e8>
10003dc2:	489c      	ldr	r0, [pc, #624]	; (10004034 <DAC_Check+0x101c>)
10003dc4:	2300      	movs	r3, #0
10003dc6:	465a      	mov	r2, fp
10003dc8:	0004      	movs	r4, r0
10003dca:	2120      	movs	r1, #32
10003dcc:	8013      	strh	r3, [r2, #0]
10003dce:	4a98      	ldr	r2, [pc, #608]	; (10004030 <DAC_Check+0x1018>)
10003dd0:	803b      	strh	r3, [r7, #0]
10003dd2:	3408      	adds	r4, #8
10003dd4:	6993      	ldr	r3, [r2, #24]
10003dd6:	4219      	tst	r1, r3
10003dd8:	d1fc      	bne.n	10003dd4 <DAC_Check+0xdbc>
10003dda:	7803      	ldrb	r3, [r0, #0]
10003ddc:	3001      	adds	r0, #1
10003dde:	6013      	str	r3, [r2, #0]
10003de0:	4284      	cmp	r4, r0
10003de2:	d1f7      	bne.n	10003dd4 <DAC_Check+0xdbc>
10003de4:	4659      	mov	r1, fp
10003de6:	e002      	b.n	10003dee <DAC_Check+0xdd6>
10003de8:	8833      	ldrh	r3, [r6, #0]
10003dea:	2b00      	cmp	r3, #0
10003dec:	d004      	beq.n	10003df8 <DAC_Check+0xde0>
10003dee:	880b      	ldrh	r3, [r1, #0]
10003df0:	883a      	ldrh	r2, [r7, #0]
10003df2:	3301      	adds	r3, #1
10003df4:	4293      	cmp	r3, r2
10003df6:	daf7      	bge.n	10003de8 <DAC_Check+0xdd0>
10003df8:	468b      	mov	fp, r1
10003dfa:	f7fe ffb5 	bl	10002d68 <UART_CheckResponse>
10003dfe:	2801      	cmp	r0, #1
10003e00:	d100      	bne.n	10003e04 <DAC_Check+0xdec>
10003e02:	e099      	b.n	10003f38 <DAC_Check+0xf20>
10003e04:	ab14      	add	r3, sp, #80	; 0x50
10003e06:	8a18      	ldrh	r0, [r3, #16]
10003e08:	8a5b      	ldrh	r3, [r3, #18]
10003e0a:	2103      	movs	r1, #3
10003e0c:	18c0      	adds	r0, r0, r3
10003e0e:	ab14      	add	r3, sp, #80	; 0x50
10003e10:	8a9b      	ldrh	r3, [r3, #20]
10003e12:	18c0      	adds	r0, r0, r3
10003e14:	f002 f898 	bl	10005f48 <__wrap___aeabi_idiv>
10003e18:	9b00      	ldr	r3, [sp, #0]
10003e1a:	8158      	strh	r0, [r3, #10]
10003e1c:	e4f0      	b.n	10003800 <DAC_Check+0x7e8>
10003e1e:	2100      	movs	r1, #0
10003e20:	e591      	b.n	10003946 <DAC_Check+0x92e>
10003e22:	9b08      	ldr	r3, [sp, #32]
10003e24:	3b0a      	subs	r3, #10
10003e26:	9a00      	ldr	r2, [sp, #0]
10003e28:	8912      	ldrh	r2, [r2, #8]
10003e2a:	4293      	cmp	r3, r2
10003e2c:	dd00      	ble.n	10003e30 <DAC_Check+0xe18>
10003e2e:	e601      	b.n	10003a34 <DAC_Check+0xa1c>
10003e30:	9b08      	ldr	r3, [sp, #32]
10003e32:	330a      	adds	r3, #10
10003e34:	429a      	cmp	r2, r3
10003e36:	dd00      	ble.n	10003e3a <DAC_Check+0xe22>
10003e38:	e5fc      	b.n	10003a34 <DAC_Check+0xa1c>
10003e3a:	2301      	movs	r3, #1
10003e3c:	9a10      	ldr	r2, [sp, #64]	; 0x40
10003e3e:	4093      	lsls	r3, r2
10003e40:	9a11      	ldr	r2, [sp, #68]	; 0x44
10003e42:	431a      	orrs	r2, r3
10003e44:	0011      	movs	r1, r2
10003e46:	9211      	str	r2, [sp, #68]	; 0x44
10003e48:	e5fb      	b.n	10003a42 <DAC_Check+0xa2a>
10003e4a:	8833      	ldrh	r3, [r6, #0]
10003e4c:	2b00      	cmp	r3, #0
10003e4e:	d100      	bne.n	10003e52 <DAC_Check+0xe3a>
10003e50:	e634      	b.n	10003abc <DAC_Check+0xaa4>
10003e52:	2214      	movs	r2, #20
10003e54:	2100      	movs	r1, #0
10003e56:	a817      	add	r0, sp, #92	; 0x5c
10003e58:	f002 fce2 	bl	10006820 <__wrap_memset>
10003e5c:	ab17      	add	r3, sp, #92	; 0x5c
10003e5e:	4698      	mov	r8, r3
10003e60:	0023      	movs	r3, r4
10003e62:	4644      	mov	r4, r8
10003e64:	4698      	mov	r8, r3
10003e66:	2001      	movs	r0, #1
10003e68:	f7fc fbe6 	bl	10000638 <ADC_Read>
10003e6c:	0403      	lsls	r3, r0, #16
10003e6e:	d500      	bpl.n	10003e72 <DAC_Check+0xe5a>
10003e70:	e08c      	b.n	10003f8c <DAC_Check+0xf74>
10003e72:	8020      	strh	r0, [r4, #0]
10003e74:	200a      	movs	r0, #10
10003e76:	f001 f907 	bl	10005088 <sleep_ms>
10003e7a:	aa14      	add	r2, sp, #80	; 0x50
10003e7c:	2316      	movs	r3, #22
10003e7e:	4694      	mov	ip, r2
10003e80:	3402      	adds	r4, #2
10003e82:	4463      	add	r3, ip
10003e84:	42a3      	cmp	r3, r4
10003e86:	d1ee      	bne.n	10003e66 <DAC_Check+0xe4e>
10003e88:	4644      	mov	r4, r8
10003e8a:	e617      	b.n	10003abc <DAC_Check+0xaa4>
10003e8c:	8833      	ldrh	r3, [r6, #0]
10003e8e:	2b00      	cmp	r3, #0
10003e90:	d100      	bne.n	10003e94 <DAC_Check+0xe7c>
10003e92:	e784      	b.n	10003d9e <DAC_Check+0xd86>
10003e94:	2214      	movs	r2, #20
10003e96:	2100      	movs	r1, #0
10003e98:	a817      	add	r0, sp, #92	; 0x5c
10003e9a:	f002 fcc1 	bl	10006820 <__wrap_memset>
10003e9e:	ab14      	add	r3, sp, #80	; 0x50
10003ea0:	469c      	mov	ip, r3
10003ea2:	2300      	movs	r3, #0
10003ea4:	2516      	movs	r5, #22
10003ea6:	4698      	mov	r8, r3
10003ea8:	ac17      	add	r4, sp, #92	; 0x5c
10003eaa:	4465      	add	r5, ip
10003eac:	2001      	movs	r0, #1
10003eae:	f7fc fbc3 	bl	10000638 <ADC_Read>
10003eb2:	0403      	lsls	r3, r0, #16
10003eb4:	d40c      	bmi.n	10003ed0 <DAC_Check+0xeb8>
10003eb6:	8020      	strh	r0, [r4, #0]
10003eb8:	200a      	movs	r0, #10
10003eba:	3402      	adds	r4, #2
10003ebc:	f001 f8e4 	bl	10005088 <sleep_ms>
10003ec0:	42a5      	cmp	r5, r4
10003ec2:	d100      	bne.n	10003ec6 <DAC_Check+0xeae>
10003ec4:	e76b      	b.n	10003d9e <DAC_Check+0xd86>
10003ec6:	2001      	movs	r0, #1
10003ec8:	f7fc fbb6 	bl	10000638 <ADC_Read>
10003ecc:	0403      	lsls	r3, r0, #16
10003ece:	d5f2      	bpl.n	10003eb6 <DAC_Check+0xe9e>
10003ed0:	4643      	mov	r3, r8
10003ed2:	200a      	movs	r0, #10
10003ed4:	8023      	strh	r3, [r4, #0]
10003ed6:	3402      	adds	r4, #2
10003ed8:	f001 f8d6 	bl	10005088 <sleep_ms>
10003edc:	42ac      	cmp	r4, r5
10003ede:	d1e5      	bne.n	10003eac <DAC_Check+0xe94>
10003ee0:	e75d      	b.n	10003d9e <DAC_Check+0xd86>
10003ee2:	8833      	ldrh	r3, [r6, #0]
10003ee4:	2b00      	cmp	r3, #0
10003ee6:	d100      	bne.n	10003eea <DAC_Check+0xed2>
10003ee8:	e71d      	b.n	10003d26 <DAC_Check+0xd0e>
10003eea:	2214      	movs	r2, #20
10003eec:	2100      	movs	r1, #0
10003eee:	a817      	add	r0, sp, #92	; 0x5c
10003ef0:	f002 fc96 	bl	10006820 <__wrap_memset>
10003ef4:	ab14      	add	r3, sp, #80	; 0x50
10003ef6:	469c      	mov	ip, r3
10003ef8:	2300      	movs	r3, #0
10003efa:	2516      	movs	r5, #22
10003efc:	4698      	mov	r8, r3
10003efe:	ac17      	add	r4, sp, #92	; 0x5c
10003f00:	4465      	add	r5, ip
10003f02:	2001      	movs	r0, #1
10003f04:	f7fc fb98 	bl	10000638 <ADC_Read>
10003f08:	0403      	lsls	r3, r0, #16
10003f0a:	d40c      	bmi.n	10003f26 <DAC_Check+0xf0e>
10003f0c:	8020      	strh	r0, [r4, #0]
10003f0e:	200a      	movs	r0, #10
10003f10:	3402      	adds	r4, #2
10003f12:	f001 f8b9 	bl	10005088 <sleep_ms>
10003f16:	42a5      	cmp	r5, r4
10003f18:	d100      	bne.n	10003f1c <DAC_Check+0xf04>
10003f1a:	e704      	b.n	10003d26 <DAC_Check+0xd0e>
10003f1c:	2001      	movs	r0, #1
10003f1e:	f7fc fb8b 	bl	10000638 <ADC_Read>
10003f22:	0403      	lsls	r3, r0, #16
10003f24:	d5f2      	bpl.n	10003f0c <DAC_Check+0xef4>
10003f26:	4643      	mov	r3, r8
10003f28:	200a      	movs	r0, #10
10003f2a:	8023      	strh	r3, [r4, #0]
10003f2c:	3402      	adds	r4, #2
10003f2e:	f001 f8ab 	bl	10005088 <sleep_ms>
10003f32:	42a5      	cmp	r5, r4
10003f34:	d1e5      	bne.n	10003f02 <DAC_Check+0xeea>
10003f36:	e6f6      	b.n	10003d26 <DAC_Check+0xd0e>
10003f38:	8833      	ldrh	r3, [r6, #0]
10003f3a:	2b00      	cmp	r3, #0
10003f3c:	d100      	bne.n	10003f40 <DAC_Check+0xf28>
10003f3e:	e761      	b.n	10003e04 <DAC_Check+0xdec>
10003f40:	2214      	movs	r2, #20
10003f42:	2100      	movs	r1, #0
10003f44:	a817      	add	r0, sp, #92	; 0x5c
10003f46:	f002 fc6b 	bl	10006820 <__wrap_memset>
10003f4a:	aa14      	add	r2, sp, #80	; 0x50
10003f4c:	2316      	movs	r3, #22
10003f4e:	4694      	mov	ip, r2
10003f50:	4463      	add	r3, ip
10003f52:	4698      	mov	r8, r3
10003f54:	ac17      	add	r4, sp, #92	; 0x5c
10003f56:	2001      	movs	r0, #1
10003f58:	f7fc fb6e 	bl	10000638 <ADC_Read>
10003f5c:	0403      	lsls	r3, r0, #16
10003f5e:	d40c      	bmi.n	10003f7a <DAC_Check+0xf62>
10003f60:	8020      	strh	r0, [r4, #0]
10003f62:	200a      	movs	r0, #10
10003f64:	3402      	adds	r4, #2
10003f66:	f001 f88f 	bl	10005088 <sleep_ms>
10003f6a:	45a0      	cmp	r8, r4
10003f6c:	d100      	bne.n	10003f70 <DAC_Check+0xf58>
10003f6e:	e749      	b.n	10003e04 <DAC_Check+0xdec>
10003f70:	2001      	movs	r0, #1
10003f72:	f7fc fb61 	bl	10000638 <ADC_Read>
10003f76:	0403      	lsls	r3, r0, #16
10003f78:	d5f2      	bpl.n	10003f60 <DAC_Check+0xf48>
10003f7a:	2300      	movs	r3, #0
10003f7c:	200a      	movs	r0, #10
10003f7e:	8023      	strh	r3, [r4, #0]
10003f80:	3402      	adds	r4, #2
10003f82:	f001 f881 	bl	10005088 <sleep_ms>
10003f86:	4544      	cmp	r4, r8
10003f88:	d1e5      	bne.n	10003f56 <DAC_Check+0xf3e>
10003f8a:	e73b      	b.n	10003e04 <DAC_Check+0xdec>
10003f8c:	2300      	movs	r3, #0
10003f8e:	8023      	strh	r3, [r4, #0]
10003f90:	e770      	b.n	10003e74 <DAC_Check+0xe5c>
10003f92:	8833      	ldrh	r3, [r6, #0]
10003f94:	2b00      	cmp	r3, #0
10003f96:	d101      	bne.n	10003f9c <DAC_Check+0xf84>
10003f98:	f7ff fa44 	bl	10003424 <DAC_Check+0x40c>
10003f9c:	2214      	movs	r2, #20
10003f9e:	2100      	movs	r1, #0
10003fa0:	a817      	add	r0, sp, #92	; 0x5c
10003fa2:	f002 fc3d 	bl	10006820 <__wrap_memset>
10003fa6:	aa14      	add	r2, sp, #80	; 0x50
10003fa8:	2316      	movs	r3, #22
10003faa:	4694      	mov	ip, r2
10003fac:	4463      	add	r3, ip
10003fae:	4699      	mov	r9, r3
10003fb0:	ac17      	add	r4, sp, #92	; 0x5c
10003fb2:	2001      	movs	r0, #1
10003fb4:	f7fc fb40 	bl	10000638 <ADC_Read>
10003fb8:	0403      	lsls	r3, r0, #16
10003fba:	d42d      	bmi.n	10004018 <DAC_Check+0x1000>
10003fbc:	8020      	strh	r0, [r4, #0]
10003fbe:	200a      	movs	r0, #10
10003fc0:	3402      	adds	r4, #2
10003fc2:	f001 f861 	bl	10005088 <sleep_ms>
10003fc6:	45a1      	cmp	r9, r4
10003fc8:	d1f3      	bne.n	10003fb2 <DAC_Check+0xf9a>
10003fca:	f7ff fa2b 	bl	10003424 <DAC_Check+0x40c>
10003fce:	8833      	ldrh	r3, [r6, #0]
10003fd0:	2b00      	cmp	r3, #0
10003fd2:	d101      	bne.n	10003fd8 <DAC_Check+0xfc0>
10003fd4:	f7ff fa58 	bl	10003488 <DAC_Check+0x470>
10003fd8:	2214      	movs	r2, #20
10003fda:	2100      	movs	r1, #0
10003fdc:	a817      	add	r0, sp, #92	; 0x5c
10003fde:	f002 fc1f 	bl	10006820 <__wrap_memset>
10003fe2:	ab17      	add	r3, sp, #92	; 0x5c
10003fe4:	9303      	str	r3, [sp, #12]
10003fe6:	2001      	movs	r0, #1
10003fe8:	f7fc fb26 	bl	10000638 <ADC_Read>
10003fec:	0403      	lsls	r3, r0, #16
10003fee:	d40f      	bmi.n	10004010 <DAC_Check+0xff8>
10003ff0:	9b03      	ldr	r3, [sp, #12]
10003ff2:	8018      	strh	r0, [r3, #0]
10003ff4:	200a      	movs	r0, #10
10003ff6:	f001 f847 	bl	10005088 <sleep_ms>
10003ffa:	a914      	add	r1, sp, #80	; 0x50
10003ffc:	2216      	movs	r2, #22
10003ffe:	468c      	mov	ip, r1
10004000:	9b03      	ldr	r3, [sp, #12]
10004002:	4462      	add	r2, ip
10004004:	3302      	adds	r3, #2
10004006:	9303      	str	r3, [sp, #12]
10004008:	4293      	cmp	r3, r2
1000400a:	d1ec      	bne.n	10003fe6 <DAC_Check+0xfce>
1000400c:	f7ff fa3c 	bl	10003488 <DAC_Check+0x470>
10004010:	2200      	movs	r2, #0
10004012:	9b03      	ldr	r3, [sp, #12]
10004014:	801a      	strh	r2, [r3, #0]
10004016:	e7ed      	b.n	10003ff4 <DAC_Check+0xfdc>
10004018:	2300      	movs	r3, #0
1000401a:	200a      	movs	r0, #10
1000401c:	8023      	strh	r3, [r4, #0]
1000401e:	3402      	adds	r4, #2
10004020:	f001 f832 	bl	10005088 <sleep_ms>
10004024:	45a1      	cmp	r9, r4
10004026:	d1c4      	bne.n	10003fb2 <DAC_Check+0xf9a>
10004028:	f7ff f9fc 	bl	10003424 <DAC_Check+0x40c>
1000402c:	100096e4 	.word	0x100096e4
10004030:	40034000 	.word	0x40034000
10004034:	100096b8 	.word	0x100096b8

10004038 <gpio_set_function>:
10004038:	4a09      	ldr	r2, [pc, #36]	; (10004060 <gpio_set_function+0x28>)
1000403a:	b510      	push	{r4, lr}
1000403c:	4694      	mov	ip, r2
1000403e:	2440      	movs	r4, #64	; 0x40
10004040:	0083      	lsls	r3, r0, #2
10004042:	4463      	add	r3, ip
10004044:	681a      	ldr	r2, [r3, #0]
10004046:	00c0      	lsls	r0, r0, #3
10004048:	4062      	eors	r2, r4
1000404a:	3480      	adds	r4, #128	; 0x80
1000404c:	4014      	ands	r4, r2
1000404e:	2280      	movs	r2, #128	; 0x80
10004050:	0152      	lsls	r2, r2, #5
10004052:	4313      	orrs	r3, r2
10004054:	601c      	str	r4, [r3, #0]
10004056:	4b03      	ldr	r3, [pc, #12]	; (10004064 <gpio_set_function+0x2c>)
10004058:	469c      	mov	ip, r3
1000405a:	4460      	add	r0, ip
1000405c:	6041      	str	r1, [r0, #4]
1000405e:	bd10      	pop	{r4, pc}
10004060:	4001c004 	.word	0x4001c004
10004064:	40014000 	.word	0x40014000

10004068 <gpio_set_pulls>:
10004068:	4b07      	ldr	r3, [pc, #28]	; (10004088 <gpio_set_pulls+0x20>)
1000406a:	0080      	lsls	r0, r0, #2
1000406c:	469c      	mov	ip, r3
1000406e:	4460      	add	r0, ip
10004070:	6803      	ldr	r3, [r0, #0]
10004072:	00c9      	lsls	r1, r1, #3
10004074:	0092      	lsls	r2, r2, #2
10004076:	430a      	orrs	r2, r1
10004078:	405a      	eors	r2, r3
1000407a:	230c      	movs	r3, #12
1000407c:	401a      	ands	r2, r3
1000407e:	2380      	movs	r3, #128	; 0x80
10004080:	015b      	lsls	r3, r3, #5
10004082:	4303      	orrs	r3, r0
10004084:	601a      	str	r2, [r3, #0]
10004086:	4770      	bx	lr
10004088:	4001c004 	.word	0x4001c004

1000408c <gpio_init>:
1000408c:	2301      	movs	r3, #1
1000408e:	22d0      	movs	r2, #208	; 0xd0
10004090:	4083      	lsls	r3, r0
10004092:	0612      	lsls	r2, r2, #24
10004094:	6293      	str	r3, [r2, #40]	; 0x28
10004096:	6193      	str	r3, [r2, #24]
10004098:	4a09      	ldr	r2, [pc, #36]	; (100040c0 <gpio_init+0x34>)
1000409a:	2140      	movs	r1, #64	; 0x40
1000409c:	4694      	mov	ip, r2
1000409e:	0083      	lsls	r3, r0, #2
100040a0:	4463      	add	r3, ip
100040a2:	681a      	ldr	r2, [r3, #0]
100040a4:	00c0      	lsls	r0, r0, #3
100040a6:	404a      	eors	r2, r1
100040a8:	3180      	adds	r1, #128	; 0x80
100040aa:	4011      	ands	r1, r2
100040ac:	2280      	movs	r2, #128	; 0x80
100040ae:	0152      	lsls	r2, r2, #5
100040b0:	4313      	orrs	r3, r2
100040b2:	6019      	str	r1, [r3, #0]
100040b4:	4b03      	ldr	r3, [pc, #12]	; (100040c4 <gpio_init+0x38>)
100040b6:	469c      	mov	ip, r3
100040b8:	2305      	movs	r3, #5
100040ba:	4460      	add	r0, ip
100040bc:	6043      	str	r3, [r0, #4]
100040be:	4770      	bx	lr
100040c0:	4001c004 	.word	0x4001c004
100040c4:	40014000 	.word	0x40014000

100040c8 <running_on_fpga>:
100040c8:	4b02      	ldr	r3, [pc, #8]	; (100040d4 <running_on_fpga+0xc>)
100040ca:	6818      	ldr	r0, [r3, #0]
100040cc:	0780      	lsls	r0, r0, #30
100040ce:	0fc0      	lsrs	r0, r0, #31
100040d0:	4770      	bx	lr
100040d2:	46c0      	nop			; (mov r8, r8)
100040d4:	4006c000 	.word	0x4006c000

100040d8 <hw_claim_or_assert>:
100040d8:	b570      	push	{r4, r5, r6, lr}
100040da:	f3ef 8c10 	mrs	ip, PRIMASK
100040de:	b672      	cpsid	i
100040e0:	4d0d      	ldr	r5, [pc, #52]	; (10004118 <hw_claim_or_assert+0x40>)
100040e2:	682b      	ldr	r3, [r5, #0]
100040e4:	2b00      	cmp	r3, #0
100040e6:	d0fc      	beq.n	100040e2 <hw_claim_or_assert+0xa>
100040e8:	f3bf 8f5f 	dmb	sy
100040ec:	2407      	movs	r4, #7
100040ee:	08cb      	lsrs	r3, r1, #3
100040f0:	18c6      	adds	r6, r0, r3
100040f2:	5cc0      	ldrb	r0, [r0, r3]
100040f4:	2301      	movs	r3, #1
100040f6:	400c      	ands	r4, r1
100040f8:	40a3      	lsls	r3, r4
100040fa:	001c      	movs	r4, r3
100040fc:	4004      	ands	r4, r0
100040fe:	4203      	tst	r3, r0
10004100:	d107      	bne.n	10004112 <hw_claim_or_assert+0x3a>
10004102:	4318      	orrs	r0, r3
10004104:	7030      	strb	r0, [r6, #0]
10004106:	f3bf 8f5f 	dmb	sy
1000410a:	602c      	str	r4, [r5, #0]
1000410c:	f38c 8810 	msr	PRIMASK, ip
10004110:	bd70      	pop	{r4, r5, r6, pc}
10004112:	0010      	movs	r0, r2
10004114:	f001 fea0 	bl	10005e58 <panic>
10004118:	d000012c 	.word	0xd000012c

1000411c <hw_claim_unused_from_range>:
1000411c:	b5f8      	push	{r3, r4, r5, r6, r7, lr}
1000411e:	4647      	mov	r7, r8
10004120:	46ce      	mov	lr, r9
10004122:	4688      	mov	r8, r1
10004124:	b580      	push	{r7, lr}
10004126:	f3ef 8c10 	mrs	ip, PRIMASK
1000412a:	b672      	cpsid	i
1000412c:	4d21      	ldr	r5, [pc, #132]	; (100041b4 <hw_claim_unused_from_range+0x98>)
1000412e:	682c      	ldr	r4, [r5, #0]
10004130:	2c00      	cmp	r4, #0
10004132:	d0fc      	beq.n	1000412e <hw_claim_unused_from_range+0x12>
10004134:	f3bf 8f5f 	dmb	sy
10004138:	429a      	cmp	r2, r3
1000413a:	d82c      	bhi.n	10004196 <hw_claim_unused_from_range+0x7a>
1000413c:	08d4      	lsrs	r4, r2, #3
1000413e:	2707      	movs	r7, #7
10004140:	5d05      	ldrb	r5, [r0, r4]
10004142:	1906      	adds	r6, r0, r4
10004144:	2401      	movs	r4, #1
10004146:	4017      	ands	r7, r2
10004148:	40bc      	lsls	r4, r7
1000414a:	422c      	tst	r4, r5
1000414c:	d01f      	beq.n	1000418e <hw_claim_unused_from_range+0x72>
1000414e:	2107      	movs	r1, #7
10004150:	2701      	movs	r7, #1
10004152:	4689      	mov	r9, r1
10004154:	e009      	b.n	1000416a <hw_claim_unused_from_range+0x4e>
10004156:	08d4      	lsrs	r4, r2, #3
10004158:	5d05      	ldrb	r5, [r0, r4]
1000415a:	1906      	adds	r6, r0, r4
1000415c:	464c      	mov	r4, r9
1000415e:	0039      	movs	r1, r7
10004160:	4014      	ands	r4, r2
10004162:	40a1      	lsls	r1, r4
10004164:	000c      	movs	r4, r1
10004166:	4229      	tst	r1, r5
10004168:	d011      	beq.n	1000418e <hw_claim_unused_from_range+0x72>
1000416a:	3201      	adds	r2, #1
1000416c:	4293      	cmp	r3, r2
1000416e:	d2f2      	bcs.n	10004156 <hw_claim_unused_from_range+0x3a>
10004170:	2001      	movs	r0, #1
10004172:	4240      	negs	r0, r0
10004174:	f3bf 8f5f 	dmb	sy
10004178:	2200      	movs	r2, #0
1000417a:	4b0e      	ldr	r3, [pc, #56]	; (100041b4 <hw_claim_unused_from_range+0x98>)
1000417c:	601a      	str	r2, [r3, #0]
1000417e:	f38c 8810 	msr	PRIMASK, ip
10004182:	2800      	cmp	r0, #0
10004184:	db0f      	blt.n	100041a6 <hw_claim_unused_from_range+0x8a>
10004186:	bcc0      	pop	{r6, r7}
10004188:	46b9      	mov	r9, r7
1000418a:	46b0      	mov	r8, r6
1000418c:	bdf8      	pop	{r3, r4, r5, r6, r7, pc}
1000418e:	4325      	orrs	r5, r4
10004190:	0010      	movs	r0, r2
10004192:	7035      	strb	r5, [r6, #0]
10004194:	e7ee      	b.n	10004174 <hw_claim_unused_from_range+0x58>
10004196:	f3bf 8f5f 	dmb	sy
1000419a:	2300      	movs	r3, #0
1000419c:	602b      	str	r3, [r5, #0]
1000419e:	f38c 8810 	msr	PRIMASK, ip
100041a2:	2001      	movs	r0, #1
100041a4:	4240      	negs	r0, r0
100041a6:	4643      	mov	r3, r8
100041a8:	2b00      	cmp	r3, #0
100041aa:	d0ec      	beq.n	10004186 <hw_claim_unused_from_range+0x6a>
100041ac:	9808      	ldr	r0, [sp, #32]
100041ae:	f001 fe53 	bl	10005e58 <panic>
100041b2:	46c0      	nop			; (mov r8, r8)
100041b4:	d000012c 	.word	0xd000012c

100041b8 <spin_locks_reset>:
100041b8:	2100      	movs	r1, #0
100041ba:	4b04      	ldr	r3, [pc, #16]	; (100041cc <spin_locks_reset+0x14>)
100041bc:	4a04      	ldr	r2, [pc, #16]	; (100041d0 <spin_locks_reset+0x18>)
100041be:	f3bf 8f5f 	dmb	sy
100041c2:	c302      	stmia	r3!, {r1}
100041c4:	4293      	cmp	r3, r2
100041c6:	d1fa      	bne.n	100041be <spin_locks_reset+0x6>
100041c8:	4770      	bx	lr
100041ca:	46c0      	nop			; (mov r8, r8)
100041cc:	d0000100 	.word	0xd0000100
100041d0:	d0000180 	.word	0xd0000180

100041d4 <next_striped_spin_lock_num>:
100041d4:	4a04      	ldr	r2, [pc, #16]	; (100041e8 <next_striped_spin_lock_num+0x14>)
100041d6:	7810      	ldrb	r0, [r2, #0]
100041d8:	1c43      	adds	r3, r0, #1
100041da:	b2db      	uxtb	r3, r3
100041dc:	2b17      	cmp	r3, #23
100041de:	d900      	bls.n	100041e2 <next_striped_spin_lock_num+0xe>
100041e0:	2310      	movs	r3, #16
100041e2:	7013      	strb	r3, [r2, #0]
100041e4:	4770      	bx	lr
100041e6:	46c0      	nop			; (mov r8, r8)
100041e8:	20000dd1 	.word	0x20000dd1

100041ec <spin_lock_claim_unused>:
100041ec:	b510      	push	{r4, lr}
100041ee:	4b06      	ldr	r3, [pc, #24]	; (10004208 <spin_lock_claim_unused+0x1c>)
100041f0:	4c06      	ldr	r4, [pc, #24]	; (1000420c <spin_lock_claim_unused+0x20>)
100041f2:	b082      	sub	sp, #8
100041f4:	0001      	movs	r1, r0
100041f6:	9300      	str	r3, [sp, #0]
100041f8:	2218      	movs	r2, #24
100041fa:	231f      	movs	r3, #31
100041fc:	0020      	movs	r0, r4
100041fe:	f7ff ff8d 	bl	1000411c <hw_claim_unused_from_range>
10004202:	b002      	add	sp, #8
10004204:	bd10      	pop	{r4, pc}
10004206:	46c0      	nop			; (mov r8, r8)
10004208:	1000970c 	.word	0x1000970c
1000420c:	20001c68 	.word	0x20001c68

10004210 <irq_set_enabled>:
10004210:	2301      	movs	r3, #1
10004212:	4083      	lsls	r3, r0
10004214:	2900      	cmp	r1, #0
10004216:	d004      	beq.n	10004222 <irq_set_enabled+0x12>
10004218:	4a03      	ldr	r2, [pc, #12]	; (10004228 <irq_set_enabled+0x18>)
1000421a:	6013      	str	r3, [r2, #0]
1000421c:	4a03      	ldr	r2, [pc, #12]	; (1000422c <irq_set_enabled+0x1c>)
1000421e:	6013      	str	r3, [r2, #0]
10004220:	4770      	bx	lr
10004222:	4a03      	ldr	r2, [pc, #12]	; (10004230 <irq_set_enabled+0x20>)
10004224:	6013      	str	r3, [r2, #0]
10004226:	e7fb      	b.n	10004220 <irq_set_enabled+0x10>
10004228:	e000e280 	.word	0xe000e280
1000422c:	e000e100 	.word	0xe000e100
10004230:	e000e180 	.word	0xe000e180

10004234 <irq_set_pending>:
10004234:	2301      	movs	r3, #1
10004236:	4083      	lsls	r3, r0
10004238:	4a01      	ldr	r2, [pc, #4]	; (10004240 <irq_set_pending+0xc>)
1000423a:	6013      	str	r3, [r2, #0]
1000423c:	4770      	bx	lr
1000423e:	46c0      	nop			; (mov r8, r8)
10004240:	e000e200 	.word	0xe000e200

10004244 <irq_has_shared_handler>:
10004244:	4b08      	ldr	r3, [pc, #32]	; (10004268 <irq_has_shared_handler+0x24>)
10004246:	3010      	adds	r0, #16
10004248:	689b      	ldr	r3, [r3, #8]
1000424a:	0080      	lsls	r0, r0, #2
1000424c:	58c3      	ldr	r3, [r0, r3]
1000424e:	2b00      	cmp	r3, #0
10004250:	d007      	beq.n	10004262 <irq_has_shared_handler+0x1e>
10004252:	4a06      	ldr	r2, [pc, #24]	; (1000426c <irq_has_shared_handler+0x28>)
10004254:	2000      	movs	r0, #0
10004256:	1a9b      	subs	r3, r3, r2
10004258:	222f      	movs	r2, #47	; 0x2f
1000425a:	429a      	cmp	r2, r3
1000425c:	4140      	adcs	r0, r0
1000425e:	b2c0      	uxtb	r0, r0
10004260:	4770      	bx	lr
10004262:	2000      	movs	r0, #0
10004264:	e7fc      	b.n	10004260 <irq_has_shared_handler+0x1c>
10004266:	46c0      	nop			; (mov r8, r8)
10004268:	e000ed00 	.word	0xe000ed00
1000426c:	20000dd4 	.word	0x20000dd4

10004270 <irq_get_vtable_handler>:
10004270:	4b02      	ldr	r3, [pc, #8]	; (1000427c <irq_get_vtable_handler+0xc>)
10004272:	3010      	adds	r0, #16
10004274:	689b      	ldr	r3, [r3, #8]
10004276:	0080      	lsls	r0, r0, #2
10004278:	58c0      	ldr	r0, [r0, r3]
1000427a:	4770      	bx	lr
1000427c:	e000ed00 	.word	0xe000ed00

10004280 <irq_set_exclusive_handler>:
10004280:	b570      	push	{r4, r5, r6, lr}
10004282:	000d      	movs	r5, r1
10004284:	f3ef 8610 	mrs	r6, PRIMASK
10004288:	b672      	cpsid	i
1000428a:	4a0f      	ldr	r2, [pc, #60]	; (100042c8 <irq_set_exclusive_handler+0x48>)
1000428c:	6813      	ldr	r3, [r2, #0]
1000428e:	2b00      	cmp	r3, #0
10004290:	d0fc      	beq.n	1000428c <irq_set_exclusive_handler+0xc>
10004292:	f3bf 8f5f 	dmb	sy
10004296:	4b0d      	ldr	r3, [pc, #52]	; (100042cc <irq_set_exclusive_handler+0x4c>)
10004298:	3010      	adds	r0, #16
1000429a:	689b      	ldr	r3, [r3, #8]
1000429c:	0084      	lsls	r4, r0, #2
1000429e:	591b      	ldr	r3, [r3, r4]
100042a0:	4a0b      	ldr	r2, [pc, #44]	; (100042d0 <irq_set_exclusive_handler+0x50>)
100042a2:	4293      	cmp	r3, r2
100042a4:	d003      	beq.n	100042ae <irq_set_exclusive_handler+0x2e>
100042a6:	429d      	cmp	r5, r3
100042a8:	d001      	beq.n	100042ae <irq_set_exclusive_handler+0x2e>
100042aa:	f001 fded 	bl	10005e88 <hard_assertion_failure>
100042ae:	4b07      	ldr	r3, [pc, #28]	; (100042cc <irq_set_exclusive_handler+0x4c>)
100042b0:	689b      	ldr	r3, [r3, #8]
100042b2:	511d      	str	r5, [r3, r4]
100042b4:	f3bf 8f5f 	dmb	sy
100042b8:	f3bf 8f5f 	dmb	sy
100042bc:	2200      	movs	r2, #0
100042be:	4b02      	ldr	r3, [pc, #8]	; (100042c8 <irq_set_exclusive_handler+0x48>)
100042c0:	601a      	str	r2, [r3, #0]
100042c2:	f386 8810 	msr	PRIMASK, r6
100042c6:	bd70      	pop	{r4, r5, r6, pc}
100042c8:	d0000124 	.word	0xd0000124
100042cc:	e000ed00 	.word	0xe000ed00
100042d0:	100001cd 	.word	0x100001cd

100042d4 <irq_add_shared_handler>:
100042d4:	b5f0      	push	{r4, r5, r6, r7, lr}
100042d6:	4657      	mov	r7, sl
100042d8:	464e      	mov	r6, r9
100042da:	46de      	mov	lr, fp
100042dc:	4645      	mov	r5, r8
100042de:	b5e0      	push	{r5, r6, r7, lr}
100042e0:	b085      	sub	sp, #20
100042e2:	0006      	movs	r6, r0
100042e4:	9101      	str	r1, [sp, #4]
100042e6:	0017      	movs	r7, r2
100042e8:	f3ef 8b10 	mrs	fp, PRIMASK
100042ec:	b672      	cpsid	i
100042ee:	4a66      	ldr	r2, [pc, #408]	; (10004488 <irq_add_shared_handler+0x1b4>)
100042f0:	6813      	ldr	r3, [r2, #0]
100042f2:	2b00      	cmp	r3, #0
100042f4:	d0fc      	beq.n	100042f0 <irq_add_shared_handler+0x1c>
100042f6:	f3bf 8f5f 	dmb	sy
100042fa:	2500      	movs	r5, #0
100042fc:	4b63      	ldr	r3, [pc, #396]	; (1000448c <irq_add_shared_handler+0x1b8>)
100042fe:	575d      	ldrsb	r5, [r3, r5]
10004300:	469a      	mov	sl, r3
10004302:	2d00      	cmp	r5, #0
10004304:	da00      	bge.n	10004308 <irq_add_shared_handler+0x34>
10004306:	e0a2      	b.n	1000444e <irq_add_shared_handler+0x17a>
10004308:	006b      	lsls	r3, r5, #1
1000430a:	4c61      	ldr	r4, [pc, #388]	; (10004490 <irq_add_shared_handler+0x1bc>)
1000430c:	9302      	str	r3, [sp, #8]
1000430e:	195b      	adds	r3, r3, r5
10004310:	009b      	lsls	r3, r3, #2
10004312:	4698      	mov	r8, r3
10004314:	46a1      	mov	r9, r4
10004316:	44c1      	add	r9, r8
10004318:	464b      	mov	r3, r9
1000431a:	4652      	mov	r2, sl
1000431c:	799b      	ldrb	r3, [r3, #6]
1000431e:	3610      	adds	r6, #16
10004320:	7013      	strb	r3, [r2, #0]
10004322:	4b5c      	ldr	r3, [pc, #368]	; (10004494 <irq_add_shared_handler+0x1c0>)
10004324:	00b2      	lsls	r2, r6, #2
10004326:	689b      	ldr	r3, [r3, #8]
10004328:	9200      	str	r2, [sp, #0]
1000432a:	5899      	ldr	r1, [r3, r2]
1000432c:	1b0b      	subs	r3, r1, r4
1000432e:	2b2f      	cmp	r3, #47	; 0x2f
10004330:	d934      	bls.n	1000439c <irq_add_shared_handler+0xc8>
10004332:	4b59      	ldr	r3, [pc, #356]	; (10004498 <irq_add_shared_handler+0x1c4>)
10004334:	4299      	cmp	r1, r3
10004336:	d000      	beq.n	1000433a <irq_add_shared_handler+0x66>
10004338:	e0a2      	b.n	10004480 <irq_add_shared_handler+0x1ac>
1000433a:	9b02      	ldr	r3, [sp, #8]
1000433c:	4642      	mov	r2, r8
1000433e:	469c      	mov	ip, r3
10004340:	4b56      	ldr	r3, [pc, #344]	; (1000449c <irq_add_shared_handler+0x1c8>)
10004342:	4465      	add	r5, ip
10004344:	00ad      	lsls	r5, r5, #2
10004346:	5363      	strh	r3, [r4, r5]
10004348:	4b55      	ldr	r3, [pc, #340]	; (100044a0 <irq_add_shared_handler+0x1cc>)
1000434a:	3202      	adds	r2, #2
1000434c:	18a2      	adds	r2, r4, r2
1000434e:	3b04      	subs	r3, #4
10004350:	1a9b      	subs	r3, r3, r2
10004352:	051b      	lsls	r3, r3, #20
10004354:	4a53      	ldr	r2, [pc, #332]	; (100044a4 <irq_add_shared_handler+0x1d0>)
10004356:	0d5b      	lsrs	r3, r3, #21
10004358:	1965      	adds	r5, r4, r5
1000435a:	4313      	orrs	r3, r2
1000435c:	806b      	strh	r3, [r5, #2]
1000435e:	4b52      	ldr	r3, [pc, #328]	; (100044a8 <irq_add_shared_handler+0x1d4>)
10004360:	2101      	movs	r1, #1
10004362:	80ab      	strh	r3, [r5, #4]
10004364:	23ff      	movs	r3, #255	; 0xff
10004366:	71ab      	strb	r3, [r5, #6]
10004368:	9b01      	ldr	r3, [sp, #4]
1000436a:	71ef      	strb	r7, [r5, #7]
1000436c:	60ab      	str	r3, [r5, #8]
1000436e:	464b      	mov	r3, r9
10004370:	430b      	orrs	r3, r1
10004372:	0019      	movs	r1, r3
10004374:	4b47      	ldr	r3, [pc, #284]	; (10004494 <irq_add_shared_handler+0x1c0>)
10004376:	9a00      	ldr	r2, [sp, #0]
10004378:	689b      	ldr	r3, [r3, #8]
1000437a:	5099      	str	r1, [r3, r2]
1000437c:	f3bf 8f5f 	dmb	sy
10004380:	f3bf 8f5f 	dmb	sy
10004384:	2200      	movs	r2, #0
10004386:	4b40      	ldr	r3, [pc, #256]	; (10004488 <irq_add_shared_handler+0x1b4>)
10004388:	601a      	str	r2, [r3, #0]
1000438a:	f38b 8810 	msr	PRIMASK, fp
1000438e:	b005      	add	sp, #20
10004390:	bcf0      	pop	{r4, r5, r6, r7}
10004392:	46bb      	mov	fp, r7
10004394:	46b2      	mov	sl, r6
10004396:	46a9      	mov	r9, r5
10004398:	46a0      	mov	r8, r4
1000439a:	bdf0      	pop	{r4, r5, r6, r7, pc}
1000439c:	2001      	movs	r0, #1
1000439e:	000a      	movs	r2, r1
100043a0:	4382      	bics	r2, r0
100043a2:	79d3      	ldrb	r3, [r2, #7]
100043a4:	42bb      	cmp	r3, r7
100043a6:	d82f      	bhi.n	10004408 <irq_add_shared_handler+0x134>
100043a8:	4645      	mov	r5, r8
100043aa:	464e      	mov	r6, r9
100043ac:	0013      	movs	r3, r2
100043ae:	493f      	ldr	r1, [pc, #252]	; (100044ac <irq_add_shared_handler+0x1d8>)
100043b0:	1b1b      	subs	r3, r3, r4
100043b2:	415b      	adcs	r3, r3
100043b4:	4359      	muls	r1, r3
100043b6:	0d09      	lsrs	r1, r1, #20
100043b8:	4b38      	ldr	r3, [pc, #224]	; (1000449c <irq_add_shared_handler+0x1c8>)
100043ba:	5363      	strh	r3, [r4, r5]
100043bc:	4b38      	ldr	r3, [pc, #224]	; (100044a0 <irq_add_shared_handler+0x1cc>)
100043be:	3502      	adds	r5, #2
100043c0:	1965      	adds	r5, r4, r5
100043c2:	3b04      	subs	r3, #4
100043c4:	1b5b      	subs	r3, r3, r5
100043c6:	051b      	lsls	r3, r3, #20
100043c8:	4d36      	ldr	r5, [pc, #216]	; (100044a4 <irq_add_shared_handler+0x1d0>)
100043ca:	0d5b      	lsrs	r3, r3, #21
100043cc:	432b      	orrs	r3, r5
100043ce:	8073      	strh	r3, [r6, #2]
100043d0:	2604      	movs	r6, #4
100043d2:	46b4      	mov	ip, r6
100043d4:	44e0      	add	r8, ip
100043d6:	1f13      	subs	r3, r2, #4
100043d8:	4444      	add	r4, r8
100043da:	1b1b      	subs	r3, r3, r4
100043dc:	051b      	lsls	r3, r3, #20
100043de:	0d5b      	lsrs	r3, r3, #21
100043e0:	431d      	orrs	r5, r3
100043e2:	464b      	mov	r3, r9
100043e4:	7199      	strb	r1, [r3, #6]
100043e6:	9901      	ldr	r1, [sp, #4]
100043e8:	809d      	strh	r5, [r3, #4]
100043ea:	6099      	str	r1, [r3, #8]
100043ec:	4649      	mov	r1, r9
100043ee:	71df      	strb	r7, [r3, #7]
100043f0:	4b2f      	ldr	r3, [pc, #188]	; (100044b0 <irq_add_shared_handler+0x1dc>)
100043f2:	4301      	orrs	r1, r0
100043f4:	6013      	str	r3, [r2, #0]
100043f6:	e7bd      	b.n	10004374 <irq_add_shared_handler+0xa0>
100043f8:	0058      	lsls	r0, r3, #1
100043fa:	18c0      	adds	r0, r0, r3
100043fc:	0080      	lsls	r0, r0, #2
100043fe:	1820      	adds	r0, r4, r0
10004400:	79c6      	ldrb	r6, [r0, #7]
10004402:	42be      	cmp	r6, r7
10004404:	d929      	bls.n	1000445a <irq_add_shared_handler+0x186>
10004406:	0002      	movs	r2, r0
10004408:	2306      	movs	r3, #6
1000440a:	56d3      	ldrsb	r3, [r2, r3]
1000440c:	2b00      	cmp	r3, #0
1000440e:	daf3      	bge.n	100043f8 <irq_add_shared_handler+0x124>
10004410:	1d10      	adds	r0, r2, #4
10004412:	4682      	mov	sl, r0
10004414:	4827      	ldr	r0, [pc, #156]	; (100044b4 <irq_add_shared_handler+0x1e0>)
10004416:	9003      	str	r0, [sp, #12]
10004418:	2604      	movs	r6, #4
1000441a:	4650      	mov	r0, sl
1000441c:	4276      	negs	r6, r6
1000441e:	444e      	add	r6, r9
10004420:	1a36      	subs	r6, r6, r0
10004422:	0530      	lsls	r0, r6, #20
10004424:	0d40      	lsrs	r0, r0, #21
10004426:	4684      	mov	ip, r0
10004428:	4666      	mov	r6, ip
1000442a:	481e      	ldr	r0, [pc, #120]	; (100044a4 <irq_add_shared_handler+0x1d0>)
1000442c:	7195      	strb	r5, [r2, #6]
1000442e:	4306      	orrs	r6, r0
10004430:	8096      	strh	r6, [r2, #4]
10004432:	9a02      	ldr	r2, [sp, #8]
10004434:	4694      	mov	ip, r2
10004436:	4465      	add	r5, ip
10004438:	00aa      	lsls	r2, r5, #2
1000443a:	18a4      	adds	r4, r4, r2
1000443c:	4a1c      	ldr	r2, [pc, #112]	; (100044b0 <irq_add_shared_handler+0x1dc>)
1000443e:	71a3      	strb	r3, [r4, #6]
10004440:	6022      	str	r2, [r4, #0]
10004442:	9b01      	ldr	r3, [sp, #4]
10004444:	9a03      	ldr	r2, [sp, #12]
10004446:	71e7      	strb	r7, [r4, #7]
10004448:	80a2      	strh	r2, [r4, #4]
1000444a:	60a3      	str	r3, [r4, #8]
1000444c:	e792      	b.n	10004374 <irq_add_shared_handler+0xa0>
1000444e:	f001 fd1b 	bl	10005e88 <hard_assertion_failure>
10004452:	2500      	movs	r5, #0
10004454:	4653      	mov	r3, sl
10004456:	575d      	ldrsb	r5, [r3, r5]
10004458:	e756      	b.n	10004308 <irq_add_shared_handler+0x34>
1000445a:	1d10      	adds	r0, r2, #4
1000445c:	4682      	mov	sl, r0
1000445e:	8890      	ldrh	r0, [r2, #4]
10004460:	0540      	lsls	r0, r0, #21
10004462:	1500      	asrs	r0, r0, #20
10004464:	4684      	mov	ip, r0
10004466:	4640      	mov	r0, r8
10004468:	44d4      	add	ip, sl
1000446a:	4666      	mov	r6, ip
1000446c:	3004      	adds	r0, #4
1000446e:	1820      	adds	r0, r4, r0
10004470:	1a30      	subs	r0, r6, r0
10004472:	26e0      	movs	r6, #224	; 0xe0
10004474:	0500      	lsls	r0, r0, #20
10004476:	0d40      	lsrs	r0, r0, #21
10004478:	0236      	lsls	r6, r6, #8
1000447a:	4330      	orrs	r0, r6
1000447c:	9003      	str	r0, [sp, #12]
1000447e:	e7cb      	b.n	10004418 <irq_add_shared_handler+0x144>
10004480:	f001 fd02 	bl	10005e88 <hard_assertion_failure>
10004484:	e759      	b.n	1000433a <irq_add_shared_handler+0x66>
10004486:	46c0      	nop			; (mov r8, r8)
10004488:	d0000124 	.word	0xd0000124
1000448c:	200021ab 	.word	0x200021ab
10004490:	20000dd4 	.word	0x20000dd4
10004494:	e000ed00 	.word	0xe000ed00
10004498:	100001cd 	.word	0x100001cd
1000449c:	ffffa100 	.word	0xffffa100
100044a0:	20000e04 	.word	0x20000e04
100044a4:	ffffe000 	.word	0xffffe000
100044a8:	ffffbd01 	.word	0xffffbd01
100044ac:	0000aaaa 	.word	0x0000aaaa
100044b0:	47804801 	.word	0x47804801
100044b4:	0000bd01 	.word	0x0000bd01

100044b8 <irq_remove_handler>:
100044b8:	b5f0      	push	{r4, r5, r6, r7, lr}
100044ba:	46de      	mov	lr, fp
100044bc:	4657      	mov	r7, sl
100044be:	464e      	mov	r6, r9
100044c0:	4645      	mov	r5, r8
100044c2:	b5e0      	push	{r5, r6, r7, lr}
100044c4:	000c      	movs	r4, r1
100044c6:	b083      	sub	sp, #12
100044c8:	f3ef 8910 	mrs	r9, PRIMASK
100044cc:	b672      	cpsid	i
100044ce:	4a58      	ldr	r2, [pc, #352]	; (10004630 <irq_remove_handler+0x178>)
100044d0:	6813      	ldr	r3, [r2, #0]
100044d2:	2b00      	cmp	r3, #0
100044d4:	d0fc      	beq.n	100044d0 <irq_remove_handler+0x18>
100044d6:	f3bf 8f5f 	dmb	sy
100044da:	4b56      	ldr	r3, [pc, #344]	; (10004634 <irq_remove_handler+0x17c>)
100044dc:	689a      	ldr	r2, [r3, #8]
100044de:	0003      	movs	r3, r0
100044e0:	3310      	adds	r3, #16
100044e2:	009f      	lsls	r7, r3, #2
100044e4:	59d5      	ldr	r5, [r2, r7]
100044e6:	4a54      	ldr	r2, [pc, #336]	; (10004638 <irq_remove_handler+0x180>)
100044e8:	4690      	mov	r8, r2
100044ea:	4295      	cmp	r5, r2
100044ec:	d032      	beq.n	10004554 <irq_remove_handler+0x9c>
100044ee:	42a5      	cmp	r5, r4
100044f0:	d043      	beq.n	1000457a <irq_remove_handler+0xc2>
100044f2:	4e52      	ldr	r6, [pc, #328]	; (1000463c <irq_remove_handler+0x184>)
100044f4:	1baa      	subs	r2, r5, r6
100044f6:	2a2f      	cmp	r2, #47	; 0x2f
100044f8:	d82c      	bhi.n	10004554 <irq_remove_handler+0x9c>
100044fa:	2201      	movs	r2, #1
100044fc:	4082      	lsls	r2, r0
100044fe:	4692      	mov	sl, r2
10004500:	4651      	mov	r1, sl
10004502:	4a4f      	ldr	r2, [pc, #316]	; (10004640 <irq_remove_handler+0x188>)
10004504:	6812      	ldr	r2, [r2, #0]
10004506:	4011      	ands	r1, r2
10004508:	9101      	str	r1, [sp, #4]
1000450a:	4651      	mov	r1, sl
1000450c:	4a4d      	ldr	r2, [pc, #308]	; (10004644 <irq_remove_handler+0x18c>)
1000450e:	6011      	str	r1, [r2, #0]
10004510:	f3bf 8f5f 	dmb	sy
10004514:	f3ef 8205 	mrs	r2, IPSR
10004518:	4693      	mov	fp, r2
1000451a:	2a00      	cmp	r2, #0
1000451c:	d133      	bne.n	10004586 <irq_remove_handler+0xce>
1000451e:	2301      	movs	r3, #1
10004520:	002a      	movs	r2, r5
10004522:	439a      	bics	r2, r3
10004524:	6893      	ldr	r3, [r2, #8]
10004526:	429c      	cmp	r4, r3
10004528:	d108      	bne.n	1000453c <irq_remove_handler+0x84>
1000452a:	e077      	b.n	1000461c <irq_remove_handler+0x164>
1000452c:	004b      	lsls	r3, r1, #1
1000452e:	185b      	adds	r3, r3, r1
10004530:	009b      	lsls	r3, r3, #2
10004532:	18f3      	adds	r3, r6, r3
10004534:	6899      	ldr	r1, [r3, #8]
10004536:	42a1      	cmp	r1, r4
10004538:	d02a      	beq.n	10004590 <irq_remove_handler+0xd8>
1000453a:	001a      	movs	r2, r3
1000453c:	2106      	movs	r1, #6
1000453e:	5651      	ldrsb	r1, [r2, r1]
10004540:	2900      	cmp	r1, #0
10004542:	daf3      	bge.n	1000452c <irq_remove_handler+0x74>
10004544:	9b01      	ldr	r3, [sp, #4]
10004546:	2b00      	cmp	r3, #0
10004548:	d019      	beq.n	1000457e <irq_remove_handler+0xc6>
1000454a:	4652      	mov	r2, sl
1000454c:	4b3e      	ldr	r3, [pc, #248]	; (10004648 <irq_remove_handler+0x190>)
1000454e:	601a      	str	r2, [r3, #0]
10004550:	4b3b      	ldr	r3, [pc, #236]	; (10004640 <irq_remove_handler+0x188>)
10004552:	601a      	str	r2, [r3, #0]
10004554:	4b37      	ldr	r3, [pc, #220]	; (10004634 <irq_remove_handler+0x17c>)
10004556:	689b      	ldr	r3, [r3, #8]
10004558:	51dd      	str	r5, [r3, r7]
1000455a:	f3bf 8f5f 	dmb	sy
1000455e:	f3bf 8f5f 	dmb	sy
10004562:	2200      	movs	r2, #0
10004564:	4b32      	ldr	r3, [pc, #200]	; (10004630 <irq_remove_handler+0x178>)
10004566:	601a      	str	r2, [r3, #0]
10004568:	f389 8810 	msr	PRIMASK, r9
1000456c:	b003      	add	sp, #12
1000456e:	bcf0      	pop	{r4, r5, r6, r7}
10004570:	46bb      	mov	fp, r7
10004572:	46b2      	mov	sl, r6
10004574:	46a9      	mov	r9, r5
10004576:	46a0      	mov	r8, r4
10004578:	bdf0      	pop	{r4, r5, r6, r7, pc}
1000457a:	0015      	movs	r5, r2
1000457c:	e7ea      	b.n	10004554 <irq_remove_handler+0x9c>
1000457e:	4652      	mov	r2, sl
10004580:	4b30      	ldr	r3, [pc, #192]	; (10004644 <irq_remove_handler+0x18c>)
10004582:	601a      	str	r2, [r3, #0]
10004584:	e7e6      	b.n	10004554 <irq_remove_handler+0x9c>
10004586:	4293      	cmp	r3, r2
10004588:	d0c9      	beq.n	1000451e <irq_remove_handler+0x66>
1000458a:	f001 fc7d 	bl	10005e88 <hard_assertion_failure>
1000458e:	e7c6      	b.n	1000451e <irq_remove_handler+0x66>
10004590:	2106      	movs	r1, #6
10004592:	5659      	ldrsb	r1, [r3, r1]
10004594:	2900      	cmp	r1, #0
10004596:	db21      	blt.n	100045dc <irq_remove_handler+0x124>
10004598:	004a      	lsls	r2, r1, #1
1000459a:	1850      	adds	r0, r2, r1
1000459c:	0080      	lsls	r0, r0, #2
1000459e:	1834      	adds	r4, r6, r0
100045a0:	4680      	mov	r8, r0
100045a2:	68a0      	ldr	r0, [r4, #8]
100045a4:	6098      	str	r0, [r3, #8]
100045a6:	79e0      	ldrb	r0, [r4, #7]
100045a8:	71d8      	strb	r0, [r3, #7]
100045aa:	2006      	movs	r0, #6
100045ac:	5620      	ldrsb	r0, [r4, r0]
100045ae:	7198      	strb	r0, [r3, #6]
100045b0:	2800      	cmp	r0, #0
100045b2:	db24      	blt.n	100045fe <irq_remove_handler+0x146>
100045b4:	88a4      	ldrh	r4, [r4, #4]
100045b6:	1af0      	subs	r0, r6, r3
100045b8:	0564      	lsls	r4, r4, #21
100045ba:	1524      	asrs	r4, r4, #20
100045bc:	4444      	add	r4, r8
100045be:	1900      	adds	r0, r0, r4
100045c0:	24e0      	movs	r4, #224	; 0xe0
100045c2:	0500      	lsls	r0, r0, #20
100045c4:	0d40      	lsrs	r0, r0, #21
100045c6:	0224      	lsls	r4, r4, #8
100045c8:	4320      	orrs	r0, r4
100045ca:	8098      	strh	r0, [r3, #4]
100045cc:	4b1f      	ldr	r3, [pc, #124]	; (1000464c <irq_remove_handler+0x194>)
100045ce:	1852      	adds	r2, r2, r1
100045d0:	7818      	ldrb	r0, [r3, #0]
100045d2:	0092      	lsls	r2, r2, #2
100045d4:	18b2      	adds	r2, r6, r2
100045d6:	7190      	strb	r0, [r2, #6]
100045d8:	7019      	strb	r1, [r3, #0]
100045da:	e7b3      	b.n	10004544 <irq_remove_handler+0x8c>
100045dc:	4659      	mov	r1, fp
100045de:	2900      	cmp	r1, #0
100045e0:	d10f      	bne.n	10004602 <irq_remove_handler+0x14a>
100045e2:	31ff      	adds	r1, #255	; 0xff
100045e4:	7191      	strb	r1, [r2, #6]
100045e6:	491a      	ldr	r1, [pc, #104]	; (10004650 <irq_remove_handler+0x198>)
100045e8:	8091      	strh	r1, [r2, #4]
100045ea:	4918      	ldr	r1, [pc, #96]	; (1000464c <irq_remove_handler+0x194>)
100045ec:	780a      	ldrb	r2, [r1, #0]
100045ee:	719a      	strb	r2, [r3, #6]
100045f0:	4a18      	ldr	r2, [pc, #96]	; (10004654 <irq_remove_handler+0x19c>)
100045f2:	1b9b      	subs	r3, r3, r6
100045f4:	415b      	adcs	r3, r3
100045f6:	435a      	muls	r2, r3
100045f8:	0d12      	lsrs	r2, r2, #20
100045fa:	700a      	strb	r2, [r1, #0]
100045fc:	e7a2      	b.n	10004544 <irq_remove_handler+0x8c>
100045fe:	4816      	ldr	r0, [pc, #88]	; (10004658 <irq_remove_handler+0x1a0>)
10004600:	e7e3      	b.n	100045ca <irq_remove_handler+0x112>
10004602:	4a16      	ldr	r2, [pc, #88]	; (1000465c <irq_remove_handler+0x1a4>)
10004604:	4916      	ldr	r1, [pc, #88]	; (10004660 <irq_remove_handler+0x1a8>)
10004606:	1ad2      	subs	r2, r2, r3
10004608:	3a08      	subs	r2, #8
1000460a:	0250      	lsls	r0, r2, #9
1000460c:	0d40      	lsrs	r0, r0, #21
1000460e:	4301      	orrs	r1, r0
10004610:	8099      	strh	r1, [r3, #4]
10004612:	4914      	ldr	r1, [pc, #80]	; (10004664 <irq_remove_handler+0x1ac>)
10004614:	0852      	lsrs	r2, r2, #1
10004616:	430a      	orrs	r2, r1
10004618:	80da      	strh	r2, [r3, #6]
1000461a:	e793      	b.n	10004544 <irq_remove_handler+0x8c>
1000461c:	2106      	movs	r1, #6
1000461e:	5651      	ldrsb	r1, [r2, r1]
10004620:	0013      	movs	r3, r2
10004622:	2900      	cmp	r1, #0
10004624:	dab8      	bge.n	10004598 <irq_remove_handler+0xe0>
10004626:	465a      	mov	r2, fp
10004628:	2a00      	cmp	r2, #0
1000462a:	d1ea      	bne.n	10004602 <irq_remove_handler+0x14a>
1000462c:	4645      	mov	r5, r8
1000462e:	e7dc      	b.n	100045ea <irq_remove_handler+0x132>
10004630:	d0000124 	.word	0xd0000124
10004634:	e000ed00 	.word	0xe000ed00
10004638:	100001cd 	.word	0x100001cd
1000463c:	20000dd4 	.word	0x20000dd4
10004640:	e000e100 	.word	0xe000e100
10004644:	e000e180 	.word	0xe000e180
10004648:	e000e280 	.word	0xe000e280
1000464c:	200021ab 	.word	0x200021ab
10004650:	ffffbd01 	.word	0xffffbd01
10004654:	0000aaaa 	.word	0x0000aaaa
10004658:	0000bd01 	.word	0x0000bd01
1000465c:	20000e0e 	.word	0x20000e0e
10004660:	fffff000 	.word	0xfffff000
10004664:	fffff800 	.word	0xfffff800

10004668 <irq_add_tail_to_free_list>:
10004668:	b570      	push	{r4, r5, r6, lr}
1000466a:	f3ef 8105 	mrs	r1, IPSR
1000466e:	2401      	movs	r4, #1
10004670:	4304      	orrs	r4, r0
10004672:	f3ef 8c10 	mrs	ip, PRIMASK
10004676:	b672      	cpsid	i
10004678:	4a21      	ldr	r2, [pc, #132]	; (10004700 <irq_add_tail_to_free_list+0x98>)
1000467a:	6813      	ldr	r3, [r2, #0]
1000467c:	2b00      	cmp	r3, #0
1000467e:	d0fc      	beq.n	1000467a <irq_add_tail_to_free_list+0x12>
10004680:	f3bf 8f5f 	dmb	sy
10004684:	4b1f      	ldr	r3, [pc, #124]	; (10004704 <irq_add_tail_to_free_list+0x9c>)
10004686:	0005      	movs	r5, r0
10004688:	4a1f      	ldr	r2, [pc, #124]	; (10004708 <irq_add_tail_to_free_list+0xa0>)
1000468a:	1aed      	subs	r5, r5, r3
1000468c:	416d      	adcs	r5, r5
1000468e:	436a      	muls	r2, r5
10004690:	0d12      	lsrs	r2, r2, #20
10004692:	4d1e      	ldr	r5, [pc, #120]	; (1000470c <irq_add_tail_to_free_list+0xa4>)
10004694:	0089      	lsls	r1, r1, #2
10004696:	68ae      	ldr	r6, [r5, #8]
10004698:	b252      	sxtb	r2, r2
1000469a:	5876      	ldr	r6, [r6, r1]
1000469c:	42a6      	cmp	r6, r4
1000469e:	d01c      	beq.n	100046da <irq_add_tail_to_free_list+0x72>
100046a0:	2106      	movs	r1, #6
100046a2:	5659      	ldrsb	r1, [r3, r1]
100046a4:	4291      	cmp	r1, r2
100046a6:	d01c      	beq.n	100046e2 <irq_add_tail_to_free_list+0x7a>
100046a8:	2112      	movs	r1, #18
100046aa:	5659      	ldrsb	r1, [r3, r1]
100046ac:	4291      	cmp	r1, r2
100046ae:	d022      	beq.n	100046f6 <irq_add_tail_to_free_list+0x8e>
100046b0:	211e      	movs	r1, #30
100046b2:	5659      	ldrsb	r1, [r3, r1]
100046b4:	4291      	cmp	r1, r2
100046b6:	d020      	beq.n	100046fa <irq_add_tail_to_free_list+0x92>
100046b8:	212a      	movs	r1, #42	; 0x2a
100046ba:	5659      	ldrsb	r1, [r3, r1]
100046bc:	2403      	movs	r4, #3
100046be:	4291      	cmp	r1, r2
100046c0:	d010      	beq.n	100046e4 <irq_add_tail_to_free_list+0x7c>
100046c2:	4b13      	ldr	r3, [pc, #76]	; (10004710 <irq_add_tail_to_free_list+0xa8>)
100046c4:	7819      	ldrb	r1, [r3, #0]
100046c6:	701a      	strb	r2, [r3, #0]
100046c8:	7181      	strb	r1, [r0, #6]
100046ca:	f3bf 8f5f 	dmb	sy
100046ce:	2200      	movs	r2, #0
100046d0:	4b0b      	ldr	r3, [pc, #44]	; (10004700 <irq_add_tail_to_free_list+0x98>)
100046d2:	601a      	str	r2, [r3, #0]
100046d4:	f38c 8810 	msr	PRIMASK, ip
100046d8:	bd70      	pop	{r4, r5, r6, pc}
100046da:	68ab      	ldr	r3, [r5, #8]
100046dc:	4c0d      	ldr	r4, [pc, #52]	; (10004714 <irq_add_tail_to_free_list+0xac>)
100046de:	505c      	str	r4, [r3, r1]
100046e0:	e7ef      	b.n	100046c2 <irq_add_tail_to_free_list+0x5a>
100046e2:	2400      	movs	r4, #0
100046e4:	0061      	lsls	r1, r4, #1
100046e6:	1909      	adds	r1, r1, r4
100046e8:	0089      	lsls	r1, r1, #2
100046ea:	185b      	adds	r3, r3, r1
100046ec:	21ff      	movs	r1, #255	; 0xff
100046ee:	7199      	strb	r1, [r3, #6]
100046f0:	4909      	ldr	r1, [pc, #36]	; (10004718 <irq_add_tail_to_free_list+0xb0>)
100046f2:	8099      	strh	r1, [r3, #4]
100046f4:	e7e5      	b.n	100046c2 <irq_add_tail_to_free_list+0x5a>
100046f6:	2401      	movs	r4, #1
100046f8:	e7f4      	b.n	100046e4 <irq_add_tail_to_free_list+0x7c>
100046fa:	2402      	movs	r4, #2
100046fc:	e7f2      	b.n	100046e4 <irq_add_tail_to_free_list+0x7c>
100046fe:	46c0      	nop			; (mov r8, r8)
10004700:	d0000124 	.word	0xd0000124
10004704:	20000dd4 	.word	0x20000dd4
10004708:	0000aaaa 	.word	0x0000aaaa
1000470c:	e000ed00 	.word	0xe000ed00
10004710:	200021ab 	.word	0x200021ab
10004714:	100001cd 	.word	0x100001cd
10004718:	ffffbd01 	.word	0xffffbd01

1000471c <irq_init_priorities>:
1000471c:	4b05      	ldr	r3, [pc, #20]	; (10004734 <irq_init_priorities+0x18>)
1000471e:	4a06      	ldr	r2, [pc, #24]	; (10004738 <irq_init_priorities+0x1c>)
10004720:	6013      	str	r3, [r2, #0]
10004722:	4a06      	ldr	r2, [pc, #24]	; (1000473c <irq_init_priorities+0x20>)
10004724:	6013      	str	r3, [r2, #0]
10004726:	6053      	str	r3, [r2, #4]
10004728:	6093      	str	r3, [r2, #8]
1000472a:	60d3      	str	r3, [r2, #12]
1000472c:	6113      	str	r3, [r2, #16]
1000472e:	6153      	str	r3, [r2, #20]
10004730:	6193      	str	r3, [r2, #24]
10004732:	4770      	bx	lr
10004734:	80808080 	.word	0x80808080
10004738:	e000e400 	.word	0xe000e400
1000473c:	e000e404 	.word	0xe000e404

10004740 <user_irq_claim_unused>:
10004740:	b510      	push	{r4, lr}
10004742:	4b08      	ldr	r3, [pc, #32]	; (10004764 <user_irq_claim_unused+0x24>)
10004744:	4c08      	ldr	r4, [pc, #32]	; (10004768 <user_irq_claim_unused+0x28>)
10004746:	b082      	sub	sp, #8
10004748:	0001      	movs	r1, r0
1000474a:	9300      	str	r3, [sp, #0]
1000474c:	2200      	movs	r2, #0
1000474e:	2305      	movs	r3, #5
10004750:	0020      	movs	r0, r4
10004752:	f7ff fce3 	bl	1000411c <hw_claim_unused_from_range>
10004756:	2800      	cmp	r0, #0
10004758:	db01      	blt.n	1000475e <user_irq_claim_unused+0x1e>
1000475a:	231f      	movs	r3, #31
1000475c:	1a18      	subs	r0, r3, r0
1000475e:	b002      	add	sp, #8
10004760:	bd10      	pop	{r4, pc}
10004762:	46c0      	nop			; (mov r8, r8)
10004764:	10009728 	.word	0x10009728
10004768:	200021b1 	.word	0x200021b1

1000476c <lock_init>:
1000476c:	4b02      	ldr	r3, [pc, #8]	; (10004778 <lock_init+0xc>)
1000476e:	469c      	mov	ip, r3
10004770:	4461      	add	r1, ip
10004772:	0089      	lsls	r1, r1, #2
10004774:	6001      	str	r1, [r0, #0]
10004776:	4770      	bx	lr
10004778:	34000040 	.word	0x34000040

1000477c <mutex_init>:
1000477c:	b510      	push	{r4, lr}
1000477e:	0004      	movs	r4, r0
10004780:	f7ff fd28 	bl	100041d4 <next_striped_spin_lock_num>
10004784:	0001      	movs	r1, r0
10004786:	0020      	movs	r0, r4
10004788:	f7ff fff0 	bl	1000476c <lock_init>
1000478c:	23ff      	movs	r3, #255	; 0xff
1000478e:	7123      	strb	r3, [r4, #4]
10004790:	f3bf 8f5f 	dmb	sy
10004794:	bd10      	pop	{r4, pc}
10004796:	46c0      	nop			; (mov r8, r8)

10004798 <recursive_mutex_init>:
10004798:	b510      	push	{r4, lr}
1000479a:	0004      	movs	r4, r0
1000479c:	f7ff fd1a 	bl	100041d4 <next_striped_spin_lock_num>
100047a0:	0001      	movs	r1, r0
100047a2:	0020      	movs	r0, r4
100047a4:	f7ff ffe2 	bl	1000476c <lock_init>
100047a8:	23ff      	movs	r3, #255	; 0xff
100047aa:	80a3      	strh	r3, [r4, #4]
100047ac:	f3bf 8f5f 	dmb	sy
100047b0:	bd10      	pop	{r4, pc}
100047b2:	46c0      	nop			; (mov r8, r8)

100047b4 <critical_section_init>:
100047b4:	b510      	push	{r4, lr}
100047b6:	0004      	movs	r4, r0
100047b8:	2001      	movs	r0, #1
100047ba:	f7ff fd17 	bl	100041ec <spin_lock_claim_unused>
100047be:	4b04      	ldr	r3, [pc, #16]	; (100047d0 <critical_section_init+0x1c>)
100047c0:	469c      	mov	ip, r3
100047c2:	4460      	add	r0, ip
100047c4:	0080      	lsls	r0, r0, #2
100047c6:	6020      	str	r0, [r4, #0]
100047c8:	f3bf 8f5f 	dmb	sy
100047cc:	bd10      	pop	{r4, pc}
100047ce:	46c0      	nop			; (mov r8, r8)
100047d0:	34000040 	.word	0x34000040

100047d4 <critical_section_init_with_lock_num>:
100047d4:	4b03      	ldr	r3, [pc, #12]	; (100047e4 <critical_section_init_with_lock_num+0x10>)
100047d6:	469c      	mov	ip, r3
100047d8:	4461      	add	r1, ip
100047da:	0089      	lsls	r1, r1, #2
100047dc:	6001      	str	r1, [r0, #0]
100047de:	f3bf 8f5f 	dmb	sy
100047e2:	4770      	bx	lr
100047e4:	34000040 	.word	0x34000040

100047e8 <timer_pool_entry_comparator>:
100047e8:	6883      	ldr	r3, [r0, #8]
100047ea:	480b      	ldr	r0, [pc, #44]	; (10004818 <timer_pool_entry_comparator+0x30>)
100047ec:	b510      	push	{r4, lr}
100047ee:	4684      	mov	ip, r0
100047f0:	4461      	add	r1, ip
100047f2:	4462      	add	r2, ip
100047f4:	0112      	lsls	r2, r2, #4
100047f6:	0109      	lsls	r1, r1, #4
100047f8:	1859      	adds	r1, r3, r1
100047fa:	189b      	adds	r3, r3, r2
100047fc:	685c      	ldr	r4, [r3, #4]
100047fe:	684a      	ldr	r2, [r1, #4]
10004800:	2001      	movs	r0, #1
10004802:	4294      	cmp	r4, r2
10004804:	d801      	bhi.n	1000480a <timer_pool_entry_comparator+0x22>
10004806:	d002      	beq.n	1000480e <timer_pool_entry_comparator+0x26>
10004808:	2000      	movs	r0, #0
1000480a:	b2c0      	uxtb	r0, r0
1000480c:	bd10      	pop	{r4, pc}
1000480e:	681a      	ldr	r2, [r3, #0]
10004810:	680b      	ldr	r3, [r1, #0]
10004812:	429a      	cmp	r2, r3
10004814:	d8f9      	bhi.n	1000480a <timer_pool_entry_comparator+0x22>
10004816:	e7f7      	b.n	10004808 <timer_pool_entry_comparator+0x20>
10004818:	0fffffff 	.word	0x0fffffff

1000481c <repeating_timer_callback>:
1000481c:	b510      	push	{r4, lr}
1000481e:	0008      	movs	r0, r1
10004820:	690b      	ldr	r3, [r1, #16]
10004822:	000c      	movs	r4, r1
10004824:	4798      	blx	r3
10004826:	2800      	cmp	r0, #0
10004828:	d002      	beq.n	10004830 <repeating_timer_callback+0x14>
1000482a:	6820      	ldr	r0, [r4, #0]
1000482c:	6861      	ldr	r1, [r4, #4]
1000482e:	bd10      	pop	{r4, pc}
10004830:	60e0      	str	r0, [r4, #12]
10004832:	2100      	movs	r1, #0
10004834:	2000      	movs	r0, #0
10004836:	e7fa      	b.n	1000482e <repeating_timer_callback+0x12>

10004838 <sleep_until_callback>:
10004838:	4b0a      	ldr	r3, [pc, #40]	; (10004864 <sleep_until_callback+0x2c>)
1000483a:	6819      	ldr	r1, [r3, #0]
1000483c:	f3ef 8010 	mrs	r0, PRIMASK
10004840:	b672      	cpsid	i
10004842:	680a      	ldr	r2, [r1, #0]
10004844:	2a00      	cmp	r2, #0
10004846:	d0fc      	beq.n	10004842 <sleep_until_callback+0xa>
10004848:	f3bf 8f5f 	dmb	sy
1000484c:	681b      	ldr	r3, [r3, #0]
1000484e:	f3bf 8f5f 	dmb	sy
10004852:	2200      	movs	r2, #0
10004854:	601a      	str	r2, [r3, #0]
10004856:	f380 8810 	msr	PRIMASK, r0
1000485a:	bf40      	sev
1000485c:	2000      	movs	r0, #0
1000485e:	2100      	movs	r1, #0
10004860:	4770      	bx	lr
10004862:	46c0      	nop			; (mov r8, r8)
10004864:	20002150 	.word	0x20002150

10004868 <add_alarm_under_lock.isra.0>:
10004868:	b5f8      	push	{r3, r4, r5, r6, r7, lr}
1000486a:	4657      	mov	r7, sl
1000486c:	4645      	mov	r5, r8
1000486e:	464e      	mov	r6, r9
10004870:	46de      	mov	lr, fp
10004872:	b5e0      	push	{r5, r6, r7, lr}
10004874:	4699      	mov	r9, r3
10004876:	ab0c      	add	r3, sp, #48	; 0x30
10004878:	781c      	ldrb	r4, [r3, #0]
1000487a:	ab0d      	add	r3, sp, #52	; 0x34
1000487c:	781b      	ldrb	r3, [r3, #0]
1000487e:	0007      	movs	r7, r0
10004880:	4690      	mov	r8, r2
10004882:	469a      	mov	sl, r3
10004884:	6805      	ldr	r5, [r0, #0]
10004886:	2c00      	cmp	r4, #0
10004888:	d144      	bne.n	10004914 <add_alarm_under_lock.isra.0+0xac>
1000488a:	7bac      	ldrb	r4, [r5, #14]
1000488c:	2c00      	cmp	r4, #0
1000488e:	d03b      	beq.n	10004908 <add_alarm_under_lock.isra.0+0xa0>
10004890:	0066      	lsls	r6, r4, #1
10004892:	6829      	ldr	r1, [r5, #0]
10004894:	1936      	adds	r6, r6, r4
10004896:	3e03      	subs	r6, #3
10004898:	1989      	adds	r1, r1, r6
1000489a:	784b      	ldrb	r3, [r1, #1]
1000489c:	73ab      	strb	r3, [r5, #14]
1000489e:	2b00      	cmp	r3, #0
100048a0:	d100      	bne.n	100048a4 <add_alarm_under_lock.isra.0+0x3c>
100048a2:	73eb      	strb	r3, [r5, #15]
100048a4:	2300      	movs	r3, #0
100048a6:	708b      	strb	r3, [r1, #2]
100048a8:	704b      	strb	r3, [r1, #1]
100048aa:	700b      	strb	r3, [r1, #0]
100048ac:	4b2e      	ldr	r3, [pc, #184]	; (10004968 <add_alarm_under_lock.isra.0+0x100>)
100048ae:	18e2      	adds	r2, r4, r3
100048b0:	68bb      	ldr	r3, [r7, #8]
100048b2:	0112      	lsls	r2, r2, #4
100048b4:	189b      	adds	r3, r3, r2
100048b6:	4642      	mov	r2, r8
100048b8:	601a      	str	r2, [r3, #0]
100048ba:	464a      	mov	r2, r9
100048bc:	605a      	str	r2, [r3, #4]
100048be:	9a0a      	ldr	r2, [sp, #40]	; 0x28
100048c0:	609a      	str	r2, [r3, #8]
100048c2:	9a0b      	ldr	r2, [sp, #44]	; 0x2c
100048c4:	60da      	str	r2, [r3, #12]
100048c6:	2300      	movs	r3, #0
100048c8:	708b      	strb	r3, [r1, #2]
100048ca:	704b      	strb	r3, [r1, #1]
100048cc:	700b      	strb	r3, [r1, #0]
100048ce:	7b6b      	ldrb	r3, [r5, #13]
100048d0:	469b      	mov	fp, r3
100048d2:	2b00      	cmp	r3, #0
100048d4:	d032      	beq.n	1000493c <add_alarm_under_lock.isra.0+0xd4>
100048d6:	0022      	movs	r2, r4
100048d8:	4659      	mov	r1, fp
100048da:	68a8      	ldr	r0, [r5, #8]
100048dc:	686b      	ldr	r3, [r5, #4]
100048de:	4798      	blx	r3
100048e0:	2800      	cmp	r0, #0
100048e2:	d01d      	beq.n	10004920 <add_alarm_under_lock.isra.0+0xb8>
100048e4:	465b      	mov	r3, fp
100048e6:	4658      	mov	r0, fp
100048e8:	6829      	ldr	r1, [r5, #0]
100048ea:	005b      	lsls	r3, r3, #1
100048ec:	445b      	add	r3, fp
100048ee:	198e      	adds	r6, r1, r6
100048f0:	3b03      	subs	r3, #3
100048f2:	70b0      	strb	r0, [r6, #2]
100048f4:	18ca      	adds	r2, r1, r3
100048f6:	5ccb      	ldrb	r3, [r1, r3]
100048f8:	2b00      	cmp	r3, #0
100048fa:	d000      	beq.n	100048fe <add_alarm_under_lock.isra.0+0x96>
100048fc:	7073      	strb	r3, [r6, #1]
100048fe:	465b      	mov	r3, fp
10004900:	7014      	strb	r4, [r2, #0]
10004902:	736b      	strb	r3, [r5, #13]
10004904:	455c      	cmp	r4, fp
10004906:	d01a      	beq.n	1000493e <add_alarm_under_lock.isra.0+0xd6>
10004908:	bcf0      	pop	{r4, r5, r6, r7}
1000490a:	46bb      	mov	fp, r7
1000490c:	46b2      	mov	sl, r6
1000490e:	46a9      	mov	r9, r5
10004910:	46a0      	mov	r8, r4
10004912:	bdf8      	pop	{r3, r4, r5, r6, r7, pc}
10004914:	0066      	lsls	r6, r4, #1
10004916:	6829      	ldr	r1, [r5, #0]
10004918:	1936      	adds	r6, r6, r4
1000491a:	3e03      	subs	r6, #3
1000491c:	1989      	adds	r1, r1, r6
1000491e:	e7c5      	b.n	100048ac <add_alarm_under_lock.isra.0+0x44>
10004920:	465b      	mov	r3, fp
10004922:	005b      	lsls	r3, r3, #1
10004924:	682a      	ldr	r2, [r5, #0]
10004926:	445b      	add	r3, fp
10004928:	3b03      	subs	r3, #3
1000492a:	18d3      	adds	r3, r2, r3
1000492c:	709c      	strb	r4, [r3, #2]
1000492e:	1991      	adds	r1, r2, r6
10004930:	5d92      	ldrb	r2, [r2, r6]
10004932:	2a00      	cmp	r2, #0
10004934:	d000      	beq.n	10004938 <add_alarm_under_lock.isra.0+0xd0>
10004936:	705a      	strb	r2, [r3, #1]
10004938:	465b      	mov	r3, fp
1000493a:	700b      	strb	r3, [r1, #0]
1000493c:	736c      	strb	r4, [r5, #13]
1000493e:	4642      	mov	r2, r8
10004940:	464b      	mov	r3, r9
10004942:	7d38      	ldrb	r0, [r7, #20]
10004944:	f000 fcc2 	bl	100052cc <hardware_alarm_set_target>
10004948:	1e05      	subs	r5, r0, #0
1000494a:	d002      	beq.n	10004952 <add_alarm_under_lock.isra.0+0xea>
1000494c:	4653      	mov	r3, sl
1000494e:	2b00      	cmp	r3, #0
10004950:	d004      	beq.n	1000495c <add_alarm_under_lock.isra.0+0xf4>
10004952:	9b0e      	ldr	r3, [sp, #56]	; 0x38
10004954:	2b00      	cmp	r3, #0
10004956:	d0d7      	beq.n	10004908 <add_alarm_under_lock.isra.0+0xa0>
10004958:	701d      	strb	r5, [r3, #0]
1000495a:	e7d5      	b.n	10004908 <add_alarm_under_lock.isra.0+0xa0>
1000495c:	0021      	movs	r1, r4
1000495e:	6838      	ldr	r0, [r7, #0]
10004960:	f000 fee4 	bl	1000572c <ph_remove_and_free_node>
10004964:	e7f5      	b.n	10004952 <add_alarm_under_lock.isra.0+0xea>
10004966:	46c0      	nop			; (mov r8, r8)
10004968:	0fffffff 	.word	0x0fffffff

1000496c <alarm_pool_alarm_callback>:
1000496c:	b5f0      	push	{r4, r5, r6, r7, lr}
1000496e:	46de      	mov	lr, fp
10004970:	4657      	mov	r7, sl
10004972:	464e      	mov	r6, r9
10004974:	4645      	mov	r5, r8
10004976:	2300      	movs	r3, #0
10004978:	b5e0      	push	{r5, r6, r7, lr}
1000497a:	b08b      	sub	sp, #44	; 0x2c
1000497c:	9308      	str	r3, [sp, #32]
1000497e:	4b67      	ldr	r3, [pc, #412]	; (10004b1c <alarm_pool_alarm_callback+0x1b0>)
10004980:	0082      	lsls	r2, r0, #2
10004982:	58d4      	ldr	r4, [r2, r3]
10004984:	2300      	movs	r3, #0
10004986:	469b      	mov	fp, r3
10004988:	9009      	str	r0, [sp, #36]	; 0x24
1000498a:	f000 fc3f 	bl	1000520c <time_us_64>
1000498e:	6862      	ldr	r2, [r4, #4]
10004990:	0006      	movs	r6, r0
10004992:	000f      	movs	r7, r1
10004994:	f3ef 8510 	mrs	r5, PRIMASK
10004998:	b672      	cpsid	i
1000499a:	6813      	ldr	r3, [r2, #0]
1000499c:	2b00      	cmp	r3, #0
1000499e:	d0fc      	beq.n	1000499a <alarm_pool_alarm_callback+0x2e>
100049a0:	f3bf 8f5f 	dmb	sy
100049a4:	6823      	ldr	r3, [r4, #0]
100049a6:	469c      	mov	ip, r3
100049a8:	7b5b      	ldrb	r3, [r3, #13]
100049aa:	4699      	mov	r9, r3
100049ac:	2b00      	cmp	r3, #0
100049ae:	d067      	beq.n	10004a80 <alarm_pool_alarm_callback+0x114>
100049b0:	68a2      	ldr	r2, [r4, #8]
100049b2:	4b5b      	ldr	r3, [pc, #364]	; (10004b20 <alarm_pool_alarm_callback+0x1b4>)
100049b4:	4690      	mov	r8, r2
100049b6:	444b      	add	r3, r9
100049b8:	011b      	lsls	r3, r3, #4
100049ba:	4498      	add	r8, r3
100049bc:	4643      	mov	r3, r8
100049be:	681a      	ldr	r2, [r3, #0]
100049c0:	685b      	ldr	r3, [r3, #4]
100049c2:	0010      	movs	r0, r2
100049c4:	0019      	movs	r1, r3
100049c6:	1b80      	subs	r0, r0, r6
100049c8:	41b9      	sbcs	r1, r7
100049ca:	2900      	cmp	r1, #0
100049cc:	dd62      	ble.n	10004a94 <alarm_pool_alarm_callback+0x128>
100049ce:	9809      	ldr	r0, [sp, #36]	; 0x24
100049d0:	f000 fc7c 	bl	100052cc <hardware_alarm_set_target>
100049d4:	2300      	movs	r3, #0
100049d6:	2200      	movs	r2, #0
100049d8:	4698      	mov	r8, r3
100049da:	2300      	movs	r3, #0
100049dc:	9206      	str	r2, [sp, #24]
100049de:	9307      	str	r3, [sp, #28]
100049e0:	2300      	movs	r3, #0
100049e2:	469a      	mov	sl, r3
100049e4:	6863      	ldr	r3, [r4, #4]
100049e6:	f3bf 8f5f 	dmb	sy
100049ea:	465a      	mov	r2, fp
100049ec:	601a      	str	r2, [r3, #0]
100049ee:	f385 8810 	msr	PRIMASK, r5
100049f2:	4653      	mov	r3, sl
100049f4:	2b00      	cmp	r3, #0
100049f6:	d108      	bne.n	10004a0a <alarm_pool_alarm_callback+0x9e>
100049f8:	2800      	cmp	r0, #0
100049fa:	d1c6      	bne.n	1000498a <alarm_pool_alarm_callback+0x1e>
100049fc:	b00b      	add	sp, #44	; 0x2c
100049fe:	bcf0      	pop	{r4, r5, r6, r7}
10004a00:	46bb      	mov	fp, r7
10004a02:	46b2      	mov	sl, r6
10004a04:	46a9      	mov	r9, r5
10004a06:	46a0      	mov	r8, r4
10004a08:	bdf0      	pop	{r4, r5, r6, r7, pc}
10004a0a:	9b08      	ldr	r3, [sp, #32]
10004a0c:	4641      	mov	r1, r8
10004a0e:	0218      	lsls	r0, r3, #8
10004a10:	464b      	mov	r3, r9
10004a12:	4318      	orrs	r0, r3
10004a14:	47d0      	blx	sl
10004a16:	6862      	ldr	r2, [r4, #4]
10004a18:	0006      	movs	r6, r0
10004a1a:	000f      	movs	r7, r1
10004a1c:	f3ef 8510 	mrs	r5, PRIMASK
10004a20:	b672      	cpsid	i
10004a22:	6813      	ldr	r3, [r2, #0]
10004a24:	2b00      	cmp	r3, #0
10004a26:	d0fc      	beq.n	10004a22 <alarm_pool_alarm_callback+0xb6>
10004a28:	f3bf 8f5f 	dmb	sy
10004a2c:	2f00      	cmp	r7, #0
10004a2e:	db4e      	blt.n	10004ace <alarm_pool_alarm_callback+0x162>
10004a30:	0033      	movs	r3, r6
10004a32:	433b      	orrs	r3, r7
10004a34:	d002      	beq.n	10004a3c <alarm_pool_alarm_callback+0xd0>
10004a36:	6923      	ldr	r3, [r4, #16]
10004a38:	2b00      	cmp	r3, #0
10004a3a:	d164      	bne.n	10004b06 <alarm_pool_alarm_callback+0x19a>
10004a3c:	6823      	ldr	r3, [r4, #0]
10004a3e:	7bd9      	ldrb	r1, [r3, #15]
10004a40:	2900      	cmp	r1, #0
10004a42:	d006      	beq.n	10004a52 <alarm_pool_alarm_callback+0xe6>
10004a44:	681a      	ldr	r2, [r3, #0]
10004a46:	0048      	lsls	r0, r1, #1
10004a48:	1841      	adds	r1, r0, r1
10004a4a:	1852      	adds	r2, r2, r1
10004a4c:	4649      	mov	r1, r9
10004a4e:	3a03      	subs	r2, #3
10004a50:	7051      	strb	r1, [r2, #1]
10004a52:	7b9a      	ldrb	r2, [r3, #14]
10004a54:	2a00      	cmp	r2, #0
10004a56:	d101      	bne.n	10004a5c <alarm_pool_alarm_callback+0xf0>
10004a58:	464a      	mov	r2, r9
10004a5a:	739a      	strb	r2, [r3, #14]
10004a5c:	464a      	mov	r2, r9
10004a5e:	73da      	strb	r2, [r3, #15]
10004a60:	464b      	mov	r3, r9
10004a62:	68e1      	ldr	r1, [r4, #12]
10004a64:	3b01      	subs	r3, #1
10004a66:	5cca      	ldrb	r2, [r1, r3]
10004a68:	3201      	adds	r2, #1
10004a6a:	54ca      	strb	r2, [r1, r3]
10004a6c:	465b      	mov	r3, fp
10004a6e:	6123      	str	r3, [r4, #16]
10004a70:	6863      	ldr	r3, [r4, #4]
10004a72:	f3bf 8f5f 	dmb	sy
10004a76:	465a      	mov	r2, fp
10004a78:	601a      	str	r2, [r3, #0]
10004a7a:	f385 8810 	msr	PRIMASK, r5
10004a7e:	e784      	b.n	1000498a <alarm_pool_alarm_callback+0x1e>
10004a80:	2300      	movs	r3, #0
10004a82:	2200      	movs	r2, #0
10004a84:	4698      	mov	r8, r3
10004a86:	2300      	movs	r3, #0
10004a88:	9206      	str	r2, [sp, #24]
10004a8a:	9307      	str	r3, [sp, #28]
10004a8c:	2300      	movs	r3, #0
10004a8e:	2000      	movs	r0, #0
10004a90:	469a      	mov	sl, r3
10004a92:	e7a7      	b.n	100049e4 <alarm_pool_alarm_callback+0x78>
10004a94:	2900      	cmp	r1, #0
10004a96:	d101      	bne.n	10004a9c <alarm_pool_alarm_callback+0x130>
10004a98:	2800      	cmp	r0, #0
10004a9a:	d198      	bne.n	100049ce <alarm_pool_alarm_callback+0x62>
10004a9c:	2100      	movs	r1, #0
10004a9e:	4660      	mov	r0, ip
10004aa0:	f000 fdc2 	bl	10005628 <ph_remove_head>
10004aa4:	4643      	mov	r3, r8
10004aa6:	681a      	ldr	r2, [r3, #0]
10004aa8:	685b      	ldr	r3, [r3, #4]
10004aaa:	9206      	str	r2, [sp, #24]
10004aac:	9307      	str	r3, [sp, #28]
10004aae:	4643      	mov	r3, r8
10004ab0:	689b      	ldr	r3, [r3, #8]
10004ab2:	469a      	mov	sl, r3
10004ab4:	4643      	mov	r3, r8
10004ab6:	68db      	ldr	r3, [r3, #12]
10004ab8:	4698      	mov	r8, r3
10004aba:	68e3      	ldr	r3, [r4, #12]
10004abc:	444b      	add	r3, r9
10004abe:	3b01      	subs	r3, #1
10004ac0:	781b      	ldrb	r3, [r3, #0]
10004ac2:	9308      	str	r3, [sp, #32]
10004ac4:	021b      	lsls	r3, r3, #8
10004ac6:	4303      	orrs	r3, r0
10004ac8:	6123      	str	r3, [r4, #16]
10004aca:	2000      	movs	r0, #0
10004acc:	e78a      	b.n	100049e4 <alarm_pool_alarm_callback+0x78>
10004ace:	6923      	ldr	r3, [r4, #16]
10004ad0:	2b00      	cmp	r3, #0
10004ad2:	d0b3      	beq.n	10004a3c <alarm_pool_alarm_callback+0xd0>
10004ad4:	9a06      	ldr	r2, [sp, #24]
10004ad6:	9b07      	ldr	r3, [sp, #28]
10004ad8:	2180      	movs	r1, #128	; 0x80
10004ada:	1b92      	subs	r2, r2, r6
10004adc:	41bb      	sbcs	r3, r7
10004ade:	0609      	lsls	r1, r1, #24
10004ae0:	428b      	cmp	r3, r1
10004ae2:	d302      	bcc.n	10004aea <alarm_pool_alarm_callback+0x17e>
10004ae4:	2201      	movs	r2, #1
10004ae6:	4b0f      	ldr	r3, [pc, #60]	; (10004b24 <alarm_pool_alarm_callback+0x1b8>)
10004ae8:	4252      	negs	r2, r2
10004aea:	4659      	mov	r1, fp
10004aec:	9104      	str	r1, [sp, #16]
10004aee:	2101      	movs	r1, #1
10004af0:	9103      	str	r1, [sp, #12]
10004af2:	4649      	mov	r1, r9
10004af4:	9102      	str	r1, [sp, #8]
10004af6:	4641      	mov	r1, r8
10004af8:	9101      	str	r1, [sp, #4]
10004afa:	4651      	mov	r1, sl
10004afc:	0020      	movs	r0, r4
10004afe:	9100      	str	r1, [sp, #0]
10004b00:	f7ff feb2 	bl	10004868 <add_alarm_under_lock.isra.0>
10004b04:	e7b2      	b.n	10004a6c <alarm_pool_alarm_callback+0x100>
10004b06:	f000 fb81 	bl	1000520c <time_us_64>
10004b0a:	0032      	movs	r2, r6
10004b0c:	003b      	movs	r3, r7
10004b0e:	1812      	adds	r2, r2, r0
10004b10:	414b      	adcs	r3, r1
10004b12:	2180      	movs	r1, #128	; 0x80
10004b14:	0609      	lsls	r1, r1, #24
10004b16:	428b      	cmp	r3, r1
10004b18:	d3e7      	bcc.n	10004aea <alarm_pool_alarm_callback+0x17e>
10004b1a:	e7e3      	b.n	10004ae4 <alarm_pool_alarm_callback+0x178>
10004b1c:	20002134 	.word	0x20002134
10004b20:	0fffffff 	.word	0x0fffffff
10004b24:	7fffffff 	.word	0x7fffffff

10004b28 <alarm_pool_init_default>:
10004b28:	b510      	push	{r4, lr}
10004b2a:	4c14      	ldr	r4, [pc, #80]	; (10004b7c <alarm_pool_init_default+0x54>)
10004b2c:	6863      	ldr	r3, [r4, #4]
10004b2e:	2b00      	cmp	r3, #0
10004b30:	d004      	beq.n	10004b3c <alarm_pool_init_default+0x14>
10004b32:	210a      	movs	r1, #10
10004b34:	4812      	ldr	r0, [pc, #72]	; (10004b80 <alarm_pool_init_default+0x58>)
10004b36:	f7ff fe19 	bl	1000476c <lock_init>
10004b3a:	bd10      	pop	{r4, pc}
10004b3c:	0023      	movs	r3, r4
10004b3e:	4a11      	ldr	r2, [pc, #68]	; (10004b84 <alarm_pool_init_default+0x5c>)
10004b40:	2110      	movs	r1, #16
10004b42:	6820      	ldr	r0, [r4, #0]
10004b44:	f000 fc84 	bl	10005450 <ph_post_alloc_init>
10004b48:	2003      	movs	r0, #3
10004b4a:	f000 fb53 	bl	100051f4 <hardware_alarm_claim>
10004b4e:	2003      	movs	r0, #3
10004b50:	f000 fc2c 	bl	100053ac <hardware_alarm_cancel>
10004b54:	2003      	movs	r0, #3
10004b56:	490c      	ldr	r1, [pc, #48]	; (10004b88 <alarm_pool_init_default+0x60>)
10004b58:	f000 fb72 	bl	10005240 <hardware_alarm_set_callback>
10004b5c:	f7ff fb3a 	bl	100041d4 <next_striped_spin_lock_num>
10004b60:	4b0a      	ldr	r3, [pc, #40]	; (10004b8c <alarm_pool_init_default+0x64>)
10004b62:	469c      	mov	ip, r3
10004b64:	2303      	movs	r3, #3
10004b66:	7523      	strb	r3, [r4, #20]
10004b68:	23d0      	movs	r3, #208	; 0xd0
10004b6a:	061b      	lsls	r3, r3, #24
10004b6c:	681b      	ldr	r3, [r3, #0]
10004b6e:	4460      	add	r0, ip
10004b70:	7563      	strb	r3, [r4, #21]
10004b72:	4b07      	ldr	r3, [pc, #28]	; (10004b90 <alarm_pool_init_default+0x68>)
10004b74:	0080      	lsls	r0, r0, #2
10004b76:	6060      	str	r0, [r4, #4]
10004b78:	60dc      	str	r4, [r3, #12]
10004b7a:	e7da      	b.n	10004b32 <alarm_pool_init_default+0xa>
10004b7c:	20000e1c 	.word	0x20000e1c
10004b80:	20002150 	.word	0x20002150
10004b84:	100047e9 	.word	0x100047e9
10004b88:	1000496d 	.word	0x1000496d
10004b8c:	34000040 	.word	0x34000040
10004b90:	20002134 	.word	0x20002134

10004b94 <alarm_pool_get_default>:
10004b94:	4800      	ldr	r0, [pc, #0]	; (10004b98 <alarm_pool_get_default+0x4>)
10004b96:	4770      	bx	lr
10004b98:	20000e1c 	.word	0x20000e1c

10004b9c <alarm_pool_add_alarm_at>:
10004b9c:	b5f0      	push	{r4, r5, r6, r7, lr}
10004b9e:	464e      	mov	r6, r9
10004ba0:	4657      	mov	r7, sl
10004ba2:	46de      	mov	lr, fp
10004ba4:	4645      	mov	r5, r8
10004ba6:	b5e0      	push	{r5, r6, r7, lr}
10004ba8:	b085      	sub	sp, #20
10004baa:	9301      	str	r3, [sp, #4]
10004bac:	ab10      	add	r3, sp, #64	; 0x40
10004bae:	781b      	ldrb	r3, [r3, #0]
10004bb0:	0006      	movs	r6, r0
10004bb2:	9303      	str	r3, [sp, #12]
10004bb4:	2300      	movs	r3, #0
10004bb6:	469a      	mov	sl, r3
10004bb8:	4699      	mov	r9, r3
10004bba:	9200      	str	r2, [sp, #0]
10004bbc:	6872      	ldr	r2, [r6, #4]
10004bbe:	f3ef 8b10 	mrs	fp, PRIMASK
10004bc2:	b672      	cpsid	i
10004bc4:	6813      	ldr	r3, [r2, #0]
10004bc6:	2b00      	cmp	r3, #0
10004bc8:	d0fc      	beq.n	10004bc4 <alarm_pool_add_alarm_at+0x28>
10004bca:	f3bf 8f5f 	dmb	sy
10004bce:	6835      	ldr	r5, [r6, #0]
10004bd0:	7bac      	ldrb	r4, [r5, #14]
10004bd2:	2c00      	cmp	r4, #0
10004bd4:	d100      	bne.n	10004bd8 <alarm_pool_add_alarm_at+0x3c>
10004bd6:	e07a      	b.n	10004cce <alarm_pool_add_alarm_at+0x132>
10004bd8:	0067      	lsls	r7, r4, #1
10004bda:	682b      	ldr	r3, [r5, #0]
10004bdc:	193f      	adds	r7, r7, r4
10004bde:	3f03      	subs	r7, #3
10004be0:	19db      	adds	r3, r3, r7
10004be2:	785a      	ldrb	r2, [r3, #1]
10004be4:	73aa      	strb	r2, [r5, #14]
10004be6:	2a00      	cmp	r2, #0
10004be8:	d100      	bne.n	10004bec <alarm_pool_add_alarm_at+0x50>
10004bea:	73ea      	strb	r2, [r5, #15]
10004bec:	4a4b      	ldr	r2, [pc, #300]	; (10004d1c <alarm_pool_add_alarm_at+0x180>)
10004bee:	18a1      	adds	r1, r4, r2
10004bf0:	68b2      	ldr	r2, [r6, #8]
10004bf2:	0109      	lsls	r1, r1, #4
10004bf4:	1852      	adds	r2, r2, r1
10004bf6:	9800      	ldr	r0, [sp, #0]
10004bf8:	9901      	ldr	r1, [sp, #4]
10004bfa:	6010      	str	r0, [r2, #0]
10004bfc:	6051      	str	r1, [r2, #4]
10004bfe:	990e      	ldr	r1, [sp, #56]	; 0x38
10004c00:	6091      	str	r1, [r2, #8]
10004c02:	990f      	ldr	r1, [sp, #60]	; 0x3c
10004c04:	60d1      	str	r1, [r2, #12]
10004c06:	464a      	mov	r2, r9
10004c08:	709a      	strb	r2, [r3, #2]
10004c0a:	705a      	strb	r2, [r3, #1]
10004c0c:	701a      	strb	r2, [r3, #0]
10004c0e:	7b6b      	ldrb	r3, [r5, #13]
10004c10:	4698      	mov	r8, r3
10004c12:	2b00      	cmp	r3, #0
10004c14:	d100      	bne.n	10004c18 <alarm_pool_add_alarm_at+0x7c>
10004c16:	e071      	b.n	10004cfc <alarm_pool_add_alarm_at+0x160>
10004c18:	0022      	movs	r2, r4
10004c1a:	4641      	mov	r1, r8
10004c1c:	68a8      	ldr	r0, [r5, #8]
10004c1e:	686b      	ldr	r3, [r5, #4]
10004c20:	4798      	blx	r3
10004c22:	2800      	cmp	r0, #0
10004c24:	d05c      	beq.n	10004ce0 <alarm_pool_add_alarm_at+0x144>
10004c26:	4643      	mov	r3, r8
10004c28:	4640      	mov	r0, r8
10004c2a:	6829      	ldr	r1, [r5, #0]
10004c2c:	005b      	lsls	r3, r3, #1
10004c2e:	4443      	add	r3, r8
10004c30:	19cf      	adds	r7, r1, r7
10004c32:	3b03      	subs	r3, #3
10004c34:	70b8      	strb	r0, [r7, #2]
10004c36:	18ca      	adds	r2, r1, r3
10004c38:	5ccb      	ldrb	r3, [r1, r3]
10004c3a:	2b00      	cmp	r3, #0
10004c3c:	d000      	beq.n	10004c40 <alarm_pool_add_alarm_at+0xa4>
10004c3e:	707b      	strb	r3, [r7, #1]
10004c40:	4643      	mov	r3, r8
10004c42:	7014      	strb	r4, [r2, #0]
10004c44:	736b      	strb	r3, [r5, #13]
10004c46:	4544      	cmp	r4, r8
10004c48:	d059      	beq.n	10004cfe <alarm_pool_add_alarm_at+0x162>
10004c4a:	68f3      	ldr	r3, [r6, #12]
10004c4c:	191b      	adds	r3, r3, r4
10004c4e:	3b01      	subs	r3, #1
10004c50:	7818      	ldrb	r0, [r3, #0]
10004c52:	6873      	ldr	r3, [r6, #4]
10004c54:	f3bf 8f5f 	dmb	sy
10004c58:	464a      	mov	r2, r9
10004c5a:	601a      	str	r2, [r3, #0]
10004c5c:	f38b 8810 	msr	PRIMASK, fp
10004c60:	4653      	mov	r3, sl
10004c62:	2b00      	cmp	r3, #0
10004c64:	d108      	bne.n	10004c78 <alarm_pool_add_alarm_at+0xdc>
10004c66:	0200      	lsls	r0, r0, #8
10004c68:	4320      	orrs	r0, r4
10004c6a:	b005      	add	sp, #20
10004c6c:	bcf0      	pop	{r4, r5, r6, r7}
10004c6e:	46bb      	mov	fp, r7
10004c70:	46b2      	mov	sl, r6
10004c72:	46a9      	mov	r9, r5
10004c74:	46a0      	mov	r8, r4
10004c76:	bdf0      	pop	{r4, r5, r6, r7, pc}
10004c78:	9b03      	ldr	r3, [sp, #12]
10004c7a:	2b00      	cmp	r3, #0
10004c7c:	d04c      	beq.n	10004d18 <alarm_pool_add_alarm_at+0x17c>
10004c7e:	9b0e      	ldr	r3, [sp, #56]	; 0x38
10004c80:	2000      	movs	r0, #0
10004c82:	990f      	ldr	r1, [sp, #60]	; 0x3c
10004c84:	4798      	blx	r3
10004c86:	0003      	movs	r3, r0
10004c88:	0004      	movs	r4, r0
10004c8a:	000d      	movs	r5, r1
10004c8c:	430b      	orrs	r3, r1
10004c8e:	d043      	beq.n	10004d18 <alarm_pool_add_alarm_at+0x17c>
10004c90:	2900      	cmp	r1, #0
10004c92:	da11      	bge.n	10004cb8 <alarm_pool_add_alarm_at+0x11c>
10004c94:	9a00      	ldr	r2, [sp, #0]
10004c96:	9b01      	ldr	r3, [sp, #4]
10004c98:	1b12      	subs	r2, r2, r4
10004c9a:	41ab      	sbcs	r3, r5
10004c9c:	9200      	str	r2, [sp, #0]
10004c9e:	9301      	str	r3, [sp, #4]
10004ca0:	2280      	movs	r2, #128	; 0x80
10004ca2:	0612      	lsls	r2, r2, #24
10004ca4:	4293      	cmp	r3, r2
10004ca6:	d304      	bcc.n	10004cb2 <alarm_pool_add_alarm_at+0x116>
10004ca8:	2301      	movs	r3, #1
10004caa:	4c1d      	ldr	r4, [pc, #116]	; (10004d20 <alarm_pool_add_alarm_at+0x184>)
10004cac:	425b      	negs	r3, r3
10004cae:	9300      	str	r3, [sp, #0]
10004cb0:	9401      	str	r4, [sp, #4]
10004cb2:	9b03      	ldr	r3, [sp, #12]
10004cb4:	469a      	mov	sl, r3
10004cb6:	e781      	b.n	10004bbc <alarm_pool_add_alarm_at+0x20>
10004cb8:	f000 faa8 	bl	1000520c <time_us_64>
10004cbc:	2280      	movs	r2, #128	; 0x80
10004cbe:	1824      	adds	r4, r4, r0
10004cc0:	414d      	adcs	r5, r1
10004cc2:	0612      	lsls	r2, r2, #24
10004cc4:	9400      	str	r4, [sp, #0]
10004cc6:	9501      	str	r5, [sp, #4]
10004cc8:	4295      	cmp	r5, r2
10004cca:	d3f2      	bcc.n	10004cb2 <alarm_pool_add_alarm_at+0x116>
10004ccc:	e7ec      	b.n	10004ca8 <alarm_pool_add_alarm_at+0x10c>
10004cce:	6873      	ldr	r3, [r6, #4]
10004cd0:	f3bf 8f5f 	dmb	sy
10004cd4:	601c      	str	r4, [r3, #0]
10004cd6:	f38b 8810 	msr	PRIMASK, fp
10004cda:	2001      	movs	r0, #1
10004cdc:	4240      	negs	r0, r0
10004cde:	e7c4      	b.n	10004c6a <alarm_pool_add_alarm_at+0xce>
10004ce0:	4643      	mov	r3, r8
10004ce2:	005b      	lsls	r3, r3, #1
10004ce4:	682a      	ldr	r2, [r5, #0]
10004ce6:	4443      	add	r3, r8
10004ce8:	3b03      	subs	r3, #3
10004cea:	18d3      	adds	r3, r2, r3
10004cec:	709c      	strb	r4, [r3, #2]
10004cee:	19d1      	adds	r1, r2, r7
10004cf0:	5dd2      	ldrb	r2, [r2, r7]
10004cf2:	2a00      	cmp	r2, #0
10004cf4:	d000      	beq.n	10004cf8 <alarm_pool_add_alarm_at+0x15c>
10004cf6:	705a      	strb	r2, [r3, #1]
10004cf8:	4643      	mov	r3, r8
10004cfa:	700b      	strb	r3, [r1, #0]
10004cfc:	736c      	strb	r4, [r5, #13]
10004cfe:	7d30      	ldrb	r0, [r6, #20]
10004d00:	9a00      	ldr	r2, [sp, #0]
10004d02:	9b01      	ldr	r3, [sp, #4]
10004d04:	f000 fae2 	bl	100052cc <hardware_alarm_set_target>
10004d08:	4682      	mov	sl, r0
10004d0a:	2800      	cmp	r0, #0
10004d0c:	d09d      	beq.n	10004c4a <alarm_pool_add_alarm_at+0xae>
10004d0e:	0021      	movs	r1, r4
10004d10:	6830      	ldr	r0, [r6, #0]
10004d12:	f000 fd0b 	bl	1000572c <ph_remove_and_free_node>
10004d16:	e798      	b.n	10004c4a <alarm_pool_add_alarm_at+0xae>
10004d18:	2000      	movs	r0, #0
10004d1a:	e7a6      	b.n	10004c6a <alarm_pool_add_alarm_at+0xce>
10004d1c:	0fffffff 	.word	0x0fffffff
10004d20:	7fffffff 	.word	0x7fffffff

10004d24 <alarm_pool_cancel_alarm>:
10004d24:	b5f8      	push	{r3, r4, r5, r6, r7, lr}
10004d26:	6842      	ldr	r2, [r0, #4]
10004d28:	0004      	movs	r4, r0
10004d2a:	f3ef 8510 	mrs	r5, PRIMASK
10004d2e:	b672      	cpsid	i
10004d30:	6813      	ldr	r3, [r2, #0]
10004d32:	2b00      	cmp	r3, #0
10004d34:	d0fc      	beq.n	10004d30 <alarm_pool_cancel_alarm+0xc>
10004d36:	f3bf 8f5f 	dmb	sy
10004d3a:	6820      	ldr	r0, [r4, #0]
10004d3c:	b2ce      	uxtb	r6, r1
10004d3e:	7b43      	ldrb	r3, [r0, #13]
10004d40:	42b3      	cmp	r3, r6
10004d42:	d009      	beq.n	10004d58 <alarm_pool_cancel_alarm+0x34>
10004d44:	22ff      	movs	r2, #255	; 0xff
10004d46:	400a      	ands	r2, r1
10004d48:	6803      	ldr	r3, [r0, #0]
10004d4a:	0057      	lsls	r7, r2, #1
10004d4c:	18ba      	adds	r2, r7, r2
10004d4e:	189b      	adds	r3, r3, r2
10004d50:	3b03      	subs	r3, #3
10004d52:	789b      	ldrb	r3, [r3, #2]
10004d54:	2b00      	cmp	r3, #0
10004d56:	d012      	beq.n	10004d7e <alarm_pool_cancel_alarm+0x5a>
10004d58:	22ff      	movs	r2, #255	; 0xff
10004d5a:	68e3      	ldr	r3, [r4, #12]
10004d5c:	400a      	ands	r2, r1
10004d5e:	189b      	adds	r3, r3, r2
10004d60:	3b01      	subs	r3, #1
10004d62:	0a09      	lsrs	r1, r1, #8
10004d64:	781b      	ldrb	r3, [r3, #0]
10004d66:	b2c9      	uxtb	r1, r1
10004d68:	428b      	cmp	r3, r1
10004d6a:	d00e      	beq.n	10004d8a <alarm_pool_cancel_alarm+0x66>
10004d6c:	2000      	movs	r0, #0
10004d6e:	6863      	ldr	r3, [r4, #4]
10004d70:	f3bf 8f5f 	dmb	sy
10004d74:	2200      	movs	r2, #0
10004d76:	601a      	str	r2, [r3, #0]
10004d78:	f385 8810 	msr	PRIMASK, r5
10004d7c:	bdf8      	pop	{r3, r4, r5, r6, r7, pc}
10004d7e:	6922      	ldr	r2, [r4, #16]
10004d80:	428a      	cmp	r2, r1
10004d82:	d1f3      	bne.n	10004d6c <alarm_pool_cancel_alarm+0x48>
10004d84:	2000      	movs	r0, #0
10004d86:	6123      	str	r3, [r4, #16]
10004d88:	e7f1      	b.n	10004d6e <alarm_pool_cancel_alarm+0x4a>
10004d8a:	0031      	movs	r1, r6
10004d8c:	f000 fcce 	bl	1000572c <ph_remove_and_free_node>
10004d90:	e7ed      	b.n	10004d6e <alarm_pool_cancel_alarm+0x4a>
10004d92:	46c0      	nop			; (mov r8, r8)

10004d94 <alarm_pool_core_num>:
10004d94:	7d40      	ldrb	r0, [r0, #21]
10004d96:	4770      	bx	lr

10004d98 <alarm_pool_add_repeating_timer_us>:
10004d98:	b5f0      	push	{r4, r5, r6, r7, lr}
10004d9a:	4657      	mov	r7, sl
10004d9c:	464e      	mov	r6, r9
10004d9e:	46de      	mov	lr, fp
10004da0:	4645      	mov	r5, r8
10004da2:	0011      	movs	r1, r2
10004da4:	b5e0      	push	{r5, r6, r7, lr}
10004da6:	b085      	sub	sp, #20
10004da8:	0006      	movs	r6, r0
10004daa:	469c      	mov	ip, r3
10004dac:	9f10      	ldr	r7, [sp, #64]	; 0x40
10004dae:	4319      	orrs	r1, r3
10004db0:	d100      	bne.n	10004db4 <alarm_pool_add_repeating_timer_us+0x1c>
10004db2:	e0e1      	b.n	10004f78 <alarm_pool_add_repeating_timer_us+0x1e0>
10004db4:	4661      	mov	r1, ip
10004db6:	17db      	asrs	r3, r3, #31
10004db8:	9301      	str	r3, [sp, #4]
10004dba:	9300      	str	r3, [sp, #0]
10004dbc:	4053      	eors	r3, r2
10004dbe:	001c      	movs	r4, r3
10004dc0:	9b01      	ldr	r3, [sp, #4]
10004dc2:	404b      	eors	r3, r1
10004dc4:	001d      	movs	r5, r3
10004dc6:	9800      	ldr	r0, [sp, #0]
10004dc8:	9901      	ldr	r1, [sp, #4]
10004dca:	1a24      	subs	r4, r4, r0
10004dcc:	418d      	sbcs	r5, r1
10004dce:	4663      	mov	r3, ip
10004dd0:	990e      	ldr	r1, [sp, #56]	; 0x38
10004dd2:	607b      	str	r3, [r7, #4]
10004dd4:	9b0f      	ldr	r3, [sp, #60]	; 0x3c
10004dd6:	60be      	str	r6, [r7, #8]
10004dd8:	617b      	str	r3, [r7, #20]
10004dda:	6139      	str	r1, [r7, #16]
10004ddc:	603a      	str	r2, [r7, #0]
10004dde:	f000 fa15 	bl	1000520c <time_us_64>
10004de2:	2380      	movs	r3, #128	; 0x80
10004de4:	1900      	adds	r0, r0, r4
10004de6:	4169      	adcs	r1, r5
10004de8:	061b      	lsls	r3, r3, #24
10004dea:	9000      	str	r0, [sp, #0]
10004dec:	9101      	str	r1, [sp, #4]
10004dee:	4299      	cmp	r1, r3
10004df0:	d304      	bcc.n	10004dfc <alarm_pool_add_repeating_timer_us+0x64>
10004df2:	2301      	movs	r3, #1
10004df4:	4c66      	ldr	r4, [pc, #408]	; (10004f90 <alarm_pool_add_repeating_timer_us+0x1f8>)
10004df6:	425b      	negs	r3, r3
10004df8:	9300      	str	r3, [sp, #0]
10004dfa:	9401      	str	r4, [sp, #4]
10004dfc:	2300      	movs	r3, #0
10004dfe:	46b9      	mov	r9, r7
10004e00:	469a      	mov	sl, r3
10004e02:	4b64      	ldr	r3, [pc, #400]	; (10004f94 <alarm_pool_add_repeating_timer_us+0x1fc>)
10004e04:	9303      	str	r3, [sp, #12]
10004e06:	6872      	ldr	r2, [r6, #4]
10004e08:	f3ef 8b10 	mrs	fp, PRIMASK
10004e0c:	b672      	cpsid	i
10004e0e:	6813      	ldr	r3, [r2, #0]
10004e10:	2b00      	cmp	r3, #0
10004e12:	d0fc      	beq.n	10004e0e <alarm_pool_add_repeating_timer_us+0x76>
10004e14:	f3bf 8f5f 	dmb	sy
10004e18:	6835      	ldr	r5, [r6, #0]
10004e1a:	7bac      	ldrb	r4, [r5, #14]
10004e1c:	2c00      	cmp	r4, #0
10004e1e:	d100      	bne.n	10004e22 <alarm_pool_add_repeating_timer_us+0x8a>
10004e20:	e082      	b.n	10004f28 <alarm_pool_add_repeating_timer_us+0x190>
10004e22:	0067      	lsls	r7, r4, #1
10004e24:	682b      	ldr	r3, [r5, #0]
10004e26:	193f      	adds	r7, r7, r4
10004e28:	3f03      	subs	r7, #3
10004e2a:	19db      	adds	r3, r3, r7
10004e2c:	785a      	ldrb	r2, [r3, #1]
10004e2e:	73aa      	strb	r2, [r5, #14]
10004e30:	2a00      	cmp	r2, #0
10004e32:	d100      	bne.n	10004e36 <alarm_pool_add_repeating_timer_us+0x9e>
10004e34:	73ea      	strb	r2, [r5, #15]
10004e36:	4a58      	ldr	r2, [pc, #352]	; (10004f98 <alarm_pool_add_repeating_timer_us+0x200>)
10004e38:	18a1      	adds	r1, r4, r2
10004e3a:	68b2      	ldr	r2, [r6, #8]
10004e3c:	0109      	lsls	r1, r1, #4
10004e3e:	1852      	adds	r2, r2, r1
10004e40:	9800      	ldr	r0, [sp, #0]
10004e42:	9901      	ldr	r1, [sp, #4]
10004e44:	6010      	str	r0, [r2, #0]
10004e46:	6051      	str	r1, [r2, #4]
10004e48:	9903      	ldr	r1, [sp, #12]
10004e4a:	6091      	str	r1, [r2, #8]
10004e4c:	4649      	mov	r1, r9
10004e4e:	60d1      	str	r1, [r2, #12]
10004e50:	2200      	movs	r2, #0
10004e52:	709a      	strb	r2, [r3, #2]
10004e54:	705a      	strb	r2, [r3, #1]
10004e56:	701a      	strb	r2, [r3, #0]
10004e58:	7b6b      	ldrb	r3, [r5, #13]
10004e5a:	4698      	mov	r8, r3
10004e5c:	2b00      	cmp	r3, #0
10004e5e:	d100      	bne.n	10004e62 <alarm_pool_add_repeating_timer_us+0xca>
10004e60:	e07b      	b.n	10004f5a <alarm_pool_add_repeating_timer_us+0x1c2>
10004e62:	0022      	movs	r2, r4
10004e64:	4641      	mov	r1, r8
10004e66:	68a8      	ldr	r0, [r5, #8]
10004e68:	686b      	ldr	r3, [r5, #4]
10004e6a:	4798      	blx	r3
10004e6c:	2800      	cmp	r0, #0
10004e6e:	d066      	beq.n	10004f3e <alarm_pool_add_repeating_timer_us+0x1a6>
10004e70:	4643      	mov	r3, r8
10004e72:	4640      	mov	r0, r8
10004e74:	6829      	ldr	r1, [r5, #0]
10004e76:	005b      	lsls	r3, r3, #1
10004e78:	4443      	add	r3, r8
10004e7a:	19cf      	adds	r7, r1, r7
10004e7c:	3b03      	subs	r3, #3
10004e7e:	70b8      	strb	r0, [r7, #2]
10004e80:	18ca      	adds	r2, r1, r3
10004e82:	5ccb      	ldrb	r3, [r1, r3]
10004e84:	2b00      	cmp	r3, #0
10004e86:	d000      	beq.n	10004e8a <alarm_pool_add_repeating_timer_us+0xf2>
10004e88:	707b      	strb	r3, [r7, #1]
10004e8a:	4643      	mov	r3, r8
10004e8c:	7014      	strb	r4, [r2, #0]
10004e8e:	736b      	strb	r3, [r5, #13]
10004e90:	4544      	cmp	r4, r8
10004e92:	d063      	beq.n	10004f5c <alarm_pool_add_repeating_timer_us+0x1c4>
10004e94:	68f3      	ldr	r3, [r6, #12]
10004e96:	6872      	ldr	r2, [r6, #4]
10004e98:	191b      	adds	r3, r3, r4
10004e9a:	3b01      	subs	r3, #1
10004e9c:	781b      	ldrb	r3, [r3, #0]
10004e9e:	f3bf 8f5f 	dmb	sy
10004ea2:	2100      	movs	r1, #0
10004ea4:	6011      	str	r1, [r2, #0]
10004ea6:	f38b 8810 	msr	PRIMASK, fp
10004eaa:	4652      	mov	r2, sl
10004eac:	2a00      	cmp	r2, #0
10004eae:	d10d      	bne.n	10004ecc <alarm_pool_add_repeating_timer_us+0x134>
10004eb0:	3201      	adds	r2, #1
10004eb2:	464f      	mov	r7, r9
10004eb4:	4692      	mov	sl, r2
10004eb6:	021b      	lsls	r3, r3, #8
10004eb8:	4323      	orrs	r3, r4
10004eba:	4650      	mov	r0, sl
10004ebc:	60fb      	str	r3, [r7, #12]
10004ebe:	b005      	add	sp, #20
10004ec0:	bcf0      	pop	{r4, r5, r6, r7}
10004ec2:	46bb      	mov	fp, r7
10004ec4:	46b2      	mov	sl, r6
10004ec6:	46a9      	mov	r9, r5
10004ec8:	46a0      	mov	r8, r4
10004eca:	bdf0      	pop	{r4, r5, r6, r7, pc}
10004ecc:	464b      	mov	r3, r9
10004ece:	4648      	mov	r0, r9
10004ed0:	691b      	ldr	r3, [r3, #16]
10004ed2:	4798      	blx	r3
10004ed4:	1e07      	subs	r7, r0, #0
10004ed6:	d102      	bne.n	10004ede <alarm_pool_add_repeating_timer_us+0x146>
10004ed8:	464f      	mov	r7, r9
10004eda:	2300      	movs	r3, #0
10004edc:	e7ed      	b.n	10004eba <alarm_pool_add_repeating_timer_us+0x122>
10004ede:	464b      	mov	r3, r9
10004ee0:	681c      	ldr	r4, [r3, #0]
10004ee2:	685d      	ldr	r5, [r3, #4]
10004ee4:	0023      	movs	r3, r4
10004ee6:	432b      	orrs	r3, r5
10004ee8:	d04c      	beq.n	10004f84 <alarm_pool_add_repeating_timer_us+0x1ec>
10004eea:	2d00      	cmp	r5, #0
10004eec:	da10      	bge.n	10004f10 <alarm_pool_add_repeating_timer_us+0x178>
10004eee:	9a00      	ldr	r2, [sp, #0]
10004ef0:	9b01      	ldr	r3, [sp, #4]
10004ef2:	1b12      	subs	r2, r2, r4
10004ef4:	41ab      	sbcs	r3, r5
10004ef6:	9200      	str	r2, [sp, #0]
10004ef8:	9301      	str	r3, [sp, #4]
10004efa:	2280      	movs	r2, #128	; 0x80
10004efc:	0612      	lsls	r2, r2, #24
10004efe:	4293      	cmp	r3, r2
10004f00:	d304      	bcc.n	10004f0c <alarm_pool_add_repeating_timer_us+0x174>
10004f02:	2301      	movs	r3, #1
10004f04:	4c22      	ldr	r4, [pc, #136]	; (10004f90 <alarm_pool_add_repeating_timer_us+0x1f8>)
10004f06:	425b      	negs	r3, r3
10004f08:	9300      	str	r3, [sp, #0]
10004f0a:	9401      	str	r4, [sp, #4]
10004f0c:	46ba      	mov	sl, r7
10004f0e:	e77a      	b.n	10004e06 <alarm_pool_add_repeating_timer_us+0x6e>
10004f10:	f000 f97c 	bl	1000520c <time_us_64>
10004f14:	2280      	movs	r2, #128	; 0x80
10004f16:	1824      	adds	r4, r4, r0
10004f18:	414d      	adcs	r5, r1
10004f1a:	0612      	lsls	r2, r2, #24
10004f1c:	9400      	str	r4, [sp, #0]
10004f1e:	9501      	str	r5, [sp, #4]
10004f20:	4295      	cmp	r5, r2
10004f22:	d2ee      	bcs.n	10004f02 <alarm_pool_add_repeating_timer_us+0x16a>
10004f24:	46ba      	mov	sl, r7
10004f26:	e76e      	b.n	10004e06 <alarm_pool_add_repeating_timer_us+0x6e>
10004f28:	464f      	mov	r7, r9
10004f2a:	6873      	ldr	r3, [r6, #4]
10004f2c:	f3bf 8f5f 	dmb	sy
10004f30:	601c      	str	r4, [r3, #0]
10004f32:	f38b 8810 	msr	PRIMASK, fp
10004f36:	2300      	movs	r3, #0
10004f38:	469a      	mov	sl, r3
10004f3a:	3b01      	subs	r3, #1
10004f3c:	e7bd      	b.n	10004eba <alarm_pool_add_repeating_timer_us+0x122>
10004f3e:	4643      	mov	r3, r8
10004f40:	005b      	lsls	r3, r3, #1
10004f42:	682a      	ldr	r2, [r5, #0]
10004f44:	4443      	add	r3, r8
10004f46:	3b03      	subs	r3, #3
10004f48:	18d3      	adds	r3, r2, r3
10004f4a:	709c      	strb	r4, [r3, #2]
10004f4c:	19d1      	adds	r1, r2, r7
10004f4e:	5dd2      	ldrb	r2, [r2, r7]
10004f50:	2a00      	cmp	r2, #0
10004f52:	d000      	beq.n	10004f56 <alarm_pool_add_repeating_timer_us+0x1be>
10004f54:	705a      	strb	r2, [r3, #1]
10004f56:	4643      	mov	r3, r8
10004f58:	700b      	strb	r3, [r1, #0]
10004f5a:	736c      	strb	r4, [r5, #13]
10004f5c:	7d30      	ldrb	r0, [r6, #20]
10004f5e:	9a00      	ldr	r2, [sp, #0]
10004f60:	9b01      	ldr	r3, [sp, #4]
10004f62:	f000 f9b3 	bl	100052cc <hardware_alarm_set_target>
10004f66:	4682      	mov	sl, r0
10004f68:	2800      	cmp	r0, #0
10004f6a:	d100      	bne.n	10004f6e <alarm_pool_add_repeating_timer_us+0x1d6>
10004f6c:	e792      	b.n	10004e94 <alarm_pool_add_repeating_timer_us+0xfc>
10004f6e:	0021      	movs	r1, r4
10004f70:	6830      	ldr	r0, [r6, #0]
10004f72:	f000 fbdb 	bl	1000572c <ph_remove_and_free_node>
10004f76:	e78d      	b.n	10004e94 <alarm_pool_add_repeating_timer_us+0xfc>
10004f78:	2300      	movs	r3, #0
10004f7a:	2401      	movs	r4, #1
10004f7c:	2500      	movs	r5, #0
10004f7e:	2201      	movs	r2, #1
10004f80:	469c      	mov	ip, r3
10004f82:	e724      	b.n	10004dce <alarm_pool_add_repeating_timer_us+0x36>
10004f84:	46b8      	mov	r8, r7
10004f86:	2300      	movs	r3, #0
10004f88:	464f      	mov	r7, r9
10004f8a:	46c2      	mov	sl, r8
10004f8c:	e795      	b.n	10004eba <alarm_pool_add_repeating_timer_us+0x122>
10004f8e:	46c0      	nop			; (mov r8, r8)
10004f90:	7fffffff 	.word	0x7fffffff
10004f94:	1000481d 	.word	0x1000481d
10004f98:	0fffffff 	.word	0x0fffffff

10004f9c <sleep_until>:
10004f9c:	b5f0      	push	{r4, r5, r6, r7, lr}
10004f9e:	0004      	movs	r4, r0
10004fa0:	000d      	movs	r5, r1
10004fa2:	2606      	movs	r6, #6
10004fa4:	4276      	negs	r6, r6
10004fa6:	17f7      	asrs	r7, r6, #31
10004fa8:	46c6      	mov	lr, r8
10004faa:	1936      	adds	r6, r6, r4
10004fac:	416f      	adcs	r7, r5
10004fae:	b500      	push	{lr}
10004fb0:	b084      	sub	sp, #16
10004fb2:	428f      	cmp	r7, r1
10004fb4:	d814      	bhi.n	10004fe0 <sleep_until+0x44>
10004fb6:	d011      	beq.n	10004fdc <sleep_until+0x40>
10004fb8:	f000 f928 	bl	1000520c <time_us_64>
10004fbc:	0032      	movs	r2, r6
10004fbe:	003b      	movs	r3, r7
10004fc0:	1a12      	subs	r2, r2, r0
10004fc2:	418b      	sbcs	r3, r1
10004fc4:	2b00      	cmp	r3, #0
10004fc6:	dc15      	bgt.n	10004ff4 <sleep_until+0x58>
10004fc8:	2b00      	cmp	r3, #0
10004fca:	d03e      	beq.n	1000504a <sleep_until+0xae>
10004fcc:	0020      	movs	r0, r4
10004fce:	0029      	movs	r1, r5
10004fd0:	f000 f926 	bl	10005220 <busy_wait_until>
10004fd4:	b004      	add	sp, #16
10004fd6:	bc80      	pop	{r7}
10004fd8:	46b8      	mov	r8, r7
10004fda:	bdf0      	pop	{r4, r5, r6, r7, pc}
10004fdc:	4286      	cmp	r6, r0
10004fde:	d9eb      	bls.n	10004fb8 <sleep_until+0x1c>
10004fe0:	2600      	movs	r6, #0
10004fe2:	2700      	movs	r7, #0
10004fe4:	f000 f912 	bl	1000520c <time_us_64>
10004fe8:	0032      	movs	r2, r6
10004fea:	003b      	movs	r3, r7
10004fec:	1a12      	subs	r2, r2, r0
10004fee:	418b      	sbcs	r3, r1
10004ff0:	2b00      	cmp	r3, #0
10004ff2:	dde9      	ble.n	10004fc8 <sleep_until+0x2c>
10004ff4:	2300      	movs	r3, #0
10004ff6:	9302      	str	r3, [sp, #8]
10004ff8:	9301      	str	r3, [sp, #4]
10004ffa:	4b15      	ldr	r3, [pc, #84]	; (10005050 <sleep_until+0xb4>)
10004ffc:	0032      	movs	r2, r6
10004ffe:	9300      	str	r3, [sp, #0]
10005000:	4814      	ldr	r0, [pc, #80]	; (10005054 <sleep_until+0xb8>)
10005002:	003b      	movs	r3, r7
10005004:	f7ff fdca 	bl	10004b9c <alarm_pool_add_alarm_at>
10005008:	2800      	cmp	r0, #0
1000500a:	dbdf      	blt.n	10004fcc <sleep_until+0x30>
1000500c:	2300      	movs	r3, #0
1000500e:	4698      	mov	r8, r3
10005010:	46bc      	mov	ip, r7
10005012:	4a11      	ldr	r2, [pc, #68]	; (10005058 <sleep_until+0xbc>)
10005014:	4f11      	ldr	r7, [pc, #68]	; (1000505c <sleep_until+0xc0>)
10005016:	6a7b      	ldr	r3, [r7, #36]	; 0x24
10005018:	459c      	cmp	ip, r3
1000501a:	d804      	bhi.n	10005026 <sleep_until+0x8a>
1000501c:	6ab9      	ldr	r1, [r7, #40]	; 0x28
1000501e:	428e      	cmp	r6, r1
10005020:	d9d4      	bls.n	10004fcc <sleep_until+0x30>
10005022:	459c      	cmp	ip, r3
10005024:	d1d2      	bne.n	10004fcc <sleep_until+0x30>
10005026:	6811      	ldr	r1, [r2, #0]
10005028:	f3ef 8010 	mrs	r0, PRIMASK
1000502c:	b672      	cpsid	i
1000502e:	680b      	ldr	r3, [r1, #0]
10005030:	2b00      	cmp	r3, #0
10005032:	d0fc      	beq.n	1000502e <sleep_until+0x92>
10005034:	f3bf 8f5f 	dmb	sy
10005038:	6813      	ldr	r3, [r2, #0]
1000503a:	f3bf 8f5f 	dmb	sy
1000503e:	4641      	mov	r1, r8
10005040:	6019      	str	r1, [r3, #0]
10005042:	f380 8810 	msr	PRIMASK, r0
10005046:	bf20      	wfe
10005048:	e7e5      	b.n	10005016 <sleep_until+0x7a>
1000504a:	2a00      	cmp	r2, #0
1000504c:	d0be      	beq.n	10004fcc <sleep_until+0x30>
1000504e:	e7d1      	b.n	10004ff4 <sleep_until+0x58>
10005050:	10004839 	.word	0x10004839
10005054:	20000e1c 	.word	0x20000e1c
10005058:	20002150 	.word	0x20002150
1000505c:	40054000 	.word	0x40054000

10005060 <sleep_us>:
10005060:	b570      	push	{r4, r5, r6, lr}
10005062:	0004      	movs	r4, r0
10005064:	000d      	movs	r5, r1
10005066:	f000 f8d1 	bl	1000520c <time_us_64>
1000506a:	2380      	movs	r3, #128	; 0x80
1000506c:	1900      	adds	r0, r0, r4
1000506e:	4169      	adcs	r1, r5
10005070:	061b      	lsls	r3, r3, #24
10005072:	4299      	cmp	r1, r3
10005074:	d302      	bcc.n	1000507c <sleep_us+0x1c>
10005076:	2001      	movs	r0, #1
10005078:	4902      	ldr	r1, [pc, #8]	; (10005084 <sleep_us+0x24>)
1000507a:	4240      	negs	r0, r0
1000507c:	f7ff ff8e 	bl	10004f9c <sleep_until>
10005080:	bd70      	pop	{r4, r5, r6, pc}
10005082:	46c0      	nop			; (mov r8, r8)
10005084:	7fffffff 	.word	0x7fffffff

10005088 <sleep_ms>:
10005088:	b570      	push	{r4, r5, r6, lr}
1000508a:	0006      	movs	r6, r0
1000508c:	f000 f8be 	bl	1000520c <time_us_64>
10005090:	22fa      	movs	r2, #250	; 0xfa
10005092:	0004      	movs	r4, r0
10005094:	000d      	movs	r5, r1
10005096:	2300      	movs	r3, #0
10005098:	0030      	movs	r0, r6
1000509a:	2100      	movs	r1, #0
1000509c:	0092      	lsls	r2, r2, #2
1000509e:	f001 fb03 	bl	100066a8 <__wrap___aeabi_lmul>
100050a2:	2380      	movs	r3, #128	; 0x80
100050a4:	1900      	adds	r0, r0, r4
100050a6:	4169      	adcs	r1, r5
100050a8:	061b      	lsls	r3, r3, #24
100050aa:	4299      	cmp	r1, r3
100050ac:	d302      	bcc.n	100050b4 <sleep_ms+0x2c>
100050ae:	2001      	movs	r0, #1
100050b0:	4902      	ldr	r1, [pc, #8]	; (100050bc <sleep_ms+0x34>)
100050b2:	4240      	negs	r0, r0
100050b4:	f7ff ff72 	bl	10004f9c <sleep_until>
100050b8:	bd70      	pop	{r4, r5, r6, pc}
100050ba:	46c0      	nop			; (mov r8, r8)
100050bc:	7fffffff 	.word	0x7fffffff

100050c0 <best_effort_wfe_or_timeout>:
100050c0:	b570      	push	{r4, r5, r6, lr}
100050c2:	f3ef 8305 	mrs	r3, IPSR
100050c6:	0005      	movs	r5, r0
100050c8:	000c      	movs	r4, r1
100050ca:	b084      	sub	sp, #16
100050cc:	2b00      	cmp	r3, #0
100050ce:	d00a      	beq.n	100050e6 <best_effort_wfe_or_timeout+0x26>
100050d0:	4a16      	ldr	r2, [pc, #88]	; (1000512c <best_effort_wfe_or_timeout+0x6c>)
100050d2:	2000      	movs	r0, #0
100050d4:	6a53      	ldr	r3, [r2, #36]	; 0x24
100050d6:	429c      	cmp	r4, r3
100050d8:	d803      	bhi.n	100050e2 <best_effort_wfe_or_timeout+0x22>
100050da:	6a92      	ldr	r2, [r2, #40]	; 0x28
100050dc:	3001      	adds	r0, #1
100050de:	42aa      	cmp	r2, r5
100050e0:	d31f      	bcc.n	10005122 <best_effort_wfe_or_timeout+0x62>
100050e2:	b004      	add	sp, #16
100050e4:	bd70      	pop	{r4, r5, r6, pc}
100050e6:	4e12      	ldr	r6, [pc, #72]	; (10005130 <best_effort_wfe_or_timeout+0x70>)
100050e8:	9302      	str	r3, [sp, #8]
100050ea:	9301      	str	r3, [sp, #4]
100050ec:	4b11      	ldr	r3, [pc, #68]	; (10005134 <best_effort_wfe_or_timeout+0x74>)
100050ee:	0002      	movs	r2, r0
100050f0:	9300      	str	r3, [sp, #0]
100050f2:	0030      	movs	r0, r6
100050f4:	000b      	movs	r3, r1
100050f6:	f7ff fd51 	bl	10004b9c <alarm_pool_add_alarm_at>
100050fa:	1e01      	subs	r1, r0, #0
100050fc:	dde8      	ble.n	100050d0 <best_effort_wfe_or_timeout+0x10>
100050fe:	bf20      	wfe
10005100:	0030      	movs	r0, r6
10005102:	f7ff fe0f 	bl	10004d24 <alarm_pool_cancel_alarm>
10005106:	4b09      	ldr	r3, [pc, #36]	; (1000512c <best_effort_wfe_or_timeout+0x6c>)
10005108:	2000      	movs	r0, #0
1000510a:	6a5a      	ldr	r2, [r3, #36]	; 0x24
1000510c:	4294      	cmp	r4, r2
1000510e:	d8e8      	bhi.n	100050e2 <best_effort_wfe_or_timeout+0x22>
10005110:	6a9b      	ldr	r3, [r3, #40]	; 0x28
10005112:	3001      	adds	r0, #1
10005114:	42ab      	cmp	r3, r5
10005116:	d2e4      	bcs.n	100050e2 <best_effort_wfe_or_timeout+0x22>
10005118:	1aa4      	subs	r4, r4, r2
1000511a:	1e63      	subs	r3, r4, #1
1000511c:	419c      	sbcs	r4, r3
1000511e:	b2e0      	uxtb	r0, r4
10005120:	e7df      	b.n	100050e2 <best_effort_wfe_or_timeout+0x22>
10005122:	1ae3      	subs	r3, r4, r3
10005124:	1e5a      	subs	r2, r3, #1
10005126:	4193      	sbcs	r3, r2
10005128:	b2d8      	uxtb	r0, r3
1000512a:	e7da      	b.n	100050e2 <best_effort_wfe_or_timeout+0x22>
1000512c:	40054000 	.word	0x40054000
10005130:	20000e1c 	.word	0x20000e1c
10005134:	10004839 	.word	0x10004839

10005138 <hardware_alarm_irq_handler>:
10005138:	b5f0      	push	{r4, r5, r6, r7, lr}
1000513a:	f3ef 8205 	mrs	r2, IPSR
1000513e:	46d6      	mov	lr, sl
10005140:	464f      	mov	r7, r9
10005142:	4646      	mov	r6, r8
10005144:	0010      	movs	r0, r2
10005146:	b5c0      	push	{r6, r7, lr}
10005148:	3810      	subs	r0, #16
1000514a:	f3ef 8810 	mrs	r8, PRIMASK
1000514e:	b672      	cpsid	i
10005150:	4c21      	ldr	r4, [pc, #132]	; (100051d8 <hardware_alarm_irq_handler+0xa0>)
10005152:	6823      	ldr	r3, [r4, #0]
10005154:	2b00      	cmp	r3, #0
10005156:	d0fc      	beq.n	10005152 <hardware_alarm_irq_handler+0x1a>
10005158:	f3bf 8f5f 	dmb	sy
1000515c:	2301      	movs	r3, #1
1000515e:	0019      	movs	r1, r3
10005160:	4081      	lsls	r1, r0
10005162:	4d1e      	ldr	r5, [pc, #120]	; (100051dc <hardware_alarm_irq_handler+0xa4>)
10005164:	001f      	movs	r7, r3
10005166:	6369      	str	r1, [r5, #52]	; 0x34
10005168:	46aa      	mov	sl, r5
1000516a:	4d1d      	ldr	r5, [pc, #116]	; (100051e0 <hardware_alarm_irq_handler+0xa8>)
1000516c:	6029      	str	r1, [r5, #0]
1000516e:	4d1d      	ldr	r5, [pc, #116]	; (100051e4 <hardware_alarm_irq_handler+0xac>)
10005170:	782e      	ldrb	r6, [r5, #0]
10005172:	46ac      	mov	ip, r5
10005174:	0035      	movs	r5, r6
10005176:	40c5      	lsrs	r5, r0
10005178:	402f      	ands	r7, r5
1000517a:	422b      	tst	r3, r5
1000517c:	d109      	bne.n	10005192 <hardware_alarm_irq_handler+0x5a>
1000517e:	f3bf 8f5f 	dmb	sy
10005182:	6027      	str	r7, [r4, #0]
10005184:	f388 8810 	msr	PRIMASK, r8
10005188:	bce0      	pop	{r5, r6, r7}
1000518a:	46ba      	mov	sl, r7
1000518c:	46b1      	mov	r9, r6
1000518e:	46a8      	mov	r8, r5
10005190:	bdf0      	pop	{r4, r5, r6, r7, pc}
10005192:	4653      	mov	r3, sl
10005194:	6a5f      	ldr	r7, [r3, #36]	; 0x24
10005196:	4b14      	ldr	r3, [pc, #80]	; (100051e8 <hardware_alarm_irq_handler+0xb0>)
10005198:	0085      	lsls	r5, r0, #2
1000519a:	58eb      	ldr	r3, [r5, r3]
1000519c:	429f      	cmp	r7, r3
1000519e:	d30e      	bcc.n	100051be <hardware_alarm_irq_handler+0x86>
100051a0:	4662      	mov	r2, ip
100051a2:	4b12      	ldr	r3, [pc, #72]	; (100051ec <hardware_alarm_irq_handler+0xb4>)
100051a4:	438e      	bics	r6, r1
100051a6:	58eb      	ldr	r3, [r5, r3]
100051a8:	7016      	strb	r6, [r2, #0]
100051aa:	f3bf 8f5f 	dmb	sy
100051ae:	2200      	movs	r2, #0
100051b0:	6022      	str	r2, [r4, #0]
100051b2:	f388 8810 	msr	PRIMASK, r8
100051b6:	2b00      	cmp	r3, #0
100051b8:	d0e6      	beq.n	10005188 <hardware_alarm_irq_handler+0x50>
100051ba:	4798      	blx	r3
100051bc:	e7e4      	b.n	10005188 <hardware_alarm_irq_handler+0x50>
100051be:	4b0c      	ldr	r3, [pc, #48]	; (100051f0 <hardware_alarm_irq_handler+0xb8>)
100051c0:	0092      	lsls	r2, r2, #2
100051c2:	469c      	mov	ip, r3
100051c4:	4462      	add	r2, ip
100051c6:	6813      	ldr	r3, [r2, #0]
100051c8:	6013      	str	r3, [r2, #0]
100051ca:	f3bf 8f5f 	dmb	sy
100051ce:	2300      	movs	r3, #0
100051d0:	6023      	str	r3, [r4, #0]
100051d2:	f388 8810 	msr	PRIMASK, r8
100051d6:	e7d7      	b.n	10005188 <hardware_alarm_irq_handler+0x50>
100051d8:	d0000128 	.word	0xd0000128
100051dc:	40054000 	.word	0x40054000
100051e0:	4005703c 	.word	0x4005703c
100051e4:	200021af 	.word	0x200021af
100051e8:	2000215c 	.word	0x2000215c
100051ec:	20001b50 	.word	0x20001b50
100051f0:	40053fd0 	.word	0x40053fd0

100051f4 <hardware_alarm_claim>:
100051f4:	b510      	push	{r4, lr}
100051f6:	4b03      	ldr	r3, [pc, #12]	; (10005204 <hardware_alarm_claim+0x10>)
100051f8:	0001      	movs	r1, r0
100051fa:	0018      	movs	r0, r3
100051fc:	4a02      	ldr	r2, [pc, #8]	; (10005208 <hardware_alarm_claim+0x14>)
100051fe:	f7fe ff6b 	bl	100040d8 <hw_claim_or_assert>
10005202:	bd10      	pop	{r4, pc}
10005204:	2000219e 	.word	0x2000219e
10005208:	10009744 	.word	0x10009744

1000520c <time_us_64>:
1000520c:	4b03      	ldr	r3, [pc, #12]	; (1000521c <time_us_64+0x10>)
1000520e:	6a59      	ldr	r1, [r3, #36]	; 0x24
10005210:	000a      	movs	r2, r1
10005212:	6a98      	ldr	r0, [r3, #40]	; 0x28
10005214:	6a59      	ldr	r1, [r3, #36]	; 0x24
10005216:	428a      	cmp	r2, r1
10005218:	d1fa      	bne.n	10005210 <time_us_64+0x4>
1000521a:	4770      	bx	lr
1000521c:	40054000 	.word	0x40054000

10005220 <busy_wait_until>:
10005220:	4a06      	ldr	r2, [pc, #24]	; (1000523c <busy_wait_until+0x1c>)
10005222:	6a53      	ldr	r3, [r2, #36]	; 0x24
10005224:	4299      	cmp	r1, r3
10005226:	d8fc      	bhi.n	10005222 <busy_wait_until+0x2>
10005228:	d107      	bne.n	1000523a <busy_wait_until+0x1a>
1000522a:	4b04      	ldr	r3, [pc, #16]	; (1000523c <busy_wait_until+0x1c>)
1000522c:	e002      	b.n	10005234 <busy_wait_until+0x14>
1000522e:	6a5a      	ldr	r2, [r3, #36]	; 0x24
10005230:	4291      	cmp	r1, r2
10005232:	d102      	bne.n	1000523a <busy_wait_until+0x1a>
10005234:	6a9a      	ldr	r2, [r3, #40]	; 0x28
10005236:	4282      	cmp	r2, r0
10005238:	d3f9      	bcc.n	1000522e <busy_wait_until+0xe>
1000523a:	4770      	bx	lr
1000523c:	40054000 	.word	0x40054000

10005240 <hardware_alarm_set_callback>:
10005240:	b570      	push	{r4, r5, r6, lr}
10005242:	0004      	movs	r4, r0
10005244:	000d      	movs	r5, r1
10005246:	f3ef 8610 	mrs	r6, PRIMASK
1000524a:	b672      	cpsid	i
1000524c:	4a1a      	ldr	r2, [pc, #104]	; (100052b8 <hardware_alarm_set_callback+0x78>)
1000524e:	6813      	ldr	r3, [r2, #0]
10005250:	2b00      	cmp	r3, #0
10005252:	d0fc      	beq.n	1000524e <hardware_alarm_set_callback+0xe>
10005254:	f3bf 8f5f 	dmb	sy
10005258:	2d00      	cmp	r5, #0
1000525a:	d01b      	beq.n	10005294 <hardware_alarm_set_callback+0x54>
1000525c:	0020      	movs	r0, r4
1000525e:	f7ff f807 	bl	10004270 <irq_get_vtable_handler>
10005262:	4916      	ldr	r1, [pc, #88]	; (100052bc <hardware_alarm_set_callback+0x7c>)
10005264:	4281      	cmp	r1, r0
10005266:	d00a      	beq.n	1000527e <hardware_alarm_set_callback+0x3e>
10005268:	0020      	movs	r0, r4
1000526a:	f7ff f809 	bl	10004280 <irq_set_exclusive_handler>
1000526e:	2101      	movs	r1, #1
10005270:	0020      	movs	r0, r4
10005272:	f7fe ffcd 	bl	10004210 <irq_set_enabled>
10005276:	2301      	movs	r3, #1
10005278:	40a3      	lsls	r3, r4
1000527a:	4a11      	ldr	r2, [pc, #68]	; (100052c0 <hardware_alarm_set_callback+0x80>)
1000527c:	6013      	str	r3, [r2, #0]
1000527e:	4b11      	ldr	r3, [pc, #68]	; (100052c4 <hardware_alarm_set_callback+0x84>)
10005280:	00a4      	lsls	r4, r4, #2
10005282:	50e5      	str	r5, [r4, r3]
10005284:	f3bf 8f5f 	dmb	sy
10005288:	2200      	movs	r2, #0
1000528a:	4b0b      	ldr	r3, [pc, #44]	; (100052b8 <hardware_alarm_set_callback+0x78>)
1000528c:	601a      	str	r2, [r3, #0]
1000528e:	f386 8810 	msr	PRIMASK, r6
10005292:	bd70      	pop	{r4, r5, r6, pc}
10005294:	2101      	movs	r1, #1
10005296:	40a1      	lsls	r1, r4
10005298:	4b0a      	ldr	r3, [pc, #40]	; (100052c4 <hardware_alarm_set_callback+0x84>)
1000529a:	00a2      	lsls	r2, r4, #2
1000529c:	50d5      	str	r5, [r2, r3]
1000529e:	4b0a      	ldr	r3, [pc, #40]	; (100052c8 <hardware_alarm_set_callback+0x88>)
100052a0:	0020      	movs	r0, r4
100052a2:	781a      	ldrb	r2, [r3, #0]
100052a4:	438a      	bics	r2, r1
100052a6:	4905      	ldr	r1, [pc, #20]	; (100052bc <hardware_alarm_set_callback+0x7c>)
100052a8:	701a      	strb	r2, [r3, #0]
100052aa:	f7ff f905 	bl	100044b8 <irq_remove_handler>
100052ae:	2100      	movs	r1, #0
100052b0:	0020      	movs	r0, r4
100052b2:	f7fe ffad 	bl	10004210 <irq_set_enabled>
100052b6:	e7e5      	b.n	10005284 <hardware_alarm_set_callback+0x44>
100052b8:	d0000128 	.word	0xd0000128
100052bc:	10005139 	.word	0x10005139
100052c0:	40056038 	.word	0x40056038
100052c4:	20001b50 	.word	0x20001b50
100052c8:	200021af 	.word	0x200021af

100052cc <hardware_alarm_set_target>:
100052cc:	b5f0      	push	{r4, r5, r6, r7, lr}
100052ce:	464f      	mov	r7, r9
100052d0:	46d6      	mov	lr, sl
100052d2:	4646      	mov	r6, r8
100052d4:	b5c0      	push	{r6, r7, lr}
100052d6:	0007      	movs	r7, r0
100052d8:	4c2f      	ldr	r4, [pc, #188]	; (10005398 <hardware_alarm_set_target+0xcc>)
100052da:	6a61      	ldr	r1, [r4, #36]	; 0x24
100052dc:	000d      	movs	r5, r1
100052de:	6aa6      	ldr	r6, [r4, #40]	; 0x28
100052e0:	6a61      	ldr	r1, [r4, #36]	; 0x24
100052e2:	42a9      	cmp	r1, r5
100052e4:	d1fa      	bne.n	100052dc <hardware_alarm_set_target+0x10>
100052e6:	428b      	cmp	r3, r1
100052e8:	d808      	bhi.n	100052fc <hardware_alarm_set_target+0x30>
100052ea:	d005      	beq.n	100052f8 <hardware_alarm_set_target+0x2c>
100052ec:	2001      	movs	r0, #1
100052ee:	bce0      	pop	{r5, r6, r7}
100052f0:	46ba      	mov	sl, r7
100052f2:	46b1      	mov	r9, r6
100052f4:	46a8      	mov	r8, r5
100052f6:	bdf0      	pop	{r4, r5, r6, r7, pc}
100052f8:	42b2      	cmp	r2, r6
100052fa:	d9f7      	bls.n	100052ec <hardware_alarm_set_target+0x20>
100052fc:	f3ef 8a10 	mrs	sl, PRIMASK
10005300:	b672      	cpsid	i
10005302:	4826      	ldr	r0, [pc, #152]	; (1000539c <hardware_alarm_set_target+0xd0>)
10005304:	6801      	ldr	r1, [r0, #0]
10005306:	2900      	cmp	r1, #0
10005308:	d0fc      	beq.n	10005304 <hardware_alarm_set_target+0x38>
1000530a:	f3bf 8f5f 	dmb	sy
1000530e:	2501      	movs	r5, #1
10005310:	40bd      	lsls	r5, r7
10005312:	4923      	ldr	r1, [pc, #140]	; (100053a0 <hardware_alarm_set_target+0xd4>)
10005314:	4c20      	ldr	r4, [pc, #128]	; (10005398 <hardware_alarm_set_target+0xcc>)
10005316:	4688      	mov	r8, r1
10005318:	7809      	ldrb	r1, [r1, #0]
1000531a:	4689      	mov	r9, r1
1000531c:	4329      	orrs	r1, r5
1000531e:	b2c9      	uxtb	r1, r1
10005320:	468c      	mov	ip, r1
10005322:	4641      	mov	r1, r8
10005324:	4660      	mov	r0, ip
10005326:	7008      	strb	r0, [r1, #0]
10005328:	1d39      	adds	r1, r7, #4
1000532a:	0089      	lsls	r1, r1, #2
1000532c:	6365      	str	r5, [r4, #52]	; 0x34
1000532e:	510a      	str	r2, [r1, r4]
10005330:	491c      	ldr	r1, [pc, #112]	; (100053a4 <hardware_alarm_set_target+0xd8>)
10005332:	00b8      	lsls	r0, r7, #2
10005334:	5043      	str	r3, [r0, r1]
10005336:	6a21      	ldr	r1, [r4, #32]
10005338:	2000      	movs	r0, #0
1000533a:	4229      	tst	r1, r5
1000533c:	d019      	beq.n	10005372 <hardware_alarm_set_target+0xa6>
1000533e:	6a61      	ldr	r1, [r4, #36]	; 0x24
10005340:	0008      	movs	r0, r1
10005342:	6aa6      	ldr	r6, [r4, #40]	; 0x28
10005344:	6a61      	ldr	r1, [r4, #36]	; 0x24
10005346:	4281      	cmp	r1, r0
10005348:	d1fa      	bne.n	10005340 <hardware_alarm_set_target+0x74>
1000534a:	428b      	cmp	r3, r1
1000534c:	d819      	bhi.n	10005382 <hardware_alarm_set_target+0xb6>
1000534e:	d101      	bne.n	10005354 <hardware_alarm_set_target+0x88>
10005350:	42b2      	cmp	r2, r6
10005352:	d816      	bhi.n	10005382 <hardware_alarm_set_target+0xb6>
10005354:	45cc      	cmp	ip, r9
10005356:	d01d      	beq.n	10005394 <hardware_alarm_set_target+0xc8>
10005358:	4b0f      	ldr	r3, [pc, #60]	; (10005398 <hardware_alarm_set_target+0xcc>)
1000535a:	221f      	movs	r2, #31
1000535c:	621d      	str	r5, [r3, #32]
1000535e:	635d      	str	r5, [r3, #52]	; 0x34
10005360:	2301      	movs	r3, #1
10005362:	403a      	ands	r2, r7
10005364:	4093      	lsls	r3, r2
10005366:	4a10      	ldr	r2, [pc, #64]	; (100053a8 <hardware_alarm_set_target+0xdc>)
10005368:	2001      	movs	r0, #1
1000536a:	6013      	str	r3, [r2, #0]
1000536c:	4643      	mov	r3, r8
1000536e:	464a      	mov	r2, r9
10005370:	701a      	strb	r2, [r3, #0]
10005372:	f3bf 8f5f 	dmb	sy
10005376:	2200      	movs	r2, #0
10005378:	4b08      	ldr	r3, [pc, #32]	; (1000539c <hardware_alarm_set_target+0xd0>)
1000537a:	601a      	str	r2, [r3, #0]
1000537c:	f38a 8810 	msr	PRIMASK, sl
10005380:	e7b5      	b.n	100052ee <hardware_alarm_set_target+0x22>
10005382:	2000      	movs	r0, #0
10005384:	f3bf 8f5f 	dmb	sy
10005388:	2200      	movs	r2, #0
1000538a:	4b04      	ldr	r3, [pc, #16]	; (1000539c <hardware_alarm_set_target+0xd0>)
1000538c:	601a      	str	r2, [r3, #0]
1000538e:	f38a 8810 	msr	PRIMASK, sl
10005392:	e7ac      	b.n	100052ee <hardware_alarm_set_target+0x22>
10005394:	2001      	movs	r0, #1
10005396:	e7ec      	b.n	10005372 <hardware_alarm_set_target+0xa6>
10005398:	40054000 	.word	0x40054000
1000539c:	d0000128 	.word	0xd0000128
100053a0:	200021af 	.word	0x200021af
100053a4:	2000215c 	.word	0x2000215c
100053a8:	e000e280 	.word	0xe000e280

100053ac <hardware_alarm_cancel>:
100053ac:	f3ef 8c10 	mrs	ip, PRIMASK
100053b0:	b672      	cpsid	i
100053b2:	490a      	ldr	r1, [pc, #40]	; (100053dc <hardware_alarm_cancel+0x30>)
100053b4:	680b      	ldr	r3, [r1, #0]
100053b6:	2b00      	cmp	r3, #0
100053b8:	d0fc      	beq.n	100053b4 <hardware_alarm_cancel+0x8>
100053ba:	f3bf 8f5f 	dmb	sy
100053be:	2301      	movs	r3, #1
100053c0:	4083      	lsls	r3, r0
100053c2:	4a07      	ldr	r2, [pc, #28]	; (100053e0 <hardware_alarm_cancel+0x34>)
100053c4:	4807      	ldr	r0, [pc, #28]	; (100053e4 <hardware_alarm_cancel+0x38>)
100053c6:	6213      	str	r3, [r2, #32]
100053c8:	7802      	ldrb	r2, [r0, #0]
100053ca:	439a      	bics	r2, r3
100053cc:	7002      	strb	r2, [r0, #0]
100053ce:	f3bf 8f5f 	dmb	sy
100053d2:	2300      	movs	r3, #0
100053d4:	600b      	str	r3, [r1, #0]
100053d6:	f38c 8810 	msr	PRIMASK, ip
100053da:	4770      	bx	lr
100053dc:	d0000128 	.word	0xd0000128
100053e0:	40054000 	.word	0x40054000
100053e4:	200021af 	.word	0x200021af

100053e8 <ph_merge_nodes>:
100053e8:	b570      	push	{r4, r5, r6, lr}
100053ea:	0005      	movs	r5, r0
100053ec:	0014      	movs	r4, r2
100053ee:	0016      	movs	r6, r2
100053f0:	2900      	cmp	r1, #0
100053f2:	d015      	beq.n	10005420 <ph_merge_nodes+0x38>
100053f4:	000c      	movs	r4, r1
100053f6:	2a00      	cmp	r2, #0
100053f8:	d012      	beq.n	10005420 <ph_merge_nodes+0x38>
100053fa:	6880      	ldr	r0, [r0, #8]
100053fc:	686b      	ldr	r3, [r5, #4]
100053fe:	4798      	blx	r3
10005400:	6829      	ldr	r1, [r5, #0]
10005402:	2800      	cmp	r0, #0
10005404:	d00e      	beq.n	10005424 <ph_merge_nodes+0x3c>
10005406:	0073      	lsls	r3, r6, #1
10005408:	199b      	adds	r3, r3, r6
1000540a:	0062      	lsls	r2, r4, #1
1000540c:	3b03      	subs	r3, #3
1000540e:	1912      	adds	r2, r2, r4
10005410:	18cb      	adds	r3, r1, r3
10005412:	3a03      	subs	r2, #3
10005414:	709c      	strb	r4, [r3, #2]
10005416:	1888      	adds	r0, r1, r2
10005418:	5c8a      	ldrb	r2, [r1, r2]
1000541a:	2a00      	cmp	r2, #0
1000541c:	d115      	bne.n	1000544a <ph_merge_nodes+0x62>
1000541e:	7006      	strb	r6, [r0, #0]
10005420:	0020      	movs	r0, r4
10005422:	bd70      	pop	{r4, r5, r6, pc}
10005424:	0063      	lsls	r3, r4, #1
10005426:	191b      	adds	r3, r3, r4
10005428:	0072      	lsls	r2, r6, #1
1000542a:	3b03      	subs	r3, #3
1000542c:	1992      	adds	r2, r2, r6
1000542e:	18cb      	adds	r3, r1, r3
10005430:	3a03      	subs	r2, #3
10005432:	709e      	strb	r6, [r3, #2]
10005434:	1888      	adds	r0, r1, r2
10005436:	5c8a      	ldrb	r2, [r1, r2]
10005438:	2a00      	cmp	r2, #0
1000543a:	d102      	bne.n	10005442 <ph_merge_nodes+0x5a>
1000543c:	7004      	strb	r4, [r0, #0]
1000543e:	0034      	movs	r4, r6
10005440:	e7ee      	b.n	10005420 <ph_merge_nodes+0x38>
10005442:	705a      	strb	r2, [r3, #1]
10005444:	7004      	strb	r4, [r0, #0]
10005446:	0034      	movs	r4, r6
10005448:	e7ea      	b.n	10005420 <ph_merge_nodes+0x38>
1000544a:	705a      	strb	r2, [r3, #1]
1000544c:	7006      	strb	r6, [r0, #0]
1000544e:	e7e7      	b.n	10005420 <ph_merge_nodes+0x38>

10005450 <ph_post_alloc_init>:
10005450:	b530      	push	{r4, r5, lr}
10005452:	6083      	str	r3, [r0, #8]
10005454:	2300      	movs	r3, #0
10005456:	b2cc      	uxtb	r4, r1
10005458:	7343      	strb	r3, [r0, #13]
1000545a:	3301      	adds	r3, #1
1000545c:	7304      	strb	r4, [r0, #12]
1000545e:	6042      	str	r2, [r0, #4]
10005460:	7383      	strb	r3, [r0, #14]
10005462:	73c4      	strb	r4, [r0, #15]
10005464:	000d      	movs	r5, r1
10005466:	6800      	ldr	r0, [r0, #0]
10005468:	2c01      	cmp	r4, #1
1000546a:	d906      	bls.n	1000547a <ph_post_alloc_init+0x2a>
1000546c:	1c42      	adds	r2, r0, #1
1000546e:	3301      	adds	r3, #1
10005470:	b2db      	uxtb	r3, r3
10005472:	7013      	strb	r3, [r2, #0]
10005474:	3203      	adds	r2, #3
10005476:	429c      	cmp	r4, r3
10005478:	d1f9      	bne.n	1000546e <ph_post_alloc_init+0x1e>
1000547a:	21ff      	movs	r1, #255	; 0xff
1000547c:	4029      	ands	r1, r5
1000547e:	004b      	lsls	r3, r1, #1
10005480:	185b      	adds	r3, r3, r1
10005482:	18c0      	adds	r0, r0, r3
10005484:	2300      	movs	r3, #0
10005486:	3803      	subs	r0, #3
10005488:	7043      	strb	r3, [r0, #1]
1000548a:	bd30      	pop	{r4, r5, pc}

1000548c <ph_merge_two_pass>:
1000548c:	b5f8      	push	{r3, r4, r5, r6, r7, lr}
1000548e:	0005      	movs	r5, r0
10005490:	1e0c      	subs	r4, r1, #0
10005492:	d007      	beq.n	100054a4 <ph_merge_two_pass+0x18>
10005494:	0063      	lsls	r3, r4, #1
10005496:	6801      	ldr	r1, [r0, #0]
10005498:	191b      	adds	r3, r3, r4
1000549a:	3b03      	subs	r3, #3
1000549c:	18cb      	adds	r3, r1, r3
1000549e:	785a      	ldrb	r2, [r3, #1]
100054a0:	2a00      	cmp	r2, #0
100054a2:	d101      	bne.n	100054a8 <ph_merge_two_pass+0x1c>
100054a4:	0020      	movs	r0, r4
100054a6:	bdf8      	pop	{r3, r4, r5, r6, r7, pc}
100054a8:	0050      	lsls	r0, r2, #1
100054aa:	1880      	adds	r0, r0, r2
100054ac:	3803      	subs	r0, #3
100054ae:	1809      	adds	r1, r1, r0
100054b0:	2000      	movs	r0, #0
100054b2:	784f      	ldrb	r7, [r1, #1]
100054b4:	7048      	strb	r0, [r1, #1]
100054b6:	0021      	movs	r1, r4
100054b8:	7058      	strb	r0, [r3, #1]
100054ba:	0028      	movs	r0, r5
100054bc:	f7ff ff94 	bl	100053e8 <ph_merge_nodes>
100054c0:	0039      	movs	r1, r7
100054c2:	0006      	movs	r6, r0
100054c4:	0028      	movs	r0, r5
100054c6:	f7ff ffe1 	bl	1000548c <ph_merge_two_pass>
100054ca:	0004      	movs	r4, r0
100054cc:	2e00      	cmp	r6, #0
100054ce:	d0e9      	beq.n	100054a4 <ph_merge_two_pass+0x18>
100054d0:	2800      	cmp	r0, #0
100054d2:	d026      	beq.n	10005522 <ph_merge_two_pass+0x96>
100054d4:	0031      	movs	r1, r6
100054d6:	0022      	movs	r2, r4
100054d8:	68a8      	ldr	r0, [r5, #8]
100054da:	686b      	ldr	r3, [r5, #4]
100054dc:	4798      	blx	r3
100054de:	6829      	ldr	r1, [r5, #0]
100054e0:	2800      	cmp	r0, #0
100054e2:	d00f      	beq.n	10005504 <ph_merge_two_pass+0x78>
100054e4:	0063      	lsls	r3, r4, #1
100054e6:	191b      	adds	r3, r3, r4
100054e8:	0072      	lsls	r2, r6, #1
100054ea:	3b03      	subs	r3, #3
100054ec:	1992      	adds	r2, r2, r6
100054ee:	18cb      	adds	r3, r1, r3
100054f0:	3a03      	subs	r2, #3
100054f2:	709e      	strb	r6, [r3, #2]
100054f4:	1888      	adds	r0, r1, r2
100054f6:	5c8a      	ldrb	r2, [r1, r2]
100054f8:	2a00      	cmp	r2, #0
100054fa:	d000      	beq.n	100054fe <ph_merge_two_pass+0x72>
100054fc:	705a      	strb	r2, [r3, #1]
100054fe:	7004      	strb	r4, [r0, #0]
10005500:	0034      	movs	r4, r6
10005502:	e7cf      	b.n	100054a4 <ph_merge_two_pass+0x18>
10005504:	0073      	lsls	r3, r6, #1
10005506:	199b      	adds	r3, r3, r6
10005508:	0062      	lsls	r2, r4, #1
1000550a:	3b03      	subs	r3, #3
1000550c:	1912      	adds	r2, r2, r4
1000550e:	18cb      	adds	r3, r1, r3
10005510:	3a03      	subs	r2, #3
10005512:	709c      	strb	r4, [r3, #2]
10005514:	1888      	adds	r0, r1, r2
10005516:	5c8a      	ldrb	r2, [r1, r2]
10005518:	2a00      	cmp	r2, #0
1000551a:	d000      	beq.n	1000551e <ph_merge_two_pass+0x92>
1000551c:	705a      	strb	r2, [r3, #1]
1000551e:	7006      	strb	r6, [r0, #0]
10005520:	e7c0      	b.n	100054a4 <ph_merge_two_pass+0x18>
10005522:	0034      	movs	r4, r6
10005524:	e7be      	b.n	100054a4 <ph_merge_two_pass+0x18>
10005526:	46c0      	nop			; (mov r8, r8)

10005528 <ph_remove_any_head>:
10005528:	b5f0      	push	{r4, r5, r6, r7, lr}
1000552a:	4657      	mov	r7, sl
1000552c:	4645      	mov	r5, r8
1000552e:	46de      	mov	lr, fp
10005530:	464e      	mov	r6, r9
10005532:	b5e0      	push	{r5, r6, r7, lr}
10005534:	000d      	movs	r5, r1
10005536:	006b      	lsls	r3, r5, #1
10005538:	6801      	ldr	r1, [r0, #0]
1000553a:	195b      	adds	r3, r3, r5
1000553c:	1edf      	subs	r7, r3, #3
1000553e:	0004      	movs	r4, r0
10005540:	5dc8      	ldrb	r0, [r1, r7]
10005542:	b083      	sub	sp, #12
10005544:	9201      	str	r2, [sp, #4]
10005546:	19ca      	adds	r2, r1, r7
10005548:	2800      	cmp	r0, #0
1000554a:	d050      	beq.n	100055ee <ph_remove_any_head+0xc6>
1000554c:	0043      	lsls	r3, r0, #1
1000554e:	181b      	adds	r3, r3, r0
10005550:	3b03      	subs	r3, #3
10005552:	18cb      	adds	r3, r1, r3
10005554:	785e      	ldrb	r6, [r3, #1]
10005556:	46b4      	mov	ip, r6
10005558:	2e00      	cmp	r6, #0
1000555a:	d11a      	bne.n	10005592 <ph_remove_any_head+0x6a>
1000555c:	9e01      	ldr	r6, [sp, #4]
1000555e:	2e00      	cmp	r6, #0
10005560:	d042      	beq.n	100055e8 <ph_remove_any_head+0xc0>
10005562:	7be6      	ldrb	r6, [r4, #15]
10005564:	2e00      	cmp	r6, #0
10005566:	d004      	beq.n	10005572 <ph_remove_any_head+0x4a>
10005568:	0073      	lsls	r3, r6, #1
1000556a:	199b      	adds	r3, r3, r6
1000556c:	18cb      	adds	r3, r1, r3
1000556e:	3b03      	subs	r3, #3
10005570:	705d      	strb	r5, [r3, #1]
10005572:	7ba3      	ldrb	r3, [r4, #14]
10005574:	2b00      	cmp	r3, #0
10005576:	d100      	bne.n	1000557a <ph_remove_any_head+0x52>
10005578:	73a5      	strb	r5, [r4, #14]
1000557a:	73e5      	strb	r5, [r4, #15]
1000557c:	2800      	cmp	r0, #0
1000557e:	d12f      	bne.n	100055e0 <ph_remove_any_head+0xb8>
10005580:	2300      	movs	r3, #0
10005582:	7053      	strb	r3, [r2, #1]
10005584:	b003      	add	sp, #12
10005586:	bcf0      	pop	{r4, r5, r6, r7}
10005588:	46bb      	mov	fp, r7
1000558a:	46b2      	mov	sl, r6
1000558c:	46a9      	mov	r9, r5
1000558e:	46a0      	mov	r8, r4
10005590:	bdf0      	pop	{r4, r5, r6, r7, pc}
10005592:	0072      	lsls	r2, r6, #1
10005594:	4462      	add	r2, ip
10005596:	3a03      	subs	r2, #3
10005598:	188a      	adds	r2, r1, r2
1000559a:	7851      	ldrb	r1, [r2, #1]
1000559c:	4688      	mov	r8, r1
1000559e:	2100      	movs	r1, #0
100055a0:	7051      	strb	r1, [r2, #1]
100055a2:	4689      	mov	r9, r1
100055a4:	7059      	strb	r1, [r3, #1]
100055a6:	0032      	movs	r2, r6
100055a8:	0001      	movs	r1, r0
100055aa:	0020      	movs	r0, r4
100055ac:	f7ff ff1c 	bl	100053e8 <ph_merge_nodes>
100055b0:	4643      	mov	r3, r8
100055b2:	4682      	mov	sl, r0
100055b4:	2b00      	cmp	r3, #0
100055b6:	d007      	beq.n	100055c8 <ph_remove_any_head+0xa0>
100055b8:	005b      	lsls	r3, r3, #1
100055ba:	6821      	ldr	r1, [r4, #0]
100055bc:	4443      	add	r3, r8
100055be:	3b03      	subs	r3, #3
100055c0:	18cb      	adds	r3, r1, r3
100055c2:	785a      	ldrb	r2, [r3, #1]
100055c4:	2a00      	cmp	r2, #0
100055c6:	d116      	bne.n	100055f6 <ph_remove_any_head+0xce>
100055c8:	4642      	mov	r2, r8
100055ca:	4651      	mov	r1, sl
100055cc:	0020      	movs	r0, r4
100055ce:	f7ff ff0b 	bl	100053e8 <ph_merge_nodes>
100055d2:	6821      	ldr	r1, [r4, #0]
100055d4:	9b01      	ldr	r3, [sp, #4]
100055d6:	19ca      	adds	r2, r1, r7
100055d8:	2b00      	cmp	r3, #0
100055da:	d1c2      	bne.n	10005562 <ph_remove_any_head+0x3a>
100055dc:	2800      	cmp	r0, #0
100055de:	d0cf      	beq.n	10005580 <ph_remove_any_head+0x58>
100055e0:	0043      	lsls	r3, r0, #1
100055e2:	181b      	adds	r3, r3, r0
100055e4:	3b03      	subs	r3, #3
100055e6:	18cb      	adds	r3, r1, r3
100055e8:	2100      	movs	r1, #0
100055ea:	7099      	strb	r1, [r3, #2]
100055ec:	e7c8      	b.n	10005580 <ph_remove_any_head+0x58>
100055ee:	9b01      	ldr	r3, [sp, #4]
100055f0:	2b00      	cmp	r3, #0
100055f2:	d1b6      	bne.n	10005562 <ph_remove_any_head+0x3a>
100055f4:	e7c4      	b.n	10005580 <ph_remove_any_head+0x58>
100055f6:	0050      	lsls	r0, r2, #1
100055f8:	1880      	adds	r0, r0, r2
100055fa:	3803      	subs	r0, #3
100055fc:	1809      	adds	r1, r1, r0
100055fe:	7848      	ldrb	r0, [r1, #1]
10005600:	4683      	mov	fp, r0
10005602:	4648      	mov	r0, r9
10005604:	7048      	strb	r0, [r1, #1]
10005606:	7058      	strb	r0, [r3, #1]
10005608:	4641      	mov	r1, r8
1000560a:	0020      	movs	r0, r4
1000560c:	f7ff feec 	bl	100053e8 <ph_merge_nodes>
10005610:	4659      	mov	r1, fp
10005612:	4680      	mov	r8, r0
10005614:	0020      	movs	r0, r4
10005616:	f7ff ff39 	bl	1000548c <ph_merge_two_pass>
1000561a:	4641      	mov	r1, r8
1000561c:	0002      	movs	r2, r0
1000561e:	0020      	movs	r0, r4
10005620:	f7ff fee2 	bl	100053e8 <ph_merge_nodes>
10005624:	4680      	mov	r8, r0
10005626:	e7cf      	b.n	100055c8 <ph_remove_any_head+0xa0>

10005628 <ph_remove_head>:
10005628:	b5f0      	push	{r4, r5, r6, r7, lr}
1000562a:	4657      	mov	r7, sl
1000562c:	4645      	mov	r5, r8
1000562e:	46de      	mov	lr, fp
10005630:	464e      	mov	r6, r9
10005632:	b5e0      	push	{r5, r6, r7, lr}
10005634:	b083      	sub	sp, #12
10005636:	9101      	str	r1, [sp, #4]
10005638:	7b45      	ldrb	r5, [r0, #13]
1000563a:	0004      	movs	r4, r0
1000563c:	006b      	lsls	r3, r5, #1
1000563e:	6800      	ldr	r0, [r0, #0]
10005640:	195b      	adds	r3, r3, r5
10005642:	1edf      	subs	r7, r3, #3
10005644:	5dc1      	ldrb	r1, [r0, r7]
10005646:	19c2      	adds	r2, r0, r7
10005648:	2900      	cmp	r1, #0
1000564a:	d052      	beq.n	100056f2 <ph_remove_head+0xca>
1000564c:	004b      	lsls	r3, r1, #1
1000564e:	185b      	adds	r3, r3, r1
10005650:	3b03      	subs	r3, #3
10005652:	18c3      	adds	r3, r0, r3
10005654:	785e      	ldrb	r6, [r3, #1]
10005656:	46b4      	mov	ip, r6
10005658:	2e00      	cmp	r6, #0
1000565a:	d11c      	bne.n	10005696 <ph_remove_head+0x6e>
1000565c:	9e01      	ldr	r6, [sp, #4]
1000565e:	2e00      	cmp	r6, #0
10005660:	d044      	beq.n	100056ec <ph_remove_head+0xc4>
10005662:	7be6      	ldrb	r6, [r4, #15]
10005664:	2e00      	cmp	r6, #0
10005666:	d004      	beq.n	10005672 <ph_remove_head+0x4a>
10005668:	0073      	lsls	r3, r6, #1
1000566a:	199b      	adds	r3, r3, r6
1000566c:	18c3      	adds	r3, r0, r3
1000566e:	3b03      	subs	r3, #3
10005670:	705d      	strb	r5, [r3, #1]
10005672:	7ba3      	ldrb	r3, [r4, #14]
10005674:	2b00      	cmp	r3, #0
10005676:	d100      	bne.n	1000567a <ph_remove_head+0x52>
10005678:	73a5      	strb	r5, [r4, #14]
1000567a:	73e5      	strb	r5, [r4, #15]
1000567c:	2900      	cmp	r1, #0
1000567e:	d131      	bne.n	100056e4 <ph_remove_head+0xbc>
10005680:	2300      	movs	r3, #0
10005682:	0028      	movs	r0, r5
10005684:	7053      	strb	r3, [r2, #1]
10005686:	7361      	strb	r1, [r4, #13]
10005688:	b003      	add	sp, #12
1000568a:	bcf0      	pop	{r4, r5, r6, r7}
1000568c:	46bb      	mov	fp, r7
1000568e:	46b2      	mov	sl, r6
10005690:	46a9      	mov	r9, r5
10005692:	46a0      	mov	r8, r4
10005694:	bdf0      	pop	{r4, r5, r6, r7, pc}
10005696:	0072      	lsls	r2, r6, #1
10005698:	4462      	add	r2, ip
1000569a:	3a03      	subs	r2, #3
1000569c:	1882      	adds	r2, r0, r2
1000569e:	7850      	ldrb	r0, [r2, #1]
100056a0:	4680      	mov	r8, r0
100056a2:	2000      	movs	r0, #0
100056a4:	7050      	strb	r0, [r2, #1]
100056a6:	4681      	mov	r9, r0
100056a8:	7058      	strb	r0, [r3, #1]
100056aa:	0032      	movs	r2, r6
100056ac:	0020      	movs	r0, r4
100056ae:	f7ff fe9b 	bl	100053e8 <ph_merge_nodes>
100056b2:	4643      	mov	r3, r8
100056b4:	4682      	mov	sl, r0
100056b6:	2b00      	cmp	r3, #0
100056b8:	d007      	beq.n	100056ca <ph_remove_head+0xa2>
100056ba:	005b      	lsls	r3, r3, #1
100056bc:	6821      	ldr	r1, [r4, #0]
100056be:	4443      	add	r3, r8
100056c0:	3b03      	subs	r3, #3
100056c2:	18cb      	adds	r3, r1, r3
100056c4:	785a      	ldrb	r2, [r3, #1]
100056c6:	2a00      	cmp	r2, #0
100056c8:	d117      	bne.n	100056fa <ph_remove_head+0xd2>
100056ca:	4642      	mov	r2, r8
100056cc:	4651      	mov	r1, sl
100056ce:	0020      	movs	r0, r4
100056d0:	f7ff fe8a 	bl	100053e8 <ph_merge_nodes>
100056d4:	9b01      	ldr	r3, [sp, #4]
100056d6:	0001      	movs	r1, r0
100056d8:	6820      	ldr	r0, [r4, #0]
100056da:	19c2      	adds	r2, r0, r7
100056dc:	2b00      	cmp	r3, #0
100056de:	d1c0      	bne.n	10005662 <ph_remove_head+0x3a>
100056e0:	2900      	cmp	r1, #0
100056e2:	d0cd      	beq.n	10005680 <ph_remove_head+0x58>
100056e4:	004b      	lsls	r3, r1, #1
100056e6:	185b      	adds	r3, r3, r1
100056e8:	3b03      	subs	r3, #3
100056ea:	18c3      	adds	r3, r0, r3
100056ec:	2000      	movs	r0, #0
100056ee:	7098      	strb	r0, [r3, #2]
100056f0:	e7c6      	b.n	10005680 <ph_remove_head+0x58>
100056f2:	9b01      	ldr	r3, [sp, #4]
100056f4:	2b00      	cmp	r3, #0
100056f6:	d1b4      	bne.n	10005662 <ph_remove_head+0x3a>
100056f8:	e7c2      	b.n	10005680 <ph_remove_head+0x58>
100056fa:	0050      	lsls	r0, r2, #1
100056fc:	1880      	adds	r0, r0, r2
100056fe:	3803      	subs	r0, #3
10005700:	1809      	adds	r1, r1, r0
10005702:	7848      	ldrb	r0, [r1, #1]
10005704:	4683      	mov	fp, r0
10005706:	4648      	mov	r0, r9
10005708:	7048      	strb	r0, [r1, #1]
1000570a:	7058      	strb	r0, [r3, #1]
1000570c:	4641      	mov	r1, r8
1000570e:	0020      	movs	r0, r4
10005710:	f7ff fe6a 	bl	100053e8 <ph_merge_nodes>
10005714:	4659      	mov	r1, fp
10005716:	4680      	mov	r8, r0
10005718:	0020      	movs	r0, r4
1000571a:	f7ff feb7 	bl	1000548c <ph_merge_two_pass>
1000571e:	4641      	mov	r1, r8
10005720:	0002      	movs	r2, r0
10005722:	0020      	movs	r0, r4
10005724:	f7ff fe60 	bl	100053e8 <ph_merge_nodes>
10005728:	4680      	mov	r8, r0
1000572a:	e7ce      	b.n	100056ca <ph_remove_head+0xa2>

1000572c <ph_remove_and_free_node>:
1000572c:	b570      	push	{r4, r5, r6, lr}
1000572e:	0004      	movs	r4, r0
10005730:	2900      	cmp	r1, #0
10005732:	d02c      	beq.n	1000578e <ph_remove_and_free_node+0x62>
10005734:	7b43      	ldrb	r3, [r0, #13]
10005736:	428b      	cmp	r3, r1
10005738:	d02e      	beq.n	10005798 <ph_remove_and_free_node+0x6c>
1000573a:	6805      	ldr	r5, [r0, #0]
1000573c:	0048      	lsls	r0, r1, #1
1000573e:	1840      	adds	r0, r0, r1
10005740:	3803      	subs	r0, #3
10005742:	1828      	adds	r0, r5, r0
10005744:	7882      	ldrb	r2, [r0, #2]
10005746:	2a00      	cmp	r2, #0
10005748:	d021      	beq.n	1000578e <ph_remove_and_free_node+0x62>
1000574a:	0053      	lsls	r3, r2, #1
1000574c:	189b      	adds	r3, r3, r2
1000574e:	3b03      	subs	r3, #3
10005750:	5cea      	ldrb	r2, [r5, r3]
10005752:	18ee      	adds	r6, r5, r3
10005754:	428a      	cmp	r2, r1
10005756:	d102      	bne.n	1000575e <ph_remove_and_free_node+0x32>
10005758:	e01b      	b.n	10005792 <ph_remove_and_free_node+0x66>
1000575a:	2a00      	cmp	r2, #0
1000575c:	d008      	beq.n	10005770 <ph_remove_and_free_node+0x44>
1000575e:	0053      	lsls	r3, r2, #1
10005760:	189b      	adds	r3, r3, r2
10005762:	3b03      	subs	r3, #3
10005764:	18eb      	adds	r3, r5, r3
10005766:	785a      	ldrb	r2, [r3, #1]
10005768:	428a      	cmp	r2, r1
1000576a:	d1f6      	bne.n	1000575a <ph_remove_and_free_node+0x2e>
1000576c:	7842      	ldrb	r2, [r0, #1]
1000576e:	705a      	strb	r2, [r3, #1]
10005770:	2300      	movs	r3, #0
10005772:	2201      	movs	r2, #1
10005774:	7083      	strb	r3, [r0, #2]
10005776:	7043      	strb	r3, [r0, #1]
10005778:	0020      	movs	r0, r4
1000577a:	f7ff fed5 	bl	10005528 <ph_remove_any_head>
1000577e:	7b61      	ldrb	r1, [r4, #13]
10005780:	0002      	movs	r2, r0
10005782:	0020      	movs	r0, r4
10005784:	f7ff fe30 	bl	100053e8 <ph_merge_nodes>
10005788:	7360      	strb	r0, [r4, #13]
1000578a:	2001      	movs	r0, #1
1000578c:	e000      	b.n	10005790 <ph_remove_and_free_node+0x64>
1000578e:	2000      	movs	r0, #0
10005790:	bd70      	pop	{r4, r5, r6, pc}
10005792:	7843      	ldrb	r3, [r0, #1]
10005794:	7033      	strb	r3, [r6, #0]
10005796:	e7eb      	b.n	10005770 <ph_remove_and_free_node+0x44>
10005798:	2201      	movs	r2, #1
1000579a:	0019      	movs	r1, r3
1000579c:	f7ff fec4 	bl	10005528 <ph_remove_any_head>
100057a0:	7360      	strb	r0, [r4, #13]
100057a2:	2001      	movs	r0, #1
100057a4:	e7f4      	b.n	10005790 <ph_remove_and_free_node+0x64>
100057a6:	46c0      	nop			; (mov r8, r8)

100057a8 <uart_init>:
100057a8:	b5f8      	push	{r3, r4, r5, r6, r7, lr}
100057aa:	0004      	movs	r4, r0
100057ac:	2006      	movs	r0, #6
100057ae:	000d      	movs	r5, r1
100057b0:	f000 f9c2 	bl	10005b38 <clock_get_hz>
100057b4:	2800      	cmp	r0, #0
100057b6:	d044      	beq.n	10005842 <uart_init+0x9a>
100057b8:	4b2a      	ldr	r3, [pc, #168]	; (10005864 <uart_init+0xbc>)
100057ba:	492b      	ldr	r1, [pc, #172]	; (10005868 <uart_init+0xc0>)
100057bc:	18e2      	adds	r2, r4, r3
100057be:	4253      	negs	r3, r2
100057c0:	415a      	adcs	r2, r3
100057c2:	2380      	movs	r3, #128	; 0x80
100057c4:	03db      	lsls	r3, r3, #15
100057c6:	469c      	mov	ip, r3
100057c8:	0592      	lsls	r2, r2, #22
100057ca:	4b28      	ldr	r3, [pc, #160]	; (1000586c <uart_init+0xc4>)
100057cc:	4462      	add	r2, ip
100057ce:	601a      	str	r2, [r3, #0]
100057d0:	4b27      	ldr	r3, [pc, #156]	; (10005870 <uart_init+0xc8>)
100057d2:	601a      	str	r2, [r3, #0]
100057d4:	0010      	movs	r0, r2
100057d6:	688b      	ldr	r3, [r1, #8]
100057d8:	4398      	bics	r0, r3
100057da:	d1fb      	bne.n	100057d4 <uart_init+0x2c>
100057dc:	4b21      	ldr	r3, [pc, #132]	; (10005864 <uart_init+0xbc>)
100057de:	4a25      	ldr	r2, [pc, #148]	; (10005874 <uart_init+0xcc>)
100057e0:	18e3      	adds	r3, r4, r3
100057e2:	4259      	negs	r1, r3
100057e4:	414b      	adcs	r3, r1
100057e6:	2180      	movs	r1, #128	; 0x80
100057e8:	005b      	lsls	r3, r3, #1
100057ea:	0049      	lsls	r1, r1, #1
100057ec:	5299      	strh	r1, [r3, r2]
100057ee:	2006      	movs	r0, #6
100057f0:	f000 f9a2 	bl	10005b38 <clock_get_hz>
100057f4:	0029      	movs	r1, r5
100057f6:	00c0      	lsls	r0, r0, #3
100057f8:	f000 fbce 	bl	10005f98 <__wrap___aeabi_uidiv>
100057fc:	09c3      	lsrs	r3, r0, #7
100057fe:	d121      	bne.n	10005844 <uart_init+0x9c>
10005800:	2740      	movs	r7, #64	; 0x40
10005802:	2101      	movs	r1, #1
10005804:	0026      	movs	r6, r4
10005806:	2580      	movs	r5, #128	; 0x80
10005808:	6261      	str	r1, [r4, #36]	; 0x24
1000580a:	62a3      	str	r3, [r4, #40]	; 0x28
1000580c:	2300      	movs	r3, #0
1000580e:	362c      	adds	r6, #44	; 0x2c
10005810:	01ad      	lsls	r5, r5, #6
10005812:	4335      	orrs	r5, r6
10005814:	602b      	str	r3, [r5, #0]
10005816:	2006      	movs	r0, #6
10005818:	f000 f98e 	bl	10005b38 <clock_get_hz>
1000581c:	0039      	movs	r1, r7
1000581e:	0080      	lsls	r0, r0, #2
10005820:	f000 fbba 	bl	10005f98 <__wrap___aeabi_uidiv>
10005824:	2260      	movs	r2, #96	; 0x60
10005826:	6ae3      	ldr	r3, [r4, #44]	; 0x2c
10005828:	4053      	eors	r3, r2
1000582a:	320e      	adds	r2, #14
1000582c:	401a      	ands	r2, r3
1000582e:	2380      	movs	r3, #128	; 0x80
10005830:	015b      	lsls	r3, r3, #5
10005832:	4333      	orrs	r3, r6
10005834:	601a      	str	r2, [r3, #0]
10005836:	4b10      	ldr	r3, [pc, #64]	; (10005878 <uart_init+0xd0>)
10005838:	6323      	str	r3, [r4, #48]	; 0x30
1000583a:	2310      	movs	r3, #16
1000583c:	602b      	str	r3, [r5, #0]
1000583e:	3b0d      	subs	r3, #13
10005840:	64a3      	str	r3, [r4, #72]	; 0x48
10005842:	bdf8      	pop	{r3, r4, r5, r6, r7, pc}
10005844:	4a0d      	ldr	r2, [pc, #52]	; (1000587c <uart_init+0xd4>)
10005846:	4293      	cmp	r3, r2
10005848:	d903      	bls.n	10005852 <uart_init+0xaa>
1000584a:	2300      	movs	r3, #0
1000584c:	4f0c      	ldr	r7, [pc, #48]	; (10005880 <uart_init+0xd8>)
1000584e:	490d      	ldr	r1, [pc, #52]	; (10005884 <uart_init+0xdc>)
10005850:	e7d8      	b.n	10005804 <uart_init+0x5c>
10005852:	227f      	movs	r2, #127	; 0x7f
10005854:	4002      	ands	r2, r0
10005856:	3201      	adds	r2, #1
10005858:	0852      	lsrs	r2, r2, #1
1000585a:	019f      	lsls	r7, r3, #6
1000585c:	0019      	movs	r1, r3
1000585e:	18bf      	adds	r7, r7, r2
10005860:	0013      	movs	r3, r2
10005862:	e7cf      	b.n	10005804 <uart_init+0x5c>
10005864:	bffc8000 	.word	0xbffc8000
10005868:	4000c000 	.word	0x4000c000
1000586c:	4000e000 	.word	0x4000e000
10005870:	4000f000 	.word	0x4000f000
10005874:	2000216c 	.word	0x2000216c
10005878:	00000301 	.word	0x00000301
1000587c:	0000fffe 	.word	0x0000fffe
10005880:	003fffc0 	.word	0x003fffc0
10005884:	0000ffff 	.word	0x0000ffff

10005888 <clocks_init>:
10005888:	b510      	push	{r4, lr}
1000588a:	200c      	movs	r0, #12
1000588c:	b082      	sub	sp, #8
1000588e:	f000 f9ad 	bl	10005bec <watchdog_start_tick>
10005892:	f7fe fc19 	bl	100040c8 <running_on_fpga>
10005896:	2800      	cmp	r0, #0
10005898:	d00e      	beq.n	100058b8 <clocks_init+0x30>
1000589a:	4b85      	ldr	r3, [pc, #532]	; (10005ab0 <clocks_init+0x228>)
1000589c:	4a85      	ldr	r2, [pc, #532]	; (10005ab4 <clocks_init+0x22c>)
1000589e:	601a      	str	r2, [r3, #0]
100058a0:	605a      	str	r2, [r3, #4]
100058a2:	609a      	str	r2, [r3, #8]
100058a4:	60da      	str	r2, [r3, #12]
100058a6:	611a      	str	r2, [r3, #16]
100058a8:	615a      	str	r2, [r3, #20]
100058aa:	619a      	str	r2, [r3, #24]
100058ac:	61da      	str	r2, [r3, #28]
100058ae:	621a      	str	r2, [r3, #32]
100058b0:	4a81      	ldr	r2, [pc, #516]	; (10005ab8 <clocks_init+0x230>)
100058b2:	625a      	str	r2, [r3, #36]	; 0x24
100058b4:	b002      	add	sp, #8
100058b6:	bd10      	pop	{r4, pc}
100058b8:	4c80      	ldr	r4, [pc, #512]	; (10005abc <clocks_init+0x234>)
100058ba:	67a0      	str	r0, [r4, #120]	; 0x78
100058bc:	f000 fa3a 	bl	10005d34 <xosc_init>
100058c0:	2201      	movs	r2, #1
100058c2:	4b7f      	ldr	r3, [pc, #508]	; (10005ac0 <clocks_init+0x238>)
100058c4:	601a      	str	r2, [r3, #0]
100058c6:	6c63      	ldr	r3, [r4, #68]	; 0x44
100058c8:	2b01      	cmp	r3, #1
100058ca:	d1fc      	bne.n	100058c6 <clocks_init+0x3e>
100058cc:	2203      	movs	r2, #3
100058ce:	4b7d      	ldr	r3, [pc, #500]	; (10005ac4 <clocks_init+0x23c>)
100058d0:	601a      	str	r2, [r3, #0]
100058d2:	4a7a      	ldr	r2, [pc, #488]	; (10005abc <clocks_init+0x234>)
100058d4:	6b93      	ldr	r3, [r2, #56]	; 0x38
100058d6:	2b01      	cmp	r3, #1
100058d8:	d1fc      	bne.n	100058d4 <clocks_init+0x4c>
100058da:	3301      	adds	r3, #1
100058dc:	2101      	movs	r1, #1
100058de:	4a7a      	ldr	r2, [pc, #488]	; (10005ac8 <clocks_init+0x240>)
100058e0:	487a      	ldr	r0, [pc, #488]	; (10005acc <clocks_init+0x244>)
100058e2:	9300      	str	r3, [sp, #0]
100058e4:	3304      	adds	r3, #4
100058e6:	f000 f92d 	bl	10005b44 <pll_init>
100058ea:	2305      	movs	r3, #5
100058ec:	4a78      	ldr	r2, [pc, #480]	; (10005ad0 <clocks_init+0x248>)
100058ee:	9300      	str	r3, [sp, #0]
100058f0:	2101      	movs	r1, #1
100058f2:	4878      	ldr	r0, [pc, #480]	; (10005ad4 <clocks_init+0x24c>)
100058f4:	f000 f926 	bl	10005b44 <pll_init>
100058f8:	4b77      	ldr	r3, [pc, #476]	; (10005ad8 <clocks_init+0x250>)
100058fa:	685a      	ldr	r2, [r3, #4]
100058fc:	2aff      	cmp	r2, #255	; 0xff
100058fe:	d802      	bhi.n	10005906 <clocks_init+0x7e>
10005900:	2280      	movs	r2, #128	; 0x80
10005902:	0052      	lsls	r2, r2, #1
10005904:	605a      	str	r2, [r3, #4]
10005906:	2280      	movs	r2, #128	; 0x80
10005908:	4b6e      	ldr	r3, [pc, #440]	; (10005ac4 <clocks_init+0x23c>)
1000590a:	4c69      	ldr	r4, [pc, #420]	; (10005ab0 <clocks_init+0x228>)
1000590c:	0112      	lsls	r2, r2, #4
1000590e:	601a      	str	r2, [r3, #0]
10005910:	6921      	ldr	r1, [r4, #16]
10005912:	2900      	cmp	r1, #0
10005914:	d005      	beq.n	10005922 <clocks_init+0x9a>
10005916:	6960      	ldr	r0, [r4, #20]
10005918:	f000 fb3e 	bl	10005f98 <__wrap___aeabi_uidiv>
1000591c:	3001      	adds	r0, #1
1000591e:	3801      	subs	r0, #1
10005920:	d1fd      	bne.n	1000591e <clocks_init+0x96>
10005922:	22e0      	movs	r2, #224	; 0xe0
10005924:	4b6c      	ldr	r3, [pc, #432]	; (10005ad8 <clocks_init+0x250>)
10005926:	486d      	ldr	r0, [pc, #436]	; (10005adc <clocks_init+0x254>)
10005928:	6819      	ldr	r1, [r3, #0]
1000592a:	400a      	ands	r2, r1
1000592c:	6002      	str	r2, [r0, #0]
1000592e:	2202      	movs	r2, #2
10005930:	6819      	ldr	r1, [r3, #0]
10005932:	4051      	eors	r1, r2
10005934:	3201      	adds	r2, #1
10005936:	400a      	ands	r2, r1
10005938:	2104      	movs	r1, #4
1000593a:	6002      	str	r2, [r0, #0]
1000593c:	689a      	ldr	r2, [r3, #8]
1000593e:	4211      	tst	r1, r2
10005940:	d0fc      	beq.n	1000593c <clocks_init+0xb4>
10005942:	2180      	movs	r1, #128	; 0x80
10005944:	4a66      	ldr	r2, [pc, #408]	; (10005ae0 <clocks_init+0x258>)
10005946:	0109      	lsls	r1, r1, #4
10005948:	6011      	str	r1, [r2, #0]
1000594a:	2280      	movs	r2, #128	; 0x80
1000594c:	0052      	lsls	r2, r2, #1
1000594e:	605a      	str	r2, [r3, #4]
10005950:	4b64      	ldr	r3, [pc, #400]	; (10005ae4 <clocks_init+0x25c>)
10005952:	6123      	str	r3, [r4, #16]
10005954:	4b64      	ldr	r3, [pc, #400]	; (10005ae8 <clocks_init+0x260>)
10005956:	6859      	ldr	r1, [r3, #4]
10005958:	29ff      	cmp	r1, #255	; 0xff
1000595a:	d800      	bhi.n	1000595e <clocks_init+0xd6>
1000595c:	605a      	str	r2, [r3, #4]
1000595e:	2203      	movs	r2, #3
10005960:	2101      	movs	r1, #1
10005962:	4b57      	ldr	r3, [pc, #348]	; (10005ac0 <clocks_init+0x238>)
10005964:	601a      	str	r2, [r3, #0]
10005966:	4a60      	ldr	r2, [pc, #384]	; (10005ae8 <clocks_init+0x260>)
10005968:	6893      	ldr	r3, [r2, #8]
1000596a:	4219      	tst	r1, r3
1000596c:	d0fc      	beq.n	10005968 <clocks_init+0xe0>
1000596e:	23e0      	movs	r3, #224	; 0xe0
10005970:	6810      	ldr	r0, [r2, #0]
10005972:	4003      	ands	r3, r0
10005974:	485d      	ldr	r0, [pc, #372]	; (10005aec <clocks_init+0x264>)
10005976:	6003      	str	r3, [r0, #0]
10005978:	6812      	ldr	r2, [r2, #0]
1000597a:	2303      	movs	r3, #3
1000597c:	404a      	eors	r2, r1
1000597e:	2102      	movs	r1, #2
10005980:	4013      	ands	r3, r2
10005982:	4a59      	ldr	r2, [pc, #356]	; (10005ae8 <clocks_init+0x260>)
10005984:	6003      	str	r3, [r0, #0]
10005986:	6893      	ldr	r3, [r2, #8]
10005988:	4219      	tst	r1, r3
1000598a:	d0fc      	beq.n	10005986 <clocks_init+0xfe>
1000598c:	2180      	movs	r1, #128	; 0x80
1000598e:	4b58      	ldr	r3, [pc, #352]	; (10005af0 <clocks_init+0x268>)
10005990:	0109      	lsls	r1, r1, #4
10005992:	6019      	str	r1, [r3, #0]
10005994:	2180      	movs	r1, #128	; 0x80
10005996:	4b57      	ldr	r3, [pc, #348]	; (10005af4 <clocks_init+0x26c>)
10005998:	0049      	lsls	r1, r1, #1
1000599a:	6051      	str	r1, [r2, #4]
1000599c:	6163      	str	r3, [r4, #20]
1000599e:	4b56      	ldr	r3, [pc, #344]	; (10005af8 <clocks_init+0x270>)
100059a0:	685a      	ldr	r2, [r3, #4]
100059a2:	2aff      	cmp	r2, #255	; 0xff
100059a4:	d800      	bhi.n	100059a8 <clocks_init+0x120>
100059a6:	6059      	str	r1, [r3, #4]
100059a8:	2280      	movs	r2, #128	; 0x80
100059aa:	4b54      	ldr	r3, [pc, #336]	; (10005afc <clocks_init+0x274>)
100059ac:	0112      	lsls	r2, r2, #4
100059ae:	601a      	str	r2, [r3, #0]
100059b0:	69e1      	ldr	r1, [r4, #28]
100059b2:	2900      	cmp	r1, #0
100059b4:	d005      	beq.n	100059c2 <clocks_init+0x13a>
100059b6:	6960      	ldr	r0, [r4, #20]
100059b8:	f000 faee 	bl	10005f98 <__wrap___aeabi_uidiv>
100059bc:	3001      	adds	r0, #1
100059be:	3801      	subs	r0, #1
100059c0:	d1fd      	bne.n	100059be <clocks_init+0x136>
100059c2:	23e0      	movs	r3, #224	; 0xe0
100059c4:	4a4c      	ldr	r2, [pc, #304]	; (10005af8 <clocks_init+0x270>)
100059c6:	6811      	ldr	r1, [r2, #0]
100059c8:	400b      	ands	r3, r1
100059ca:	494d      	ldr	r1, [pc, #308]	; (10005b00 <clocks_init+0x278>)
100059cc:	600b      	str	r3, [r1, #0]
100059ce:	2180      	movs	r1, #128	; 0x80
100059d0:	4b4c      	ldr	r3, [pc, #304]	; (10005b04 <clocks_init+0x27c>)
100059d2:	0109      	lsls	r1, r1, #4
100059d4:	6019      	str	r1, [r3, #0]
100059d6:	2180      	movs	r1, #128	; 0x80
100059d8:	4b36      	ldr	r3, [pc, #216]	; (10005ab4 <clocks_init+0x22c>)
100059da:	0049      	lsls	r1, r1, #1
100059dc:	6051      	str	r1, [r2, #4]
100059de:	61e3      	str	r3, [r4, #28]
100059e0:	4b49      	ldr	r3, [pc, #292]	; (10005b08 <clocks_init+0x280>)
100059e2:	685a      	ldr	r2, [r3, #4]
100059e4:	2aff      	cmp	r2, #255	; 0xff
100059e6:	d800      	bhi.n	100059ea <clocks_init+0x162>
100059e8:	6059      	str	r1, [r3, #4]
100059ea:	2280      	movs	r2, #128	; 0x80
100059ec:	4b47      	ldr	r3, [pc, #284]	; (10005b0c <clocks_init+0x284>)
100059ee:	0112      	lsls	r2, r2, #4
100059f0:	601a      	str	r2, [r3, #0]
100059f2:	6a21      	ldr	r1, [r4, #32]
100059f4:	2900      	cmp	r1, #0
100059f6:	d005      	beq.n	10005a04 <clocks_init+0x17c>
100059f8:	6960      	ldr	r0, [r4, #20]
100059fa:	f000 facd 	bl	10005f98 <__wrap___aeabi_uidiv>
100059fe:	3001      	adds	r0, #1
10005a00:	3801      	subs	r0, #1
10005a02:	d1fd      	bne.n	10005a00 <clocks_init+0x178>
10005a04:	23e0      	movs	r3, #224	; 0xe0
10005a06:	4a40      	ldr	r2, [pc, #256]	; (10005b08 <clocks_init+0x280>)
10005a08:	6811      	ldr	r1, [r2, #0]
10005a0a:	400b      	ands	r3, r1
10005a0c:	4940      	ldr	r1, [pc, #256]	; (10005b10 <clocks_init+0x288>)
10005a0e:	600b      	str	r3, [r1, #0]
10005a10:	2180      	movs	r1, #128	; 0x80
10005a12:	4b40      	ldr	r3, [pc, #256]	; (10005b14 <clocks_init+0x28c>)
10005a14:	0109      	lsls	r1, r1, #4
10005a16:	6019      	str	r1, [r3, #0]
10005a18:	2380      	movs	r3, #128	; 0x80
10005a1a:	005b      	lsls	r3, r3, #1
10005a1c:	6053      	str	r3, [r2, #4]
10005a1e:	2280      	movs	r2, #128	; 0x80
10005a20:	4b24      	ldr	r3, [pc, #144]	; (10005ab4 <clocks_init+0x22c>)
10005a22:	02d2      	lsls	r2, r2, #11
10005a24:	6223      	str	r3, [r4, #32]
10005a26:	4b3c      	ldr	r3, [pc, #240]	; (10005b18 <clocks_init+0x290>)
10005a28:	6859      	ldr	r1, [r3, #4]
10005a2a:	4291      	cmp	r1, r2
10005a2c:	d200      	bcs.n	10005a30 <clocks_init+0x1a8>
10005a2e:	605a      	str	r2, [r3, #4]
10005a30:	2280      	movs	r2, #128	; 0x80
10005a32:	4b3a      	ldr	r3, [pc, #232]	; (10005b1c <clocks_init+0x294>)
10005a34:	0112      	lsls	r2, r2, #4
10005a36:	601a      	str	r2, [r3, #0]
10005a38:	6a61      	ldr	r1, [r4, #36]	; 0x24
10005a3a:	2900      	cmp	r1, #0
10005a3c:	d005      	beq.n	10005a4a <clocks_init+0x1c2>
10005a3e:	6960      	ldr	r0, [r4, #20]
10005a40:	f000 faaa 	bl	10005f98 <__wrap___aeabi_uidiv>
10005a44:	3001      	adds	r0, #1
10005a46:	3801      	subs	r0, #1
10005a48:	d1fd      	bne.n	10005a46 <clocks_init+0x1be>
10005a4a:	23e0      	movs	r3, #224	; 0xe0
10005a4c:	4a32      	ldr	r2, [pc, #200]	; (10005b18 <clocks_init+0x290>)
10005a4e:	6811      	ldr	r1, [r2, #0]
10005a50:	400b      	ands	r3, r1
10005a52:	4933      	ldr	r1, [pc, #204]	; (10005b20 <clocks_init+0x298>)
10005a54:	600b      	str	r3, [r1, #0]
10005a56:	2180      	movs	r1, #128	; 0x80
10005a58:	4b32      	ldr	r3, [pc, #200]	; (10005b24 <clocks_init+0x29c>)
10005a5a:	0109      	lsls	r1, r1, #4
10005a5c:	6019      	str	r1, [r3, #0]
10005a5e:	2380      	movs	r3, #128	; 0x80
10005a60:	02db      	lsls	r3, r3, #11
10005a62:	6053      	str	r3, [r2, #4]
10005a64:	4b14      	ldr	r3, [pc, #80]	; (10005ab8 <clocks_init+0x230>)
10005a66:	6263      	str	r3, [r4, #36]	; 0x24
10005a68:	4b2f      	ldr	r3, [pc, #188]	; (10005b28 <clocks_init+0x2a0>)
10005a6a:	685a      	ldr	r2, [r3, #4]
10005a6c:	2aff      	cmp	r2, #255	; 0xff
10005a6e:	d802      	bhi.n	10005a76 <clocks_init+0x1ee>
10005a70:	2280      	movs	r2, #128	; 0x80
10005a72:	0052      	lsls	r2, r2, #1
10005a74:	605a      	str	r2, [r3, #4]
10005a76:	2280      	movs	r2, #128	; 0x80
10005a78:	4b2c      	ldr	r3, [pc, #176]	; (10005b2c <clocks_init+0x2a4>)
10005a7a:	0112      	lsls	r2, r2, #4
10005a7c:	601a      	str	r2, [r3, #0]
10005a7e:	69a1      	ldr	r1, [r4, #24]
10005a80:	2900      	cmp	r1, #0
10005a82:	d005      	beq.n	10005a90 <clocks_init+0x208>
10005a84:	6960      	ldr	r0, [r4, #20]
10005a86:	f000 fa87 	bl	10005f98 <__wrap___aeabi_uidiv>
10005a8a:	3001      	adds	r0, #1
10005a8c:	3801      	subs	r0, #1
10005a8e:	d1fd      	bne.n	10005a8c <clocks_init+0x204>
10005a90:	23e0      	movs	r3, #224	; 0xe0
10005a92:	4a25      	ldr	r2, [pc, #148]	; (10005b28 <clocks_init+0x2a0>)
10005a94:	6811      	ldr	r1, [r2, #0]
10005a96:	400b      	ands	r3, r1
10005a98:	4925      	ldr	r1, [pc, #148]	; (10005b30 <clocks_init+0x2a8>)
10005a9a:	600b      	str	r3, [r1, #0]
10005a9c:	2180      	movs	r1, #128	; 0x80
10005a9e:	4b25      	ldr	r3, [pc, #148]	; (10005b34 <clocks_init+0x2ac>)
10005aa0:	0109      	lsls	r1, r1, #4
10005aa2:	6019      	str	r1, [r3, #0]
10005aa4:	2380      	movs	r3, #128	; 0x80
10005aa6:	005b      	lsls	r3, r3, #1
10005aa8:	6053      	str	r3, [r2, #4]
10005aaa:	4b12      	ldr	r3, [pc, #72]	; (10005af4 <clocks_init+0x26c>)
10005aac:	61a3      	str	r3, [r4, #24]
10005aae:	e701      	b.n	100058b4 <clocks_init+0x2c>
10005ab0:	20001c6c 	.word	0x20001c6c
10005ab4:	02dc6c00 	.word	0x02dc6c00
10005ab8:	0000b71b 	.word	0x0000b71b
10005abc:	40008000 	.word	0x40008000
10005ac0:	4000b03c 	.word	0x4000b03c
10005ac4:	4000b030 	.word	0x4000b030
10005ac8:	59682f00 	.word	0x59682f00
10005acc:	40028000 	.word	0x40028000
10005ad0:	47868c00 	.word	0x47868c00
10005ad4:	4002c000 	.word	0x4002c000
10005ad8:	40008030 	.word	0x40008030
10005adc:	40009030 	.word	0x40009030
10005ae0:	4000a030 	.word	0x4000a030
10005ae4:	00b71b00 	.word	0x00b71b00
10005ae8:	4000803c 	.word	0x4000803c
10005aec:	4000903c 	.word	0x4000903c
10005af0:	4000a03c 	.word	0x4000a03c
10005af4:	07735940 	.word	0x07735940
10005af8:	40008054 	.word	0x40008054
10005afc:	4000b054 	.word	0x4000b054
10005b00:	40009054 	.word	0x40009054
10005b04:	4000a054 	.word	0x4000a054
10005b08:	40008060 	.word	0x40008060
10005b0c:	4000b060 	.word	0x4000b060
10005b10:	40009060 	.word	0x40009060
10005b14:	4000a060 	.word	0x4000a060
10005b18:	4000806c 	.word	0x4000806c
10005b1c:	4000b06c 	.word	0x4000b06c
10005b20:	4000906c 	.word	0x4000906c
10005b24:	4000a06c 	.word	0x4000a06c
10005b28:	40008048 	.word	0x40008048
10005b2c:	4000b048 	.word	0x4000b048
10005b30:	40009048 	.word	0x40009048
10005b34:	4000a048 	.word	0x4000a048

10005b38 <clock_get_hz>:
10005b38:	4b01      	ldr	r3, [pc, #4]	; (10005b40 <clock_get_hz+0x8>)
10005b3a:	0080      	lsls	r0, r0, #2
10005b3c:	58c0      	ldr	r0, [r0, r3]
10005b3e:	4770      	bx	lr
10005b40:	20001c6c 	.word	0x20001c6c

10005b44 <pll_init>:
10005b44:	b5f8      	push	{r3, r4, r5, r6, r7, lr}
10005b46:	0004      	movs	r4, r0
10005b48:	200c      	movs	r0, #12
10005b4a:	0017      	movs	r7, r2
10005b4c:	001d      	movs	r5, r3
10005b4e:	000e      	movs	r6, r1
10005b50:	f000 fa22 	bl	10005f98 <__wrap___aeabi_uidiv>
10005b54:	0143      	lsls	r3, r0, #5
10005b56:	1a1b      	subs	r3, r3, r0
10005b58:	0199      	lsls	r1, r3, #6
10005b5a:	1ac9      	subs	r1, r1, r3
10005b5c:	00c9      	lsls	r1, r1, #3
10005b5e:	1809      	adds	r1, r1, r0
10005b60:	0189      	lsls	r1, r1, #6
10005b62:	0038      	movs	r0, r7
10005b64:	f000 fa18 	bl	10005f98 <__wrap___aeabi_uidiv>
10005b68:	9b06      	ldr	r3, [sp, #24]
10005b6a:	0429      	lsls	r1, r5, #16
10005b6c:	031b      	lsls	r3, r3, #12
10005b6e:	4319      	orrs	r1, r3
10005b70:	6823      	ldr	r3, [r4, #0]
10005b72:	2b00      	cmp	r3, #0
10005b74:	db20      	blt.n	10005bb8 <pll_init+0x74>
10005b76:	4b19      	ldr	r3, [pc, #100]	; (10005bdc <pll_init+0x98>)
10005b78:	4d19      	ldr	r5, [pc, #100]	; (10005be0 <pll_init+0x9c>)
10005b7a:	18e3      	adds	r3, r4, r3
10005b7c:	425a      	negs	r2, r3
10005b7e:	4153      	adcs	r3, r2
10005b80:	2280      	movs	r2, #128	; 0x80
10005b82:	0152      	lsls	r2, r2, #5
10005b84:	4694      	mov	ip, r2
10005b86:	031b      	lsls	r3, r3, #12
10005b88:	4a16      	ldr	r2, [pc, #88]	; (10005be4 <pll_init+0xa0>)
10005b8a:	4463      	add	r3, ip
10005b8c:	6013      	str	r3, [r2, #0]
10005b8e:	4a16      	ldr	r2, [pc, #88]	; (10005be8 <pll_init+0xa4>)
10005b90:	6013      	str	r3, [r2, #0]
10005b92:	001f      	movs	r7, r3
10005b94:	68aa      	ldr	r2, [r5, #8]
10005b96:	4397      	bics	r7, r2
10005b98:	d1fb      	bne.n	10005b92 <pll_init+0x4e>
10005b9a:	23c0      	movs	r3, #192	; 0xc0
10005b9c:	1d22      	adds	r2, r4, #4
10005b9e:	019b      	lsls	r3, r3, #6
10005ba0:	4313      	orrs	r3, r2
10005ba2:	2221      	movs	r2, #33	; 0x21
10005ba4:	6026      	str	r6, [r4, #0]
10005ba6:	60a0      	str	r0, [r4, #8]
10005ba8:	601a      	str	r2, [r3, #0]
10005baa:	6822      	ldr	r2, [r4, #0]
10005bac:	2a00      	cmp	r2, #0
10005bae:	dafc      	bge.n	10005baa <pll_init+0x66>
10005bb0:	2208      	movs	r2, #8
10005bb2:	60e1      	str	r1, [r4, #12]
10005bb4:	601a      	str	r2, [r3, #0]
10005bb6:	bdf8      	pop	{r3, r4, r5, r6, r7, pc}
10005bb8:	233f      	movs	r3, #63	; 0x3f
10005bba:	6822      	ldr	r2, [r4, #0]
10005bbc:	4013      	ands	r3, r2
10005bbe:	42b3      	cmp	r3, r6
10005bc0:	d1d9      	bne.n	10005b76 <pll_init+0x32>
10005bc2:	68a3      	ldr	r3, [r4, #8]
10005bc4:	051b      	lsls	r3, r3, #20
10005bc6:	0d1b      	lsrs	r3, r3, #20
10005bc8:	4283      	cmp	r3, r0
10005bca:	d1d4      	bne.n	10005b76 <pll_init+0x32>
10005bcc:	22ee      	movs	r2, #238	; 0xee
10005bce:	68e3      	ldr	r3, [r4, #12]
10005bd0:	02d2      	lsls	r2, r2, #11
10005bd2:	4013      	ands	r3, r2
10005bd4:	428b      	cmp	r3, r1
10005bd6:	d1ce      	bne.n	10005b76 <pll_init+0x32>
10005bd8:	e7ed      	b.n	10005bb6 <pll_init+0x72>
10005bda:	46c0      	nop			; (mov r8, r8)
10005bdc:	bffd4000 	.word	0xbffd4000
10005be0:	4000c000 	.word	0x4000c000
10005be4:	4000e000 	.word	0x4000e000
10005be8:	4000f000 	.word	0x4000f000

10005bec <watchdog_start_tick>:
10005bec:	2380      	movs	r3, #128	; 0x80
10005bee:	4a02      	ldr	r2, [pc, #8]	; (10005bf8 <watchdog_start_tick+0xc>)
10005bf0:	009b      	lsls	r3, r3, #2
10005bf2:	4303      	orrs	r3, r0
10005bf4:	62d3      	str	r3, [r2, #44]	; 0x2c
10005bf6:	4770      	bx	lr
10005bf8:	40058000 	.word	0x40058000

10005bfc <watchdog_update>:
10005bfc:	4b02      	ldr	r3, [pc, #8]	; (10005c08 <watchdog_update+0xc>)
10005bfe:	681a      	ldr	r2, [r3, #0]
10005c00:	4b02      	ldr	r3, [pc, #8]	; (10005c0c <watchdog_update+0x10>)
10005c02:	605a      	str	r2, [r3, #4]
10005c04:	4770      	bx	lr
10005c06:	46c0      	nop			; (mov r8, r8)
10005c08:	2000210c 	.word	0x2000210c
10005c0c:	40058000 	.word	0x40058000

10005c10 <watchdog_enable>:
10005c10:	4b19      	ldr	r3, [pc, #100]	; (10005c78 <watchdog_enable+0x68>)
10005c12:	0002      	movs	r2, r0
10005c14:	4819      	ldr	r0, [pc, #100]	; (10005c7c <watchdog_enable+0x6c>)
10005c16:	b510      	push	{r4, lr}
10005c18:	61d8      	str	r0, [r3, #28]
10005c1a:	2080      	movs	r0, #128	; 0x80
10005c1c:	4b18      	ldr	r3, [pc, #96]	; (10005c80 <watchdog_enable+0x70>)
10005c1e:	05c0      	lsls	r0, r0, #23
10005c20:	6018      	str	r0, [r3, #0]
10005c22:	4c18      	ldr	r4, [pc, #96]	; (10005c84 <watchdog_enable+0x74>)
10005c24:	4818      	ldr	r0, [pc, #96]	; (10005c88 <watchdog_enable+0x78>)
10005c26:	6004      	str	r4, [r0, #0]
10005c28:	2900      	cmp	r1, #0
10005c2a:	d00a      	beq.n	10005c42 <watchdog_enable+0x32>
10005c2c:	21e0      	movs	r1, #224	; 0xe0
10005c2e:	4b17      	ldr	r3, [pc, #92]	; (10005c8c <watchdog_enable+0x7c>)
10005c30:	04c9      	lsls	r1, r1, #19
10005c32:	6019      	str	r1, [r3, #0]
10005c34:	2a00      	cmp	r2, #0
10005c36:	d109      	bne.n	10005c4c <watchdog_enable+0x3c>
10005c38:	2280      	movs	r2, #128	; 0x80
10005c3a:	4b14      	ldr	r3, [pc, #80]	; (10005c8c <watchdog_enable+0x7c>)
10005c3c:	0612      	lsls	r2, r2, #24
10005c3e:	601a      	str	r2, [r3, #0]
10005c40:	bd10      	pop	{r4, pc}
10005c42:	21e0      	movs	r1, #224	; 0xe0
10005c44:	04c9      	lsls	r1, r1, #19
10005c46:	6019      	str	r1, [r3, #0]
10005c48:	2a00      	cmp	r2, #0
10005c4a:	d0f5      	beq.n	10005c38 <watchdog_enable+0x28>
10005c4c:	0153      	lsls	r3, r2, #5
10005c4e:	1a9b      	subs	r3, r3, r2
10005c50:	0098      	lsls	r0, r3, #2
10005c52:	2380      	movs	r3, #128	; 0x80
10005c54:	1880      	adds	r0, r0, r2
10005c56:	0100      	lsls	r0, r0, #4
10005c58:	045b      	lsls	r3, r3, #17
10005c5a:	4298      	cmp	r0, r3
10005c5c:	d208      	bcs.n	10005c70 <watchdog_enable+0x60>
10005c5e:	4b0c      	ldr	r3, [pc, #48]	; (10005c90 <watchdog_enable+0x80>)
10005c60:	6018      	str	r0, [r3, #0]
10005c62:	2280      	movs	r2, #128	; 0x80
10005c64:	4b04      	ldr	r3, [pc, #16]	; (10005c78 <watchdog_enable+0x68>)
10005c66:	05d2      	lsls	r2, r2, #23
10005c68:	6058      	str	r0, [r3, #4]
10005c6a:	4b08      	ldr	r3, [pc, #32]	; (10005c8c <watchdog_enable+0x7c>)
10005c6c:	601a      	str	r2, [r3, #0]
10005c6e:	e7e7      	b.n	10005c40 <watchdog_enable+0x30>
10005c70:	4b07      	ldr	r3, [pc, #28]	; (10005c90 <watchdog_enable+0x80>)
10005c72:	4808      	ldr	r0, [pc, #32]	; (10005c94 <watchdog_enable+0x84>)
10005c74:	6018      	str	r0, [r3, #0]
10005c76:	e7f4      	b.n	10005c62 <watchdog_enable+0x52>
10005c78:	40058000 	.word	0x40058000
10005c7c:	6ab73121 	.word	0x6ab73121
10005c80:	4005b000 	.word	0x4005b000
10005c84:	0001fffc 	.word	0x0001fffc
10005c88:	40012008 	.word	0x40012008
10005c8c:	4005a000 	.word	0x4005a000
10005c90:	2000210c 	.word	0x2000210c
10005c94:	00ffffff 	.word	0x00ffffff

10005c98 <watchdog_reboot>:
10005c98:	b510      	push	{r4, lr}
10005c9a:	0014      	movs	r4, r2
10005c9c:	2280      	movs	r2, #128	; 0x80
10005c9e:	4b1c      	ldr	r3, [pc, #112]	; (10005d10 <watchdog_reboot+0x78>)
10005ca0:	05d2      	lsls	r2, r2, #23
10005ca2:	601a      	str	r2, [r3, #0]
10005ca4:	2800      	cmp	r0, #0
10005ca6:	d01a      	beq.n	10005cde <watchdog_reboot+0x46>
10005ca8:	2301      	movs	r3, #1
10005caa:	4a1a      	ldr	r2, [pc, #104]	; (10005d14 <watchdog_reboot+0x7c>)
10005cac:	4318      	orrs	r0, r3
10005cae:	4b1a      	ldr	r3, [pc, #104]	; (10005d18 <watchdog_reboot+0x80>)
10005cb0:	61da      	str	r2, [r3, #28]
10005cb2:	4a1a      	ldr	r2, [pc, #104]	; (10005d1c <watchdog_reboot+0x84>)
10005cb4:	4042      	eors	r2, r0
10005cb6:	621a      	str	r2, [r3, #32]
10005cb8:	6259      	str	r1, [r3, #36]	; 0x24
10005cba:	6298      	str	r0, [r3, #40]	; 0x28
10005cbc:	2280      	movs	r2, #128	; 0x80
10005cbe:	4b14      	ldr	r3, [pc, #80]	; (10005d10 <watchdog_reboot+0x78>)
10005cc0:	05d2      	lsls	r2, r2, #23
10005cc2:	601a      	str	r2, [r3, #0]
10005cc4:	4916      	ldr	r1, [pc, #88]	; (10005d20 <watchdog_reboot+0x88>)
10005cc6:	4a17      	ldr	r2, [pc, #92]	; (10005d24 <watchdog_reboot+0x8c>)
10005cc8:	6011      	str	r1, [r2, #0]
10005cca:	22e0      	movs	r2, #224	; 0xe0
10005ccc:	04d2      	lsls	r2, r2, #19
10005cce:	601a      	str	r2, [r3, #0]
10005cd0:	2c00      	cmp	r4, #0
10005cd2:	d107      	bne.n	10005ce4 <watchdog_reboot+0x4c>
10005cd4:	2280      	movs	r2, #128	; 0x80
10005cd6:	4b14      	ldr	r3, [pc, #80]	; (10005d28 <watchdog_reboot+0x90>)
10005cd8:	0612      	lsls	r2, r2, #24
10005cda:	601a      	str	r2, [r3, #0]
10005cdc:	bd10      	pop	{r4, pc}
10005cde:	4b0e      	ldr	r3, [pc, #56]	; (10005d18 <watchdog_reboot+0x80>)
10005ce0:	61d8      	str	r0, [r3, #28]
10005ce2:	e7eb      	b.n	10005cbc <watchdog_reboot+0x24>
10005ce4:	0163      	lsls	r3, r4, #5
10005ce6:	1b1b      	subs	r3, r3, r4
10005ce8:	009a      	lsls	r2, r3, #2
10005cea:	2380      	movs	r3, #128	; 0x80
10005cec:	1912      	adds	r2, r2, r4
10005cee:	0112      	lsls	r2, r2, #4
10005cf0:	045b      	lsls	r3, r3, #17
10005cf2:	429a      	cmp	r2, r3
10005cf4:	d208      	bcs.n	10005d08 <watchdog_reboot+0x70>
10005cf6:	4b0d      	ldr	r3, [pc, #52]	; (10005d2c <watchdog_reboot+0x94>)
10005cf8:	601a      	str	r2, [r3, #0]
10005cfa:	4b07      	ldr	r3, [pc, #28]	; (10005d18 <watchdog_reboot+0x80>)
10005cfc:	605a      	str	r2, [r3, #4]
10005cfe:	2280      	movs	r2, #128	; 0x80
10005d00:	4b09      	ldr	r3, [pc, #36]	; (10005d28 <watchdog_reboot+0x90>)
10005d02:	05d2      	lsls	r2, r2, #23
10005d04:	601a      	str	r2, [r3, #0]
10005d06:	e7e9      	b.n	10005cdc <watchdog_reboot+0x44>
10005d08:	4b08      	ldr	r3, [pc, #32]	; (10005d2c <watchdog_reboot+0x94>)
10005d0a:	4a09      	ldr	r2, [pc, #36]	; (10005d30 <watchdog_reboot+0x98>)
10005d0c:	601a      	str	r2, [r3, #0]
10005d0e:	e7f4      	b.n	10005cfa <watchdog_reboot+0x62>
10005d10:	4005b000 	.word	0x4005b000
10005d14:	b007c0d3 	.word	0xb007c0d3
10005d18:	40058000 	.word	0x40058000
10005d1c:	4ff83f2d 	.word	0x4ff83f2d
10005d20:	0001fffc 	.word	0x0001fffc
10005d24:	40012008 	.word	0x40012008
10005d28:	4005a000 	.word	0x4005a000
10005d2c:	2000210c 	.word	0x2000210c
10005d30:	00ffffff 	.word	0x00ffffff

10005d34 <xosc_init>:
10005d34:	23aa      	movs	r3, #170	; 0xaa
10005d36:	4a06      	ldr	r2, [pc, #24]	; (10005d50 <xosc_init+0x1c>)
10005d38:	011b      	lsls	r3, r3, #4
10005d3a:	6013      	str	r3, [r2, #0]
10005d3c:	232f      	movs	r3, #47	; 0x2f
10005d3e:	4905      	ldr	r1, [pc, #20]	; (10005d54 <xosc_init+0x20>)
10005d40:	60d3      	str	r3, [r2, #12]
10005d42:	4b05      	ldr	r3, [pc, #20]	; (10005d58 <xosc_init+0x24>)
10005d44:	6019      	str	r1, [r3, #0]
10005d46:	6853      	ldr	r3, [r2, #4]
10005d48:	2b00      	cmp	r3, #0
10005d4a:	dafc      	bge.n	10005d46 <xosc_init+0x12>
10005d4c:	4770      	bx	lr
10005d4e:	46c0      	nop			; (mov r8, r8)
10005d50:	40024000 	.word	0x40024000
10005d54:	00fab000 	.word	0x00fab000
10005d58:	40026000 	.word	0x40026000

10005d5c <runtime_init>:
10005d5c:	4b2c      	ldr	r3, [pc, #176]	; (10005e10 <runtime_init+0xb4>)
10005d5e:	4a2d      	ldr	r2, [pc, #180]	; (10005e14 <runtime_init+0xb8>)
10005d60:	b570      	push	{r4, r5, r6, lr}
10005d62:	601a      	str	r2, [r3, #0]
10005d64:	4a2c      	ldr	r2, [pc, #176]	; (10005e18 <runtime_init+0xbc>)
10005d66:	4b2d      	ldr	r3, [pc, #180]	; (10005e1c <runtime_init+0xc0>)
10005d68:	492d      	ldr	r1, [pc, #180]	; (10005e20 <runtime_init+0xc4>)
10005d6a:	601a      	str	r2, [r3, #0]
10005d6c:	0014      	movs	r4, r2
10005d6e:	688b      	ldr	r3, [r1, #8]
10005d70:	439c      	bics	r4, r3
10005d72:	d1fb      	bne.n	10005d6c <runtime_init+0x10>
10005d74:	4d2b      	ldr	r5, [pc, #172]	; (10005e24 <runtime_init+0xc8>)
10005d76:	4e2c      	ldr	r6, [pc, #176]	; (10005e28 <runtime_init+0xcc>)
10005d78:	42b5      	cmp	r5, r6
10005d7a:	d208      	bcs.n	10005d8e <runtime_init+0x32>
10005d7c:	3e01      	subs	r6, #1
10005d7e:	1b76      	subs	r6, r6, r5
10005d80:	08b6      	lsrs	r6, r6, #2
10005d82:	cd08      	ldmia	r5!, {r3}
10005d84:	4798      	blx	r3
10005d86:	0023      	movs	r3, r4
10005d88:	3401      	adds	r4, #1
10005d8a:	42b3      	cmp	r3, r6
10005d8c:	d1f9      	bne.n	10005d82 <runtime_init+0x26>
10005d8e:	f7ff fd7b 	bl	10005888 <clocks_init>
10005d92:	4a26      	ldr	r2, [pc, #152]	; (10005e2c <runtime_init+0xd0>)
10005d94:	4b21      	ldr	r3, [pc, #132]	; (10005e1c <runtime_init+0xc0>)
10005d96:	601a      	str	r2, [r3, #0]
10005d98:	4a21      	ldr	r2, [pc, #132]	; (10005e20 <runtime_init+0xc4>)
10005d9a:	6893      	ldr	r3, [r2, #8]
10005d9c:	43db      	mvns	r3, r3
10005d9e:	01db      	lsls	r3, r3, #7
10005da0:	09dd      	lsrs	r5, r3, #7
10005da2:	2b00      	cmp	r3, #0
10005da4:	d1f9      	bne.n	10005d9a <runtime_init+0x3e>
10005da6:	2240      	movs	r2, #64	; 0x40
10005da8:	4b21      	ldr	r3, [pc, #132]	; (10005e30 <runtime_init+0xd4>)
10005daa:	4c22      	ldr	r4, [pc, #136]	; (10005e34 <runtime_init+0xd8>)
10005dac:	4e22      	ldr	r6, [pc, #136]	; (10005e38 <runtime_init+0xdc>)
10005dae:	679a      	str	r2, [r3, #120]	; 0x78
10005db0:	675a      	str	r2, [r3, #116]	; 0x74
10005db2:	671a      	str	r2, [r3, #112]	; 0x70
10005db4:	66da      	str	r2, [r3, #108]	; 0x6c
10005db6:	42b4      	cmp	r4, r6
10005db8:	d208      	bcs.n	10005dcc <runtime_init+0x70>
10005dba:	6823      	ldr	r3, [r4, #0]
10005dbc:	0020      	movs	r0, r4
10005dbe:	2b00      	cmp	r3, #0
10005dc0:	d020      	beq.n	10005e04 <runtime_init+0xa8>
10005dc2:	3408      	adds	r4, #8
10005dc4:	f7fe fce8 	bl	10004798 <recursive_mutex_init>
10005dc8:	42b4      	cmp	r4, r6
10005dca:	d3f6      	bcc.n	10005dba <runtime_init+0x5e>
10005dcc:	4c1b      	ldr	r4, [pc, #108]	; (10005e3c <runtime_init+0xe0>)
10005dce:	4e1c      	ldr	r6, [pc, #112]	; (10005e40 <runtime_init+0xe4>)
10005dd0:	22c0      	movs	r2, #192	; 0xc0
10005dd2:	68b1      	ldr	r1, [r6, #8]
10005dd4:	0020      	movs	r0, r4
10005dd6:	f000 fd29 	bl	1000682c <__wrap___aeabi_memcpy>
10005dda:	60b4      	str	r4, [r6, #8]
10005ddc:	f7fe f9ec 	bl	100041b8 <spin_locks_reset>
10005de0:	f7fe fc9c 	bl	1000471c <irq_init_priorities>
10005de4:	f7fe fea0 	bl	10004b28 <alarm_pool_init_default>
10005de8:	4c16      	ldr	r4, [pc, #88]	; (10005e44 <runtime_init+0xe8>)
10005dea:	4e17      	ldr	r6, [pc, #92]	; (10005e48 <runtime_init+0xec>)
10005dec:	42b4      	cmp	r4, r6
10005dee:	d208      	bcs.n	10005e02 <runtime_init+0xa6>
10005df0:	3e01      	subs	r6, #1
10005df2:	1b36      	subs	r6, r6, r4
10005df4:	08b6      	lsrs	r6, r6, #2
10005df6:	cc08      	ldmia	r4!, {r3}
10005df8:	4798      	blx	r3
10005dfa:	002b      	movs	r3, r5
10005dfc:	3501      	adds	r5, #1
10005dfe:	429e      	cmp	r6, r3
10005e00:	d1f9      	bne.n	10005df6 <runtime_init+0x9a>
10005e02:	bd70      	pop	{r4, r5, r6, pc}
10005e04:	3408      	adds	r4, #8
10005e06:	f7fe fcb9 	bl	1000477c <mutex_init>
10005e0a:	42b4      	cmp	r4, r6
10005e0c:	d3d5      	bcc.n	10005dba <runtime_init+0x5e>
10005e0e:	e7dd      	b.n	10005dcc <runtime_init+0x70>
10005e10:	4000e000 	.word	0x4000e000
10005e14:	fefbcdbf 	.word	0xfefbcdbf
10005e18:	003c7ffe 	.word	0x003c7ffe
10005e1c:	4000f000 	.word	0x4000f000
10005e20:	4000c000 	.word	0x4000c000
10005e24:	20000ec0 	.word	0x20000ec0
10005e28:	20000ed0 	.word	0x20000ed0
10005e2c:	01ffffff 	.word	0x01ffffff
10005e30:	4001f000 	.word	0x4001f000
10005e34:	20000eb8 	.word	0x20000eb8
10005e38:	20000ec0 	.word	0x20000ec0
10005e3c:	20000000 	.word	0x20000000
10005e40:	e000ed00 	.word	0xe000ed00
10005e44:	20000ed0 	.word	0x20000ed0
10005e48:	20000ed8 	.word	0x20000ed8

10005e4c <_exit>:
10005e4c:	be00      	bkpt	0x0000
10005e4e:	e7fd      	b.n	10005e4c <_exit>

10005e50 <exit>:
10005e50:	b510      	push	{r4, lr}
10005e52:	f7ff fffb 	bl	10005e4c <_exit>
10005e56:	46c0      	nop			; (mov r8, r8)

10005e58 <panic>:
10005e58:	b40f      	push	{r0, r1, r2, r3}
10005e5a:	b500      	push	{lr}
10005e5c:	4808      	ldr	r0, [pc, #32]	; (10005e80 <panic+0x28>)
10005e5e:	b083      	sub	sp, #12
10005e60:	f000 fe18 	bl	10006a94 <__wrap_puts>
10005e64:	9b04      	ldr	r3, [sp, #16]
10005e66:	2b00      	cmp	r3, #0
10005e68:	d007      	beq.n	10005e7a <panic+0x22>
10005e6a:	a905      	add	r1, sp, #20
10005e6c:	0018      	movs	r0, r3
10005e6e:	9101      	str	r1, [sp, #4]
10005e70:	f000 f818 	bl	10005ea4 <weak_raw_vprintf>
10005e74:	4803      	ldr	r0, [pc, #12]	; (10005e84 <panic+0x2c>)
10005e76:	f000 fe0d 	bl	10006a94 <__wrap_puts>
10005e7a:	2001      	movs	r0, #1
10005e7c:	f7ff ffe6 	bl	10005e4c <_exit>
10005e80:	10009768 	.word	0x10009768
10005e84:	10009778 	.word	0x10009778

10005e88 <hard_assertion_failure>:
10005e88:	b510      	push	{r4, lr}
10005e8a:	4801      	ldr	r0, [pc, #4]	; (10005e90 <hard_assertion_failure+0x8>)
10005e8c:	f7ff ffe4 	bl	10005e58 <panic>
10005e90:	1000977c 	.word	0x1000977c

10005e94 <_out_char>:
10005e94:	b510      	push	{r4, lr}
10005e96:	2800      	cmp	r0, #0
10005e98:	d100      	bne.n	10005e9c <_out_char+0x8>
10005e9a:	bd10      	pop	{r4, pc}
10005e9c:	f000 fdae 	bl	100069fc <__wrap_putchar>
10005ea0:	e7fb      	b.n	10005e9a <_out_char+0x6>
10005ea2:	46c0      	nop			; (mov r8, r8)

10005ea4 <weak_raw_vprintf>:
10005ea4:	b510      	push	{r4, lr}
10005ea6:	4a09      	ldr	r2, [pc, #36]	; (10005ecc <weak_raw_vprintf+0x28>)
10005ea8:	0003      	movs	r3, r0
10005eaa:	6814      	ldr	r4, [r2, #0]
10005eac:	b084      	sub	sp, #16
10005eae:	2c00      	cmp	r4, #0
10005eb0:	d008      	beq.n	10005ec4 <weak_raw_vprintf+0x20>
10005eb2:	2201      	movs	r2, #1
10005eb4:	9100      	str	r1, [sp, #0]
10005eb6:	4806      	ldr	r0, [pc, #24]	; (10005ed0 <weak_raw_vprintf+0x2c>)
10005eb8:	4252      	negs	r2, r2
10005eba:	a903      	add	r1, sp, #12
10005ebc:	47a0      	blx	r4
10005ebe:	2001      	movs	r0, #1
10005ec0:	b004      	add	sp, #16
10005ec2:	bd10      	pop	{r4, pc}
10005ec4:	f000 fde6 	bl	10006a94 <__wrap_puts>
10005ec8:	2000      	movs	r0, #0
10005eca:	e7f9      	b.n	10005ec0 <weak_raw_vprintf+0x1c>
10005ecc:	20002108 	.word	0x20002108
10005ed0:	10005e95 	.word	0x10005e95

10005ed4 <__aeabi_bits_init>:
10005ed4:	4801      	ldr	r0, [pc, #4]	; (10005edc <__aeabi_bits_init+0x8>)
10005ed6:	2104      	movs	r1, #4
10005ed8:	4b01      	ldr	r3, [pc, #4]	; (10005ee0 <__aeabi_bits_init+0xc>)
10005eda:	4718      	bx	r3
10005edc:	20000e50 	.word	0x20000e50
10005ee0:	10005f05 	.word	0x10005f05

10005ee4 <rom_func_lookup>:
10005ee4:	2314      	movs	r3, #20
10005ee6:	b510      	push	{r4, lr}
10005ee8:	0001      	movs	r1, r0
10005eea:	8818      	ldrh	r0, [r3, #0]
10005eec:	3304      	adds	r3, #4
10005eee:	881b      	ldrh	r3, [r3, #0]
10005ef0:	4798      	blx	r3
10005ef2:	bd10      	pop	{r4, pc}

10005ef4 <rom_data_lookup>:
10005ef4:	2316      	movs	r3, #22
10005ef6:	b510      	push	{r4, lr}
10005ef8:	0001      	movs	r1, r0
10005efa:	8818      	ldrh	r0, [r3, #0]
10005efc:	3302      	adds	r3, #2
10005efe:	881b      	ldrh	r3, [r3, #0]
10005f00:	4798      	blx	r3
10005f02:	bd10      	pop	{r4, pc}

10005f04 <rom_funcs_lookup>:
10005f04:	b5f8      	push	{r3, r4, r5, r6, r7, lr}
10005f06:	4647      	mov	r7, r8
10005f08:	46ce      	mov	lr, r9
10005f0a:	b580      	push	{r7, lr}
10005f0c:	1e0f      	subs	r7, r1, #0
10005f0e:	d019      	beq.n	10005f44 <rom_funcs_lookup+0x40>
10005f10:	2314      	movs	r3, #20
10005f12:	4699      	mov	r9, r3
10005f14:	3304      	adds	r3, #4
10005f16:	0004      	movs	r4, r0
10005f18:	2500      	movs	r5, #0
10005f1a:	2601      	movs	r6, #1
10005f1c:	4698      	mov	r8, r3
10005f1e:	464b      	mov	r3, r9
10005f20:	8818      	ldrh	r0, [r3, #0]
10005f22:	4643      	mov	r3, r8
10005f24:	6821      	ldr	r1, [r4, #0]
10005f26:	881b      	ldrh	r3, [r3, #0]
10005f28:	4798      	blx	r3
10005f2a:	c401      	stmia	r4!, {r0}
10005f2c:	1e43      	subs	r3, r0, #1
10005f2e:	4198      	sbcs	r0, r3
10005f30:	3501      	adds	r5, #1
10005f32:	4240      	negs	r0, r0
10005f34:	4006      	ands	r6, r0
10005f36:	42af      	cmp	r7, r5
10005f38:	d1f1      	bne.n	10005f1e <rom_funcs_lookup+0x1a>
10005f3a:	0030      	movs	r0, r6
10005f3c:	bcc0      	pop	{r6, r7}
10005f3e:	46b9      	mov	r9, r7
10005f40:	46b0      	mov	r8, r6
10005f42:	bdf8      	pop	{r3, r4, r5, r6, r7, pc}
10005f44:	2601      	movs	r6, #1
10005f46:	e7f8      	b.n	10005f3a <rom_funcs_lookup+0x36>

10005f48 <__wrap___aeabi_idiv>:
10005f48:	4a12      	ldr	r2, [pc, #72]	; (10005f94 <divmod_s32s32_savestate+0x18>)
10005f4a:	6f93      	ldr	r3, [r2, #120]	; 0x78
10005f4c:	089b      	lsrs	r3, r3, #2
10005f4e:	d215      	bcs.n	10005f7c <divmod_s32s32_savestate>

10005f50 <divmod_s32s32_unsafe>:
10005f50:	6690      	str	r0, [r2, #104]	; 0x68
10005f52:	66d1      	str	r1, [r2, #108]	; 0x6c
10005f54:	2900      	cmp	r1, #0
10005f56:	d005      	beq.n	10005f64 <divmod_s32s32_unsafe+0x14>
10005f58:	e7ff      	b.n	10005f5a <divmod_s32s32_unsafe+0xa>
10005f5a:	e7ff      	b.n	10005f5c <divmod_s32s32_unsafe+0xc>
10005f5c:	e7ff      	b.n	10005f5e <divmod_s32s32_unsafe+0xe>
10005f5e:	6f51      	ldr	r1, [r2, #116]	; 0x74
10005f60:	6f10      	ldr	r0, [r2, #112]	; 0x70
10005f62:	4770      	bx	lr
10005f64:	b504      	push	{r2, lr}
10005f66:	2180      	movs	r1, #128	; 0x80
10005f68:	0609      	lsls	r1, r1, #24
10005f6a:	17c2      	asrs	r2, r0, #31
10005f6c:	4051      	eors	r1, r2
10005f6e:	2800      	cmp	r0, #0
10005f70:	d000      	beq.n	10005f74 <divmod_s32s32_unsafe+0x24>
10005f72:	43c8      	mvns	r0, r1
10005f74:	f003 f9e8 	bl	10009348 <____aeabi_idiv0_veneer>
10005f78:	2100      	movs	r1, #0
10005f7a:	bd04      	pop	{r2, pc}

10005f7c <divmod_s32s32_savestate>:
10005f7c:	b5f0      	push	{r4, r5, r6, r7, lr}
10005f7e:	6e14      	ldr	r4, [r2, #96]	; 0x60
10005f80:	6e55      	ldr	r5, [r2, #100]	; 0x64
10005f82:	6f57      	ldr	r7, [r2, #116]	; 0x74
10005f84:	6f16      	ldr	r6, [r2, #112]	; 0x70
10005f86:	f7ff ffe3 	bl	10005f50 <divmod_s32s32_unsafe>
10005f8a:	6614      	str	r4, [r2, #96]	; 0x60
10005f8c:	6655      	str	r5, [r2, #100]	; 0x64
10005f8e:	6757      	str	r7, [r2, #116]	; 0x74
10005f90:	6716      	str	r6, [r2, #112]	; 0x70
10005f92:	bdf0      	pop	{r4, r5, r6, r7, pc}
10005f94:	d0000000 	.word	0xd0000000

10005f98 <__wrap___aeabi_uidiv>:
10005f98:	4a11      	ldr	r2, [pc, #68]	; (10005fe0 <divmod_u32u32_savestate+0x18>)
10005f9a:	6f93      	ldr	r3, [r2, #120]	; 0x78
10005f9c:	089b      	lsrs	r3, r3, #2
10005f9e:	d213      	bcs.n	10005fc8 <divmod_u32u32_savestate>

10005fa0 <divmod_u32u32_unsafe>:
10005fa0:	6610      	str	r0, [r2, #96]	; 0x60
10005fa2:	6651      	str	r1, [r2, #100]	; 0x64
10005fa4:	2900      	cmp	r1, #0
10005fa6:	d005      	beq.n	10005fb4 <divmod_u32u32_unsafe+0x14>
10005fa8:	e7ff      	b.n	10005faa <divmod_u32u32_unsafe+0xa>
10005faa:	e7ff      	b.n	10005fac <divmod_u32u32_unsafe+0xc>
10005fac:	e7ff      	b.n	10005fae <divmod_u32u32_unsafe+0xe>
10005fae:	6f51      	ldr	r1, [r2, #116]	; 0x74
10005fb0:	6f10      	ldr	r0, [r2, #112]	; 0x70
10005fb2:	4770      	bx	lr
10005fb4:	b504      	push	{r2, lr}
10005fb6:	2800      	cmp	r0, #0
10005fb8:	d001      	beq.n	10005fbe <divmod_u32u32_unsafe+0x1e>
10005fba:	2000      	movs	r0, #0
10005fbc:	43c0      	mvns	r0, r0
10005fbe:	f003 f9c3 	bl	10009348 <____aeabi_idiv0_veneer>
10005fc2:	2100      	movs	r1, #0
10005fc4:	bd04      	pop	{r2, pc}
10005fc6:	46c0      	nop			; (mov r8, r8)

10005fc8 <divmod_u32u32_savestate>:
10005fc8:	b5f0      	push	{r4, r5, r6, r7, lr}
10005fca:	6e14      	ldr	r4, [r2, #96]	; 0x60
10005fcc:	6e55      	ldr	r5, [r2, #100]	; 0x64
10005fce:	6f57      	ldr	r7, [r2, #116]	; 0x74
10005fd0:	6f16      	ldr	r6, [r2, #112]	; 0x70
10005fd2:	f7ff ffe5 	bl	10005fa0 <divmod_u32u32_unsafe>
10005fd6:	6614      	str	r4, [r2, #96]	; 0x60
10005fd8:	6655      	str	r5, [r2, #100]	; 0x64
10005fda:	6757      	str	r7, [r2, #116]	; 0x74
10005fdc:	6716      	str	r6, [r2, #112]	; 0x70
10005fde:	bdf0      	pop	{r4, r5, r6, r7, pc}
10005fe0:	d0000000 	.word	0xd0000000

10005fe4 <__wrap___aeabi_drsub>:
10005fe4:	4048      	eors	r0, r1
10005fe6:	4041      	eors	r1, r0
10005fe8:	4048      	eors	r0, r1

10005fea <__wrap___aeabi_dsub>:
10005fea:	b418      	push	{r3, r4}
10005fec:	4b1b      	ldr	r3, [pc, #108]	; (1000605c <__wrap___aeabi_dmul+0x12>)
10005fee:	685b      	ldr	r3, [r3, #4]
10005ff0:	46fc      	mov	ip, pc
10005ff2:	9301      	str	r3, [sp, #4]
10005ff4:	bd08      	pop	{r3, pc}
10005ff6:	df04      	.short	0xdf04
10005ff8:	1000617b 	.word	0x1000617b

10005ffc <__wrap___aeabi_dadd>:
10005ffc:	b418      	push	{r3, r4}
10005ffe:	4b17      	ldr	r3, [pc, #92]	; (1000605c <__wrap___aeabi_dmul+0x12>)
10006000:	681b      	ldr	r3, [r3, #0]
10006002:	46fc      	mov	ip, pc
10006004:	9301      	str	r3, [sp, #4]
10006006:	bd08      	pop	{r3, pc}
10006008:	6185df00 	.word	0x6185df00
1000600c:	1000      	.short	0x1000

1000600e <__wrap___aeabi_ddiv>:
1000600e:	4694      	mov	ip, r2
10006010:	4a13      	ldr	r2, [pc, #76]	; (10006060 <__wrap___aeabi_dmul+0x16>)
10006012:	6f92      	ldr	r2, [r2, #120]	; 0x78
10006014:	0892      	lsrs	r2, r2, #2
10006016:	d209      	bcs.n	1000602c <ddiv_save_state>
10006018:	4662      	mov	r2, ip

1000601a <ddiv_shim_call>:
1000601a:	b418      	push	{r3, r4}
1000601c:	4b0f      	ldr	r3, [pc, #60]	; (1000605c <__wrap___aeabi_dmul+0x12>)
1000601e:	68db      	ldr	r3, [r3, #12]
10006020:	46fc      	mov	ip, pc
10006022:	9301      	str	r3, [sp, #4]
10006024:	bd08      	pop	{r3, pc}
10006026:	df0c      	.short	0xdf0c
10006028:	1000643d 	.word	0x1000643d

1000602c <ddiv_save_state>:
1000602c:	4a0c      	ldr	r2, [pc, #48]	; (10006060 <__wrap___aeabi_dmul+0x16>)
1000602e:	b5f0      	push	{r4, r5, r6, r7, lr}
10006030:	6e14      	ldr	r4, [r2, #96]	; 0x60
10006032:	6e55      	ldr	r5, [r2, #100]	; 0x64
10006034:	6f57      	ldr	r7, [r2, #116]	; 0x74
10006036:	6f16      	ldr	r6, [r2, #112]	; 0x70
10006038:	4662      	mov	r2, ip
1000603a:	f7ff ffee 	bl	1000601a <ddiv_shim_call>
1000603e:	4a08      	ldr	r2, [pc, #32]	; (10006060 <__wrap___aeabi_dmul+0x16>)
10006040:	6614      	str	r4, [r2, #96]	; 0x60
10006042:	6655      	str	r5, [r2, #100]	; 0x64
10006044:	6757      	str	r7, [r2, #116]	; 0x74
10006046:	6716      	str	r6, [r2, #112]	; 0x70
10006048:	bdf0      	pop	{r4, r5, r6, r7, pc}

1000604a <__wrap___aeabi_dmul>:
1000604a:	b418      	push	{r3, r4}
1000604c:	4b03      	ldr	r3, [pc, #12]	; (1000605c <__wrap___aeabi_dmul+0x12>)
1000604e:	689b      	ldr	r3, [r3, #8]
10006050:	46fc      	mov	ip, pc
10006052:	9301      	str	r3, [sp, #4]
10006054:	bd08      	pop	{r3, pc}
10006056:	df08      	.short	0xdf08
10006058:	100062e1 	.word	0x100062e1
1000605c:	20001448 	.word	0x20001448
10006060:	d0000000 	.word	0xd0000000

10006064 <__wrap___aeabi_ui2d>:
10006064:	2100      	movs	r1, #0
10006066:	2800      	cmp	r0, #0
10006068:	d105      	bne.n	10006076 <__wrap___aeabi_i2d+0xa>
1000606a:	4770      	bx	lr

1000606c <__wrap___aeabi_i2d>:
1000606c:	17c1      	asrs	r1, r0, #31
1000606e:	4048      	eors	r0, r1
10006070:	1a40      	subs	r0, r0, r1
10006072:	d0fa      	beq.n	1000606a <__wrap___aeabi_ui2d+0x6>
10006074:	07c9      	lsls	r1, r1, #31
10006076:	b513      	push	{r0, r1, r4, lr}
10006078:	4b06      	ldr	r3, [pc, #24]	; (10006094 <__wrap___aeabi_i2d+0x28>)
1000607a:	681b      	ldr	r3, [r3, #0]
1000607c:	4798      	blx	r3
1000607e:	bc0c      	pop	{r2, r3}
10006080:	1c44      	adds	r4, r0, #1
10006082:	40a2      	lsls	r2, r4
10006084:	0510      	lsls	r0, r2, #20
10006086:	0b12      	lsrs	r2, r2, #12
10006088:	4903      	ldr	r1, [pc, #12]	; (10006098 <__wrap___aeabi_i2d+0x2c>)
1000608a:	1b09      	subs	r1, r1, r4
1000608c:	0509      	lsls	r1, r1, #20
1000608e:	4319      	orrs	r1, r3
10006090:	4311      	orrs	r1, r2
10006092:	bd10      	pop	{r4, pc}
10006094:	2000214c 	.word	0x2000214c
10006098:	0000041f 	.word	0x0000041f

1000609c <__wrap___aeabi_d2uiz>:
1000609c:	b418      	push	{r3, r4}
1000609e:	4b04      	ldr	r3, [pc, #16]	; (100060b0 <__wrap___aeabi_d2uiz+0x14>)
100060a0:	6a5b      	ldr	r3, [r3, #36]	; 0x24
100060a2:	46fc      	mov	ip, pc
100060a4:	9301      	str	r3, [sp, #4]
100060a6:	bd08      	pop	{r3, pc}
100060a8:	65eddf24 	.word	0x65eddf24
100060ac:	00001000 	.word	0x00001000
100060b0:	20001448 	.word	0x20001448

100060b4 <__aeabi_double_init>:
100060b4:	2313      	movs	r3, #19
100060b6:	b570      	push	{r4, r5, r6, lr}
100060b8:	781d      	ldrb	r5, [r3, #0]
100060ba:	2d01      	cmp	r5, #1
100060bc:	d015      	beq.n	100060ea <__aeabi_double_init+0x36>
100060be:	dd10      	ble.n	100060e2 <__aeabi_double_init+0x2e>
100060c0:	481c      	ldr	r0, [pc, #112]	; (10006134 <__aeabi_double_init+0x80>)
100060c2:	f7ff ff17 	bl	10005ef4 <rom_data_lookup>
100060c6:	4c1c      	ldr	r4, [pc, #112]	; (10006138 <__aeabi_double_init+0x84>)
100060c8:	0001      	movs	r1, r0
100060ca:	2280      	movs	r2, #128	; 0x80
100060cc:	0020      	movs	r0, r4
100060ce:	f000 fbad 	bl	1000682c <__wrap___aeabi_memcpy>
100060d2:	2d02      	cmp	r5, #2
100060d4:	d006      	beq.n	100060e4 <__aeabi_double_init+0x30>
100060d6:	4819      	ldr	r0, [pc, #100]	; (1000613c <__aeabi_double_init+0x88>)
100060d8:	f7ff ff04 	bl	10005ee4 <rom_func_lookup>
100060dc:	4b18      	ldr	r3, [pc, #96]	; (10006140 <__aeabi_double_init+0x8c>)
100060de:	6018      	str	r0, [r3, #0]
100060e0:	bd70      	pop	{r4, r5, r6, pc}
100060e2:	4c15      	ldr	r4, [pc, #84]	; (10006138 <__aeabi_double_init+0x84>)
100060e4:	4b17      	ldr	r3, [pc, #92]	; (10006144 <__aeabi_double_init+0x90>)
100060e6:	64a3      	str	r3, [r4, #72]	; 0x48
100060e8:	e7f5      	b.n	100060d6 <__aeabi_double_init+0x22>
100060ea:	4b16      	ldr	r3, [pc, #88]	; (10006144 <__aeabi_double_init+0x90>)
100060ec:	4c12      	ldr	r4, [pc, #72]	; (10006138 <__aeabi_double_init+0x84>)
100060ee:	6023      	str	r3, [r4, #0]
100060f0:	6063      	str	r3, [r4, #4]
100060f2:	60a3      	str	r3, [r4, #8]
100060f4:	60e3      	str	r3, [r4, #12]
100060f6:	6123      	str	r3, [r4, #16]
100060f8:	6163      	str	r3, [r4, #20]
100060fa:	61a3      	str	r3, [r4, #24]
100060fc:	61e3      	str	r3, [r4, #28]
100060fe:	6223      	str	r3, [r4, #32]
10006100:	6263      	str	r3, [r4, #36]	; 0x24
10006102:	62a3      	str	r3, [r4, #40]	; 0x28
10006104:	62e3      	str	r3, [r4, #44]	; 0x2c
10006106:	6323      	str	r3, [r4, #48]	; 0x30
10006108:	6363      	str	r3, [r4, #52]	; 0x34
1000610a:	63a3      	str	r3, [r4, #56]	; 0x38
1000610c:	63e3      	str	r3, [r4, #60]	; 0x3c
1000610e:	6423      	str	r3, [r4, #64]	; 0x40
10006110:	6463      	str	r3, [r4, #68]	; 0x44
10006112:	64a3      	str	r3, [r4, #72]	; 0x48
10006114:	64e3      	str	r3, [r4, #76]	; 0x4c
10006116:	6523      	str	r3, [r4, #80]	; 0x50
10006118:	6563      	str	r3, [r4, #84]	; 0x54
1000611a:	65a3      	str	r3, [r4, #88]	; 0x58
1000611c:	65e3      	str	r3, [r4, #92]	; 0x5c
1000611e:	6623      	str	r3, [r4, #96]	; 0x60
10006120:	6663      	str	r3, [r4, #100]	; 0x64
10006122:	66a3      	str	r3, [r4, #104]	; 0x68
10006124:	66e3      	str	r3, [r4, #108]	; 0x6c
10006126:	6723      	str	r3, [r4, #112]	; 0x70
10006128:	6763      	str	r3, [r4, #116]	; 0x74
1000612a:	67a3      	str	r3, [r4, #120]	; 0x78
1000612c:	67e3      	str	r3, [r4, #124]	; 0x7c
1000612e:	64a3      	str	r3, [r4, #72]	; 0x48
10006130:	e7d1      	b.n	100060d6 <__aeabi_double_init+0x22>
10006132:	46c0      	nop			; (mov r8, r8)
10006134:	00004453 	.word	0x00004453
10006138:	20001448 	.word	0x20001448
1000613c:	0000334c 	.word	0x0000334c
10006140:	2000214c 	.word	0x2000214c
10006144:	10006149 	.word	0x10006149

10006148 <double_table_shim_on_use_helper>:
10006148:	b507      	push	{r0, r1, r2, lr}
1000614a:	4660      	mov	r0, ip
1000614c:	8801      	ldrh	r1, [r0, #0]
1000614e:	0a0a      	lsrs	r2, r1, #8
10006150:	3002      	adds	r0, #2
10006152:	2adf      	cmp	r2, #223	; 0xdf
10006154:	d1fa      	bne.n	1000614c <double_table_shim_on_use_helper+0x4>
10006156:	b2c9      	uxtb	r1, r1
10006158:	0882      	lsrs	r2, r0, #2
1000615a:	d304      	bcc.n	10006166 <double_table_shim_on_use_helper+0x1e>
1000615c:	8802      	ldrh	r2, [r0, #0]
1000615e:	8840      	ldrh	r0, [r0, #2]
10006160:	0400      	lsls	r0, r0, #16
10006162:	4310      	orrs	r0, r2
10006164:	e000      	b.n	10006168 <double_table_shim_on_use_helper+0x20>
10006166:	6800      	ldr	r0, [r0, #0]
10006168:	4a01      	ldr	r2, [pc, #4]	; (10006170 <double_table_shim_on_use_helper+0x28>)
1000616a:	5050      	str	r0, [r2, r1]
1000616c:	9003      	str	r0, [sp, #12]
1000616e:	bd07      	pop	{r0, r1, r2, pc}
10006170:	20001448 	.word	0x20001448

10006174 <drsub_shim>:
10006174:	b40f      	push	{r0, r1, r2, r3}
10006176:	bc03      	pop	{r0, r1}
10006178:	bc0c      	pop	{r2, r3}

1000617a <dsub_shim>:
1000617a:	b5f0      	push	{r4, r5, r6, r7, lr}
1000617c:	2401      	movs	r4, #1
1000617e:	07e4      	lsls	r4, r4, #31
10006180:	4063      	eors	r3, r4
10006182:	e000      	b.n	10006186 <da_entry>

10006184 <dadd_shim>:
10006184:	b5f0      	push	{r4, r5, r6, r7, lr}

10006186 <da_entry>:
10006186:	0d0c      	lsrs	r4, r1, #20
10006188:	0fcf      	lsrs	r7, r1, #31
1000618a:	1e66      	subs	r6, r4, #1
1000618c:	0536      	lsls	r6, r6, #20
1000618e:	1b89      	subs	r1, r1, r6
10006190:	0564      	lsls	r4, r4, #21
10006192:	d303      	bcc.n	1000619c <l7_1>
10006194:	43c9      	mvns	r1, r1
10006196:	4240      	negs	r0, r0
10006198:	d300      	bcc.n	1000619c <l7_1>
1000619a:	3101      	adds	r1, #1

1000619c <l7_1>:
1000619c:	0d64      	lsrs	r4, r4, #21
1000619e:	d003      	beq.n	100061a8 <l7_2>
100061a0:	1c66      	adds	r6, r4, #1
100061a2:	0af6      	lsrs	r6, r6, #11
100061a4:	d007      	beq.n	100061b6 <l7_3>
100061a6:	1be4      	subs	r4, r4, r7

100061a8 <l7_2>:
100061a8:	2000      	movs	r0, #0
100061aa:	007f      	lsls	r7, r7, #1
100061ac:	1c79      	adds	r1, r7, #1
100061ae:	0789      	lsls	r1, r1, #30
100061b0:	1289      	asrs	r1, r1, #10
100061b2:	3c80      	subs	r4, #128	; 0x80
100061b4:	0324      	lsls	r4, r4, #12

100061b6 <l7_3>:
100061b6:	0d1d      	lsrs	r5, r3, #20
100061b8:	0fdf      	lsrs	r7, r3, #31
100061ba:	1e6e      	subs	r6, r5, #1
100061bc:	0536      	lsls	r6, r6, #20
100061be:	1b9b      	subs	r3, r3, r6
100061c0:	056d      	lsls	r5, r5, #21
100061c2:	d303      	bcc.n	100061cc <l8_1>
100061c4:	43db      	mvns	r3, r3
100061c6:	4252      	negs	r2, r2
100061c8:	d300      	bcc.n	100061cc <l8_1>
100061ca:	3301      	adds	r3, #1

100061cc <l8_1>:
100061cc:	0d6d      	lsrs	r5, r5, #21
100061ce:	d003      	beq.n	100061d8 <l8_2>
100061d0:	1c6e      	adds	r6, r5, #1
100061d2:	0af6      	lsrs	r6, r6, #11
100061d4:	d007      	beq.n	100061e6 <l8_3>
100061d6:	1bed      	subs	r5, r5, r7

100061d8 <l8_2>:
100061d8:	2200      	movs	r2, #0
100061da:	007f      	lsls	r7, r7, #1
100061dc:	1c7b      	adds	r3, r7, #1
100061de:	079b      	lsls	r3, r3, #30
100061e0:	129b      	asrs	r3, r3, #10
100061e2:	3d80      	subs	r5, #128	; 0x80
100061e4:	032d      	lsls	r5, r5, #12

100061e6 <l8_3>:
100061e6:	1b2f      	subs	r7, r5, r4
100061e8:	1b66      	subs	r6, r4, r5
100061ea:	d458      	bmi.n	1000629e <da_ygtx>
100061ec:	46a4      	mov	ip, r4
100061ee:	2e20      	cmp	r6, #32
100061f0:	da46      	bge.n	10006280 <da_xrgty>
100061f2:	3720      	adds	r7, #32
100061f4:	0014      	movs	r4, r2
100061f6:	40bc      	lsls	r4, r7

100061f8 <da_xgty0>:
100061f8:	001d      	movs	r5, r3
100061fa:	40bd      	lsls	r5, r7
100061fc:	40f2      	lsrs	r2, r6
100061fe:	4133      	asrs	r3, r6
10006200:	432a      	orrs	r2, r5

10006202 <da_add>:
10006202:	1880      	adds	r0, r0, r2
10006204:	4159      	adcs	r1, r3

10006206 <da_pack>:
10006206:	0fcb      	lsrs	r3, r1, #31
10006208:	d005      	beq.n	10006216 <da_pack+0x10>
1000620a:	43c9      	mvns	r1, r1
1000620c:	43c0      	mvns	r0, r0
1000620e:	2200      	movs	r2, #0
10006210:	4264      	negs	r4, r4
10006212:	4150      	adcs	r0, r2
10006214:	4151      	adcs	r1, r2
10006216:	4662      	mov	r2, ip
10006218:	0d4d      	lsrs	r5, r1, #21
1000621a:	d128      	bne.n	1000626e <da_0>
1000621c:	0d0d      	lsrs	r5, r1, #20
1000621e:	d107      	bne.n	10006230 <da_1>
10006220:	2800      	cmp	r0, #0
10006222:	d01f      	beq.n	10006264 <da_5>

10006224 <da_2>:
10006224:	1924      	adds	r4, r4, r4
10006226:	4140      	adcs	r0, r0
10006228:	4149      	adcs	r1, r1
1000622a:	3a01      	subs	r2, #1
1000622c:	0d0d      	lsrs	r5, r1, #20
1000622e:	d0f9      	beq.n	10006224 <da_2>

10006230 <da_1>:
10006230:	0064      	lsls	r4, r4, #1
10006232:	d306      	bcc.n	10006242 <da_3>

10006234 <da_4>:
10006234:	3001      	adds	r0, #1
10006236:	d300      	bcc.n	1000623a <da_4+0x6>
10006238:	3101      	adds	r1, #1
1000623a:	2c00      	cmp	r4, #0
1000623c:	d101      	bne.n	10006242 <da_3>
1000623e:	0840      	lsrs	r0, r0, #1
10006240:	0040      	lsls	r0, r0, #1

10006242 <da_3>:
10006242:	3a01      	subs	r2, #1
10006244:	d40b      	bmi.n	1000625e <da_6>
10006246:	1c94      	adds	r4, r2, #2
10006248:	0ae4      	lsrs	r4, r4, #11
1000624a:	d104      	bne.n	10006256 <da_7>
1000624c:	0512      	lsls	r2, r2, #20
1000624e:	4411      	add	r1, r2
10006250:	07db      	lsls	r3, r3, #31
10006252:	4419      	add	r1, r3
10006254:	bdf0      	pop	{r4, r5, r6, r7, pc}

10006256 <da_7>:
10006256:	07d9      	lsls	r1, r3, #31
10006258:	4b20      	ldr	r3, [pc, #128]	; (100062dc <da_xmgty+0x4>)
1000625a:	4319      	orrs	r1, r3
1000625c:	e000      	b.n	10006260 <da_6+0x2>

1000625e <da_6>:
1000625e:	07d9      	lsls	r1, r3, #31
10006260:	2000      	movs	r0, #0
10006262:	bdf0      	pop	{r4, r5, r6, r7, pc}

10006264 <da_5>:
10006264:	2900      	cmp	r1, #0
10006266:	d1dd      	bne.n	10006224 <da_2>
10006268:	2c00      	cmp	r4, #0
1000626a:	d1db      	bne.n	10006224 <da_2>
1000626c:	bdf0      	pop	{r4, r5, r6, r7, pc}

1000626e <da_0>:
1000626e:	3201      	adds	r2, #1
10006270:	07c6      	lsls	r6, r0, #31
10006272:	0840      	lsrs	r0, r0, #1
10006274:	07cd      	lsls	r5, r1, #31
10006276:	4328      	orrs	r0, r5
10006278:	0849      	lsrs	r1, r1, #1
1000627a:	2e00      	cmp	r6, #0
1000627c:	d0e1      	beq.n	10006242 <da_3>
1000627e:	e7d9      	b.n	10006234 <da_4>

10006280 <da_xrgty>:
10006280:	2e3c      	cmp	r6, #60	; 0x3c
10006282:	da29      	bge.n	100062d8 <da_xmgty>
10006284:	3e20      	subs	r6, #32
10006286:	3740      	adds	r7, #64	; 0x40
10006288:	0014      	movs	r4, r2
1000628a:	40bc      	lsls	r4, r7
1000628c:	d000      	beq.n	10006290 <da_xrgty+0x10>
1000628e:	2401      	movs	r4, #1
10006290:	40f2      	lsrs	r2, r6
10006292:	4314      	orrs	r4, r2
10006294:	001a      	movs	r2, r3
10006296:	40bb      	lsls	r3, r7
10006298:	431c      	orrs	r4, r3
1000629a:	17d3      	asrs	r3, r2, #31
1000629c:	e7ac      	b.n	100061f8 <da_xgty0>

1000629e <da_ygtx>:
1000629e:	46ac      	mov	ip, r5
100062a0:	2f20      	cmp	r7, #32
100062a2:	da08      	bge.n	100062b6 <da_yrgtx>
100062a4:	3620      	adds	r6, #32
100062a6:	0004      	movs	r4, r0
100062a8:	40b4      	lsls	r4, r6

100062aa <da_ygtx0>:
100062aa:	000d      	movs	r5, r1
100062ac:	40b5      	lsls	r5, r6
100062ae:	40f8      	lsrs	r0, r7
100062b0:	4139      	asrs	r1, r7
100062b2:	4328      	orrs	r0, r5
100062b4:	e7a5      	b.n	10006202 <da_add>

100062b6 <da_yrgtx>:
100062b6:	2f3c      	cmp	r7, #60	; 0x3c
100062b8:	da0c      	bge.n	100062d4 <da_ymgtx>
100062ba:	3f20      	subs	r7, #32
100062bc:	3640      	adds	r6, #64	; 0x40
100062be:	0004      	movs	r4, r0
100062c0:	40b4      	lsls	r4, r6
100062c2:	d000      	beq.n	100062c6 <da_yrgtx+0x10>
100062c4:	2401      	movs	r4, #1
100062c6:	40f8      	lsrs	r0, r7
100062c8:	4304      	orrs	r4, r0
100062ca:	0008      	movs	r0, r1
100062cc:	40b1      	lsls	r1, r6
100062ce:	430c      	orrs	r4, r1
100062d0:	17c1      	asrs	r1, r0, #31
100062d2:	e7ea      	b.n	100062aa <da_ygtx0>

100062d4 <da_ymgtx>:
100062d4:	0010      	movs	r0, r2
100062d6:	0019      	movs	r1, r3

100062d8 <da_xmgty>:
100062d8:	2400      	movs	r4, #0
100062da:	e794      	b.n	10006206 <da_pack>
100062dc:	7ff00000 	.word	0x7ff00000

100062e0 <dmul_shim>:
100062e0:	b5f0      	push	{r4, r5, r6, r7, lr}
100062e2:	0d0c      	lsrs	r4, r1, #20
100062e4:	1e66      	subs	r6, r4, #1
100062e6:	0536      	lsls	r6, r6, #20
100062e8:	1b89      	subs	r1, r1, r6
100062ea:	0ae6      	lsrs	r6, r4, #11
100062ec:	0564      	lsls	r4, r4, #21
100062ee:	0d64      	lsrs	r4, r4, #21
100062f0:	d002      	beq.n	100062f8 <l11_1>
100062f2:	1c65      	adds	r5, r4, #1
100062f4:	0aed      	lsrs	r5, r5, #11
100062f6:	d004      	beq.n	10006302 <l11_2>

100062f8 <l11_1>:
100062f8:	2000      	movs	r0, #0
100062fa:	2101      	movs	r1, #1
100062fc:	0509      	lsls	r1, r1, #20
100062fe:	3c80      	subs	r4, #128	; 0x80
10006300:	0324      	lsls	r4, r4, #12

10006302 <l11_2>:
10006302:	46a4      	mov	ip, r4
10006304:	0d1c      	lsrs	r4, r3, #20
10006306:	1e67      	subs	r7, r4, #1
10006308:	053f      	lsls	r7, r7, #20
1000630a:	1bdb      	subs	r3, r3, r7
1000630c:	0ae7      	lsrs	r7, r4, #11
1000630e:	0564      	lsls	r4, r4, #21
10006310:	0d64      	lsrs	r4, r4, #21
10006312:	d002      	beq.n	1000631a <l12_1>
10006314:	1c65      	adds	r5, r4, #1
10006316:	0aed      	lsrs	r5, r5, #11
10006318:	d004      	beq.n	10006324 <l12_2>

1000631a <l12_1>:
1000631a:	2200      	movs	r2, #0
1000631c:	2301      	movs	r3, #1
1000631e:	051b      	lsls	r3, r3, #20
10006320:	3c80      	subs	r4, #128	; 0x80
10006322:	0324      	lsls	r4, r4, #12

10006324 <l12_2>:
10006324:	4077      	eors	r7, r6
10006326:	4464      	add	r4, ip
10006328:	b497      	push	{r0, r1, r2, r4, r7}
1000632a:	b284      	uxth	r4, r0
1000632c:	b296      	uxth	r6, r2
1000632e:	4374      	muls	r4, r6
10006330:	0c07      	lsrs	r7, r0, #16
10006332:	437e      	muls	r6, r7
10006334:	0c15      	lsrs	r5, r2, #16
10006336:	436f      	muls	r7, r5
10006338:	b280      	uxth	r0, r0
1000633a:	4368      	muls	r0, r5
1000633c:	1836      	adds	r6, r6, r0
1000633e:	d302      	bcc.n	10006346 <l13_1>
10006340:	2001      	movs	r0, #1
10006342:	0400      	lsls	r0, r0, #16
10006344:	183f      	adds	r7, r7, r0

10006346 <l13_1>:
10006346:	0430      	lsls	r0, r6, #16
10006348:	0c35      	lsrs	r5, r6, #16
1000634a:	1900      	adds	r0, r0, r4
1000634c:	417d      	adcs	r5, r7
1000634e:	4684      	mov	ip, r0
10006350:	b288      	uxth	r0, r1
10006352:	b29a      	uxth	r2, r3
10006354:	4350      	muls	r0, r2
10006356:	0c0c      	lsrs	r4, r1, #16
10006358:	4362      	muls	r2, r4
1000635a:	0c1f      	lsrs	r7, r3, #16
1000635c:	437c      	muls	r4, r7
1000635e:	b28e      	uxth	r6, r1
10006360:	437e      	muls	r6, r7
10006362:	1992      	adds	r2, r2, r6
10006364:	d302      	bcc.n	1000636c <l14_1>
10006366:	2601      	movs	r6, #1
10006368:	0436      	lsls	r6, r6, #16
1000636a:	19a4      	adds	r4, r4, r6

1000636c <l14_1>:
1000636c:	0416      	lsls	r6, r2, #16
1000636e:	0c17      	lsrs	r7, r2, #16
10006370:	1836      	adds	r6, r6, r0
10006372:	4167      	adcs	r7, r4
10006374:	bc01      	pop	{r0}
10006376:	b281      	uxth	r1, r0
10006378:	b29a      	uxth	r2, r3
1000637a:	4351      	muls	r1, r2
1000637c:	0c04      	lsrs	r4, r0, #16
1000637e:	4362      	muls	r2, r4
10006380:	0c1b      	lsrs	r3, r3, #16
10006382:	435c      	muls	r4, r3
10006384:	b280      	uxth	r0, r0
10006386:	4358      	muls	r0, r3
10006388:	1812      	adds	r2, r2, r0
1000638a:	d302      	bcc.n	10006392 <l15_1>
1000638c:	2001      	movs	r0, #1
1000638e:	0400      	lsls	r0, r0, #16
10006390:	1824      	adds	r4, r4, r0

10006392 <l15_1>:
10006392:	0410      	lsls	r0, r2, #16
10006394:	0c13      	lsrs	r3, r2, #16
10006396:	1840      	adds	r0, r0, r1
10006398:	4163      	adcs	r3, r4
1000639a:	182d      	adds	r5, r5, r0
1000639c:	415e      	adcs	r6, r3
1000639e:	2000      	movs	r0, #0
100063a0:	4147      	adcs	r7, r0
100063a2:	bc06      	pop	{r1, r2}
100063a4:	b288      	uxth	r0, r1
100063a6:	b293      	uxth	r3, r2
100063a8:	4358      	muls	r0, r3
100063aa:	0c0c      	lsrs	r4, r1, #16
100063ac:	4363      	muls	r3, r4
100063ae:	0c12      	lsrs	r2, r2, #16
100063b0:	4354      	muls	r4, r2
100063b2:	b289      	uxth	r1, r1
100063b4:	4351      	muls	r1, r2
100063b6:	185b      	adds	r3, r3, r1
100063b8:	d302      	bcc.n	100063c0 <l16_1>
100063ba:	2101      	movs	r1, #1
100063bc:	0409      	lsls	r1, r1, #16
100063be:	1864      	adds	r4, r4, r1

100063c0 <l16_1>:
100063c0:	0419      	lsls	r1, r3, #16
100063c2:	0c1a      	lsrs	r2, r3, #16
100063c4:	1809      	adds	r1, r1, r0
100063c6:	4162      	adcs	r2, r4
100063c8:	186d      	adds	r5, r5, r1
100063ca:	4156      	adcs	r6, r2
100063cc:	2000      	movs	r0, #0
100063ce:	4147      	adcs	r7, r0
100063d0:	bc18      	pop	{r3, r4}
100063d2:	02f9      	lsls	r1, r7, #11
100063d4:	0d72      	lsrs	r2, r6, #21
100063d6:	4311      	orrs	r1, r2
100063d8:	02f0      	lsls	r0, r6, #11
100063da:	0d6a      	lsrs	r2, r5, #21
100063dc:	4310      	orrs	r0, r2
100063de:	02ed      	lsls	r5, r5, #11
100063e0:	0d0a      	lsrs	r2, r1, #20
100063e2:	d103      	bne.n	100063ec <l16_1+0x2c>
100063e4:	196d      	adds	r5, r5, r5
100063e6:	4140      	adcs	r0, r0
100063e8:	4149      	adcs	r1, r1
100063ea:	3b01      	subs	r3, #1
100063ec:	4e12      	ldr	r6, [pc, #72]	; (10006438 <dm_1+0xa>)
100063ee:	1b9b      	subs	r3, r3, r6
100063f0:	0076      	lsls	r6, r6, #1
100063f2:	42b3      	cmp	r3, r6
100063f4:	d20e      	bcs.n	10006414 <dm_0>
100063f6:	006d      	lsls	r5, r5, #1
100063f8:	d307      	bcc.n	1000640a <l16_1+0x4a>
100063fa:	3001      	adds	r0, #1
100063fc:	2600      	movs	r6, #0
100063fe:	4171      	adcs	r1, r6
10006400:	4666      	mov	r6, ip
10006402:	4335      	orrs	r5, r6
10006404:	d101      	bne.n	1000640a <l16_1+0x4a>
10006406:	0840      	lsrs	r0, r0, #1
10006408:	0040      	lsls	r0, r0, #1
1000640a:	051b      	lsls	r3, r3, #20
1000640c:	18c9      	adds	r1, r1, r3

1000640e <dm_2>:
1000640e:	07e4      	lsls	r4, r4, #31
10006410:	4421      	add	r1, r4
10006412:	bdf0      	pop	{r4, r5, r6, r7, pc}

10006414 <dm_0>:
10006414:	da0b      	bge.n	1000642e <dm_1>
10006416:	3301      	adds	r3, #1
10006418:	d106      	bne.n	10006428 <dm_0+0x14>
1000641a:	3001      	adds	r0, #1
1000641c:	d104      	bne.n	10006428 <dm_0+0x14>
1000641e:	3101      	adds	r1, #1
10006420:	0d4f      	lsrs	r7, r1, #21
10006422:	d001      	beq.n	10006428 <dm_0+0x14>
10006424:	0849      	lsrs	r1, r1, #1
10006426:	e7f2      	b.n	1000640e <dm_2>
10006428:	07e1      	lsls	r1, r4, #31
1000642a:	2000      	movs	r0, #0
1000642c:	bdf0      	pop	{r4, r5, r6, r7, pc}

1000642e <dm_1>:
1000642e:	3601      	adds	r6, #1
10006430:	0531      	lsls	r1, r6, #20
10006432:	2000      	movs	r0, #0
10006434:	e7eb      	b.n	1000640e <dm_2>
10006436:	0000      	.short	0x0000
10006438:	000003ff 	.word	0x000003ff

1000643c <ddiv_shim>:
1000643c:	b5f0      	push	{r4, r5, r6, r7, lr}

1000643e <ddiv0>:
1000643e:	0d1c      	lsrs	r4, r3, #20
10006440:	1e67      	subs	r7, r4, #1
10006442:	053f      	lsls	r7, r7, #20
10006444:	1bdb      	subs	r3, r3, r7
10006446:	0ae7      	lsrs	r7, r4, #11
10006448:	0564      	lsls	r4, r4, #21
1000644a:	0d64      	lsrs	r4, r4, #21
1000644c:	d002      	beq.n	10006454 <l19_1>
1000644e:	1c66      	adds	r6, r4, #1
10006450:	0af6      	lsrs	r6, r6, #11
10006452:	d004      	beq.n	1000645e <l19_2>

10006454 <l19_1>:
10006454:	2200      	movs	r2, #0
10006456:	2301      	movs	r3, #1
10006458:	051b      	lsls	r3, r3, #20
1000645a:	3c80      	subs	r4, #128	; 0x80
1000645c:	0324      	lsls	r4, r4, #12

1000645e <l19_2>:
1000645e:	25d0      	movs	r5, #208	; 0xd0
10006460:	062d      	lsls	r5, r5, #24
10006462:	2600      	movs	r6, #0
10006464:	43f6      	mvns	r6, r6
10006466:	662e      	str	r6, [r5, #96]	; 0x60
10006468:	091e      	lsrs	r6, r3, #4
1000646a:	666e      	str	r6, [r5, #100]	; 0x64
1000646c:	0fce      	lsrs	r6, r1, #31
1000646e:	19f6      	adds	r6, r6, r7
10006470:	46b4      	mov	ip, r6
10006472:	0049      	lsls	r1, r1, #1
10006474:	0d4f      	lsrs	r7, r1, #21
10006476:	d002      	beq.n	1000647e <l19_2+0x20>
10006478:	1c7e      	adds	r6, r7, #1
1000647a:	0af6      	lsrs	r6, r6, #11
1000647c:	d003      	beq.n	10006486 <l19_2+0x28>
1000647e:	2000      	movs	r0, #0
10006480:	2100      	movs	r1, #0
10006482:	3f40      	subs	r7, #64	; 0x40
10006484:	033f      	lsls	r7, r7, #12
10006486:	1b3e      	subs	r6, r7, r4
10006488:	00b6      	lsls	r6, r6, #2
1000648a:	44b4      	add	ip, r6
1000648c:	3f01      	subs	r7, #1
1000648e:	057f      	lsls	r7, r7, #21
10006490:	1bc9      	subs	r1, r1, r7
10006492:	0849      	lsrs	r1, r1, #1
10006494:	6f2e      	ldr	r6, [r5, #112]	; 0x70
10006496:	3601      	adds	r6, #1
10006498:	0876      	lsrs	r6, r6, #1
1000649a:	029c      	lsls	r4, r3, #10
1000649c:	0d95      	lsrs	r5, r2, #22
1000649e:	4325      	orrs	r5, r4
100064a0:	4375      	muls	r5, r6
100064a2:	13ed      	asrs	r5, r5, #15
100064a4:	4375      	muls	r5, r6
100064a6:	13ad      	asrs	r5, r5, #14
100064a8:	3501      	adds	r5, #1
100064aa:	106d      	asrs	r5, r5, #1
100064ac:	03f6      	lsls	r6, r6, #15
100064ae:	1b76      	subs	r6, r6, r5
100064b0:	b40c      	push	{r2, r3}
100064b2:	02cc      	lsls	r4, r1, #11
100064b4:	0d45      	lsrs	r5, r0, #21
100064b6:	432c      	orrs	r4, r5
100064b8:	b2a2      	uxth	r2, r4
100064ba:	b2b3      	uxth	r3, r6
100064bc:	435a      	muls	r2, r3
100064be:	0c27      	lsrs	r7, r4, #16
100064c0:	437b      	muls	r3, r7
100064c2:	0c35      	lsrs	r5, r6, #16
100064c4:	436f      	muls	r7, r5
100064c6:	b2a4      	uxth	r4, r4
100064c8:	436c      	muls	r4, r5
100064ca:	191b      	adds	r3, r3, r4
100064cc:	d302      	bcc.n	100064d4 <l20_1>
100064ce:	2401      	movs	r4, #1
100064d0:	0424      	lsls	r4, r4, #16
100064d2:	193f      	adds	r7, r7, r4

100064d4 <l20_1>:
100064d4:	041c      	lsls	r4, r3, #16
100064d6:	0c1d      	lsrs	r5, r3, #16
100064d8:	18a4      	adds	r4, r4, r2
100064da:	417d      	adcs	r5, r7
100064dc:	1924      	adds	r4, r4, r4
100064de:	416d      	adcs	r5, r5
100064e0:	9a00      	ldr	r2, [sp, #0]
100064e2:	b291      	uxth	r1, r2
100064e4:	b2ac      	uxth	r4, r5
100064e6:	4361      	muls	r1, r4
100064e8:	0c17      	lsrs	r7, r2, #16
100064ea:	437c      	muls	r4, r7
100064ec:	0c2b      	lsrs	r3, r5, #16
100064ee:	435f      	muls	r7, r3
100064f0:	b292      	uxth	r2, r2
100064f2:	435a      	muls	r2, r3
100064f4:	18a4      	adds	r4, r4, r2
100064f6:	d302      	bcc.n	100064fe <l21_1>
100064f8:	2201      	movs	r2, #1
100064fa:	0412      	lsls	r2, r2, #16
100064fc:	18bf      	adds	r7, r7, r2

100064fe <l21_1>:
100064fe:	0422      	lsls	r2, r4, #16
10006500:	0c23      	lsrs	r3, r4, #16
10006502:	1852      	adds	r2, r2, r1
10006504:	417b      	adcs	r3, r7
10006506:	9c01      	ldr	r4, [sp, #4]
10006508:	436c      	muls	r4, r5
1000650a:	191b      	adds	r3, r3, r4
1000650c:	0e52      	lsrs	r2, r2, #25
1000650e:	01d9      	lsls	r1, r3, #7
10006510:	430a      	orrs	r2, r1
10006512:	0144      	lsls	r4, r0, #5
10006514:	1aa0      	subs	r0, r4, r2
10006516:	b281      	uxth	r1, r0
10006518:	b2b2      	uxth	r2, r6
1000651a:	4351      	muls	r1, r2
1000651c:	1403      	asrs	r3, r0, #16
1000651e:	435a      	muls	r2, r3
10006520:	0c36      	lsrs	r6, r6, #16
10006522:	4373      	muls	r3, r6
10006524:	b287      	uxth	r7, r0
10006526:	4377      	muls	r7, r6
10006528:	17d6      	asrs	r6, r2, #31
1000652a:	19d2      	adds	r2, r2, r7
1000652c:	2700      	movs	r7, #0
1000652e:	417e      	adcs	r6, r7
10006530:	0436      	lsls	r6, r6, #16
10006532:	199b      	adds	r3, r3, r6
10006534:	0417      	lsls	r7, r2, #16
10006536:	0c16      	lsrs	r6, r2, #16
10006538:	187f      	adds	r7, r7, r1
1000653a:	415e      	adcs	r6, r3
1000653c:	1673      	asrs	r3, r6, #25
1000653e:	18ed      	adds	r5, r5, r3
10006540:	01f3      	lsls	r3, r6, #7
10006542:	2600      	movs	r6, #0
10006544:	3380      	adds	r3, #128	; 0x80
10006546:	4175      	adcs	r5, r6
10006548:	0fa9      	lsrs	r1, r5, #30
1000654a:	d106      	bne.n	1000655a <dd_0>
1000654c:	0064      	lsls	r4, r4, #1
1000654e:	0a69      	lsrs	r1, r5, #9
10006550:	05e8      	lsls	r0, r5, #23
10006552:	0a5b      	lsrs	r3, r3, #9
10006554:	4318      	orrs	r0, r3
10006556:	d209      	bcs.n	1000656c <dd_1>
10006558:	e02f      	b.n	100065ba <dd_2>

1000655a <dd_0>:
1000655a:	2204      	movs	r2, #4
1000655c:	4494      	add	ip, r2
1000655e:	3380      	adds	r3, #128	; 0x80
10006560:	4175      	adcs	r5, r6
10006562:	0aa9      	lsrs	r1, r5, #10
10006564:	05a8      	lsls	r0, r5, #22
10006566:	0a9b      	lsrs	r3, r3, #10
10006568:	4318      	orrs	r0, r3
1000656a:	d326      	bcc.n	100065ba <dd_2>

1000656c <dd_1>:
1000656c:	4140      	adcs	r0, r0
1000656e:	4149      	adcs	r1, r1
10006570:	0424      	lsls	r4, r4, #16
10006572:	9a00      	ldr	r2, [sp, #0]
10006574:	9b01      	ldr	r3, [sp, #4]
10006576:	000d      	movs	r5, r1
10006578:	4355      	muls	r5, r2
1000657a:	1b64      	subs	r4, r4, r5
1000657c:	4343      	muls	r3, r0
1000657e:	1ae4      	subs	r4, r4, r3
10006580:	b295      	uxth	r5, r2
10006582:	b286      	uxth	r6, r0
10006584:	4375      	muls	r5, r6
10006586:	0c17      	lsrs	r7, r2, #16
10006588:	437e      	muls	r6, r7
1000658a:	0c03      	lsrs	r3, r0, #16
1000658c:	435f      	muls	r7, r3
1000658e:	b292      	uxth	r2, r2
10006590:	435a      	muls	r2, r3
10006592:	18b6      	adds	r6, r6, r2
10006594:	d302      	bcc.n	1000659c <l23_1>
10006596:	2201      	movs	r2, #1
10006598:	0412      	lsls	r2, r2, #16
1000659a:	18bf      	adds	r7, r7, r2

1000659c <l23_1>:
1000659c:	0432      	lsls	r2, r6, #16
1000659e:	0c33      	lsrs	r3, r6, #16
100065a0:	1952      	adds	r2, r2, r5
100065a2:	417b      	adcs	r3, r7
100065a4:	4252      	negs	r2, r2
100065a6:	419c      	sbcs	r4, r3
100065a8:	2c00      	cmp	r4, #0
100065aa:	d402      	bmi.n	100065b2 <l23_1+0x16>
100065ac:	2200      	movs	r2, #0
100065ae:	3001      	adds	r0, #1
100065b0:	4151      	adcs	r1, r2
100065b2:	0840      	lsrs	r0, r0, #1
100065b4:	07ca      	lsls	r2, r1, #31
100065b6:	4310      	orrs	r0, r2
100065b8:	0849      	lsrs	r1, r1, #1

100065ba <dd_2>:
100065ba:	b002      	add	sp, #8
100065bc:	4662      	mov	r2, ip
100065be:	07d7      	lsls	r7, r2, #31
100065c0:	1092      	asrs	r2, r2, #2
100065c2:	4b08      	ldr	r3, [pc, #32]	; (100065e4 <dd_4+0x6>)
100065c4:	18d2      	adds	r2, r2, r3
100065c6:	4b08      	ldr	r3, [pc, #32]	; (100065e8 <dd_4+0xa>)
100065c8:	429a      	cmp	r2, r3
100065ca:	d203      	bcs.n	100065d4 <dd_3>
100065cc:	0512      	lsls	r2, r2, #20
100065ce:	1889      	adds	r1, r1, r2

100065d0 <dd_5>:
100065d0:	19c9      	adds	r1, r1, r7
100065d2:	bdf0      	pop	{r4, r5, r6, r7, pc}

100065d4 <dd_3>:
100065d4:	2000      	movs	r0, #0
100065d6:	2a00      	cmp	r2, #0
100065d8:	dc01      	bgt.n	100065de <dd_4>
100065da:	0039      	movs	r1, r7
100065dc:	bdf0      	pop	{r4, r5, r6, r7, pc}

100065de <dd_4>:
100065de:	3301      	adds	r3, #1
100065e0:	0519      	lsls	r1, r3, #20
100065e2:	e7f5      	b.n	100065d0 <dd_5>
100065e4:	000003fd 	.word	0x000003fd
100065e8:	000007fe 	.word	0x000007fe

100065ec <double2uint_shim>:
100065ec:	2200      	movs	r2, #0

100065ee <double2ufix_shim>:
100065ee:	b500      	push	{lr}
100065f0:	3220      	adds	r2, #32
100065f2:	f000 f804 	bl	100065fe <double2ufix64_shim>
100065f6:	0008      	movs	r0, r1
100065f8:	bd00      	pop	{pc}
	...

100065fc <double2uint64_shim>:
100065fc:	2200      	movs	r2, #0

100065fe <double2ufix64_shim>:
100065fe:	150b      	asrs	r3, r1, #20
10006600:	d40a      	bmi.n	10006618 <ret_dzero>

10006602 <d2fix>:
10006602:	b510      	push	{r4, lr}
10006604:	4694      	mov	ip, r2
10006606:	f000 f831 	bl	1000666c <dunpacks>
1000660a:	1414      	asrs	r4, r2, #16
1000660c:	3401      	adds	r4, #1
1000660e:	da00      	bge.n	10006612 <d2fix+0x10>
10006610:	2100      	movs	r1, #0
10006612:	17cb      	asrs	r3, r1, #31
10006614:	4c14      	ldr	r4, [pc, #80]	; (10006668 <d2fix_a+0x4a>)
10006616:	4720      	bx	r4

10006618 <ret_dzero>:
10006618:	2000      	movs	r0, #0
1000661a:	2100      	movs	r1, #0
1000661c:	4770      	bx	lr

1000661e <d2fix_a>:
1000661e:	4462      	add	r2, ip
10006620:	3a34      	subs	r2, #52	; 0x34
10006622:	d40c      	bmi.n	1000663e <d2fix_a+0x20>
10006624:	2a0c      	cmp	r2, #12
10006626:	da07      	bge.n	10006638 <d2fix_a+0x1a>
10006628:	0004      	movs	r4, r0
1000662a:	4091      	lsls	r1, r2
1000662c:	4090      	lsls	r0, r2
1000662e:	4252      	negs	r2, r2
10006630:	3220      	adds	r2, #32
10006632:	40d4      	lsrs	r4, r2
10006634:	4321      	orrs	r1, r4
10006636:	bd10      	pop	{r4, pc}
10006638:	43d8      	mvns	r0, r3
1000663a:	43d9      	mvns	r1, r3
1000663c:	bd10      	pop	{r4, pc}
1000663e:	3220      	adds	r2, #32
10006640:	d407      	bmi.n	10006652 <d2fix_a+0x34>
10006642:	460c      	mov	r4, r1
10006644:	4094      	lsls	r4, r2
10006646:	4252      	negs	r2, r2
10006648:	3220      	adds	r2, #32
1000664a:	4111      	asrs	r1, r2
1000664c:	40d0      	lsrs	r0, r2
1000664e:	4320      	orrs	r0, r4
10006650:	bd10      	pop	{r4, pc}
10006652:	0008      	movs	r0, r1
10006654:	17c9      	asrs	r1, r1, #31
10006656:	3220      	adds	r2, #32
10006658:	d403      	bmi.n	10006662 <d2fix_a+0x44>
1000665a:	4252      	negs	r2, r2
1000665c:	3220      	adds	r2, #32
1000665e:	4110      	asrs	r0, r2
10006660:	bd10      	pop	{r4, pc}
10006662:	0018      	movs	r0, r3
10006664:	0019      	movs	r1, r3
10006666:	bd10      	pop	{r4, pc}
10006668:	1000661f 	.word	0x1000661f

1000666c <dunpacks>:
1000666c:	0d0a      	lsrs	r2, r1, #20
1000666e:	0fcc      	lsrs	r4, r1, #31
10006670:	1e53      	subs	r3, r2, #1
10006672:	051b      	lsls	r3, r3, #20
10006674:	1ac9      	subs	r1, r1, r3
10006676:	0552      	lsls	r2, r2, #21
10006678:	d303      	bcc.n	10006682 <l59_1>
1000667a:	43c9      	mvns	r1, r1
1000667c:	4240      	negs	r0, r0
1000667e:	d300      	bcc.n	10006682 <l59_1>
10006680:	3101      	adds	r1, #1

10006682 <l59_1>:
10006682:	0d52      	lsrs	r2, r2, #21
10006684:	d003      	beq.n	1000668e <l59_2>
10006686:	1c53      	adds	r3, r2, #1
10006688:	0adb      	lsrs	r3, r3, #11
1000668a:	d007      	beq.n	1000669c <l59_3>
1000668c:	1b12      	subs	r2, r2, r4

1000668e <l59_2>:
1000668e:	2000      	movs	r0, #0
10006690:	0064      	lsls	r4, r4, #1
10006692:	1c61      	adds	r1, r4, #1
10006694:	0789      	lsls	r1, r1, #30
10006696:	1289      	asrs	r1, r1, #10
10006698:	3a80      	subs	r2, #128	; 0x80
1000669a:	0312      	lsls	r2, r2, #12

1000669c <l59_3>:
1000669c:	4b01      	ldr	r3, [pc, #4]	; (100066a4 <l59_3+0x8>)
1000669e:	1ad2      	subs	r2, r2, r3
100066a0:	4770      	bx	lr
100066a2:	0000      	.short	0x0000
100066a4:	000003ff 	.word	0x000003ff

100066a8 <__wrap___aeabi_lmul>:
100066a8:	4351      	muls	r1, r2
100066aa:	4343      	muls	r3, r0
100066ac:	18c9      	adds	r1, r1, r3
100066ae:	468c      	mov	ip, r1
100066b0:	0c11      	lsrs	r1, r2, #16
100066b2:	b283      	uxth	r3, r0
100066b4:	434b      	muls	r3, r1
100066b6:	b410      	push	{r4}
100066b8:	0c04      	lsrs	r4, r0, #16
100066ba:	4361      	muls	r1, r4
100066bc:	b292      	uxth	r2, r2
100066be:	b280      	uxth	r0, r0
100066c0:	4350      	muls	r0, r2
100066c2:	4362      	muls	r2, r4
100066c4:	041c      	lsls	r4, r3, #16
100066c6:	0c1b      	lsrs	r3, r3, #16
100066c8:	1900      	adds	r0, r0, r4
100066ca:	bc10      	pop	{r4}
100066cc:	4159      	adcs	r1, r3
100066ce:	0413      	lsls	r3, r2, #16
100066d0:	0c12      	lsrs	r2, r2, #16
100066d2:	18c0      	adds	r0, r0, r3
100066d4:	4151      	adcs	r1, r2
100066d6:	4461      	add	r1, ip
100066d8:	4770      	bx	lr
	...

100066dc <__wrap___aeabi_frsub>:
100066dc:	4048      	eors	r0, r1
100066de:	4041      	eors	r1, r0
100066e0:	4048      	eors	r0, r1

100066e2 <__wrap___aeabi_fsub>:
100066e2:	4b0e      	ldr	r3, [pc, #56]	; (1000671c <__wrap___aeabi_fmul+0x6>)
100066e4:	685b      	ldr	r3, [r3, #4]
100066e6:	4718      	bx	r3

100066e8 <__wrap___aeabi_fadd>:
100066e8:	4b0c      	ldr	r3, [pc, #48]	; (1000671c <__wrap___aeabi_fmul+0x6>)
100066ea:	681b      	ldr	r3, [r3, #0]
100066ec:	4718      	bx	r3

100066ee <__wrap___aeabi_fdiv>:
100066ee:	4a0c      	ldr	r2, [pc, #48]	; (10006720 <__wrap___aeabi_fmul+0xa>)
100066f0:	6f93      	ldr	r3, [r2, #120]	; 0x78
100066f2:	089b      	lsrs	r3, r3, #2
100066f4:	d202      	bcs.n	100066fc <fdiv_save_state>

100066f6 <fdiv_shim_call>:
100066f6:	4b09      	ldr	r3, [pc, #36]	; (1000671c <__wrap___aeabi_fmul+0x6>)
100066f8:	68db      	ldr	r3, [r3, #12]
100066fa:	4718      	bx	r3

100066fc <fdiv_save_state>:
100066fc:	b5f0      	push	{r4, r5, r6, r7, lr}
100066fe:	6e14      	ldr	r4, [r2, #96]	; 0x60
10006700:	6e55      	ldr	r5, [r2, #100]	; 0x64
10006702:	6f57      	ldr	r7, [r2, #116]	; 0x74
10006704:	6f16      	ldr	r6, [r2, #112]	; 0x70
10006706:	f7ff fff6 	bl	100066f6 <fdiv_shim_call>
1000670a:	4a05      	ldr	r2, [pc, #20]	; (10006720 <__wrap___aeabi_fmul+0xa>)
1000670c:	6614      	str	r4, [r2, #96]	; 0x60
1000670e:	6655      	str	r5, [r2, #100]	; 0x64
10006710:	6757      	str	r7, [r2, #116]	; 0x74
10006712:	6716      	str	r6, [r2, #112]	; 0x70
10006714:	bdf0      	pop	{r4, r5, r6, r7, pc}

10006716 <__wrap___aeabi_fmul>:
10006716:	4b01      	ldr	r3, [pc, #4]	; (1000671c <__wrap___aeabi_fmul+0x6>)
10006718:	689b      	ldr	r3, [r3, #8]
1000671a:	4718      	bx	r3
1000671c:	20001548 	.word	0x20001548
10006720:	d0000000 	.word	0xd0000000

10006724 <__wrap___aeabi_ui2f>:
10006724:	1a49      	subs	r1, r1, r1
10006726:	2800      	cmp	r0, #0
10006728:	d108      	bne.n	1000673c <__aeabi_i2f_main>
1000672a:	4608      	mov	r0, r1
1000672c:	4770      	bx	lr
	...

10006730 <__wrap___aeabi_i2f>:
10006730:	0fc1      	lsrs	r1, r0, #31
10006732:	07c9      	lsls	r1, r1, #31
10006734:	d500      	bpl.n	10006738 <__wrap___aeabi_i2f+0x8>
10006736:	4240      	negs	r0, r0
10006738:	2800      	cmp	r0, #0
1000673a:	d017      	beq.n	1000676c <__aeabi_i2f_main+0x30>

1000673c <__aeabi_i2f_main>:
1000673c:	46f4      	mov	ip, lr
1000673e:	b403      	push	{r0, r1}
10006740:	4b0b      	ldr	r3, [pc, #44]	; (10006770 <__aeabi_i2f_main+0x34>)
10006742:	681b      	ldr	r3, [r3, #0]
10006744:	4798      	blx	r3
10006746:	bc06      	pop	{r1, r2}
10006748:	4081      	lsls	r1, r0
1000674a:	389e      	subs	r0, #158	; 0x9e
1000674c:	4240      	negs	r0, r0
1000674e:	3180      	adds	r1, #128	; 0x80
10006750:	d207      	bcs.n	10006762 <__aeabi_i2f_main+0x26>
10006752:	060b      	lsls	r3, r1, #24
10006754:	d007      	beq.n	10006766 <__aeabi_i2f_main+0x2a>
10006756:	0049      	lsls	r1, r1, #1
10006758:	0a49      	lsrs	r1, r1, #9
1000675a:	05c0      	lsls	r0, r0, #23
1000675c:	4310      	orrs	r0, r2
1000675e:	4308      	orrs	r0, r1
10006760:	4760      	bx	ip
10006762:	3001      	adds	r0, #1
10006764:	e7f8      	b.n	10006758 <__aeabi_i2f_main+0x1c>
10006766:	0a49      	lsrs	r1, r1, #9
10006768:	0289      	lsls	r1, r1, #10
1000676a:	e7f5      	b.n	10006758 <__aeabi_i2f_main+0x1c>
1000676c:	4770      	bx	lr
1000676e:	0000      	.short	0x0000
10006770:	2000214c 	.word	0x2000214c

10006774 <__wrap___aeabi_f2uiz>:
10006774:	4b01      	ldr	r3, [pc, #4]	; (1000677c <__wrap___aeabi_f2uiz+0x8>)
10006776:	6a5b      	ldr	r3, [r3, #36]	; 0x24
10006778:	4718      	bx	r3
1000677a:	0000      	.short	0x0000
1000677c:	20001548 	.word	0x20001548

10006780 <__aeabi_float_init>:
10006780:	2313      	movs	r3, #19
10006782:	b510      	push	{r4, lr}
10006784:	4812      	ldr	r0, [pc, #72]	; (100067d0 <__aeabi_float_init+0x50>)
10006786:	781c      	ldrb	r4, [r3, #0]
10006788:	f7ff fbb4 	bl	10005ef4 <rom_data_lookup>
1000678c:	0001      	movs	r1, r0
1000678e:	2c01      	cmp	r4, #1
10006790:	d00a      	beq.n	100067a8 <__aeabi_float_init+0x28>
10006792:	dd03      	ble.n	1000679c <__aeabi_float_init+0x1c>
10006794:	2280      	movs	r2, #128	; 0x80
10006796:	480f      	ldr	r0, [pc, #60]	; (100067d4 <__aeabi_float_init+0x54>)
10006798:	f000 f848 	bl	1000682c <__wrap___aeabi_memcpy>
1000679c:	480e      	ldr	r0, [pc, #56]	; (100067d8 <__aeabi_float_init+0x58>)
1000679e:	f7ff fba1 	bl	10005ee4 <rom_func_lookup>
100067a2:	4b0e      	ldr	r3, [pc, #56]	; (100067dc <__aeabi_float_init+0x5c>)
100067a4:	6018      	str	r0, [r3, #0]
100067a6:	bd10      	pop	{r4, pc}
100067a8:	4c0a      	ldr	r4, [pc, #40]	; (100067d4 <__aeabi_float_init+0x54>)
100067aa:	2254      	movs	r2, #84	; 0x54
100067ac:	0020      	movs	r0, r4
100067ae:	f000 f83d 	bl	1000682c <__wrap___aeabi_memcpy>
100067b2:	4b0b      	ldr	r3, [pc, #44]	; (100067e0 <__aeabi_float_init+0x60>)
100067b4:	6563      	str	r3, [r4, #84]	; 0x54
100067b6:	65a3      	str	r3, [r4, #88]	; 0x58
100067b8:	65e3      	str	r3, [r4, #92]	; 0x5c
100067ba:	6623      	str	r3, [r4, #96]	; 0x60
100067bc:	6663      	str	r3, [r4, #100]	; 0x64
100067be:	66a3      	str	r3, [r4, #104]	; 0x68
100067c0:	66e3      	str	r3, [r4, #108]	; 0x6c
100067c2:	6723      	str	r3, [r4, #112]	; 0x70
100067c4:	6763      	str	r3, [r4, #116]	; 0x74
100067c6:	67a3      	str	r3, [r4, #120]	; 0x78
100067c8:	67e3      	str	r3, [r4, #124]	; 0x7c
100067ca:	6223      	str	r3, [r4, #32]
100067cc:	61e3      	str	r3, [r4, #28]
100067ce:	e7e5      	b.n	1000679c <__aeabi_float_init+0x1c>
100067d0:	00004653 	.word	0x00004653
100067d4:	20001548 	.word	0x20001548
100067d8:	0000334c 	.word	0x0000334c
100067dc:	2000214c 	.word	0x2000214c
100067e0:	100067e5 	.word	0x100067e5

100067e4 <float_table_shim_on_use_helper>:
100067e4:	b507      	push	{r0, r1, r2, lr}
100067e6:	4660      	mov	r0, ip
100067e8:	8801      	ldrh	r1, [r0, #0]
100067ea:	0a0a      	lsrs	r2, r1, #8
100067ec:	3002      	adds	r0, #2
100067ee:	2adf      	cmp	r2, #223	; 0xdf
100067f0:	d1fa      	bne.n	100067e8 <float_table_shim_on_use_helper+0x4>
100067f2:	b2c9      	uxtb	r1, r1
100067f4:	0882      	lsrs	r2, r0, #2
100067f6:	d304      	bcc.n	10006802 <float_table_shim_on_use_helper+0x1e>
100067f8:	8802      	ldrh	r2, [r0, #0]
100067fa:	8840      	ldrh	r0, [r0, #2]
100067fc:	0400      	lsls	r0, r0, #16
100067fe:	4310      	orrs	r0, r2
10006800:	e000      	b.n	10006804 <float_table_shim_on_use_helper+0x20>
10006802:	6800      	ldr	r0, [r0, #0]
10006804:	4a01      	ldr	r2, [pc, #4]	; (1000680c <float_table_shim_on_use_helper+0x28>)
10006806:	5050      	str	r0, [r2, r1]
10006808:	9003      	str	r0, [sp, #12]
1000680a:	bd07      	pop	{r0, r1, r2, pc}
1000680c:	20001548 	.word	0x20001548

10006810 <__aeabi_mem_init>:
10006810:	4801      	ldr	r0, [pc, #4]	; (10006818 <__aeabi_mem_init+0x8>)
10006812:	2104      	movs	r1, #4
10006814:	4b01      	ldr	r3, [pc, #4]	; (1000681c <__aeabi_mem_init+0xc>)
10006816:	4718      	bx	r3
10006818:	20000e60 	.word	0x20000e60
1000681c:	10005f05 	.word	0x10005f05

10006820 <__wrap_memset>:
10006820:	4b01      	ldr	r3, [pc, #4]	; (10006828 <__wrap_memset+0x8>)
10006822:	681b      	ldr	r3, [r3, #0]
10006824:	4718      	bx	r3
10006826:	0000      	.short	0x0000
10006828:	20000e60 	.word	0x20000e60

1000682c <__wrap___aeabi_memcpy>:
1000682c:	4b01      	ldr	r3, [pc, #4]	; (10006834 <__wrap___aeabi_memcpy+0x8>)
1000682e:	685b      	ldr	r3, [r3, #4]
10006830:	4718      	bx	r3
10006832:	0000      	.short	0x0000
10006834:	20000e60 	.word	0x20000e60

10006838 <stdio_out_chars_no_crlf>:
10006838:	0003      	movs	r3, r0
1000683a:	b510      	push	{r4, lr}
1000683c:	0008      	movs	r0, r1
1000683e:	0011      	movs	r1, r2
10006840:	681b      	ldr	r3, [r3, #0]
10006842:	4798      	blx	r3
10006844:	bd10      	pop	{r4, pc}
10006846:	46c0      	nop			; (mov r8, r8)

10006848 <stdio_out_chars_crlf>:
10006848:	b5f0      	push	{r4, r5, r6, r7, lr}
1000684a:	4646      	mov	r6, r8
1000684c:	464f      	mov	r7, r9
1000684e:	46d6      	mov	lr, sl
10006850:	b5c0      	push	{r6, r7, lr}
10006852:	7d43      	ldrb	r3, [r0, #21]
10006854:	4680      	mov	r8, r0
10006856:	000e      	movs	r6, r1
10006858:	0017      	movs	r7, r2
1000685a:	2b00      	cmp	r3, #0
1000685c:	d046      	beq.n	100068ec <stdio_out_chars_crlf+0xa4>
1000685e:	2a00      	cmp	r2, #0
10006860:	dd3f      	ble.n	100068e2 <stdio_out_chars_crlf+0x9a>
10006862:	1e4b      	subs	r3, r1, #1
10006864:	4699      	mov	r9, r3
10006866:	4b24      	ldr	r3, [pc, #144]	; (100068f8 <stdio_out_chars_crlf+0xb0>)
10006868:	2501      	movs	r5, #1
1000686a:	2400      	movs	r4, #0
1000686c:	2000      	movs	r0, #0
1000686e:	469a      	mov	sl, r3
10006870:	e00d      	b.n	1000688e <stdio_out_chars_crlf+0x46>
10006872:	464b      	mov	r3, r9
10006874:	5d1b      	ldrb	r3, [r3, r4]
10006876:	3b0d      	subs	r3, #13
10006878:	425a      	negs	r2, r3
1000687a:	4153      	adcs	r3, r2
1000687c:	5d32      	ldrb	r2, [r6, r4]
1000687e:	b2db      	uxtb	r3, r3
10006880:	2a0a      	cmp	r2, #10
10006882:	d00b      	beq.n	1000689c <stdio_out_chars_crlf+0x54>
10006884:	002b      	movs	r3, r5
10006886:	3401      	adds	r4, #1
10006888:	3501      	adds	r5, #1
1000688a:	429f      	cmp	r7, r3
1000688c:	dd1a      	ble.n	100068c4 <stdio_out_chars_crlf+0x7c>
1000688e:	2c00      	cmp	r4, #0
10006890:	d1ef      	bne.n	10006872 <stdio_out_chars_crlf+0x2a>
10006892:	4643      	mov	r3, r8
10006894:	5d32      	ldrb	r2, [r6, r4]
10006896:	7d1b      	ldrb	r3, [r3, #20]
10006898:	2a0a      	cmp	r2, #10
1000689a:	d1f3      	bne.n	10006884 <stdio_out_chars_crlf+0x3c>
1000689c:	2b00      	cmp	r3, #0
1000689e:	d1f1      	bne.n	10006884 <stdio_out_chars_crlf+0x3c>
100068a0:	42a0      	cmp	r0, r4
100068a2:	da04      	bge.n	100068ae <stdio_out_chars_crlf+0x66>
100068a4:	4643      	mov	r3, r8
100068a6:	1a21      	subs	r1, r4, r0
100068a8:	681b      	ldr	r3, [r3, #0]
100068aa:	1830      	adds	r0, r6, r0
100068ac:	4798      	blx	r3
100068ae:	4643      	mov	r3, r8
100068b0:	4650      	mov	r0, sl
100068b2:	681b      	ldr	r3, [r3, #0]
100068b4:	2102      	movs	r1, #2
100068b6:	4798      	blx	r3
100068b8:	3401      	adds	r4, #1
100068ba:	0028      	movs	r0, r5
100068bc:	002b      	movs	r3, r5
100068be:	3501      	adds	r5, #1
100068c0:	429f      	cmp	r7, r3
100068c2:	dce4      	bgt.n	1000688e <stdio_out_chars_crlf+0x46>
100068c4:	4287      	cmp	r7, r0
100068c6:	dd04      	ble.n	100068d2 <stdio_out_chars_crlf+0x8a>
100068c8:	4643      	mov	r3, r8
100068ca:	1a39      	subs	r1, r7, r0
100068cc:	681b      	ldr	r3, [r3, #0]
100068ce:	1830      	adds	r0, r6, r0
100068d0:	4798      	blx	r3
100068d2:	19f6      	adds	r6, r6, r7
100068d4:	3e01      	subs	r6, #1
100068d6:	7833      	ldrb	r3, [r6, #0]
100068d8:	3b0d      	subs	r3, #13
100068da:	425a      	negs	r2, r3
100068dc:	4153      	adcs	r3, r2
100068de:	4642      	mov	r2, r8
100068e0:	7513      	strb	r3, [r2, #20]
100068e2:	bce0      	pop	{r5, r6, r7}
100068e4:	46ba      	mov	sl, r7
100068e6:	46b1      	mov	r9, r6
100068e8:	46a8      	mov	r8, r5
100068ea:	bdf0      	pop	{r4, r5, r6, r7, pc}
100068ec:	6803      	ldr	r3, [r0, #0]
100068ee:	0011      	movs	r1, r2
100068f0:	0030      	movs	r0, r6
100068f2:	4798      	blx	r3
100068f4:	e7f5      	b.n	100068e2 <stdio_out_chars_crlf+0x9a>
100068f6:	46c0      	nop			; (mov r8, r8)
100068f8:	100097ec 	.word	0x100097ec

100068fc <stdio_put_string.isra.0>:
100068fc:	b5f0      	push	{r4, r5, r6, r7, lr}
100068fe:	46de      	mov	lr, fp
10006900:	4657      	mov	r7, sl
10006902:	464e      	mov	r6, r9
10006904:	4645      	mov	r5, r8
10006906:	b5e0      	push	{r5, r6, r7, lr}
10006908:	b085      	sub	sp, #20
1000690a:	0017      	movs	r7, r2
1000690c:	001c      	movs	r4, r3
1000690e:	0006      	movs	r6, r0
10006910:	000d      	movs	r5, r1
10006912:	f7fe fc7b 	bl	1000520c <time_us_64>
10006916:	2300      	movs	r3, #0
10006918:	4a31      	ldr	r2, [pc, #196]	; (100069e0 <stdio_put_string.isra.0+0xe4>)
1000691a:	1812      	adds	r2, r2, r0
1000691c:	414b      	adcs	r3, r1
1000691e:	2180      	movs	r1, #128	; 0x80
10006920:	0609      	lsls	r1, r1, #24
10006922:	428b      	cmp	r3, r1
10006924:	d302      	bcc.n	1000692c <stdio_put_string.isra.0+0x30>
10006926:	2201      	movs	r2, #1
10006928:	4b2e      	ldr	r3, [pc, #184]	; (100069e4 <stdio_put_string.isra.0+0xe8>)
1000692a:	4252      	negs	r2, r2
1000692c:	492e      	ldr	r1, [pc, #184]	; (100069e8 <stdio_put_string.isra.0+0xec>)
1000692e:	0008      	movs	r0, r1
10006930:	468a      	mov	sl, r1
10006932:	f002 fd29 	bl	10009388 <__mutex_try_enter_block_until_veneer>
10006936:	9001      	str	r0, [sp, #4]
10006938:	1c6b      	adds	r3, r5, #1
1000693a:	d103      	bne.n	10006944 <stdio_put_string.isra.0+0x48>
1000693c:	0030      	movs	r0, r6
1000693e:	f002 fcb1 	bl	100092a4 <strlen>
10006942:	0005      	movs	r5, r0
10006944:	2c00      	cmp	r4, #0
10006946:	d125      	bne.n	10006994 <stdio_put_string.isra.0+0x98>
10006948:	4b28      	ldr	r3, [pc, #160]	; (100069ec <stdio_put_string.isra.0+0xf0>)
1000694a:	4698      	mov	r8, r3
1000694c:	4b28      	ldr	r3, [pc, #160]	; (100069f0 <stdio_put_string.isra.0+0xf4>)
1000694e:	681c      	ldr	r4, [r3, #0]
10006950:	2c00      	cmp	r4, #0
10006952:	d015      	beq.n	10006980 <stdio_put_string.isra.0+0x84>
10006954:	2f00      	cmp	r7, #0
10006956:	d120      	bne.n	1000699a <stdio_put_string.isra.0+0x9e>
10006958:	4f26      	ldr	r7, [pc, #152]	; (100069f4 <stdio_put_string.isra.0+0xf8>)
1000695a:	e002      	b.n	10006962 <stdio_put_string.isra.0+0x66>
1000695c:	6924      	ldr	r4, [r4, #16]
1000695e:	2c00      	cmp	r4, #0
10006960:	d00e      	beq.n	10006980 <stdio_put_string.isra.0+0x84>
10006962:	6823      	ldr	r3, [r4, #0]
10006964:	2b00      	cmp	r3, #0
10006966:	d0f9      	beq.n	1000695c <stdio_put_string.isra.0+0x60>
10006968:	683b      	ldr	r3, [r7, #0]
1000696a:	2b00      	cmp	r3, #0
1000696c:	d001      	beq.n	10006972 <stdio_put_string.isra.0+0x76>
1000696e:	42a3      	cmp	r3, r4
10006970:	d1f4      	bne.n	1000695c <stdio_put_string.isra.0+0x60>
10006972:	0020      	movs	r0, r4
10006974:	002a      	movs	r2, r5
10006976:	0031      	movs	r1, r6
10006978:	47c0      	blx	r8
1000697a:	6924      	ldr	r4, [r4, #16]
1000697c:	2c00      	cmp	r4, #0
1000697e:	d1f0      	bne.n	10006962 <stdio_put_string.isra.0+0x66>
10006980:	9b01      	ldr	r3, [sp, #4]
10006982:	2b00      	cmp	r3, #0
10006984:	d127      	bne.n	100069d6 <stdio_put_string.isra.0+0xda>
10006986:	b005      	add	sp, #20
10006988:	bcf0      	pop	{r4, r5, r6, r7}
1000698a:	46bb      	mov	fp, r7
1000698c:	46b2      	mov	sl, r6
1000698e:	46a9      	mov	r9, r5
10006990:	46a0      	mov	r8, r4
10006992:	bdf0      	pop	{r4, r5, r6, r7, pc}
10006994:	4b18      	ldr	r3, [pc, #96]	; (100069f8 <stdio_put_string.isra.0+0xfc>)
10006996:	4698      	mov	r8, r3
10006998:	e7d8      	b.n	1000694c <stdio_put_string.isra.0+0x50>
1000699a:	4b16      	ldr	r3, [pc, #88]	; (100069f4 <stdio_put_string.isra.0+0xf8>)
1000699c:	4699      	mov	r9, r3
1000699e:	ab02      	add	r3, sp, #8
100069a0:	1ddf      	adds	r7, r3, #7
100069a2:	230a      	movs	r3, #10
100069a4:	469b      	mov	fp, r3
100069a6:	e002      	b.n	100069ae <stdio_put_string.isra.0+0xb2>
100069a8:	6924      	ldr	r4, [r4, #16]
100069aa:	2c00      	cmp	r4, #0
100069ac:	d0e8      	beq.n	10006980 <stdio_put_string.isra.0+0x84>
100069ae:	6823      	ldr	r3, [r4, #0]
100069b0:	2b00      	cmp	r3, #0
100069b2:	d0f9      	beq.n	100069a8 <stdio_put_string.isra.0+0xac>
100069b4:	464b      	mov	r3, r9
100069b6:	681b      	ldr	r3, [r3, #0]
100069b8:	2b00      	cmp	r3, #0
100069ba:	d001      	beq.n	100069c0 <stdio_put_string.isra.0+0xc4>
100069bc:	42a3      	cmp	r3, r4
100069be:	d1f3      	bne.n	100069a8 <stdio_put_string.isra.0+0xac>
100069c0:	002a      	movs	r2, r5
100069c2:	0031      	movs	r1, r6
100069c4:	0020      	movs	r0, r4
100069c6:	47c0      	blx	r8
100069c8:	465b      	mov	r3, fp
100069ca:	2201      	movs	r2, #1
100069cc:	0039      	movs	r1, r7
100069ce:	0020      	movs	r0, r4
100069d0:	703b      	strb	r3, [r7, #0]
100069d2:	47c0      	blx	r8
100069d4:	e7e8      	b.n	100069a8 <stdio_put_string.isra.0+0xac>
100069d6:	4650      	mov	r0, sl
100069d8:	f002 fc9e 	bl	10009318 <__mutex_exit_veneer>
100069dc:	e7d3      	b.n	10006986 <stdio_put_string.isra.0+0x8a>
100069de:	46c0      	nop			; (mov r8, r8)
100069e0:	000f4240 	.word	0x000f4240
100069e4:	7fffffff 	.word	0x7fffffff
100069e8:	20000eb8 	.word	0x20000eb8
100069ec:	10006849 	.word	0x10006849
100069f0:	20001cfc 	.word	0x20001cfc
100069f4:	20001d04 	.word	0x20001d04
100069f8:	10006839 	.word	0x10006839

100069fc <__wrap_putchar>:
100069fc:	b5f0      	push	{r4, r5, r6, r7, lr}
100069fe:	46ce      	mov	lr, r9
10006a00:	4647      	mov	r7, r8
10006a02:	b580      	push	{r7, lr}
10006a04:	b083      	sub	sp, #12
10006a06:	466b      	mov	r3, sp
10006a08:	0006      	movs	r6, r0
10006a0a:	1ddd      	adds	r5, r3, #7
10006a0c:	7028      	strb	r0, [r5, #0]
10006a0e:	f7fe fbfd 	bl	1000520c <time_us_64>
10006a12:	2300      	movs	r3, #0
10006a14:	4a1a      	ldr	r2, [pc, #104]	; (10006a80 <__wrap_putchar+0x84>)
10006a16:	1812      	adds	r2, r2, r0
10006a18:	414b      	adcs	r3, r1
10006a1a:	2180      	movs	r1, #128	; 0x80
10006a1c:	0609      	lsls	r1, r1, #24
10006a1e:	428b      	cmp	r3, r1
10006a20:	d302      	bcc.n	10006a28 <__wrap_putchar+0x2c>
10006a22:	2201      	movs	r2, #1
10006a24:	4b17      	ldr	r3, [pc, #92]	; (10006a84 <__wrap_putchar+0x88>)
10006a26:	4252      	negs	r2, r2
10006a28:	4917      	ldr	r1, [pc, #92]	; (10006a88 <__wrap_putchar+0x8c>)
10006a2a:	0008      	movs	r0, r1
10006a2c:	4688      	mov	r8, r1
10006a2e:	f002 fcab 	bl	10009388 <__mutex_try_enter_block_until_veneer>
10006a32:	4b16      	ldr	r3, [pc, #88]	; (10006a8c <__wrap_putchar+0x90>)
10006a34:	4681      	mov	r9, r0
10006a36:	681c      	ldr	r4, [r3, #0]
10006a38:	2c00      	cmp	r4, #0
10006a3a:	d014      	beq.n	10006a66 <__wrap_putchar+0x6a>
10006a3c:	4f14      	ldr	r7, [pc, #80]	; (10006a90 <__wrap_putchar+0x94>)
10006a3e:	e002      	b.n	10006a46 <__wrap_putchar+0x4a>
10006a40:	6924      	ldr	r4, [r4, #16]
10006a42:	2c00      	cmp	r4, #0
10006a44:	d00f      	beq.n	10006a66 <__wrap_putchar+0x6a>
10006a46:	6823      	ldr	r3, [r4, #0]
10006a48:	2b00      	cmp	r3, #0
10006a4a:	d0f9      	beq.n	10006a40 <__wrap_putchar+0x44>
10006a4c:	683b      	ldr	r3, [r7, #0]
10006a4e:	2b00      	cmp	r3, #0
10006a50:	d001      	beq.n	10006a56 <__wrap_putchar+0x5a>
10006a52:	42a3      	cmp	r3, r4
10006a54:	d1f4      	bne.n	10006a40 <__wrap_putchar+0x44>
10006a56:	0020      	movs	r0, r4
10006a58:	2201      	movs	r2, #1
10006a5a:	0029      	movs	r1, r5
10006a5c:	f7ff fef4 	bl	10006848 <stdio_out_chars_crlf>
10006a60:	6924      	ldr	r4, [r4, #16]
10006a62:	2c00      	cmp	r4, #0
10006a64:	d1ef      	bne.n	10006a46 <__wrap_putchar+0x4a>
10006a66:	464b      	mov	r3, r9
10006a68:	2b00      	cmp	r3, #0
10006a6a:	d105      	bne.n	10006a78 <__wrap_putchar+0x7c>
10006a6c:	0030      	movs	r0, r6
10006a6e:	b003      	add	sp, #12
10006a70:	bcc0      	pop	{r6, r7}
10006a72:	46b9      	mov	r9, r7
10006a74:	46b0      	mov	r8, r6
10006a76:	bdf0      	pop	{r4, r5, r6, r7, pc}
10006a78:	4640      	mov	r0, r8
10006a7a:	f002 fc4d 	bl	10009318 <__mutex_exit_veneer>
10006a7e:	e7f5      	b.n	10006a6c <__wrap_putchar+0x70>
10006a80:	000f4240 	.word	0x000f4240
10006a84:	7fffffff 	.word	0x7fffffff
10006a88:	20000eb8 	.word	0x20000eb8
10006a8c:	20001cfc 	.word	0x20001cfc
10006a90:	20001d04 	.word	0x20001d04

10006a94 <__wrap_puts>:
10006a94:	b570      	push	{r4, r5, r6, lr}
10006a96:	0004      	movs	r4, r0
10006a98:	f002 fc04 	bl	100092a4 <strlen>
10006a9c:	2300      	movs	r3, #0
10006a9e:	0001      	movs	r1, r0
10006aa0:	0005      	movs	r5, r0
10006aa2:	2201      	movs	r2, #1
10006aa4:	0020      	movs	r0, r4
10006aa6:	f7ff ff29 	bl	100068fc <stdio_put_string.isra.0>
10006aaa:	4b08      	ldr	r3, [pc, #32]	; (10006acc <__wrap_puts+0x38>)
10006aac:	681c      	ldr	r4, [r3, #0]
10006aae:	2c00      	cmp	r4, #0
10006ab0:	d006      	beq.n	10006ac0 <__wrap_puts+0x2c>
10006ab2:	6863      	ldr	r3, [r4, #4]
10006ab4:	2b00      	cmp	r3, #0
10006ab6:	d005      	beq.n	10006ac4 <__wrap_puts+0x30>
10006ab8:	4798      	blx	r3
10006aba:	6924      	ldr	r4, [r4, #16]
10006abc:	2c00      	cmp	r4, #0
10006abe:	d1f8      	bne.n	10006ab2 <__wrap_puts+0x1e>
10006ac0:	0028      	movs	r0, r5
10006ac2:	bd70      	pop	{r4, r5, r6, pc}
10006ac4:	6924      	ldr	r4, [r4, #16]
10006ac6:	2c00      	cmp	r4, #0
10006ac8:	d1f3      	bne.n	10006ab2 <__wrap_puts+0x1e>
10006aca:	e7f9      	b.n	10006ac0 <__wrap_puts+0x2c>
10006acc:	20001cfc 	.word	0x20001cfc

10006ad0 <stdio_set_driver_enabled>:
10006ad0:	4a0a      	ldr	r2, [pc, #40]	; (10006afc <stdio_set_driver_enabled+0x2c>)
10006ad2:	6813      	ldr	r3, [r2, #0]
10006ad4:	2b00      	cmp	r3, #0
10006ad6:	d105      	bne.n	10006ae4 <stdio_set_driver_enabled+0x14>
10006ad8:	e00c      	b.n	10006af4 <stdio_set_driver_enabled+0x24>
10006ada:	001a      	movs	r2, r3
10006adc:	691b      	ldr	r3, [r3, #16]
10006ade:	3210      	adds	r2, #16
10006ae0:	2b00      	cmp	r3, #0
10006ae2:	d007      	beq.n	10006af4 <stdio_set_driver_enabled+0x24>
10006ae4:	4298      	cmp	r0, r3
10006ae6:	d1f8      	bne.n	10006ada <stdio_set_driver_enabled+0xa>
10006ae8:	2900      	cmp	r1, #0
10006aea:	d102      	bne.n	10006af2 <stdio_set_driver_enabled+0x22>
10006aec:	6903      	ldr	r3, [r0, #16]
10006aee:	6013      	str	r3, [r2, #0]
10006af0:	6101      	str	r1, [r0, #16]
10006af2:	4770      	bx	lr
10006af4:	2900      	cmp	r1, #0
10006af6:	d0fc      	beq.n	10006af2 <stdio_set_driver_enabled+0x22>
10006af8:	6010      	str	r0, [r2, #0]
10006afa:	e7fa      	b.n	10006af2 <stdio_set_driver_enabled+0x22>
10006afc:	20001cfc 	.word	0x20001cfc

10006b00 <stdio_init_all>:
10006b00:	b510      	push	{r4, lr}
10006b02:	f000 f9dd 	bl	10006ec0 <stdio_usb_init>
10006b06:	bd10      	pop	{r4, pc}

10006b08 <resetd_init>:
10006b08:	4770      	bx	lr
10006b0a:	46c0      	nop			; (mov r8, r8)

10006b0c <resetd_reset>:
10006b0c:	2200      	movs	r2, #0
10006b0e:	4b01      	ldr	r3, [pc, #4]	; (10006b14 <resetd_reset+0x8>)
10006b10:	701a      	strb	r2, [r3, #0]
10006b12:	4770      	bx	lr
10006b14:	200021ac 	.word	0x200021ac

10006b18 <resetd_open>:
10006b18:	794b      	ldrb	r3, [r1, #5]
10006b1a:	2000      	movs	r0, #0
10006b1c:	2bff      	cmp	r3, #255	; 0xff
10006b1e:	d10b      	bne.n	10006b38 <resetd_open+0x20>
10006b20:	798b      	ldrb	r3, [r1, #6]
10006b22:	2b00      	cmp	r3, #0
10006b24:	d108      	bne.n	10006b38 <resetd_open+0x20>
10006b26:	79cb      	ldrb	r3, [r1, #7]
10006b28:	2b01      	cmp	r3, #1
10006b2a:	d105      	bne.n	10006b38 <resetd_open+0x20>
10006b2c:	2a08      	cmp	r2, #8
10006b2e:	d903      	bls.n	10006b38 <resetd_open+0x20>
10006b30:	4b02      	ldr	r3, [pc, #8]	; (10006b3c <resetd_open+0x24>)
10006b32:	788a      	ldrb	r2, [r1, #2]
10006b34:	3009      	adds	r0, #9
10006b36:	701a      	strb	r2, [r3, #0]
10006b38:	4770      	bx	lr
10006b3a:	46c0      	nop			; (mov r8, r8)
10006b3c:	200021ac 	.word	0x200021ac

10006b40 <resetd_xfer_cb>:
10006b40:	2001      	movs	r0, #1
10006b42:	4770      	bx	lr

10006b44 <resetd_control_xfer_cb>:
10006b44:	b570      	push	{r4, r5, r6, lr}
10006b46:	2901      	cmp	r1, #1
10006b48:	d109      	bne.n	10006b5e <resetd_control_xfer_cb+0x1a>
10006b4a:	4915      	ldr	r1, [pc, #84]	; (10006ba0 <resetd_control_xfer_cb+0x5c>)
10006b4c:	7953      	ldrb	r3, [r2, #5]
10006b4e:	7910      	ldrb	r0, [r2, #4]
10006b50:	7809      	ldrb	r1, [r1, #0]
10006b52:	021b      	lsls	r3, r3, #8
10006b54:	4303      	orrs	r3, r0
10006b56:	2000      	movs	r0, #0
10006b58:	4299      	cmp	r1, r3
10006b5a:	d002      	beq.n	10006b62 <resetd_control_xfer_cb+0x1e>
10006b5c:	bd70      	pop	{r4, r5, r6, pc}
10006b5e:	2001      	movs	r0, #1
10006b60:	e7fc      	b.n	10006b5c <resetd_control_xfer_cb+0x18>
10006b62:	7853      	ldrb	r3, [r2, #1]
10006b64:	2b01      	cmp	r3, #1
10006b66:	d008      	beq.n	10006b7a <resetd_control_xfer_cb+0x36>
10006b68:	2b02      	cmp	r3, #2
10006b6a:	d1f7      	bne.n	10006b5c <resetd_control_xfer_cb+0x18>
10006b6c:	2000      	movs	r0, #0
10006b6e:	2264      	movs	r2, #100	; 0x64
10006b70:	2100      	movs	r1, #0
10006b72:	f7ff f891 	bl	10005c98 <watchdog_reboot>
10006b76:	2001      	movs	r0, #1
10006b78:	e7f0      	b.n	10006b5c <resetd_control_xfer_cb+0x18>
10006b7a:	7894      	ldrb	r4, [r2, #2]
10006b7c:	78d2      	ldrb	r2, [r2, #3]
10006b7e:	0005      	movs	r5, r0
10006b80:	0212      	lsls	r2, r2, #8
10006b82:	4314      	orrs	r4, r2
10006b84:	05d2      	lsls	r2, r2, #23
10006b86:	d502      	bpl.n	10006b8e <resetd_control_xfer_cb+0x4a>
10006b88:	0a62      	lsrs	r2, r4, #9
10006b8a:	4093      	lsls	r3, r2
10006b8c:	001d      	movs	r5, r3
10006b8e:	4805      	ldr	r0, [pc, #20]	; (10006ba4 <resetd_control_xfer_cb+0x60>)
10006b90:	f7ff f9a8 	bl	10005ee4 <rom_func_lookup>
10006b94:	217f      	movs	r1, #127	; 0x7f
10006b96:	0003      	movs	r3, r0
10006b98:	4021      	ands	r1, r4
10006b9a:	0028      	movs	r0, r5
10006b9c:	4798      	blx	r3
10006b9e:	46c0      	nop			; (mov r8, r8)
10006ba0:	200021ac 	.word	0x200021ac
10006ba4:	00004255 	.word	0x00004255

10006ba8 <usbd_app_driver_get_cb>:
10006ba8:	2301      	movs	r3, #1
10006baa:	7003      	strb	r3, [r0, #0]
10006bac:	4800      	ldr	r0, [pc, #0]	; (10006bb0 <usbd_app_driver_get_cb+0x8>)
10006bae:	4770      	bx	lr
10006bb0:	100097f0 	.word	0x100097f0

10006bb4 <tud_cdc_line_coding_cb>:
10006bb4:	784b      	ldrb	r3, [r1, #1]
10006bb6:	780a      	ldrb	r2, [r1, #0]
10006bb8:	021b      	lsls	r3, r3, #8
10006bba:	4313      	orrs	r3, r2
10006bbc:	788a      	ldrb	r2, [r1, #2]
10006bbe:	b510      	push	{r4, lr}
10006bc0:	0412      	lsls	r2, r2, #16
10006bc2:	431a      	orrs	r2, r3
10006bc4:	78cb      	ldrb	r3, [r1, #3]
10006bc6:	061b      	lsls	r3, r3, #24
10006bc8:	4313      	orrs	r3, r2
10006bca:	2296      	movs	r2, #150	; 0x96
10006bcc:	00d2      	lsls	r2, r2, #3
10006bce:	4293      	cmp	r3, r2
10006bd0:	d000      	beq.n	10006bd4 <tud_cdc_line_coding_cb+0x20>
10006bd2:	bd10      	pop	{r4, pc}
10006bd4:	4803      	ldr	r0, [pc, #12]	; (10006be4 <tud_cdc_line_coding_cb+0x30>)
10006bd6:	f7ff f985 	bl	10005ee4 <rom_func_lookup>
10006bda:	2100      	movs	r1, #0
10006bdc:	0003      	movs	r3, r0
10006bde:	0008      	movs	r0, r1
10006be0:	4798      	blx	r3
10006be2:	46c0      	nop			; (mov r8, r8)
10006be4:	00004255 	.word	0x00004255

10006be8 <stdio_usb_set_chars_available_callback>:
10006be8:	4b02      	ldr	r3, [pc, #8]	; (10006bf4 <stdio_usb_set_chars_available_callback+0xc>)
10006bea:	6018      	str	r0, [r3, #0]
10006bec:	4b02      	ldr	r3, [pc, #8]	; (10006bf8 <stdio_usb_set_chars_available_callback+0x10>)
10006bee:	6019      	str	r1, [r3, #0]
10006bf0:	4770      	bx	lr
10006bf2:	46c0      	nop			; (mov r8, r8)
10006bf4:	20001c60 	.word	0x20001c60
10006bf8:	20001c64 	.word	0x20001c64

10006bfc <usb_irq>:
10006bfc:	b510      	push	{r4, lr}
10006bfe:	4b02      	ldr	r3, [pc, #8]	; (10006c08 <usb_irq+0xc>)
10006c00:	7818      	ldrb	r0, [r3, #0]
10006c02:	f7fd fb17 	bl	10004234 <irq_set_pending>
10006c06:	bd10      	pop	{r4, pc}
10006c08:	200021ad 	.word	0x200021ad

10006c0c <timer_task>:
10006c0c:	4b11      	ldr	r3, [pc, #68]	; (10006c54 <timer_task+0x48>)
10006c0e:	b570      	push	{r4, r5, r6, lr}
10006c10:	681a      	ldr	r2, [r3, #0]
10006c12:	2a00      	cmp	r2, #0
10006c14:	d01a      	beq.n	10006c4c <timer_task+0x40>
10006c16:	f3ef 8110 	mrs	r1, PRIMASK
10006c1a:	b672      	cpsid	i
10006c1c:	6810      	ldr	r0, [r2, #0]
10006c1e:	2800      	cmp	r0, #0
10006c20:	d0fc      	beq.n	10006c1c <timer_task+0x10>
10006c22:	f3bf 8f5f 	dmb	sy
10006c26:	2000      	movs	r0, #0
10006c28:	4a0b      	ldr	r2, [pc, #44]	; (10006c58 <timer_task+0x4c>)
10006c2a:	6059      	str	r1, [r3, #4]
10006c2c:	7010      	strb	r0, [r2, #0]
10006c2e:	681b      	ldr	r3, [r3, #0]
10006c30:	f3bf 8f5f 	dmb	sy
10006c34:	6018      	str	r0, [r3, #0]
10006c36:	f381 8810 	msr	PRIMASK, r1
10006c3a:	2400      	movs	r4, #0
10006c3c:	2500      	movs	r5, #0
10006c3e:	4b07      	ldr	r3, [pc, #28]	; (10006c5c <timer_task+0x50>)
10006c40:	7818      	ldrb	r0, [r3, #0]
10006c42:	f7fd faf7 	bl	10004234 <irq_set_pending>
10006c46:	0029      	movs	r1, r5
10006c48:	0020      	movs	r0, r4
10006c4a:	bd70      	pop	{r4, r5, r6, pc}
10006c4c:	24fa      	movs	r4, #250	; 0xfa
10006c4e:	2500      	movs	r5, #0
10006c50:	00a4      	lsls	r4, r4, #2
10006c52:	e7f4      	b.n	10006c3e <timer_task+0x32>
10006c54:	2000212c 	.word	0x2000212c
10006c58:	200021ae 	.word	0x200021ae
10006c5c:	200021ad 	.word	0x200021ad

10006c60 <stdio_usb_in_chars>:
10006c60:	b570      	push	{r4, r5, r6, lr}
10006c62:	0004      	movs	r4, r0
10006c64:	2000      	movs	r0, #0
10006c66:	000e      	movs	r6, r1
10006c68:	f001 fb22 	bl	100082b0 <tud_cdc_n_connected>
10006c6c:	2800      	cmp	r0, #0
10006c6e:	d037      	beq.n	10006ce0 <stdio_usb_in_chars+0x80>
10006c70:	2000      	movs	r0, #0
10006c72:	f001 fb35 	bl	100082e0 <tud_cdc_n_available>
10006c76:	2800      	cmp	r0, #0
10006c78:	d032      	beq.n	10006ce0 <stdio_usb_in_chars+0x80>
10006c7a:	f7fe fac7 	bl	1000520c <time_us_64>
10006c7e:	2300      	movs	r3, #0
10006c80:	4a19      	ldr	r2, [pc, #100]	; (10006ce8 <stdio_usb_in_chars+0x88>)
10006c82:	1812      	adds	r2, r2, r0
10006c84:	414b      	adcs	r3, r1
10006c86:	2180      	movs	r1, #128	; 0x80
10006c88:	0609      	lsls	r1, r1, #24
10006c8a:	428b      	cmp	r3, r1
10006c8c:	d216      	bcs.n	10006cbc <stdio_usb_in_chars+0x5c>
10006c8e:	4d17      	ldr	r5, [pc, #92]	; (10006cec <stdio_usb_in_chars+0x8c>)
10006c90:	0028      	movs	r0, r5
10006c92:	f002 fb79 	bl	10009388 <__mutex_try_enter_block_until_veneer>
10006c96:	2800      	cmp	r0, #0
10006c98:	d022      	beq.n	10006ce0 <stdio_usb_in_chars+0x80>
10006c9a:	2000      	movs	r0, #0
10006c9c:	f001 fb08 	bl	100082b0 <tud_cdc_n_connected>
10006ca0:	2800      	cmp	r0, #0
10006ca2:	d10f      	bne.n	10006cc4 <stdio_usb_in_chars+0x64>
10006ca4:	2001      	movs	r0, #1
10006ca6:	2100      	movs	r1, #0
10006ca8:	2403      	movs	r4, #3
10006caa:	4240      	negs	r0, r0
10006cac:	f000 fcce 	bl	1000764c <tud_task_ext>
10006cb0:	4264      	negs	r4, r4
10006cb2:	0028      	movs	r0, r5
10006cb4:	f002 fb30 	bl	10009318 <__mutex_exit_veneer>
10006cb8:	0020      	movs	r0, r4
10006cba:	bd70      	pop	{r4, r5, r6, pc}
10006cbc:	2201      	movs	r2, #1
10006cbe:	4b0c      	ldr	r3, [pc, #48]	; (10006cf0 <stdio_usb_in_chars+0x90>)
10006cc0:	4252      	negs	r2, r2
10006cc2:	e7e4      	b.n	10006c8e <stdio_usb_in_chars+0x2e>
10006cc4:	2000      	movs	r0, #0
10006cc6:	f001 fb0b 	bl	100082e0 <tud_cdc_n_available>
10006cca:	2800      	cmp	r0, #0
10006ccc:	d0ea      	beq.n	10006ca4 <stdio_usb_in_chars+0x44>
10006cce:	0021      	movs	r1, r4
10006cd0:	0032      	movs	r2, r6
10006cd2:	2000      	movs	r0, #0
10006cd4:	f001 fb10 	bl	100082f8 <tud_cdc_n_read>
10006cd8:	1e04      	subs	r4, r0, #0
10006cda:	d1ea      	bne.n	10006cb2 <stdio_usb_in_chars+0x52>
10006cdc:	3c03      	subs	r4, #3
10006cde:	e7e8      	b.n	10006cb2 <stdio_usb_in_chars+0x52>
10006ce0:	2403      	movs	r4, #3
10006ce2:	4264      	negs	r4, r4
10006ce4:	e7e8      	b.n	10006cb8 <stdio_usb_in_chars+0x58>
10006ce6:	46c0      	nop			; (mov r8, r8)
10006ce8:	000f4240 	.word	0x000f4240
10006cec:	20002154 	.word	0x20002154
10006cf0:	7fffffff 	.word	0x7fffffff

10006cf4 <stdio_usb_out_chars>:
10006cf4:	b5f8      	push	{r3, r4, r5, r6, r7, lr}
10006cf6:	46de      	mov	lr, fp
10006cf8:	4657      	mov	r7, sl
10006cfa:	b580      	push	{r7, lr}
10006cfc:	0005      	movs	r5, r0
10006cfe:	000c      	movs	r4, r1
10006d00:	f7fe fa84 	bl	1000520c <time_us_64>
10006d04:	2300      	movs	r3, #0
10006d06:	4a37      	ldr	r2, [pc, #220]	; (10006de4 <stdio_usb_out_chars+0xf0>)
10006d08:	1812      	adds	r2, r2, r0
10006d0a:	414b      	adcs	r3, r1
10006d0c:	2180      	movs	r1, #128	; 0x80
10006d0e:	0609      	lsls	r1, r1, #24
10006d10:	428b      	cmp	r3, r1
10006d12:	d302      	bcc.n	10006d1a <stdio_usb_out_chars+0x26>
10006d14:	2201      	movs	r2, #1
10006d16:	4b34      	ldr	r3, [pc, #208]	; (10006de8 <stdio_usb_out_chars+0xf4>)
10006d18:	4252      	negs	r2, r2
10006d1a:	4934      	ldr	r1, [pc, #208]	; (10006dec <stdio_usb_out_chars+0xf8>)
10006d1c:	0008      	movs	r0, r1
10006d1e:	468a      	mov	sl, r1
10006d20:	f002 fb32 	bl	10009388 <__mutex_try_enter_block_until_veneer>
10006d24:	2800      	cmp	r0, #0
10006d26:	d103      	bne.n	10006d30 <stdio_usb_out_chars+0x3c>
10006d28:	bcc0      	pop	{r6, r7}
10006d2a:	46bb      	mov	fp, r7
10006d2c:	46b2      	mov	sl, r6
10006d2e:	bdf8      	pop	{r3, r4, r5, r6, r7, pc}
10006d30:	2000      	movs	r0, #0
10006d32:	f001 fabd 	bl	100082b0 <tud_cdc_n_connected>
10006d36:	2800      	cmp	r0, #0
10006d38:	d04a      	beq.n	10006dd0 <stdio_usb_out_chars+0xdc>
10006d3a:	2600      	movs	r6, #0
10006d3c:	2c00      	cmp	r4, #0
10006d3e:	dd43      	ble.n	10006dc8 <stdio_usb_out_chars+0xd4>
10006d40:	4b2b      	ldr	r3, [pc, #172]	; (10006df0 <stdio_usb_out_chars+0xfc>)
10006d42:	469b      	mov	fp, r3
10006d44:	e014      	b.n	10006d70 <stdio_usb_out_chars+0x7c>
10006d46:	19a9      	adds	r1, r5, r6
10006d48:	2000      	movs	r0, #0
10006d4a:	f001 fb49 	bl	100083e0 <tud_cdc_n_write>
10006d4e:	0007      	movs	r7, r0
10006d50:	2001      	movs	r0, #1
10006d52:	2100      	movs	r1, #0
10006d54:	4240      	negs	r0, r0
10006d56:	f000 fc79 	bl	1000764c <tud_task_ext>
10006d5a:	2000      	movs	r0, #0
10006d5c:	f001 fb04 	bl	10008368 <tud_cdc_n_write_flush>
10006d60:	f7fe fa54 	bl	1000520c <time_us_64>
10006d64:	4b22      	ldr	r3, [pc, #136]	; (10006df0 <stdio_usb_out_chars+0xfc>)
10006d66:	19f6      	adds	r6, r6, r7
10006d68:	6018      	str	r0, [r3, #0]
10006d6a:	6059      	str	r1, [r3, #4]
10006d6c:	42b4      	cmp	r4, r6
10006d6e:	dd2b      	ble.n	10006dc8 <stdio_usb_out_chars+0xd4>
10006d70:	2000      	movs	r0, #0
10006d72:	f001 fb55 	bl	10008420 <tud_cdc_n_write_available>
10006d76:	1ba7      	subs	r7, r4, r6
10006d78:	0002      	movs	r2, r0
10006d7a:	42b8      	cmp	r0, r7
10006d7c:	dd00      	ble.n	10006d80 <stdio_usb_out_chars+0x8c>
10006d7e:	003a      	movs	r2, r7
10006d80:	2a00      	cmp	r2, #0
10006d82:	d1e0      	bne.n	10006d46 <stdio_usb_out_chars+0x52>
10006d84:	2001      	movs	r0, #1
10006d86:	2100      	movs	r1, #0
10006d88:	4240      	negs	r0, r0
10006d8a:	f000 fc5f 	bl	1000764c <tud_task_ext>
10006d8e:	2000      	movs	r0, #0
10006d90:	f001 faea 	bl	10008368 <tud_cdc_n_write_flush>
10006d94:	2000      	movs	r0, #0
10006d96:	f001 fa8b 	bl	100082b0 <tud_cdc_n_connected>
10006d9a:	2800      	cmp	r0, #0
10006d9c:	d014      	beq.n	10006dc8 <stdio_usb_out_chars+0xd4>
10006d9e:	2000      	movs	r0, #0
10006da0:	f001 fb3e 	bl	10008420 <tud_cdc_n_write_available>
10006da4:	2800      	cmp	r0, #0
10006da6:	d1e1      	bne.n	10006d6c <stdio_usb_out_chars+0x78>
10006da8:	f7fe fa30 	bl	1000520c <time_us_64>
10006dac:	465b      	mov	r3, fp
10006dae:	000f      	movs	r7, r1
10006db0:	681a      	ldr	r2, [r3, #0]
10006db2:	685b      	ldr	r3, [r3, #4]
10006db4:	2100      	movs	r1, #0
10006db6:	4684      	mov	ip, r0
10006db8:	480e      	ldr	r0, [pc, #56]	; (10006df4 <stdio_usb_out_chars+0x100>)
10006dba:	1812      	adds	r2, r2, r0
10006dbc:	414b      	adcs	r3, r1
10006dbe:	429f      	cmp	r7, r3
10006dc0:	d802      	bhi.n	10006dc8 <stdio_usb_out_chars+0xd4>
10006dc2:	d1d3      	bne.n	10006d6c <stdio_usb_out_chars+0x78>
10006dc4:	4594      	cmp	ip, r2
10006dc6:	d9d1      	bls.n	10006d6c <stdio_usb_out_chars+0x78>
10006dc8:	4650      	mov	r0, sl
10006dca:	f002 faa5 	bl	10009318 <__mutex_exit_veneer>
10006dce:	e7ab      	b.n	10006d28 <stdio_usb_out_chars+0x34>
10006dd0:	2000      	movs	r0, #0
10006dd2:	2100      	movs	r1, #0
10006dd4:	4b06      	ldr	r3, [pc, #24]	; (10006df0 <stdio_usb_out_chars+0xfc>)
10006dd6:	6018      	str	r0, [r3, #0]
10006dd8:	6059      	str	r1, [r3, #4]
10006dda:	4650      	mov	r0, sl
10006ddc:	f002 fa9c 	bl	10009318 <__mutex_exit_veneer>
10006de0:	e7a2      	b.n	10006d28 <stdio_usb_out_chars+0x34>
10006de2:	46c0      	nop			; (mov r8, r8)
10006de4:	000f4240 	.word	0x000f4240
10006de8:	7fffffff 	.word	0x7fffffff
10006dec:	20002154 	.word	0x20002154
10006df0:	20001440 	.word	0x20001440
10006df4:	0007a120 	.word	0x0007a120

10006df8 <low_priority_worker_irq>:
10006df8:	b510      	push	{r4, lr}
10006dfa:	4c24      	ldr	r4, [pc, #144]	; (10006e8c <low_priority_worker_irq+0x94>)
10006dfc:	b084      	sub	sp, #16
10006dfe:	2100      	movs	r1, #0
10006e00:	0020      	movs	r0, r4
10006e02:	f002 faa9 	bl	10009358 <__mutex_try_enter_veneer>
10006e06:	2800      	cmp	r0, #0
10006e08:	d11c      	bne.n	10006e44 <low_priority_worker_irq+0x4c>
10006e0a:	4b21      	ldr	r3, [pc, #132]	; (10006e90 <low_priority_worker_irq+0x98>)
10006e0c:	681a      	ldr	r2, [r3, #0]
10006e0e:	2a00      	cmp	r2, #0
10006e10:	d016      	beq.n	10006e40 <low_priority_worker_irq+0x48>
10006e12:	f3ef 8110 	mrs	r1, PRIMASK
10006e16:	b672      	cpsid	i
10006e18:	6810      	ldr	r0, [r2, #0]
10006e1a:	2800      	cmp	r0, #0
10006e1c:	d0fc      	beq.n	10006e18 <low_priority_worker_irq+0x20>
10006e1e:	f3bf 8f5f 	dmb	sy
10006e22:	2401      	movs	r4, #1
10006e24:	481b      	ldr	r0, [pc, #108]	; (10006e94 <low_priority_worker_irq+0x9c>)
10006e26:	6059      	str	r1, [r3, #4]
10006e28:	7802      	ldrb	r2, [r0, #0]
10006e2a:	681b      	ldr	r3, [r3, #0]
10006e2c:	b2d2      	uxtb	r2, r2
10006e2e:	7004      	strb	r4, [r0, #0]
10006e30:	f3bf 8f5f 	dmb	sy
10006e34:	2000      	movs	r0, #0
10006e36:	6018      	str	r0, [r3, #0]
10006e38:	f381 8810 	msr	PRIMASK, r1
10006e3c:	2a00      	cmp	r2, #0
10006e3e:	d00a      	beq.n	10006e56 <low_priority_worker_irq+0x5e>
10006e40:	b004      	add	sp, #16
10006e42:	bd10      	pop	{r4, pc}
10006e44:	2001      	movs	r0, #1
10006e46:	2100      	movs	r1, #0
10006e48:	4240      	negs	r0, r0
10006e4a:	f000 fbff 	bl	1000764c <tud_task_ext>
10006e4e:	0020      	movs	r0, r4
10006e50:	f002 fa62 	bl	10009318 <__mutex_exit_veneer>
10006e54:	e7f4      	b.n	10006e40 <low_priority_worker_irq+0x48>
10006e56:	f7fd fe9d 	bl	10004b94 <alarm_pool_get_default>
10006e5a:	0004      	movs	r4, r0
10006e5c:	f7fe f9d6 	bl	1000520c <time_us_64>
10006e60:	22fa      	movs	r2, #250	; 0xfa
10006e62:	2300      	movs	r3, #0
10006e64:	0092      	lsls	r2, r2, #2
10006e66:	1812      	adds	r2, r2, r0
10006e68:	414b      	adcs	r3, r1
10006e6a:	2180      	movs	r1, #128	; 0x80
10006e6c:	0609      	lsls	r1, r1, #24
10006e6e:	428b      	cmp	r3, r1
10006e70:	d302      	bcc.n	10006e78 <low_priority_worker_irq+0x80>
10006e72:	2201      	movs	r2, #1
10006e74:	4b08      	ldr	r3, [pc, #32]	; (10006e98 <low_priority_worker_irq+0xa0>)
10006e76:	4252      	negs	r2, r2
10006e78:	2101      	movs	r1, #1
10006e7a:	9102      	str	r1, [sp, #8]
10006e7c:	2100      	movs	r1, #0
10006e7e:	9101      	str	r1, [sp, #4]
10006e80:	4906      	ldr	r1, [pc, #24]	; (10006e9c <low_priority_worker_irq+0xa4>)
10006e82:	0020      	movs	r0, r4
10006e84:	9100      	str	r1, [sp, #0]
10006e86:	f7fd fe89 	bl	10004b9c <alarm_pool_add_alarm_at>
10006e8a:	e7d9      	b.n	10006e40 <low_priority_worker_irq+0x48>
10006e8c:	20002154 	.word	0x20002154
10006e90:	2000212c 	.word	0x2000212c
10006e94:	200021ae 	.word	0x200021ae
10006e98:	7fffffff 	.word	0x7fffffff
10006e9c:	10006c0d 	.word	0x10006c0d

10006ea0 <tud_cdc_rx_cb>:
10006ea0:	4b05      	ldr	r3, [pc, #20]	; (10006eb8 <tud_cdc_rx_cb+0x18>)
10006ea2:	b510      	push	{r4, lr}
10006ea4:	6818      	ldr	r0, [r3, #0]
10006ea6:	2800      	cmp	r0, #0
10006ea8:	d004      	beq.n	10006eb4 <tud_cdc_rx_cb+0x14>
10006eaa:	4b04      	ldr	r3, [pc, #16]	; (10006ebc <tud_cdc_rx_cb+0x1c>)
10006eac:	2200      	movs	r2, #0
10006eae:	6819      	ldr	r1, [r3, #0]
10006eb0:	f001 f86e 	bl	10007f90 <usbd_defer_func>
10006eb4:	bd10      	pop	{r4, pc}
10006eb6:	46c0      	nop			; (mov r8, r8)
10006eb8:	20001c60 	.word	0x20001c60
10006ebc:	20001c64 	.word	0x20001c64

10006ec0 <stdio_usb_init>:
10006ec0:	23d0      	movs	r3, #208	; 0xd0
10006ec2:	b510      	push	{r4, lr}
10006ec4:	061b      	lsls	r3, r3, #24
10006ec6:	b084      	sub	sp, #16
10006ec8:	681c      	ldr	r4, [r3, #0]
10006eca:	f7fd fe63 	bl	10004b94 <alarm_pool_get_default>
10006ece:	f7fd ff61 	bl	10004d94 <alarm_pool_core_num>
10006ed2:	42a0      	cmp	r0, r4
10006ed4:	d002      	beq.n	10006edc <stdio_usb_init+0x1c>
10006ed6:	2000      	movs	r0, #0
10006ed8:	b004      	add	sp, #16
10006eda:	bd10      	pop	{r4, pc}
10006edc:	4b27      	ldr	r3, [pc, #156]	; (10006f7c <stdio_usb_init+0xbc>)
10006ede:	781b      	ldrb	r3, [r3, #0]
10006ee0:	f001 fc88 	bl	100087f4 <tusb_init>
10006ee4:	4826      	ldr	r0, [pc, #152]	; (10006f80 <stdio_usb_init+0xc0>)
10006ee6:	f7fd fc49 	bl	1000477c <mutex_init>
10006eea:	2001      	movs	r0, #1
10006eec:	f7fd fc28 	bl	10004740 <user_irq_claim_unused>
10006ef0:	23ff      	movs	r3, #255	; 0xff
10006ef2:	4c24      	ldr	r4, [pc, #144]	; (10006f84 <stdio_usb_init+0xc4>)
10006ef4:	4924      	ldr	r1, [pc, #144]	; (10006f88 <stdio_usb_init+0xc8>)
10006ef6:	7020      	strb	r0, [r4, #0]
10006ef8:	4018      	ands	r0, r3
10006efa:	f7fd f9c1 	bl	10004280 <irq_set_exclusive_handler>
10006efe:	7820      	ldrb	r0, [r4, #0]
10006f00:	2101      	movs	r1, #1
10006f02:	f7fd f985 	bl	10004210 <irq_set_enabled>
10006f06:	2005      	movs	r0, #5
10006f08:	f7fd f99c 	bl	10004244 <irq_has_shared_handler>
10006f0c:	2800      	cmp	r0, #0
10006f0e:	d127      	bne.n	10006f60 <stdio_usb_init+0xa0>
10006f10:	f7fd fe40 	bl	10004b94 <alarm_pool_get_default>
10006f14:	0004      	movs	r4, r0
10006f16:	f7fe f979 	bl	1000520c <time_us_64>
10006f1a:	22fa      	movs	r2, #250	; 0xfa
10006f1c:	2300      	movs	r3, #0
10006f1e:	0092      	lsls	r2, r2, #2
10006f20:	1812      	adds	r2, r2, r0
10006f22:	414b      	adcs	r3, r1
10006f24:	2180      	movs	r1, #128	; 0x80
10006f26:	0609      	lsls	r1, r1, #24
10006f28:	428b      	cmp	r3, r1
10006f2a:	d302      	bcc.n	10006f32 <stdio_usb_init+0x72>
10006f2c:	2201      	movs	r2, #1
10006f2e:	4b17      	ldr	r3, [pc, #92]	; (10006f8c <stdio_usb_init+0xcc>)
10006f30:	4252      	negs	r2, r2
10006f32:	2101      	movs	r1, #1
10006f34:	9102      	str	r1, [sp, #8]
10006f36:	2100      	movs	r1, #0
10006f38:	9101      	str	r1, [sp, #4]
10006f3a:	4915      	ldr	r1, [pc, #84]	; (10006f90 <stdio_usb_init+0xd0>)
10006f3c:	0020      	movs	r0, r4
10006f3e:	9100      	str	r1, [sp, #0]
10006f40:	f7fd fe2c 	bl	10004b9c <alarm_pool_add_alarm_at>
10006f44:	2208      	movs	r2, #8
10006f46:	0004      	movs	r4, r0
10006f48:	2100      	movs	r1, #0
10006f4a:	4812      	ldr	r0, [pc, #72]	; (10006f94 <stdio_usb_init+0xd4>)
10006f4c:	f7ff fc68 	bl	10006820 <__wrap_memset>
10006f50:	2c00      	cmp	r4, #0
10006f52:	dbc0      	blt.n	10006ed6 <stdio_usb_init+0x16>
10006f54:	4810      	ldr	r0, [pc, #64]	; (10006f98 <stdio_usb_init+0xd8>)
10006f56:	2101      	movs	r1, #1
10006f58:	f7ff fdba 	bl	10006ad0 <stdio_set_driver_enabled>
10006f5c:	2001      	movs	r0, #1
10006f5e:	e7bb      	b.n	10006ed8 <stdio_usb_init+0x18>
10006f60:	2200      	movs	r2, #0
10006f62:	490e      	ldr	r1, [pc, #56]	; (10006f9c <stdio_usb_init+0xdc>)
10006f64:	2005      	movs	r0, #5
10006f66:	f7fd f9b5 	bl	100042d4 <irq_add_shared_handler>
10006f6a:	f7fd f933 	bl	100041d4 <next_striped_spin_lock_num>
10006f6e:	4b09      	ldr	r3, [pc, #36]	; (10006f94 <stdio_usb_init+0xd4>)
10006f70:	0001      	movs	r1, r0
10006f72:	0018      	movs	r0, r3
10006f74:	f7fd fc2e 	bl	100047d4 <critical_section_init_with_lock_num>
10006f78:	e7ec      	b.n	10006f54 <stdio_usb_init+0x94>
10006f7a:	46c0      	nop			; (mov r8, r8)
10006f7c:	10009a00 	.word	0x10009a00
10006f80:	20002154 	.word	0x20002154
10006f84:	200021ad 	.word	0x200021ad
10006f88:	10006df9 	.word	0x10006df9
10006f8c:	7fffffff 	.word	0x7fffffff
10006f90:	10006c0d 	.word	0x10006c0d
10006f94:	2000212c 	.word	0x2000212c
10006f98:	20000e70 	.word	0x20000e70
10006f9c:	10006bfd 	.word	0x10006bfd

10006fa0 <tud_descriptor_device_cb>:
10006fa0:	4800      	ldr	r0, [pc, #0]	; (10006fa4 <tud_descriptor_device_cb+0x4>)
10006fa2:	4770      	bx	lr
10006fa4:	100098a8 	.word	0x100098a8

10006fa8 <tud_descriptor_configuration_cb>:
10006fa8:	4800      	ldr	r0, [pc, #0]	; (10006fac <tud_descriptor_configuration_cb+0x4>)
10006faa:	4770      	bx	lr
10006fac:	10009854 	.word	0x10009854

10006fb0 <tud_descriptor_string_cb>:
10006fb0:	b570      	push	{r4, r5, r6, lr}
10006fb2:	0004      	movs	r4, r0
10006fb4:	4817      	ldr	r0, [pc, #92]	; (10007014 <tud_descriptor_string_cb+0x64>)
10006fb6:	7803      	ldrb	r3, [r0, #0]
10006fb8:	2b00      	cmp	r3, #0
10006fba:	d021      	beq.n	10007000 <tud_descriptor_string_cb+0x50>
10006fbc:	2c00      	cmp	r4, #0
10006fbe:	d106      	bne.n	10006fce <tud_descriptor_string_cb+0x1e>
10006fc0:	4b15      	ldr	r3, [pc, #84]	; (10007018 <tud_descriptor_string_cb+0x68>)
10006fc2:	4816      	ldr	r0, [pc, #88]	; (1000701c <tud_descriptor_string_cb+0x6c>)
10006fc4:	8043      	strh	r3, [r0, #2]
10006fc6:	3b06      	subs	r3, #6
10006fc8:	3bff      	subs	r3, #255	; 0xff
10006fca:	8003      	strh	r3, [r0, #0]
10006fcc:	bd70      	pop	{r4, r5, r6, pc}
10006fce:	2c05      	cmp	r4, #5
10006fd0:	d81d      	bhi.n	1000700e <tud_descriptor_string_cb+0x5e>
10006fd2:	4b13      	ldr	r3, [pc, #76]	; (10007020 <tud_descriptor_string_cb+0x70>)
10006fd4:	4811      	ldr	r0, [pc, #68]	; (1000701c <tud_descriptor_string_cb+0x6c>)
10006fd6:	00a4      	lsls	r4, r4, #2
10006fd8:	58e5      	ldr	r5, [r4, r3]
10006fda:	1c81      	adds	r1, r0, #2
10006fdc:	2300      	movs	r3, #0
10006fde:	e004      	b.n	10006fea <tud_descriptor_string_cb+0x3a>
10006fe0:	3301      	adds	r3, #1
10006fe2:	800a      	strh	r2, [r1, #0]
10006fe4:	3102      	adds	r1, #2
10006fe6:	2b13      	cmp	r3, #19
10006fe8:	d00e      	beq.n	10007008 <tud_descriptor_string_cb+0x58>
10006fea:	5cea      	ldrb	r2, [r5, r3]
10006fec:	b2dc      	uxtb	r4, r3
10006fee:	2a00      	cmp	r2, #0
10006ff0:	d1f6      	bne.n	10006fe0 <tud_descriptor_string_cb+0x30>
10006ff2:	23c0      	movs	r3, #192	; 0xc0
10006ff4:	3401      	adds	r4, #1
10006ff6:	b2e4      	uxtb	r4, r4
10006ff8:	0064      	lsls	r4, r4, #1
10006ffa:	009b      	lsls	r3, r3, #2
10006ffc:	4323      	orrs	r3, r4
10006ffe:	e7e4      	b.n	10006fca <tud_descriptor_string_cb+0x1a>
10007000:	2111      	movs	r1, #17
10007002:	f000 f817 	bl	10007034 <pico_get_unique_board_id_string>
10007006:	e7d9      	b.n	10006fbc <tud_descriptor_string_cb+0xc>
10007008:	23ca      	movs	r3, #202	; 0xca
1000700a:	009b      	lsls	r3, r3, #2
1000700c:	e7dd      	b.n	10006fca <tud_descriptor_string_cb+0x1a>
1000700e:	2000      	movs	r0, #0
10007010:	e7dc      	b.n	10006fcc <tud_descriptor_string_cb+0x1c>
10007012:	46c0      	nop			; (mov r8, r8)
10007014:	20002170 	.word	0x20002170
10007018:	00000409 	.word	0x00000409
1000701c:	20001cd4 	.word	0x20001cd4
10007020:	100098bc 	.word	0x100098bc

10007024 <_retrieve_unique_id_on_boot>:
10007024:	b510      	push	{r4, lr}
10007026:	4802      	ldr	r0, [pc, #8]	; (10007030 <_retrieve_unique_id_on_boot+0xc>)
10007028:	f000 f8d8 	bl	100071dc <flash_get_unique_id>
1000702c:	bd10      	pop	{r4, pc}
1000702e:	46c0      	nop			; (mov r8, r8)
10007030:	20002144 	.word	0x20002144

10007034 <pico_get_unique_board_id_string>:
10007034:	b530      	push	{r4, r5, lr}
10007036:	1e4b      	subs	r3, r1, #1
10007038:	2901      	cmp	r1, #1
1000703a:	d100      	bne.n	1000703e <pico_get_unique_board_id_string+0xa>
1000703c:	e0a7      	b.n	1000718e <pico_get_unique_board_id_string+0x15a>
1000703e:	4a66      	ldr	r2, [pc, #408]	; (100071d8 <pico_get_unique_board_id_string+0x1a4>)
10007040:	7811      	ldrb	r1, [r2, #0]
10007042:	110d      	asrs	r5, r1, #4
10007044:	002c      	movs	r4, r5
10007046:	3430      	adds	r4, #48	; 0x30
10007048:	299f      	cmp	r1, #159	; 0x9f
1000704a:	d900      	bls.n	1000704e <pico_get_unique_board_id_string+0x1a>
1000704c:	e0a2      	b.n	10007194 <pico_get_unique_board_id_string+0x160>
1000704e:	7004      	strb	r4, [r0, #0]
10007050:	2b01      	cmp	r3, #1
10007052:	d100      	bne.n	10007056 <pico_get_unique_board_id_string+0x22>
10007054:	e0be      	b.n	100071d4 <pico_get_unique_board_id_string+0x1a0>
10007056:	210f      	movs	r1, #15
10007058:	7814      	ldrb	r4, [r2, #0]
1000705a:	4021      	ands	r1, r4
1000705c:	000c      	movs	r4, r1
1000705e:	3430      	adds	r4, #48	; 0x30
10007060:	2909      	cmp	r1, #9
10007062:	dd00      	ble.n	10007066 <pico_get_unique_board_id_string+0x32>
10007064:	e098      	b.n	10007198 <pico_get_unique_board_id_string+0x164>
10007066:	7044      	strb	r4, [r0, #1]
10007068:	2b02      	cmp	r3, #2
1000706a:	d100      	bne.n	1000706e <pico_get_unique_board_id_string+0x3a>
1000706c:	e0b2      	b.n	100071d4 <pico_get_unique_board_id_string+0x1a0>
1000706e:	7854      	ldrb	r4, [r2, #1]
10007070:	1125      	asrs	r5, r4, #4
10007072:	0029      	movs	r1, r5
10007074:	3130      	adds	r1, #48	; 0x30
10007076:	2c9f      	cmp	r4, #159	; 0x9f
10007078:	d900      	bls.n	1000707c <pico_get_unique_board_id_string+0x48>
1000707a:	e090      	b.n	1000719e <pico_get_unique_board_id_string+0x16a>
1000707c:	7081      	strb	r1, [r0, #2]
1000707e:	2b03      	cmp	r3, #3
10007080:	d100      	bne.n	10007084 <pico_get_unique_board_id_string+0x50>
10007082:	e0a7      	b.n	100071d4 <pico_get_unique_board_id_string+0x1a0>
10007084:	210f      	movs	r1, #15
10007086:	4021      	ands	r1, r4
10007088:	000c      	movs	r4, r1
1000708a:	3430      	adds	r4, #48	; 0x30
1000708c:	2909      	cmp	r1, #9
1000708e:	dd00      	ble.n	10007092 <pico_get_unique_board_id_string+0x5e>
10007090:	e087      	b.n	100071a2 <pico_get_unique_board_id_string+0x16e>
10007092:	70c4      	strb	r4, [r0, #3]
10007094:	2b04      	cmp	r3, #4
10007096:	d100      	bne.n	1000709a <pico_get_unique_board_id_string+0x66>
10007098:	e09c      	b.n	100071d4 <pico_get_unique_board_id_string+0x1a0>
1000709a:	7894      	ldrb	r4, [r2, #2]
1000709c:	1125      	asrs	r5, r4, #4
1000709e:	0029      	movs	r1, r5
100070a0:	3130      	adds	r1, #48	; 0x30
100070a2:	2c9f      	cmp	r4, #159	; 0x9f
100070a4:	d900      	bls.n	100070a8 <pico_get_unique_board_id_string+0x74>
100070a6:	e07f      	b.n	100071a8 <pico_get_unique_board_id_string+0x174>
100070a8:	7101      	strb	r1, [r0, #4]
100070aa:	2b05      	cmp	r3, #5
100070ac:	d100      	bne.n	100070b0 <pico_get_unique_board_id_string+0x7c>
100070ae:	e091      	b.n	100071d4 <pico_get_unique_board_id_string+0x1a0>
100070b0:	210f      	movs	r1, #15
100070b2:	4021      	ands	r1, r4
100070b4:	000c      	movs	r4, r1
100070b6:	3430      	adds	r4, #48	; 0x30
100070b8:	2909      	cmp	r1, #9
100070ba:	dd00      	ble.n	100070be <pico_get_unique_board_id_string+0x8a>
100070bc:	e076      	b.n	100071ac <pico_get_unique_board_id_string+0x178>
100070be:	7144      	strb	r4, [r0, #5]
100070c0:	2b06      	cmp	r3, #6
100070c2:	d100      	bne.n	100070c6 <pico_get_unique_board_id_string+0x92>
100070c4:	e086      	b.n	100071d4 <pico_get_unique_board_id_string+0x1a0>
100070c6:	78d4      	ldrb	r4, [r2, #3]
100070c8:	1125      	asrs	r5, r4, #4
100070ca:	0029      	movs	r1, r5
100070cc:	3130      	adds	r1, #48	; 0x30
100070ce:	2c9f      	cmp	r4, #159	; 0x9f
100070d0:	d900      	bls.n	100070d4 <pico_get_unique_board_id_string+0xa0>
100070d2:	e06e      	b.n	100071b2 <pico_get_unique_board_id_string+0x17e>
100070d4:	7181      	strb	r1, [r0, #6]
100070d6:	2b07      	cmp	r3, #7
100070d8:	d100      	bne.n	100070dc <pico_get_unique_board_id_string+0xa8>
100070da:	e07b      	b.n	100071d4 <pico_get_unique_board_id_string+0x1a0>
100070dc:	210f      	movs	r1, #15
100070de:	4021      	ands	r1, r4
100070e0:	000c      	movs	r4, r1
100070e2:	3430      	adds	r4, #48	; 0x30
100070e4:	2909      	cmp	r1, #9
100070e6:	dc66      	bgt.n	100071b6 <pico_get_unique_board_id_string+0x182>
100070e8:	71c4      	strb	r4, [r0, #7]
100070ea:	2b08      	cmp	r3, #8
100070ec:	d100      	bne.n	100070f0 <pico_get_unique_board_id_string+0xbc>
100070ee:	e071      	b.n	100071d4 <pico_get_unique_board_id_string+0x1a0>
100070f0:	7914      	ldrb	r4, [r2, #4]
100070f2:	1125      	asrs	r5, r4, #4
100070f4:	0029      	movs	r1, r5
100070f6:	3130      	adds	r1, #48	; 0x30
100070f8:	2c9f      	cmp	r4, #159	; 0x9f
100070fa:	d85f      	bhi.n	100071bc <pico_get_unique_board_id_string+0x188>
100070fc:	7201      	strb	r1, [r0, #8]
100070fe:	2b09      	cmp	r3, #9
10007100:	d068      	beq.n	100071d4 <pico_get_unique_board_id_string+0x1a0>
10007102:	210f      	movs	r1, #15
10007104:	4021      	ands	r1, r4
10007106:	000c      	movs	r4, r1
10007108:	3430      	adds	r4, #48	; 0x30
1000710a:	2909      	cmp	r1, #9
1000710c:	dc58      	bgt.n	100071c0 <pico_get_unique_board_id_string+0x18c>
1000710e:	7244      	strb	r4, [r0, #9]
10007110:	2b0a      	cmp	r3, #10
10007112:	d05f      	beq.n	100071d4 <pico_get_unique_board_id_string+0x1a0>
10007114:	7954      	ldrb	r4, [r2, #5]
10007116:	1125      	asrs	r5, r4, #4
10007118:	0029      	movs	r1, r5
1000711a:	3130      	adds	r1, #48	; 0x30
1000711c:	2c9f      	cmp	r4, #159	; 0x9f
1000711e:	d852      	bhi.n	100071c6 <pico_get_unique_board_id_string+0x192>
10007120:	7281      	strb	r1, [r0, #10]
10007122:	2b0b      	cmp	r3, #11
10007124:	d056      	beq.n	100071d4 <pico_get_unique_board_id_string+0x1a0>
10007126:	210f      	movs	r1, #15
10007128:	4021      	ands	r1, r4
1000712a:	000c      	movs	r4, r1
1000712c:	3430      	adds	r4, #48	; 0x30
1000712e:	2909      	cmp	r1, #9
10007130:	dc4b      	bgt.n	100071ca <pico_get_unique_board_id_string+0x196>
10007132:	72c4      	strb	r4, [r0, #11]
10007134:	2b0c      	cmp	r3, #12
10007136:	d04d      	beq.n	100071d4 <pico_get_unique_board_id_string+0x1a0>
10007138:	7994      	ldrb	r4, [r2, #6]
1000713a:	1125      	asrs	r5, r4, #4
1000713c:	0029      	movs	r1, r5
1000713e:	3130      	adds	r1, #48	; 0x30
10007140:	2c9f      	cmp	r4, #159	; 0x9f
10007142:	d900      	bls.n	10007146 <pico_get_unique_board_id_string+0x112>
10007144:	3107      	adds	r1, #7
10007146:	7301      	strb	r1, [r0, #12]
10007148:	2b0d      	cmp	r3, #13
1000714a:	d043      	beq.n	100071d4 <pico_get_unique_board_id_string+0x1a0>
1000714c:	210f      	movs	r1, #15
1000714e:	4021      	ands	r1, r4
10007150:	000c      	movs	r4, r1
10007152:	3430      	adds	r4, #48	; 0x30
10007154:	2909      	cmp	r1, #9
10007156:	dd01      	ble.n	1000715c <pico_get_unique_board_id_string+0x128>
10007158:	3137      	adds	r1, #55	; 0x37
1000715a:	000c      	movs	r4, r1
1000715c:	7344      	strb	r4, [r0, #13]
1000715e:	2b0e      	cmp	r3, #14
10007160:	d038      	beq.n	100071d4 <pico_get_unique_board_id_string+0x1a0>
10007162:	79d1      	ldrb	r1, [r2, #7]
10007164:	110c      	asrs	r4, r1, #4
10007166:	0022      	movs	r2, r4
10007168:	3230      	adds	r2, #48	; 0x30
1000716a:	299f      	cmp	r1, #159	; 0x9f
1000716c:	d900      	bls.n	10007170 <pico_get_unique_board_id_string+0x13c>
1000716e:	3207      	adds	r2, #7
10007170:	7382      	strb	r2, [r0, #14]
10007172:	2b0f      	cmp	r3, #15
10007174:	d02e      	beq.n	100071d4 <pico_get_unique_board_id_string+0x1a0>
10007176:	220f      	movs	r2, #15
10007178:	400a      	ands	r2, r1
1000717a:	0011      	movs	r1, r2
1000717c:	3137      	adds	r1, #55	; 0x37
1000717e:	2a09      	cmp	r2, #9
10007180:	dc01      	bgt.n	10007186 <pico_get_unique_board_id_string+0x152>
10007182:	3230      	adds	r2, #48	; 0x30
10007184:	0011      	movs	r1, r2
10007186:	73c1      	strb	r1, [r0, #15]
10007188:	2b10      	cmp	r3, #16
1000718a:	d023      	beq.n	100071d4 <pico_get_unique_board_id_string+0x1a0>
1000718c:	3010      	adds	r0, #16
1000718e:	2300      	movs	r3, #0
10007190:	7003      	strb	r3, [r0, #0]
10007192:	bd30      	pop	{r4, r5, pc}
10007194:	3407      	adds	r4, #7
10007196:	e75a      	b.n	1000704e <pico_get_unique_board_id_string+0x1a>
10007198:	3137      	adds	r1, #55	; 0x37
1000719a:	000c      	movs	r4, r1
1000719c:	e763      	b.n	10007066 <pico_get_unique_board_id_string+0x32>
1000719e:	3107      	adds	r1, #7
100071a0:	e76c      	b.n	1000707c <pico_get_unique_board_id_string+0x48>
100071a2:	3137      	adds	r1, #55	; 0x37
100071a4:	000c      	movs	r4, r1
100071a6:	e774      	b.n	10007092 <pico_get_unique_board_id_string+0x5e>
100071a8:	3107      	adds	r1, #7
100071aa:	e77d      	b.n	100070a8 <pico_get_unique_board_id_string+0x74>
100071ac:	3137      	adds	r1, #55	; 0x37
100071ae:	000c      	movs	r4, r1
100071b0:	e785      	b.n	100070be <pico_get_unique_board_id_string+0x8a>
100071b2:	3107      	adds	r1, #7
100071b4:	e78e      	b.n	100070d4 <pico_get_unique_board_id_string+0xa0>
100071b6:	3137      	adds	r1, #55	; 0x37
100071b8:	000c      	movs	r4, r1
100071ba:	e795      	b.n	100070e8 <pico_get_unique_board_id_string+0xb4>
100071bc:	3107      	adds	r1, #7
100071be:	e79d      	b.n	100070fc <pico_get_unique_board_id_string+0xc8>
100071c0:	3137      	adds	r1, #55	; 0x37
100071c2:	000c      	movs	r4, r1
100071c4:	e7a3      	b.n	1000710e <pico_get_unique_board_id_string+0xda>
100071c6:	3107      	adds	r1, #7
100071c8:	e7aa      	b.n	10007120 <pico_get_unique_board_id_string+0xec>
100071ca:	3137      	adds	r1, #55	; 0x37
100071cc:	000c      	movs	r4, r1
100071ce:	72c4      	strb	r4, [r0, #11]
100071d0:	2b0c      	cmp	r3, #12
100071d2:	d1b1      	bne.n	10007138 <pico_get_unique_board_id_string+0x104>
100071d4:	18c0      	adds	r0, r0, r3
100071d6:	e7da      	b.n	1000718e <pico_get_unique_board_id_string+0x15a>
100071d8:	20002144 	.word	0x20002144

100071dc <flash_get_unique_id>:
100071dc:	b530      	push	{r4, r5, lr}
100071de:	2500      	movs	r5, #0
100071e0:	b089      	sub	sp, #36	; 0x24
100071e2:	0004      	movs	r4, r0
100071e4:	2209      	movs	r2, #9
100071e6:	2100      	movs	r1, #0
100071e8:	a801      	add	r0, sp, #4
100071ea:	9500      	str	r5, [sp, #0]
100071ec:	f7ff fb18 	bl	10006820 <__wrap_memset>
100071f0:	2209      	movs	r2, #9
100071f2:	2100      	movs	r1, #0
100071f4:	a805      	add	r0, sp, #20
100071f6:	9504      	str	r5, [sp, #16]
100071f8:	f7ff fb12 	bl	10006820 <__wrap_memset>
100071fc:	234b      	movs	r3, #75	; 0x4b
100071fe:	466a      	mov	r2, sp
10007200:	4668      	mov	r0, sp
10007202:	7013      	strb	r3, [r2, #0]
10007204:	a904      	add	r1, sp, #16
10007206:	220d      	movs	r2, #13
10007208:	f002 f87e 	bl	10009308 <__flash_do_cmd_veneer>
1000720c:	2115      	movs	r1, #21
1000720e:	2208      	movs	r2, #8
10007210:	0020      	movs	r0, r4
10007212:	4469      	add	r1, sp
10007214:	f7ff fb0a 	bl	1000682c <__wrap___aeabi_memcpy>
10007218:	b009      	add	sp, #36	; 0x24
1000721a:	bd30      	pop	{r4, r5, pc}

1000721c <dcd_int_enable>:
1000721c:	b510      	push	{r4, lr}
1000721e:	2101      	movs	r1, #1
10007220:	2005      	movs	r0, #5
10007222:	f7fc fff5 	bl	10004210 <irq_set_enabled>
10007226:	bd10      	pop	{r4, pc}

10007228 <dcd_set_address>:
10007228:	b510      	push	{r4, lr}
1000722a:	2200      	movs	r2, #0
1000722c:	2100      	movs	r1, #0
1000722e:	4802      	ldr	r0, [pc, #8]	; (10007238 <dcd_set_address+0x10>)
10007230:	f000 f95a 	bl	100074e8 <hw_endpoint_xfer_start>
10007234:	bd10      	pop	{r4, pc}
10007236:	46c0      	nop			; (mov r8, r8)
10007238:	20001d28 	.word	0x20001d28

1000723c <dcd_connect>:
1000723c:	2280      	movs	r2, #128	; 0x80
1000723e:	4b02      	ldr	r3, [pc, #8]	; (10007248 <dcd_connect+0xc>)
10007240:	0252      	lsls	r2, r2, #9
10007242:	64da      	str	r2, [r3, #76]	; 0x4c
10007244:	4770      	bx	lr
10007246:	46c0      	nop			; (mov r8, r8)
10007248:	50112000 	.word	0x50112000

1000724c <dcd_init>:
1000724c:	b5f0      	push	{r4, r5, r6, r7, lr}
1000724e:	46c6      	mov	lr, r8
10007250:	b500      	push	{lr}
10007252:	0006      	movs	r6, r0
10007254:	f000 f922 	bl	1000749c <rp2040_usb_init>
10007258:	230c      	movs	r3, #12
1000725a:	4d1b      	ldr	r5, [pc, #108]	; (100072c8 <dcd_init+0x7c>)
1000725c:	22ff      	movs	r2, #255	; 0xff
1000725e:	67ab      	str	r3, [r5, #120]	; 0x78
10007260:	2005      	movs	r0, #5
10007262:	491a      	ldr	r1, [pc, #104]	; (100072cc <dcd_init+0x80>)
10007264:	f7fd f836 	bl	100042d4 <irq_add_shared_handler>
10007268:	2340      	movs	r3, #64	; 0x40
1000726a:	4698      	mov	r8, r3
1000726c:	4c18      	ldr	r4, [pc, #96]	; (100072d0 <dcd_init+0x84>)
1000726e:	2240      	movs	r2, #64	; 0x40
10007270:	2100      	movs	r1, #0
10007272:	0020      	movs	r0, r4
10007274:	f7ff fad4 	bl	10006820 <__wrap_memset>
10007278:	4643      	mov	r3, r8
1000727a:	2701      	movs	r7, #1
1000727c:	8323      	strh	r3, [r4, #24]
1000727e:	2121      	movs	r1, #33	; 0x21
10007280:	2300      	movs	r3, #0
10007282:	4a14      	ldr	r2, [pc, #80]	; (100072d4 <dcd_init+0x88>)
10007284:	7067      	strb	r7, [r4, #1]
10007286:	60a2      	str	r2, [r4, #8]
10007288:	6013      	str	r3, [r2, #0]
1000728a:	5463      	strb	r3, [r4, r1]
1000728c:	315f      	adds	r1, #95	; 0x5f
1000728e:	8461      	strh	r1, [r4, #34]	; 0x22
10007290:	4641      	mov	r1, r8
10007292:	8721      	strh	r1, [r4, #56]	; 0x38
10007294:	3905      	subs	r1, #5
10007296:	5463      	strb	r3, [r4, r1]
10007298:	4a0f      	ldr	r2, [pc, #60]	; (100072d8 <dcd_init+0x8c>)
1000729a:	4910      	ldr	r1, [pc, #64]	; (100072dc <dcd_init+0x90>)
1000729c:	6063      	str	r3, [r4, #4]
1000729e:	60e2      	str	r2, [r4, #12]
100072a0:	62a1      	str	r1, [r4, #40]	; 0x28
100072a2:	600b      	str	r3, [r1, #0]
100072a4:	6263      	str	r3, [r4, #36]	; 0x24
100072a6:	62e2      	str	r2, [r4, #44]	; 0x2c
100072a8:	f002 f85e 	bl	10009368 <__reset_non_control_endpoints_veneer>
100072ac:	2380      	movs	r3, #128	; 0x80
100072ae:	059b      	lsls	r3, r3, #22
100072b0:	642f      	str	r7, [r5, #64]	; 0x40
100072b2:	64eb      	str	r3, [r5, #76]	; 0x4c
100072b4:	2390      	movs	r3, #144	; 0x90
100072b6:	4a0a      	ldr	r2, [pc, #40]	; (100072e0 <dcd_init+0x94>)
100072b8:	0030      	movs	r0, r6
100072ba:	50ea      	str	r2, [r5, r3]
100072bc:	f7ff ffbe 	bl	1000723c <dcd_connect>
100072c0:	bc80      	pop	{r7}
100072c2:	46b8      	mov	r8, r7
100072c4:	bdf0      	pop	{r4, r5, r6, r7, pc}
100072c6:	46c0      	nop			; (mov r8, r8)
100072c8:	50110000 	.word	0x50110000
100072cc:	200004a5 	.word	0x200004a5
100072d0:	20001d08 	.word	0x20001d08
100072d4:	50100084 	.word	0x50100084
100072d8:	50100100 	.word	0x50100100
100072dc:	50100080 	.word	0x50100080
100072e0:	0001d010 	.word	0x0001d010

100072e4 <dcd_edpt0_status_complete>:
100072e4:	780b      	ldrb	r3, [r1, #0]
100072e6:	065b      	lsls	r3, r3, #25
100072e8:	d102      	bne.n	100072f0 <dcd_edpt0_status_complete+0xc>
100072ea:	784b      	ldrb	r3, [r1, #1]
100072ec:	2b05      	cmp	r3, #5
100072ee:	d000      	beq.n	100072f2 <dcd_edpt0_status_complete+0xe>
100072f0:	4770      	bx	lr
100072f2:	788a      	ldrb	r2, [r1, #2]
100072f4:	4b01      	ldr	r3, [pc, #4]	; (100072fc <dcd_edpt0_status_complete+0x18>)
100072f6:	601a      	str	r2, [r3, #0]
100072f8:	e7fa      	b.n	100072f0 <dcd_edpt0_status_complete+0xc>
100072fa:	46c0      	nop			; (mov r8, r8)
100072fc:	50110000 	.word	0x50110000

10007300 <dcd_edpt_open>:
10007300:	b5f0      	push	{r4, r5, r6, r7, lr}
10007302:	46c6      	mov	lr, r8
10007304:	b500      	push	{lr}
10007306:	78cc      	ldrb	r4, [r1, #3]
10007308:	7888      	ldrb	r0, [r1, #2]
1000730a:	790a      	ldrb	r2, [r1, #4]
1000730c:	794b      	ldrb	r3, [r1, #5]
1000730e:	217f      	movs	r1, #127	; 0x7f
10007310:	07a4      	lsls	r4, r4, #30
10007312:	4001      	ands	r1, r0
10007314:	021b      	lsls	r3, r3, #8
10007316:	09c5      	lsrs	r5, r0, #7
10007318:	4313      	orrs	r3, r2
1000731a:	004f      	lsls	r7, r1, #1
1000731c:	0fa2      	lsrs	r2, r4, #30
1000731e:	0014      	movs	r4, r2
10007320:	4e32      	ldr	r6, [pc, #200]	; (100073ec <dcd_edpt_open+0xec>)
10007322:	197a      	adds	r2, r7, r5
10007324:	0152      	lsls	r2, r2, #5
10007326:	18b2      	adds	r2, r6, r2
10007328:	7090      	strb	r0, [r2, #2]
1000732a:	2001      	movs	r0, #1
1000732c:	4068      	eors	r0, r5
1000732e:	7050      	strb	r0, [r2, #1]
10007330:	2000      	movs	r0, #0
10007332:	055b      	lsls	r3, r3, #21
10007334:	0d5b      	lsrs	r3, r3, #21
10007336:	70d0      	strb	r0, [r2, #3]
10007338:	8313      	strh	r3, [r2, #24]
1000733a:	76d4      	strb	r4, [r2, #27]
1000733c:	4680      	mov	r8, r0
1000733e:	00ca      	lsls	r2, r1, #3
10007340:	2d01      	cmp	r5, #1
10007342:	d033      	beq.n	100073ac <dcd_edpt_open+0xac>
10007344:	482a      	ldr	r0, [pc, #168]	; (100073f0 <dcd_edpt_open+0xf0>)
10007346:	4684      	mov	ip, r0
10007348:	0188      	lsls	r0, r1, #6
1000734a:	4462      	add	r2, ip
1000734c:	4684      	mov	ip, r0
1000734e:	44b4      	add	ip, r6
10007350:	4660      	mov	r0, ip
10007352:	6082      	str	r2, [r0, #8]
10007354:	4640      	mov	r0, r8
10007356:	6010      	str	r0, [r2, #0]
10007358:	2900      	cmp	r1, #0
1000735a:	d033      	beq.n	100073c4 <dcd_edpt_open+0xc4>
1000735c:	4a25      	ldr	r2, [pc, #148]	; (100073f4 <dcd_edpt_open+0xf4>)
1000735e:	00c9      	lsls	r1, r1, #3
10007360:	4690      	mov	r8, r2
10007362:	4662      	mov	r2, ip
10007364:	4441      	add	r1, r8
10007366:	6051      	str	r1, [r2, #4]
10007368:	223f      	movs	r2, #63	; 0x3f
1000736a:	333f      	adds	r3, #63	; 0x3f
1000736c:	4393      	bics	r3, r2
1000736e:	2c02      	cmp	r4, #2
10007370:	d100      	bne.n	10007374 <dcd_edpt_open+0x74>
10007372:	005b      	lsls	r3, r3, #1
10007374:	4820      	ldr	r0, [pc, #128]	; (100073f8 <dcd_edpt_open+0xf8>)
10007376:	197a      	adds	r2, r7, r5
10007378:	6801      	ldr	r1, [r0, #0]
1000737a:	0152      	lsls	r2, r2, #5
1000737c:	18b2      	adds	r2, r6, r2
1000737e:	60d1      	str	r1, [r2, #12]
10007380:	4a1e      	ldr	r2, [pc, #120]	; (100073fc <dcd_edpt_open+0xfc>)
10007382:	18cb      	adds	r3, r1, r3
10007384:	6003      	str	r3, [r0, #0]
10007386:	4051      	eors	r1, r2
10007388:	405a      	eors	r2, r3
1000738a:	2380      	movs	r3, #128	; 0x80
1000738c:	4688      	mov	r8, r1
1000738e:	015b      	lsls	r3, r3, #5
10007390:	429a      	cmp	r2, r3
10007392:	d828      	bhi.n	100073e6 <dcd_edpt_open+0xe6>
10007394:	4643      	mov	r3, r8
10007396:	06a4      	lsls	r4, r4, #26
10007398:	431c      	orrs	r4, r3
1000739a:	2380      	movs	r3, #128	; 0x80
1000739c:	197f      	adds	r7, r7, r5
1000739e:	017f      	lsls	r7, r7, #5
100073a0:	19f6      	adds	r6, r6, r7
100073a2:	6872      	ldr	r2, [r6, #4]
100073a4:	061b      	lsls	r3, r3, #24
100073a6:	4323      	orrs	r3, r4
100073a8:	6013      	str	r3, [r2, #0]
100073aa:	e011      	b.n	100073d0 <dcd_edpt_open+0xd0>
100073ac:	4814      	ldr	r0, [pc, #80]	; (10007400 <dcd_edpt_open+0x100>)
100073ae:	4684      	mov	ip, r0
100073b0:	0188      	lsls	r0, r1, #6
100073b2:	4462      	add	r2, ip
100073b4:	4684      	mov	ip, r0
100073b6:	44b4      	add	ip, r6
100073b8:	4660      	mov	r0, ip
100073ba:	6282      	str	r2, [r0, #40]	; 0x28
100073bc:	4640      	mov	r0, r8
100073be:	6010      	str	r0, [r2, #0]
100073c0:	2900      	cmp	r1, #0
100073c2:	d109      	bne.n	100073d8 <dcd_edpt_open+0xd8>
100073c4:	2300      	movs	r3, #0
100073c6:	016d      	lsls	r5, r5, #5
100073c8:	1975      	adds	r5, r6, r5
100073ca:	606b      	str	r3, [r5, #4]
100073cc:	4b0d      	ldr	r3, [pc, #52]	; (10007404 <dcd_edpt_open+0x104>)
100073ce:	60eb      	str	r3, [r5, #12]
100073d0:	2001      	movs	r0, #1
100073d2:	bc80      	pop	{r7}
100073d4:	46b8      	mov	r8, r7
100073d6:	bdf0      	pop	{r4, r5, r6, r7, pc}
100073d8:	4a08      	ldr	r2, [pc, #32]	; (100073fc <dcd_edpt_open+0xfc>)
100073da:	00c9      	lsls	r1, r1, #3
100073dc:	4690      	mov	r8, r2
100073de:	4662      	mov	r2, ip
100073e0:	4441      	add	r1, r8
100073e2:	6251      	str	r1, [r2, #36]	; 0x24
100073e4:	e7c0      	b.n	10007368 <dcd_edpt_open+0x68>
100073e6:	f7fe fd4f 	bl	10005e88 <hard_assertion_failure>
100073ea:	e7d3      	b.n	10007394 <dcd_edpt_open+0x94>
100073ec:	20001d08 	.word	0x20001d08
100073f0:	50100084 	.word	0x50100084
100073f4:	50100004 	.word	0x50100004
100073f8:	20002110 	.word	0x20002110
100073fc:	50100000 	.word	0x50100000
10007400:	50100080 	.word	0x50100080
10007404:	50100100 	.word	0x50100100

10007408 <dcd_edpt_close_all>:
10007408:	b510      	push	{r4, lr}
1000740a:	f001 ffad 	bl	10009368 <__reset_non_control_endpoints_veneer>
1000740e:	bd10      	pop	{r4, pc}

10007410 <dcd_edpt_xfer>:
10007410:	b510      	push	{r4, lr}
10007412:	207f      	movs	r0, #127	; 0x7f
10007414:	000c      	movs	r4, r1
10007416:	4020      	ands	r0, r4
10007418:	0040      	lsls	r0, r0, #1
1000741a:	09e4      	lsrs	r4, r4, #7
1000741c:	0011      	movs	r1, r2
1000741e:	1900      	adds	r0, r0, r4
10007420:	001a      	movs	r2, r3
10007422:	4b03      	ldr	r3, [pc, #12]	; (10007430 <dcd_edpt_xfer+0x20>)
10007424:	0140      	lsls	r0, r0, #5
10007426:	18c0      	adds	r0, r0, r3
10007428:	f000 f85e 	bl	100074e8 <hw_endpoint_xfer_start>
1000742c:	2001      	movs	r0, #1
1000742e:	bd10      	pop	{r4, pc}
10007430:	20001d08 	.word	0x20001d08

10007434 <dcd_edpt_stall>:
10007434:	237f      	movs	r3, #127	; 0x7f
10007436:	0018      	movs	r0, r3
10007438:	b510      	push	{r4, lr}
1000743a:	4008      	ands	r0, r1
1000743c:	420b      	tst	r3, r1
1000743e:	d00b      	beq.n	10007458 <dcd_edpt_stall+0x24>
10007440:	09c9      	lsrs	r1, r1, #7
10007442:	2280      	movs	r2, #128	; 0x80
10007444:	0040      	lsls	r0, r0, #1
10007446:	4b07      	ldr	r3, [pc, #28]	; (10007464 <dcd_edpt_stall+0x30>)
10007448:	1840      	adds	r0, r0, r1
1000744a:	0140      	lsls	r0, r0, #5
1000744c:	2100      	movs	r1, #0
1000744e:	18c0      	adds	r0, r0, r3
10007450:	0112      	lsls	r2, r2, #4
10007452:	f001 ffb1 	bl	100093b8 <___hw_endpoint_buffer_control_update32_veneer>
10007456:	bd10      	pop	{r4, pc}
10007458:	2302      	movs	r3, #2
1000745a:	4a03      	ldr	r2, [pc, #12]	; (10007468 <dcd_edpt_stall+0x34>)
1000745c:	09c9      	lsrs	r1, r1, #7
1000745e:	1a5b      	subs	r3, r3, r1
10007460:	6693      	str	r3, [r2, #104]	; 0x68
10007462:	e7ee      	b.n	10007442 <dcd_edpt_stall+0xe>
10007464:	20001d08 	.word	0x20001d08
10007468:	50112000 	.word	0x50112000

1000746c <dcd_edpt_clear_stall>:
1000746c:	227f      	movs	r2, #127	; 0x7f
1000746e:	0013      	movs	r3, r2
10007470:	b510      	push	{r4, lr}
10007472:	400b      	ands	r3, r1
10007474:	420a      	tst	r2, r1
10007476:	d100      	bne.n	1000747a <dcd_edpt_clear_stall+0xe>
10007478:	bd10      	pop	{r4, pc}
1000747a:	09c9      	lsrs	r1, r1, #7
1000747c:	005b      	lsls	r3, r3, #1
1000747e:	185b      	adds	r3, r3, r1
10007480:	4804      	ldr	r0, [pc, #16]	; (10007494 <dcd_edpt_clear_stall+0x28>)
10007482:	015b      	lsls	r3, r3, #5
10007484:	18c0      	adds	r0, r0, r3
10007486:	2300      	movs	r3, #0
10007488:	2200      	movs	r2, #0
1000748a:	4903      	ldr	r1, [pc, #12]	; (10007498 <dcd_edpt_clear_stall+0x2c>)
1000748c:	70c3      	strb	r3, [r0, #3]
1000748e:	f001 ff93 	bl	100093b8 <___hw_endpoint_buffer_control_update32_veneer>
10007492:	e7f1      	b.n	10007478 <dcd_edpt_clear_stall+0xc>
10007494:	20001d08 	.word	0x20001d08
10007498:	fffff7ff 	.word	0xfffff7ff

1000749c <rp2040_usb_init>:
1000749c:	2280      	movs	r2, #128	; 0x80
1000749e:	4b0d      	ldr	r3, [pc, #52]	; (100074d4 <rp2040_usb_init+0x38>)
100074a0:	0452      	lsls	r2, r2, #17
100074a2:	b510      	push	{r4, lr}
100074a4:	601a      	str	r2, [r3, #0]
100074a6:	4b0c      	ldr	r3, [pc, #48]	; (100074d8 <rp2040_usb_init+0x3c>)
100074a8:	490c      	ldr	r1, [pc, #48]	; (100074dc <rp2040_usb_init+0x40>)
100074aa:	601a      	str	r2, [r3, #0]
100074ac:	0010      	movs	r0, r2
100074ae:	688b      	ldr	r3, [r1, #8]
100074b0:	4398      	bics	r0, r3
100074b2:	d1fb      	bne.n	100074ac <rp2040_usb_init+0x10>
100074b4:	4c0a      	ldr	r4, [pc, #40]	; (100074e0 <rp2040_usb_init+0x44>)
100074b6:	229c      	movs	r2, #156	; 0x9c
100074b8:	2100      	movs	r1, #0
100074ba:	0020      	movs	r0, r4
100074bc:	f7ff f9b0 	bl	10006820 <__wrap_memset>
100074c0:	2280      	movs	r2, #128	; 0x80
100074c2:	2100      	movs	r1, #0
100074c4:	0152      	lsls	r2, r2, #5
100074c6:	4807      	ldr	r0, [pc, #28]	; (100074e4 <rp2040_usb_init+0x48>)
100074c8:	f7ff f9aa 	bl	10006820 <__wrap_memset>
100074cc:	2309      	movs	r3, #9
100074ce:	6763      	str	r3, [r4, #116]	; 0x74
100074d0:	bd10      	pop	{r4, pc}
100074d2:	46c0      	nop			; (mov r8, r8)
100074d4:	4000e000 	.word	0x4000e000
100074d8:	4000f000 	.word	0x4000f000
100074dc:	4000c000 	.word	0x4000c000
100074e0:	50110000 	.word	0x50110000
100074e4:	50100000 	.word	0x50100000

100074e8 <hw_endpoint_xfer_start>:
100074e8:	b570      	push	{r4, r5, r6, lr}
100074ea:	7e83      	ldrb	r3, [r0, #26]
100074ec:	0004      	movs	r4, r0
100074ee:	000d      	movs	r5, r1
100074f0:	0016      	movs	r6, r2
100074f2:	2b00      	cmp	r3, #0
100074f4:	d117      	bne.n	10007526 <hw_endpoint_xfer_start+0x3e>
100074f6:	2300      	movs	r3, #0
100074f8:	82e3      	strh	r3, [r4, #22]
100074fa:	3301      	adds	r3, #1
100074fc:	0020      	movs	r0, r4
100074fe:	82a6      	strh	r6, [r4, #20]
10007500:	76a3      	strb	r3, [r4, #26]
10007502:	6125      	str	r5, [r4, #16]
10007504:	f001 ff18 	bl	10009338 <__e15_is_bulkin_ep_veneer>
10007508:	2800      	cmp	r0, #0
1000750a:	d004      	beq.n	10007516 <hw_endpoint_xfer_start+0x2e>
1000750c:	2180      	movs	r1, #128	; 0x80
1000750e:	2390      	movs	r3, #144	; 0x90
10007510:	4a08      	ldr	r2, [pc, #32]	; (10007534 <hw_endpoint_xfer_start+0x4c>)
10007512:	0289      	lsls	r1, r1, #10
10007514:	50d1      	str	r1, [r2, r3]
10007516:	0020      	movs	r0, r4
10007518:	f001 ff06 	bl	10009328 <__e15_is_critical_frame_period_veneer>
1000751c:	2800      	cmp	r0, #0
1000751e:	d005      	beq.n	1000752c <hw_endpoint_xfer_start+0x44>
10007520:	2301      	movs	r3, #1
10007522:	7723      	strb	r3, [r4, #28]
10007524:	bd70      	pop	{r4, r5, r6, pc}
10007526:	f001 ff3f 	bl	100093a8 <__hw_endpoint_reset_transfer_veneer>
1000752a:	e7e4      	b.n	100074f6 <hw_endpoint_xfer_start+0xe>
1000752c:	0020      	movs	r0, r4
1000752e:	f001 ff33 	bl	10009398 <__hw_endpoint_start_next_buffer_veneer>
10007532:	e7f7      	b.n	10007524 <hw_endpoint_xfer_start+0x3c>
10007534:	50112000 	.word	0x50112000

10007538 <tud_mounted>:
10007538:	4b02      	ldr	r3, [pc, #8]	; (10007544 <tud_mounted+0xc>)
1000753a:	7858      	ldrb	r0, [r3, #1]
1000753c:	1e43      	subs	r3, r0, #1
1000753e:	4198      	sbcs	r0, r3
10007540:	b2c0      	uxtb	r0, r0
10007542:	4770      	bx	lr
10007544:	20001a34 	.word	0x20001a34

10007548 <tud_suspended>:
10007548:	4b02      	ldr	r3, [pc, #8]	; (10007554 <tud_suspended+0xc>)
1000754a:	7818      	ldrb	r0, [r3, #0]
1000754c:	0740      	lsls	r0, r0, #29
1000754e:	0fc0      	lsrs	r0, r0, #31
10007550:	4770      	bx	lr
10007552:	46c0      	nop			; (mov r8, r8)
10007554:	20001a34 	.word	0x20001a34

10007558 <tud_inited>:
10007558:	4b03      	ldr	r3, [pc, #12]	; (10007568 <tud_inited+0x10>)
1000755a:	7818      	ldrb	r0, [r3, #0]
1000755c:	38ff      	subs	r0, #255	; 0xff
1000755e:	1e43      	subs	r3, r0, #1
10007560:	4198      	sbcs	r0, r3
10007562:	b2c0      	uxtb	r0, r0
10007564:	4770      	bx	lr
10007566:	46c0      	nop			; (mov r8, r8)
10007568:	20000eac 	.word	0x20000eac

1000756c <tud_init>:
1000756c:	b5f8      	push	{r3, r4, r5, r6, r7, lr}
1000756e:	46ce      	mov	lr, r9
10007570:	4647      	mov	r7, r8
10007572:	b580      	push	{r7, lr}
10007574:	4e2b      	ldr	r6, [pc, #172]	; (10007624 <tud_init+0xb8>)
10007576:	0005      	movs	r5, r0
10007578:	7833      	ldrb	r3, [r6, #0]
1000757a:	2001      	movs	r0, #1
1000757c:	2bff      	cmp	r3, #255	; 0xff
1000757e:	d003      	beq.n	10007588 <tud_init+0x1c>
10007580:	bcc0      	pop	{r6, r7}
10007582:	46b9      	mov	r9, r7
10007584:	46b0      	mov	r8, r6
10007586:	bdf8      	pop	{r3, r4, r5, r6, r7, pc}
10007588:	2253      	movs	r2, #83	; 0x53
1000758a:	2100      	movs	r1, #0
1000758c:	4826      	ldr	r0, [pc, #152]	; (10007628 <tud_init+0xbc>)
1000758e:	f7ff f947 	bl	10006820 <__wrap_memset>
10007592:	4c26      	ldr	r4, [pc, #152]	; (1000762c <tud_init+0xc0>)
10007594:	0020      	movs	r0, r4
10007596:	f7fd f8f1 	bl	1000477c <mutex_init>
1000759a:	4b25      	ldr	r3, [pc, #148]	; (10007630 <tud_init+0xc4>)
1000759c:	601c      	str	r4, [r3, #0]
1000759e:	4c25      	ldr	r4, [pc, #148]	; (10007634 <tud_init+0xc8>)
100075a0:	0020      	movs	r0, r4
100075a2:	3014      	adds	r0, #20
100075a4:	f7fd f906 	bl	100047b4 <critical_section_init>
100075a8:	0020      	movs	r0, r4
100075aa:	f001 fbfd 	bl	10008da8 <tu_fifo_clear>
100075ae:	4b22      	ldr	r3, [pc, #136]	; (10007638 <tud_init+0xcc>)
100075b0:	4f22      	ldr	r7, [pc, #136]	; (1000763c <tud_init+0xd0>)
100075b2:	601c      	str	r4, [r3, #0]
100075b4:	4b22      	ldr	r3, [pc, #136]	; (10007640 <tud_init+0xd4>)
100075b6:	4698      	mov	r8, r3
100075b8:	2b00      	cmp	r3, #0
100075ba:	d004      	beq.n	100075c6 <tud_init+0x5a>
100075bc:	0038      	movs	r0, r7
100075be:	f7ff faf3 	bl	10006ba8 <usbd_app_driver_get_cb>
100075c2:	4b20      	ldr	r3, [pc, #128]	; (10007644 <tud_init+0xd8>)
100075c4:	6018      	str	r0, [r3, #0]
100075c6:	4642      	mov	r2, r8
100075c8:	2400      	movs	r4, #0
100075ca:	783b      	ldrb	r3, [r7, #0]
100075cc:	2a00      	cmp	r2, #0
100075ce:	d022      	beq.n	10007616 <tud_init+0xaa>
100075d0:	4a1d      	ldr	r2, [pc, #116]	; (10007648 <tud_init+0xdc>)
100075d2:	4690      	mov	r8, r2
100075d4:	4a1b      	ldr	r2, [pc, #108]	; (10007644 <tud_init+0xd8>)
100075d6:	4691      	mov	r9, r2
100075d8:	42a3      	cmp	r3, r4
100075da:	d812      	bhi.n	10007602 <tud_init+0x96>
100075dc:	d10f      	bne.n	100075fe <tud_init+0x92>
100075de:	4643      	mov	r3, r8
100075e0:	4798      	blx	r3
100075e2:	3401      	adds	r4, #1
100075e4:	783b      	ldrb	r3, [r7, #0]
100075e6:	b2e4      	uxtb	r4, r4
100075e8:	42a3      	cmp	r3, r4
100075ea:	d2f5      	bcs.n	100075d8 <tud_init+0x6c>
100075ec:	0028      	movs	r0, r5
100075ee:	7035      	strb	r5, [r6, #0]
100075f0:	f7ff fe2c 	bl	1000724c <dcd_init>
100075f4:	0028      	movs	r0, r5
100075f6:	f7ff fe11 	bl	1000721c <dcd_int_enable>
100075fa:	2001      	movs	r0, #1
100075fc:	e7c0      	b.n	10007580 <tud_init+0x14>
100075fe:	2000      	movs	r0, #0
10007600:	e7be      	b.n	10007580 <tud_init+0x14>
10007602:	464a      	mov	r2, r9
10007604:	0063      	lsls	r3, r4, #1
10007606:	6812      	ldr	r2, [r2, #0]
10007608:	191b      	adds	r3, r3, r4
1000760a:	00db      	lsls	r3, r3, #3
1000760c:	18d3      	adds	r3, r2, r3
1000760e:	2b00      	cmp	r3, #0
10007610:	d0f5      	beq.n	100075fe <tud_init+0x92>
10007612:	681b      	ldr	r3, [r3, #0]
10007614:	e7e4      	b.n	100075e0 <tud_init+0x74>
10007616:	f000 ff0f 	bl	10008438 <cdcd_init>
1000761a:	783b      	ldrb	r3, [r7, #0]
1000761c:	2000      	movs	r0, #0
1000761e:	2b00      	cmp	r3, #0
10007620:	d1ae      	bne.n	10007580 <tud_init+0x14>
10007622:	e7e3      	b.n	100075ec <tud_init+0x80>
10007624:	20000eac 	.word	0x20000eac
10007628:	20001a34 	.word	0x20001a34
1000762c:	200019ec 	.word	0x200019ec
10007630:	20001a88 	.word	0x20001a88
10007634:	20000e90 	.word	0x20000e90
10007638:	20001a8c 	.word	0x20001a8c
1000763c:	2000219b 	.word	0x2000219b
10007640:	10006ba9 	.word	0x10006ba9
10007644:	2000170c 	.word	0x2000170c
10007648:	10008439 	.word	0x10008439

1000764c <tud_task_ext>:
1000764c:	b5f0      	push	{r4, r5, r6, r7, lr}
1000764e:	46de      	mov	lr, fp
10007650:	4657      	mov	r7, sl
10007652:	464e      	mov	r6, r9
10007654:	4645      	mov	r5, r8
10007656:	b5e0      	push	{r5, r6, r7, lr}
10007658:	b08d      	sub	sp, #52	; 0x34
1000765a:	f001 f8d1 	bl	10008800 <tusb_inited>
1000765e:	2800      	cmp	r0, #0
10007660:	d100      	bne.n	10007664 <tud_task_ext+0x18>
10007662:	e114      	b.n	1000788e <tud_task_ext+0x242>
10007664:	4bcc      	ldr	r3, [pc, #816]	; (10007998 <tud_task_ext+0x34c>)
10007666:	4dcd      	ldr	r5, [pc, #820]	; (1000799c <tud_task_ext+0x350>)
10007668:	4699      	mov	r9, r3
1000766a:	4bcd      	ldr	r3, [pc, #820]	; (100079a0 <tud_task_ext+0x354>)
1000766c:	46ca      	mov	sl, r9
1000766e:	001f      	movs	r7, r3
10007670:	ac09      	add	r4, sp, #36	; 0x24
10007672:	682e      	ldr	r6, [r5, #0]
10007674:	6972      	ldr	r2, [r6, #20]
10007676:	f3ef 8110 	mrs	r1, PRIMASK
1000767a:	b672      	cpsid	i
1000767c:	6813      	ldr	r3, [r2, #0]
1000767e:	2b00      	cmp	r3, #0
10007680:	d0fc      	beq.n	1000767c <tud_task_ext+0x30>
10007682:	f3bf 8f5f 	dmb	sy
10007686:	61b1      	str	r1, [r6, #24]
10007688:	0030      	movs	r0, r6
1000768a:	0021      	movs	r1, r4
1000768c:	f001 f9d4 	bl	10008a38 <tu_fifo_read>
10007690:	6972      	ldr	r2, [r6, #20]
10007692:	69b3      	ldr	r3, [r6, #24]
10007694:	f3bf 8f5f 	dmb	sy
10007698:	2100      	movs	r1, #0
1000769a:	6011      	str	r1, [r2, #0]
1000769c:	f383 8810 	msr	PRIMASK, r3
100076a0:	2800      	cmp	r0, #0
100076a2:	d100      	bne.n	100076a6 <tud_task_ext+0x5a>
100076a4:	e0f3      	b.n	1000788e <tud_task_ext+0x242>
100076a6:	7863      	ldrb	r3, [r4, #1]
100076a8:	2b08      	cmp	r3, #8
100076aa:	d8e2      	bhi.n	10007672 <tud_task_ext+0x26>
100076ac:	4652      	mov	r2, sl
100076ae:	009b      	lsls	r3, r3, #2
100076b0:	58d3      	ldr	r3, [r2, r3]
100076b2:	469f      	mov	pc, r3
100076b4:	6863      	ldr	r3, [r4, #4]
100076b6:	2b00      	cmp	r3, #0
100076b8:	d0db      	beq.n	10007672 <tud_task_ext+0x26>
100076ba:	68a0      	ldr	r0, [r4, #8]
100076bc:	4798      	blx	r3
100076be:	e7d8      	b.n	10007672 <tud_task_ext+0x26>
100076c0:	207f      	movs	r0, #127	; 0x7f
100076c2:	7921      	ldrb	r1, [r4, #4]
100076c4:	4eb6      	ldr	r6, [pc, #728]	; (100079a0 <tud_task_ext+0x354>)
100076c6:	4008      	ands	r0, r1
100076c8:	0043      	lsls	r3, r0, #1
100076ca:	18f3      	adds	r3, r6, r3
100076cc:	4698      	mov	r8, r3
100076ce:	09ca      	lsrs	r2, r1, #7
100076d0:	4490      	add	r8, r2
100076d2:	4646      	mov	r6, r8
100076d4:	2301      	movs	r3, #1
100076d6:	3630      	adds	r6, #48	; 0x30
100076d8:	78f2      	ldrb	r2, [r6, #3]
100076da:	439a      	bics	r2, r3
100076dc:	70f2      	strb	r2, [r6, #3]
100076de:	78f2      	ldrb	r2, [r6, #3]
100076e0:	3303      	adds	r3, #3
100076e2:	439a      	bics	r2, r3
100076e4:	70f2      	strb	r2, [r6, #3]
100076e6:	2800      	cmp	r0, #0
100076e8:	d100      	bne.n	100076ec <tud_task_ext+0xa0>
100076ea:	e0f3      	b.n	100078d4 <tud_task_ext+0x288>
100076ec:	4643      	mov	r3, r8
100076ee:	4aad      	ldr	r2, [pc, #692]	; (100079a4 <tud_task_ext+0x358>)
100076f0:	7cdb      	ldrb	r3, [r3, #19]
100076f2:	2a00      	cmp	r2, #0
100076f4:	d006      	beq.n	10007704 <tud_task_ext+0xb8>
100076f6:	4aac      	ldr	r2, [pc, #688]	; (100079a8 <tud_task_ext+0x35c>)
100076f8:	7812      	ldrb	r2, [r2, #0]
100076fa:	4293      	cmp	r3, r2
100076fc:	d200      	bcs.n	10007700 <tud_task_ext+0xb4>
100076fe:	e167      	b.n	100079d0 <tud_task_ext+0x384>
10007700:	1a9b      	subs	r3, r3, r2
10007702:	b2db      	uxtb	r3, r3
10007704:	2b00      	cmp	r3, #0
10007706:	d000      	beq.n	1000770a <tud_task_ext+0xbe>
10007708:	e0c1      	b.n	1000788e <tud_task_ext+0x242>
1000770a:	4ea8      	ldr	r6, [pc, #672]	; (100079ac <tud_task_ext+0x360>)
1000770c:	68a3      	ldr	r3, [r4, #8]
1000770e:	7962      	ldrb	r2, [r4, #5]
10007710:	7820      	ldrb	r0, [r4, #0]
10007712:	47b0      	blx	r6
10007714:	e7ad      	b.n	10007672 <tud_task_ext+0x26>
10007716:	2201      	movs	r2, #1
10007718:	783b      	ldrb	r3, [r7, #0]
1000771a:	2101      	movs	r1, #1
1000771c:	4313      	orrs	r3, r2
1000771e:	703b      	strb	r3, [r7, #0]
10007720:	2333      	movs	r3, #51	; 0x33
10007722:	2004      	movs	r0, #4
10007724:	5cfa      	ldrb	r2, [r7, r3]
10007726:	438a      	bics	r2, r1
10007728:	54fa      	strb	r2, [r7, r3]
1000772a:	5cfa      	ldrb	r2, [r7, r3]
1000772c:	4382      	bics	r2, r0
1000772e:	54fa      	strb	r2, [r7, r3]
10007730:	3301      	adds	r3, #1
10007732:	5cfa      	ldrb	r2, [r7, r3]
10007734:	438a      	bics	r2, r1
10007736:	54fa      	strb	r2, [r7, r3]
10007738:	5cfa      	ldrb	r2, [r7, r3]
1000773a:	4382      	bics	r2, r0
1000773c:	54fa      	strb	r2, [r7, r3]
1000773e:	7823      	ldrb	r3, [r4, #0]
10007740:	2000      	movs	r0, #0
10007742:	469b      	mov	fp, r3
10007744:	f000 fd26 	bl	10008194 <usbd_control_set_complete_callback>
10007748:	2260      	movs	r2, #96	; 0x60
1000774a:	7923      	ldrb	r3, [r4, #4]
1000774c:	401a      	ands	r2, r3
1000774e:	2a60      	cmp	r2, #96	; 0x60
10007750:	d00d      	beq.n	1000776e <tud_task_ext+0x122>
10007752:	2a40      	cmp	r2, #64	; 0x40
10007754:	d100      	bne.n	10007758 <tud_task_ext+0x10c>
10007756:	e0c3      	b.n	100078e0 <tud_task_ext+0x294>
10007758:	06db      	lsls	r3, r3, #27
1000775a:	0edb      	lsrs	r3, r3, #27
1000775c:	2b01      	cmp	r3, #1
1000775e:	d100      	bne.n	10007762 <tud_task_ext+0x116>
10007760:	e141      	b.n	100079e6 <tud_task_ext+0x39a>
10007762:	2b02      	cmp	r3, #2
10007764:	d100      	bne.n	10007768 <tud_task_ext+0x11c>
10007766:	e0d8      	b.n	1000791a <tud_task_ext+0x2ce>
10007768:	2b00      	cmp	r3, #0
1000776a:	d100      	bne.n	1000776e <tud_task_ext+0x122>
1000776c:	e0c7      	b.n	100078fe <tud_task_ext+0x2b2>
1000776e:	7820      	ldrb	r0, [r4, #0]
10007770:	2100      	movs	r1, #0
10007772:	f7ff fe5f 	bl	10007434 <dcd_edpt_stall>
10007776:	2180      	movs	r1, #128	; 0x80
10007778:	7820      	ldrb	r0, [r4, #0]
1000777a:	f7ff fe5b 	bl	10007434 <dcd_edpt_stall>
1000777e:	e778      	b.n	10007672 <tud_task_ext+0x26>
10007780:	4e87      	ldr	r6, [pc, #540]	; (100079a0 <tud_task_ext+0x354>)
10007782:	7833      	ldrb	r3, [r6, #0]
10007784:	07db      	lsls	r3, r3, #31
10007786:	d400      	bmi.n	1000778a <tud_task_ext+0x13e>
10007788:	e773      	b.n	10007672 <tud_task_ext+0x26>
1000778a:	4b89      	ldr	r3, [pc, #548]	; (100079b0 <tud_task_ext+0x364>)
1000778c:	2b00      	cmp	r3, #0
1000778e:	d100      	bne.n	10007792 <tud_task_ext+0x146>
10007790:	e76f      	b.n	10007672 <tud_task_ext+0x26>
10007792:	e000      	b.n	10007796 <tud_task_ext+0x14a>
10007794:	bf00      	nop
10007796:	e76c      	b.n	10007672 <tud_task_ext+0x26>
10007798:	4e81      	ldr	r6, [pc, #516]	; (100079a0 <tud_task_ext+0x354>)
1000779a:	7833      	ldrb	r3, [r6, #0]
1000779c:	07db      	lsls	r3, r3, #31
1000779e:	d400      	bmi.n	100077a2 <tud_task_ext+0x156>
100077a0:	e767      	b.n	10007672 <tud_task_ext+0x26>
100077a2:	4b84      	ldr	r3, [pc, #528]	; (100079b4 <tud_task_ext+0x368>)
100077a4:	2b00      	cmp	r3, #0
100077a6:	d100      	bne.n	100077aa <tud_task_ext+0x15e>
100077a8:	e763      	b.n	10007672 <tud_task_ext+0x26>
100077aa:	7830      	ldrb	r0, [r6, #0]
100077ac:	0700      	lsls	r0, r0, #28
100077ae:	0fc0      	lsrs	r0, r0, #31
100077b0:	e000      	b.n	100077b4 <tud_task_ext+0x168>
100077b2:	bf00      	nop
100077b4:	e75d      	b.n	10007672 <tud_task_ext+0x26>
100077b6:	7823      	ldrb	r3, [r4, #0]
100077b8:	4a7a      	ldr	r2, [pc, #488]	; (100079a4 <tud_task_ext+0x358>)
100077ba:	4699      	mov	r9, r3
100077bc:	4b7a      	ldr	r3, [pc, #488]	; (100079a8 <tud_task_ext+0x35c>)
100077be:	2600      	movs	r6, #0
100077c0:	4698      	mov	r8, r3
100077c2:	781b      	ldrb	r3, [r3, #0]
100077c4:	2a00      	cmp	r2, #0
100077c6:	d100      	bne.n	100077ca <tud_task_ext+0x17e>
100077c8:	e07c      	b.n	100078c4 <tud_task_ext+0x278>
100077ca:	4a7b      	ldr	r2, [pc, #492]	; (100079b8 <tud_task_ext+0x36c>)
100077cc:	9200      	str	r2, [sp, #0]
100077ce:	4a7b      	ldr	r2, [pc, #492]	; (100079bc <tud_task_ext+0x370>)
100077d0:	4693      	mov	fp, r2
100077d2:	429e      	cmp	r6, r3
100077d4:	d362      	bcc.n	1000789c <tud_task_ext+0x250>
100077d6:	d119      	bne.n	1000780c <tud_task_ext+0x1c0>
100077d8:	9b00      	ldr	r3, [sp, #0]
100077da:	4648      	mov	r0, r9
100077dc:	4798      	blx	r3
100077de:	4643      	mov	r3, r8
100077e0:	3601      	adds	r6, #1
100077e2:	781b      	ldrb	r3, [r3, #0]
100077e4:	b2f6      	uxtb	r6, r6
100077e6:	42b3      	cmp	r3, r6
100077e8:	d2f3      	bcs.n	100077d2 <tud_task_ext+0x186>
100077ea:	4e6d      	ldr	r6, [pc, #436]	; (100079a0 <tud_task_ext+0x354>)
100077ec:	2253      	movs	r2, #83	; 0x53
100077ee:	2100      	movs	r1, #0
100077f0:	0030      	movs	r0, r6
100077f2:	f7ff f815 	bl	10006820 <__wrap_memset>
100077f6:	2210      	movs	r2, #16
100077f8:	21ff      	movs	r1, #255	; 0xff
100077fa:	1cf0      	adds	r0, r6, #3
100077fc:	f7ff f810 	bl	10006820 <__wrap_memset>
10007800:	0030      	movs	r0, r6
10007802:	2220      	movs	r2, #32
10007804:	21ff      	movs	r1, #255	; 0xff
10007806:	3013      	adds	r0, #19
10007808:	f7ff f80a 	bl	10006820 <__wrap_memset>
1000780c:	f000 fcb8 	bl	10008180 <usbd_control_reset>
10007810:	4b6b      	ldr	r3, [pc, #428]	; (100079c0 <tud_task_ext+0x374>)
10007812:	2b00      	cmp	r3, #0
10007814:	d100      	bne.n	10007818 <tud_task_ext+0x1cc>
10007816:	e72c      	b.n	10007672 <tud_task_ext+0x26>
10007818:	e000      	b.n	1000781c <tud_task_ext+0x1d0>
1000781a:	bf00      	nop
1000781c:	e729      	b.n	10007672 <tud_task_ext+0x26>
1000781e:	7823      	ldrb	r3, [r4, #0]
10007820:	4a60      	ldr	r2, [pc, #384]	; (100079a4 <tud_task_ext+0x358>)
10007822:	4699      	mov	r9, r3
10007824:	4b60      	ldr	r3, [pc, #384]	; (100079a8 <tud_task_ext+0x35c>)
10007826:	2600      	movs	r6, #0
10007828:	4698      	mov	r8, r3
1000782a:	781b      	ldrb	r3, [r3, #0]
1000782c:	2a00      	cmp	r2, #0
1000782e:	d021      	beq.n	10007874 <tud_task_ext+0x228>
10007830:	4a61      	ldr	r2, [pc, #388]	; (100079b8 <tud_task_ext+0x36c>)
10007832:	9200      	str	r2, [sp, #0]
10007834:	4a61      	ldr	r2, [pc, #388]	; (100079bc <tud_task_ext+0x370>)
10007836:	4693      	mov	fp, r2
10007838:	429e      	cmp	r6, r3
1000783a:	d339      	bcc.n	100078b0 <tud_task_ext+0x264>
1000783c:	d121      	bne.n	10007882 <tud_task_ext+0x236>
1000783e:	9b00      	ldr	r3, [sp, #0]
10007840:	4648      	mov	r0, r9
10007842:	4798      	blx	r3
10007844:	4643      	mov	r3, r8
10007846:	3601      	adds	r6, #1
10007848:	781b      	ldrb	r3, [r3, #0]
1000784a:	b2f6      	uxtb	r6, r6
1000784c:	42b3      	cmp	r3, r6
1000784e:	d2f3      	bcs.n	10007838 <tud_task_ext+0x1ec>
10007850:	4e53      	ldr	r6, [pc, #332]	; (100079a0 <tud_task_ext+0x354>)
10007852:	2253      	movs	r2, #83	; 0x53
10007854:	2100      	movs	r1, #0
10007856:	0030      	movs	r0, r6
10007858:	f7fe ffe2 	bl	10006820 <__wrap_memset>
1000785c:	2210      	movs	r2, #16
1000785e:	21ff      	movs	r1, #255	; 0xff
10007860:	1cf0      	adds	r0, r6, #3
10007862:	f7fe ffdd 	bl	10006820 <__wrap_memset>
10007866:	0030      	movs	r0, r6
10007868:	2220      	movs	r2, #32
1000786a:	21ff      	movs	r1, #255	; 0xff
1000786c:	3013      	adds	r0, #19
1000786e:	f7fe ffd7 	bl	10006820 <__wrap_memset>
10007872:	e007      	b.n	10007884 <tud_task_ext+0x238>
10007874:	4648      	mov	r0, r9
10007876:	f000 fe1d 	bl	100084b4 <cdcd_reset>
1000787a:	4643      	mov	r3, r8
1000787c:	781b      	ldrb	r3, [r3, #0]
1000787e:	2b00      	cmp	r3, #0
10007880:	d0e6      	beq.n	10007850 <tud_task_ext+0x204>
10007882:	4e47      	ldr	r6, [pc, #284]	; (100079a0 <tud_task_ext+0x354>)
10007884:	f000 fc7c 	bl	10008180 <usbd_control_reset>
10007888:	7923      	ldrb	r3, [r4, #4]
1000788a:	70b3      	strb	r3, [r6, #2]
1000788c:	e6f1      	b.n	10007672 <tud_task_ext+0x26>
1000788e:	b00d      	add	sp, #52	; 0x34
10007890:	bcf0      	pop	{r4, r5, r6, r7}
10007892:	46bb      	mov	fp, r7
10007894:	46b2      	mov	sl, r6
10007896:	46a9      	mov	r9, r5
10007898:	46a0      	mov	r8, r4
1000789a:	bdf0      	pop	{r4, r5, r6, r7, pc}
1000789c:	465a      	mov	r2, fp
1000789e:	0073      	lsls	r3, r6, #1
100078a0:	6812      	ldr	r2, [r2, #0]
100078a2:	199b      	adds	r3, r3, r6
100078a4:	00db      	lsls	r3, r3, #3
100078a6:	18d3      	adds	r3, r2, r3
100078a8:	2b00      	cmp	r3, #0
100078aa:	d0af      	beq.n	1000780c <tud_task_ext+0x1c0>
100078ac:	685b      	ldr	r3, [r3, #4]
100078ae:	e794      	b.n	100077da <tud_task_ext+0x18e>
100078b0:	465a      	mov	r2, fp
100078b2:	0073      	lsls	r3, r6, #1
100078b4:	6812      	ldr	r2, [r2, #0]
100078b6:	199b      	adds	r3, r3, r6
100078b8:	00db      	lsls	r3, r3, #3
100078ba:	18d3      	adds	r3, r2, r3
100078bc:	2b00      	cmp	r3, #0
100078be:	d0e0      	beq.n	10007882 <tud_task_ext+0x236>
100078c0:	685b      	ldr	r3, [r3, #4]
100078c2:	e7bd      	b.n	10007840 <tud_task_ext+0x1f4>
100078c4:	4648      	mov	r0, r9
100078c6:	f000 fdf5 	bl	100084b4 <cdcd_reset>
100078ca:	4643      	mov	r3, r8
100078cc:	781b      	ldrb	r3, [r3, #0]
100078ce:	2b00      	cmp	r3, #0
100078d0:	d19c      	bne.n	1000780c <tud_task_ext+0x1c0>
100078d2:	e78a      	b.n	100077ea <tud_task_ext+0x19e>
100078d4:	68a3      	ldr	r3, [r4, #8]
100078d6:	7962      	ldrb	r2, [r4, #5]
100078d8:	7820      	ldrb	r0, [r4, #0]
100078da:	f000 fc6f 	bl	100081bc <usbd_control_xfer_cb>
100078de:	e6c8      	b.n	10007672 <tud_task_ext+0x26>
100078e0:	4838      	ldr	r0, [pc, #224]	; (100079c4 <tud_task_ext+0x378>)
100078e2:	2800      	cmp	r0, #0
100078e4:	d100      	bne.n	100078e8 <tud_task_ext+0x29c>
100078e6:	e742      	b.n	1000776e <tud_task_ext+0x122>
100078e8:	f000 fc54 	bl	10008194 <usbd_control_set_complete_callback>
100078ec:	2101      	movs	r1, #1
100078ee:	4658      	mov	r0, fp
100078f0:	aa0a      	add	r2, sp, #40	; 0x28
100078f2:	e000      	b.n	100078f6 <tud_task_ext+0x2aa>
100078f4:	bf00      	nop
100078f6:	2800      	cmp	r0, #0
100078f8:	d000      	beq.n	100078fc <tud_task_ext+0x2b0>
100078fa:	e6ba      	b.n	10007672 <tud_task_ext+0x26>
100078fc:	e737      	b.n	1000776e <tud_task_ext+0x122>
100078fe:	2a20      	cmp	r2, #32
10007900:	d100      	bne.n	10007904 <tud_task_ext+0x2b8>
10007902:	e0a5      	b.n	10007a50 <tud_task_ext+0x404>
10007904:	2a00      	cmp	r2, #0
10007906:	d000      	beq.n	1000790a <tud_task_ext+0x2be>
10007908:	e731      	b.n	1000776e <tud_task_ext+0x122>
1000790a:	7963      	ldrb	r3, [r4, #5]
1000790c:	2b09      	cmp	r3, #9
1000790e:	d900      	bls.n	10007912 <tud_task_ext+0x2c6>
10007910:	e72d      	b.n	1000776e <tud_task_ext+0x122>
10007912:	4a2d      	ldr	r2, [pc, #180]	; (100079c8 <tud_task_ext+0x37c>)
10007914:	009b      	lsls	r3, r3, #2
10007916:	58d3      	ldr	r3, [r2, r3]
10007918:	469f      	mov	pc, r3
1000791a:	2370      	movs	r3, #112	; 0x70
1000791c:	7a21      	ldrb	r1, [r4, #8]
1000791e:	420b      	tst	r3, r1
10007920:	d000      	beq.n	10007924 <tud_task_ext+0x2d8>
10007922:	e724      	b.n	1000776e <tud_task_ext+0x122>
10007924:	330f      	adds	r3, #15
10007926:	400b      	ands	r3, r1
10007928:	005b      	lsls	r3, r3, #1
1000792a:	09ce      	lsrs	r6, r1, #7
1000792c:	18f8      	adds	r0, r7, r3
1000792e:	1980      	adds	r0, r0, r6
10007930:	7cc0      	ldrb	r0, [r0, #19]
10007932:	9300      	str	r3, [sp, #0]
10007934:	4684      	mov	ip, r0
10007936:	481b      	ldr	r0, [pc, #108]	; (100079a4 <tud_task_ext+0x358>)
10007938:	2800      	cmp	r0, #0
1000793a:	d008      	beq.n	1000794e <tud_task_ext+0x302>
1000793c:	481a      	ldr	r0, [pc, #104]	; (100079a8 <tud_task_ext+0x35c>)
1000793e:	7800      	ldrb	r0, [r0, #0]
10007940:	4584      	cmp	ip, r0
10007942:	d200      	bcs.n	10007946 <tud_task_ext+0x2fa>
10007944:	e0a7      	b.n	10007a96 <tud_task_ext+0x44a>
10007946:	4663      	mov	r3, ip
10007948:	1a18      	subs	r0, r3, r0
1000794a:	b2c3      	uxtb	r3, r0
1000794c:	469c      	mov	ip, r3
1000794e:	4660      	mov	r0, ip
10007950:	2800      	cmp	r0, #0
10007952:	d000      	beq.n	10007956 <tud_task_ext+0x30a>
10007954:	e099      	b.n	10007a8a <tud_task_ext+0x43e>
10007956:	2a00      	cmp	r2, #0
10007958:	d000      	beq.n	1000795c <tud_task_ext+0x310>
1000795a:	e159      	b.n	10007c10 <tud_task_ext+0x5c4>
1000795c:	4b1b      	ldr	r3, [pc, #108]	; (100079cc <tud_task_ext+0x380>)
1000795e:	4698      	mov	r8, r3
10007960:	7963      	ldrb	r3, [r4, #5]
10007962:	001a      	movs	r2, r3
10007964:	4699      	mov	r9, r3
10007966:	2302      	movs	r3, #2
10007968:	439a      	bics	r2, r3
1000796a:	2a01      	cmp	r2, #1
1000796c:	d100      	bne.n	10007970 <tud_task_ext+0x324>
1000796e:	e153      	b.n	10007c18 <tud_task_ext+0x5cc>
10007970:	464b      	mov	r3, r9
10007972:	2b00      	cmp	r3, #0
10007974:	d000      	beq.n	10007978 <tud_task_ext+0x32c>
10007976:	e6fa      	b.n	1000776e <tud_task_ext+0x122>
10007978:	9b00      	ldr	r3, [sp, #0]
1000797a:	aa08      	add	r2, sp, #32
1000797c:	18fb      	adds	r3, r7, r3
1000797e:	199b      	adds	r3, r3, r6
10007980:	3330      	adds	r3, #48	; 0x30
10007982:	78db      	ldrb	r3, [r3, #3]
10007984:	3202      	adds	r2, #2
10007986:	079b      	lsls	r3, r3, #30
10007988:	0fdb      	lsrs	r3, r3, #31
1000798a:	8013      	strh	r3, [r2, #0]
1000798c:	4658      	mov	r0, fp
1000798e:	2302      	movs	r3, #2
10007990:	a90a      	add	r1, sp, #40	; 0x28
10007992:	f000 fb9f 	bl	100080d4 <tud_control_xfer>
10007996:	e66c      	b.n	10007672 <tud_task_ext+0x26>
10007998:	1000993c 	.word	0x1000993c
1000799c:	20001a8c 	.word	0x20001a8c
100079a0:	20001a34 	.word	0x20001a34
100079a4:	10006ba9 	.word	0x10006ba9
100079a8:	2000219b 	.word	0x2000219b
100079ac:	100086ad 	.word	0x100086ad
	...
100079b8:	100084b5 	.word	0x100084b5
100079bc:	2000170c 	.word	0x2000170c
	...
100079c8:	10009960 	.word	0x10009960
100079cc:	100099c8 	.word	0x100099c8
100079d0:	4abd      	ldr	r2, [pc, #756]	; (10007cc8 <tud_task_ext+0x67c>)
100079d2:	0058      	lsls	r0, r3, #1
100079d4:	6812      	ldr	r2, [r2, #0]
100079d6:	18c3      	adds	r3, r0, r3
100079d8:	00db      	lsls	r3, r3, #3
100079da:	18d3      	adds	r3, r2, r3
100079dc:	2b00      	cmp	r3, #0
100079de:	d100      	bne.n	100079e2 <tud_task_ext+0x396>
100079e0:	e755      	b.n	1000788e <tud_task_ext+0x242>
100079e2:	691e      	ldr	r6, [r3, #16]
100079e4:	e692      	b.n	1000770c <tud_task_ext+0xc0>
100079e6:	7a23      	ldrb	r3, [r4, #8]
100079e8:	2b0f      	cmp	r3, #15
100079ea:	d900      	bls.n	100079ee <tud_task_ext+0x3a2>
100079ec:	e6bf      	b.n	1000776e <tud_task_ext+0x122>
100079ee:	4ab7      	ldr	r2, [pc, #732]	; (10007ccc <tud_task_ext+0x680>)
100079f0:	18fb      	adds	r3, r7, r3
100079f2:	78db      	ldrb	r3, [r3, #3]
100079f4:	2a00      	cmp	r2, #0
100079f6:	d005      	beq.n	10007a04 <tud_task_ext+0x3b8>
100079f8:	4ab5      	ldr	r2, [pc, #724]	; (10007cd0 <tud_task_ext+0x684>)
100079fa:	7812      	ldrb	r2, [r2, #0]
100079fc:	4293      	cmp	r3, r2
100079fe:	d365      	bcc.n	10007acc <tud_task_ext+0x480>
10007a00:	1a9b      	subs	r3, r3, r2
10007a02:	b2db      	uxtb	r3, r3
10007a04:	2b00      	cmp	r3, #0
10007a06:	d000      	beq.n	10007a0a <tud_task_ext+0x3be>
10007a08:	e6b1      	b.n	1000776e <tud_task_ext+0x122>
10007a0a:	48b2      	ldr	r0, [pc, #712]	; (10007cd4 <tud_task_ext+0x688>)
10007a0c:	4eb2      	ldr	r6, [pc, #712]	; (10007cd8 <tud_task_ext+0x68c>)
10007a0e:	f000 fbc1 	bl	10008194 <usbd_control_set_complete_callback>
10007a12:	2101      	movs	r1, #1
10007a14:	4658      	mov	r0, fp
10007a16:	68f3      	ldr	r3, [r6, #12]
10007a18:	aa0a      	add	r2, sp, #40	; 0x28
10007a1a:	4798      	blx	r3
10007a1c:	2800      	cmp	r0, #0
10007a1e:	d000      	beq.n	10007a22 <tud_task_ext+0x3d6>
10007a20:	e627      	b.n	10007672 <tud_task_ext+0x26>
10007a22:	2260      	movs	r2, #96	; 0x60
10007a24:	0016      	movs	r6, r2
10007a26:	7923      	ldrb	r3, [r4, #4]
10007a28:	401e      	ands	r6, r3
10007a2a:	421a      	tst	r2, r3
10007a2c:	d000      	beq.n	10007a30 <tud_task_ext+0x3e4>
10007a2e:	e69e      	b.n	1000776e <tud_task_ext+0x122>
10007a30:	7963      	ldrb	r3, [r4, #5]
10007a32:	3b0a      	subs	r3, #10
10007a34:	2b01      	cmp	r3, #1
10007a36:	d900      	bls.n	10007a3a <tud_task_ext+0x3ee>
10007a38:	e699      	b.n	1000776e <tud_task_ext+0x122>
10007a3a:	f000 fbab 	bl	10008194 <usbd_control_set_complete_callback>
10007a3e:	7963      	ldrb	r3, [r4, #5]
10007a40:	2b0a      	cmp	r3, #10
10007a42:	d100      	bne.n	10007a46 <tud_task_ext+0x3fa>
10007a44:	e137      	b.n	10007cb6 <tud_task_ext+0x66a>
10007a46:	4658      	mov	r0, fp
10007a48:	a90a      	add	r1, sp, #40	; 0x28
10007a4a:	f000 fb2d 	bl	100080a8 <tud_control_status>
10007a4e:	e610      	b.n	10007672 <tud_task_ext+0x26>
10007a50:	7a23      	ldrb	r3, [r4, #8]
10007a52:	2b0f      	cmp	r3, #15
10007a54:	d900      	bls.n	10007a58 <tud_task_ext+0x40c>
10007a56:	e68a      	b.n	1000776e <tud_task_ext+0x122>
10007a58:	4a9c      	ldr	r2, [pc, #624]	; (10007ccc <tud_task_ext+0x680>)
10007a5a:	18fb      	adds	r3, r7, r3
10007a5c:	78db      	ldrb	r3, [r3, #3]
10007a5e:	2a00      	cmp	r2, #0
10007a60:	d006      	beq.n	10007a70 <tud_task_ext+0x424>
10007a62:	4a9b      	ldr	r2, [pc, #620]	; (10007cd0 <tud_task_ext+0x684>)
10007a64:	7812      	ldrb	r2, [r2, #0]
10007a66:	4293      	cmp	r3, r2
10007a68:	d200      	bcs.n	10007a6c <tud_task_ext+0x420>
10007a6a:	e0f8      	b.n	10007c5e <tud_task_ext+0x612>
10007a6c:	1a9b      	subs	r3, r3, r2
10007a6e:	b2db      	uxtb	r3, r3
10007a70:	2b00      	cmp	r3, #0
10007a72:	d000      	beq.n	10007a76 <tud_task_ext+0x42a>
10007a74:	e67b      	b.n	1000776e <tud_task_ext+0x122>
10007a76:	4897      	ldr	r0, [pc, #604]	; (10007cd4 <tud_task_ext+0x688>)
10007a78:	4e97      	ldr	r6, [pc, #604]	; (10007cd8 <tud_task_ext+0x68c>)
10007a7a:	f000 fb8b 	bl	10008194 <usbd_control_set_complete_callback>
10007a7e:	2101      	movs	r1, #1
10007a80:	4658      	mov	r0, fp
10007a82:	68f3      	ldr	r3, [r6, #12]
10007a84:	aa0a      	add	r2, sp, #40	; 0x28
10007a86:	4798      	blx	r3
10007a88:	e735      	b.n	100078f6 <tud_task_ext+0x2aa>
10007a8a:	2a00      	cmp	r2, #0
10007a8c:	d000      	beq.n	10007a90 <tud_task_ext+0x444>
10007a8e:	e66e      	b.n	1000776e <tud_task_ext+0x122>
10007a90:	2300      	movs	r3, #0
10007a92:	4698      	mov	r8, r3
10007a94:	e764      	b.n	10007960 <tud_task_ext+0x314>
10007a96:	4663      	mov	r3, ip
10007a98:	005b      	lsls	r3, r3, #1
10007a9a:	4698      	mov	r8, r3
10007a9c:	44e0      	add	r8, ip
10007a9e:	4643      	mov	r3, r8
10007aa0:	00db      	lsls	r3, r3, #3
10007aa2:	4698      	mov	r8, r3
10007aa4:	4888      	ldr	r0, [pc, #544]	; (10007cc8 <tud_task_ext+0x67c>)
10007aa6:	6800      	ldr	r0, [r0, #0]
10007aa8:	4480      	add	r8, r0
10007aaa:	2a00      	cmp	r2, #0
10007aac:	d100      	bne.n	10007ab0 <tud_task_ext+0x464>
10007aae:	e757      	b.n	10007960 <tud_task_ext+0x314>
10007ab0:	4643      	mov	r3, r8
10007ab2:	2b00      	cmp	r3, #0
10007ab4:	d100      	bne.n	10007ab8 <tud_task_ext+0x46c>
10007ab6:	e65a      	b.n	1000776e <tud_task_ext+0x122>
10007ab8:	68d8      	ldr	r0, [r3, #12]
10007aba:	f000 fb6b 	bl	10008194 <usbd_control_set_complete_callback>
10007abe:	4643      	mov	r3, r8
10007ac0:	2101      	movs	r1, #1
10007ac2:	4658      	mov	r0, fp
10007ac4:	68db      	ldr	r3, [r3, #12]
10007ac6:	aa0a      	add	r2, sp, #40	; 0x28
10007ac8:	4798      	blx	r3
10007aca:	e714      	b.n	100078f6 <tud_task_ext+0x2aa>
10007acc:	4a7e      	ldr	r2, [pc, #504]	; (10007cc8 <tud_task_ext+0x67c>)
10007ace:	0059      	lsls	r1, r3, #1
10007ad0:	6816      	ldr	r6, [r2, #0]
10007ad2:	18cb      	adds	r3, r1, r3
10007ad4:	00db      	lsls	r3, r3, #3
10007ad6:	18f6      	adds	r6, r6, r3
10007ad8:	2e00      	cmp	r6, #0
10007ada:	d100      	bne.n	10007ade <tud_task_ext+0x492>
10007adc:	e647      	b.n	1000776e <tud_task_ext+0x122>
10007ade:	68f0      	ldr	r0, [r6, #12]
10007ae0:	e795      	b.n	10007a0e <tud_task_ext+0x3c2>
10007ae2:	79a3      	ldrb	r3, [r4, #6]
10007ae4:	9302      	str	r3, [sp, #8]
10007ae6:	001a      	movs	r2, r3
10007ae8:	787b      	ldrb	r3, [r7, #1]
10007aea:	429a      	cmp	r2, r3
10007aec:	d007      	beq.n	10007afe <tud_task_ext+0x4b2>
10007aee:	787b      	ldrb	r3, [r7, #1]
10007af0:	2b00      	cmp	r3, #0
10007af2:	d000      	beq.n	10007af6 <tud_task_ext+0x4aa>
10007af4:	e15a      	b.n	10007dac <tud_task_ext+0x760>
10007af6:	9b02      	ldr	r3, [sp, #8]
10007af8:	2b00      	cmp	r3, #0
10007afa:	d000      	beq.n	10007afe <tud_task_ext+0x4b2>
10007afc:	e0f8      	b.n	10007cf0 <tud_task_ext+0x6a4>
10007afe:	9b02      	ldr	r3, [sp, #8]
10007b00:	4658      	mov	r0, fp
10007b02:	a90a      	add	r1, sp, #40	; 0x28
10007b04:	707b      	strb	r3, [r7, #1]
10007b06:	f000 facf 	bl	100080a8 <tud_control_status>
10007b0a:	e5b2      	b.n	10007672 <tud_task_ext+0x26>
10007b0c:	787b      	ldrb	r3, [r7, #1]
10007b0e:	aa08      	add	r2, sp, #32
10007b10:	3202      	adds	r2, #2
10007b12:	7013      	strb	r3, [r2, #0]
10007b14:	4658      	mov	r0, fp
10007b16:	2301      	movs	r3, #1
10007b18:	a90a      	add	r1, sp, #40	; 0x28
10007b1a:	f000 fadb 	bl	100080d4 <tud_control_xfer>
10007b1e:	e5a8      	b.n	10007672 <tud_task_ext+0x26>
10007b20:	88e0      	ldrh	r0, [r4, #6]
10007b22:	0a03      	lsrs	r3, r0, #8
10007b24:	b2c0      	uxtb	r0, r0
10007b26:	2b0f      	cmp	r3, #15
10007b28:	d900      	bls.n	10007b2c <tud_task_ext+0x4e0>
10007b2a:	e620      	b.n	1000776e <tud_task_ext+0x122>
10007b2c:	496b      	ldr	r1, [pc, #428]	; (10007cdc <tud_task_ext+0x690>)
10007b2e:	009a      	lsls	r2, r3, #2
10007b30:	588a      	ldr	r2, [r1, r2]
10007b32:	4697      	mov	pc, r2
10007b34:	a80a      	add	r0, sp, #40	; 0x28
10007b36:	f000 fb33 	bl	100081a0 <usbd_control_set_request>
10007b3a:	4658      	mov	r0, fp
10007b3c:	79a1      	ldrb	r1, [r4, #6]
10007b3e:	f7ff fb73 	bl	10007228 <dcd_set_address>
10007b42:	2202      	movs	r2, #2
10007b44:	783b      	ldrb	r3, [r7, #0]
10007b46:	4313      	orrs	r3, r2
10007b48:	703b      	strb	r3, [r7, #0]
10007b4a:	e592      	b.n	10007672 <tud_task_ext+0x26>
10007b4c:	88e3      	ldrh	r3, [r4, #6]
10007b4e:	2b01      	cmp	r3, #1
10007b50:	d000      	beq.n	10007b54 <tud_task_ext+0x508>
10007b52:	e60c      	b.n	1000776e <tud_task_ext+0x122>
10007b54:	2208      	movs	r2, #8
10007b56:	783b      	ldrb	r3, [r7, #0]
10007b58:	4658      	mov	r0, fp
10007b5a:	4393      	bics	r3, r2
10007b5c:	a90a      	add	r1, sp, #40	; 0x28
10007b5e:	703b      	strb	r3, [r7, #0]
10007b60:	f000 faa2 	bl	100080a8 <tud_control_status>
10007b64:	e585      	b.n	10007672 <tud_task_ext+0x26>
10007b66:	2002      	movs	r0, #2
10007b68:	7839      	ldrb	r1, [r7, #0]
10007b6a:	ab08      	add	r3, sp, #32
10007b6c:	1c9a      	adds	r2, r3, #2
10007b6e:	068b      	lsls	r3, r1, #26
10007b70:	0889      	lsrs	r1, r1, #2
10007b72:	0fdb      	lsrs	r3, r3, #31
10007b74:	4001      	ands	r1, r0
10007b76:	430b      	orrs	r3, r1
10007b78:	e707      	b.n	1000798a <tud_task_ext+0x33e>
10007b7a:	88e3      	ldrh	r3, [r4, #6]
10007b7c:	2b01      	cmp	r3, #1
10007b7e:	d000      	beq.n	10007b82 <tud_task_ext+0x536>
10007b80:	e5f5      	b.n	1000776e <tud_task_ext+0x122>
10007b82:	2208      	movs	r2, #8
10007b84:	783b      	ldrb	r3, [r7, #0]
10007b86:	4658      	mov	r0, fp
10007b88:	4313      	orrs	r3, r2
10007b8a:	a90a      	add	r1, sp, #40	; 0x28
10007b8c:	703b      	strb	r3, [r7, #0]
10007b8e:	f000 fa8b 	bl	100080a8 <tud_control_status>
10007b92:	e56e      	b.n	10007672 <tud_task_ext+0x26>
10007b94:	4b52      	ldr	r3, [pc, #328]	; (10007ce0 <tud_task_ext+0x694>)
10007b96:	2b00      	cmp	r3, #0
10007b98:	d100      	bne.n	10007b9c <tud_task_ext+0x550>
10007b9a:	e5e8      	b.n	1000776e <tud_task_ext+0x122>
10007b9c:	e000      	b.n	10007ba0 <tud_task_ext+0x554>
10007b9e:	bf00      	nop
10007ba0:	1e02      	subs	r2, r0, #0
10007ba2:	d100      	bne.n	10007ba6 <tud_task_ext+0x55a>
10007ba4:	e5e3      	b.n	1000776e <tud_task_ext+0x122>
10007ba6:	78d3      	ldrb	r3, [r2, #3]
10007ba8:	7891      	ldrb	r1, [r2, #2]
10007baa:	021b      	lsls	r3, r3, #8
10007bac:	430b      	orrs	r3, r1
10007bae:	4658      	mov	r0, fp
10007bb0:	a90a      	add	r1, sp, #40	; 0x28
10007bb2:	f000 fa8f 	bl	100080d4 <tud_control_xfer>
10007bb6:	e69e      	b.n	100078f6 <tud_task_ext+0x2aa>
10007bb8:	4b4a      	ldr	r3, [pc, #296]	; (10007ce4 <tud_task_ext+0x698>)
10007bba:	2b00      	cmp	r3, #0
10007bbc:	d100      	bne.n	10007bc0 <tud_task_ext+0x574>
10007bbe:	e5d6      	b.n	1000776e <tud_task_ext+0x122>
10007bc0:	e000      	b.n	10007bc4 <tud_task_ext+0x578>
10007bc2:	bf00      	nop
10007bc4:	1e02      	subs	r2, r0, #0
10007bc6:	d100      	bne.n	10007bca <tud_task_ext+0x57e>
10007bc8:	e5d1      	b.n	1000776e <tud_task_ext+0x122>
10007bca:	4658      	mov	r0, fp
10007bcc:	7813      	ldrb	r3, [r2, #0]
10007bce:	a90a      	add	r1, sp, #40	; 0x28
10007bd0:	f000 fa80 	bl	100080d4 <tud_control_xfer>
10007bd4:	e68f      	b.n	100078f6 <tud_task_ext+0x2aa>
10007bd6:	8921      	ldrh	r1, [r4, #8]
10007bd8:	f7ff f9ea 	bl	10006fb0 <tud_descriptor_string_cb>
10007bdc:	1e02      	subs	r2, r0, #0
10007bde:	d1f4      	bne.n	10007bca <tud_task_ext+0x57e>
10007be0:	e5c5      	b.n	1000776e <tud_task_ext+0x122>
10007be2:	2b02      	cmp	r3, #2
10007be4:	d100      	bne.n	10007be8 <tud_task_ext+0x59c>
10007be6:	e166      	b.n	10007eb6 <tud_task_ext+0x86a>
10007be8:	4b3f      	ldr	r3, [pc, #252]	; (10007ce8 <tud_task_ext+0x69c>)
10007bea:	2b00      	cmp	r3, #0
10007bec:	d100      	bne.n	10007bf0 <tud_task_ext+0x5a4>
10007bee:	e5be      	b.n	1000776e <tud_task_ext+0x122>
10007bf0:	e000      	b.n	10007bf4 <tud_task_ext+0x5a8>
10007bf2:	bf00      	nop
10007bf4:	0002      	movs	r2, r0
10007bf6:	2a00      	cmp	r2, #0
10007bf8:	d100      	bne.n	10007bfc <tud_task_ext+0x5b0>
10007bfa:	e5b8      	b.n	1000776e <tud_task_ext+0x122>
10007bfc:	e7d3      	b.n	10007ba6 <tud_task_ext+0x55a>
10007bfe:	f7ff f9cf 	bl	10006fa0 <tud_descriptor_device_cb>
10007c02:	2312      	movs	r3, #18
10007c04:	0002      	movs	r2, r0
10007c06:	a90a      	add	r1, sp, #40	; 0x28
10007c08:	4658      	mov	r0, fp
10007c0a:	f000 fa63 	bl	100080d4 <tud_control_xfer>
10007c0e:	e672      	b.n	100078f6 <tud_task_ext+0x2aa>
10007c10:	4b31      	ldr	r3, [pc, #196]	; (10007cd8 <tud_task_ext+0x68c>)
10007c12:	4830      	ldr	r0, [pc, #192]	; (10007cd4 <tud_task_ext+0x688>)
10007c14:	4698      	mov	r8, r3
10007c16:	e750      	b.n	10007aba <tud_task_ext+0x46e>
10007c18:	88e2      	ldrh	r2, [r4, #6]
10007c1a:	2a00      	cmp	r2, #0
10007c1c:	d109      	bne.n	10007c32 <tud_task_ext+0x5e6>
10007c1e:	464b      	mov	r3, r9
10007c20:	2b01      	cmp	r3, #1
10007c22:	d027      	beq.n	10007c74 <tud_task_ext+0x628>
10007c24:	9b00      	ldr	r3, [sp, #0]
10007c26:	18fb      	adds	r3, r7, r3
10007c28:	199e      	adds	r6, r3, r6
10007c2a:	3630      	adds	r6, #48	; 0x30
10007c2c:	78f3      	ldrb	r3, [r6, #3]
10007c2e:	079b      	lsls	r3, r3, #30
10007c30:	d534      	bpl.n	10007c9c <tud_task_ext+0x650>
10007c32:	4643      	mov	r3, r8
10007c34:	2b00      	cmp	r3, #0
10007c36:	d100      	bne.n	10007c3a <tud_task_ext+0x5ee>
10007c38:	e51b      	b.n	10007672 <tud_task_ext+0x26>
10007c3a:	68d8      	ldr	r0, [r3, #12]
10007c3c:	f000 faaa 	bl	10008194 <usbd_control_set_complete_callback>
10007c40:	4643      	mov	r3, r8
10007c42:	2101      	movs	r1, #1
10007c44:	68db      	ldr	r3, [r3, #12]
10007c46:	aa0a      	add	r2, sp, #40	; 0x28
10007c48:	4658      	mov	r0, fp
10007c4a:	4798      	blx	r3
10007c4c:	2000      	movs	r0, #0
10007c4e:	f000 faa1 	bl	10008194 <usbd_control_set_complete_callback>
10007c52:	2334      	movs	r3, #52	; 0x34
10007c54:	5cfb      	ldrb	r3, [r7, r3]
10007c56:	07db      	lsls	r3, r3, #31
10007c58:	d500      	bpl.n	10007c5c <tud_task_ext+0x610>
10007c5a:	e50a      	b.n	10007672 <tud_task_ext+0x26>
10007c5c:	e6f3      	b.n	10007a46 <tud_task_ext+0x3fa>
10007c5e:	4a1a      	ldr	r2, [pc, #104]	; (10007cc8 <tud_task_ext+0x67c>)
10007c60:	0059      	lsls	r1, r3, #1
10007c62:	6816      	ldr	r6, [r2, #0]
10007c64:	18cb      	adds	r3, r1, r3
10007c66:	00db      	lsls	r3, r3, #3
10007c68:	18f6      	adds	r6, r6, r3
10007c6a:	2e00      	cmp	r6, #0
10007c6c:	d100      	bne.n	10007c70 <tud_task_ext+0x624>
10007c6e:	e57e      	b.n	1000776e <tud_task_ext+0x122>
10007c70:	68f0      	ldr	r0, [r6, #12]
10007c72:	e702      	b.n	10007a7a <tud_task_ext+0x42e>
10007c74:	9b00      	ldr	r3, [sp, #0]
10007c76:	18fb      	adds	r3, r7, r3
10007c78:	199e      	adds	r6, r3, r6
10007c7a:	3630      	adds	r6, #48	; 0x30
10007c7c:	78f3      	ldrb	r3, [r6, #3]
10007c7e:	079b      	lsls	r3, r3, #30
10007c80:	d5d7      	bpl.n	10007c32 <tud_task_ext+0x5e6>
10007c82:	4b1a      	ldr	r3, [pc, #104]	; (10007cec <tud_task_ext+0x6a0>)
10007c84:	7818      	ldrb	r0, [r3, #0]
10007c86:	f7ff fbf1 	bl	1000746c <dcd_edpt_clear_stall>
10007c8a:	2202      	movs	r2, #2
10007c8c:	78f3      	ldrb	r3, [r6, #3]
10007c8e:	4393      	bics	r3, r2
10007c90:	464a      	mov	r2, r9
10007c92:	70f3      	strb	r3, [r6, #3]
10007c94:	78f3      	ldrb	r3, [r6, #3]
10007c96:	4393      	bics	r3, r2
10007c98:	70f3      	strb	r3, [r6, #3]
10007c9a:	e7ca      	b.n	10007c32 <tud_task_ext+0x5e6>
10007c9c:	4b13      	ldr	r3, [pc, #76]	; (10007cec <tud_task_ext+0x6a0>)
10007c9e:	7818      	ldrb	r0, [r3, #0]
10007ca0:	f7ff fbc8 	bl	10007434 <dcd_edpt_stall>
10007ca4:	2202      	movs	r2, #2
10007ca6:	78f3      	ldrb	r3, [r6, #3]
10007ca8:	4313      	orrs	r3, r2
10007caa:	2201      	movs	r2, #1
10007cac:	70f3      	strb	r3, [r6, #3]
10007cae:	78f3      	ldrb	r3, [r6, #3]
10007cb0:	4313      	orrs	r3, r2
10007cb2:	70f3      	strb	r3, [r6, #3]
10007cb4:	e7bd      	b.n	10007c32 <tud_task_ext+0x5e6>
10007cb6:	ab08      	add	r3, sp, #32
10007cb8:	1c9a      	adds	r2, r3, #2
10007cba:	4658      	mov	r0, fp
10007cbc:	2301      	movs	r3, #1
10007cbe:	a90a      	add	r1, sp, #40	; 0x28
10007cc0:	7016      	strb	r6, [r2, #0]
10007cc2:	f000 fa07 	bl	100080d4 <tud_control_xfer>
10007cc6:	e4d4      	b.n	10007672 <tud_task_ext+0x26>
10007cc8:	2000170c 	.word	0x2000170c
10007ccc:	10006ba9 	.word	0x10006ba9
10007cd0:	2000219b 	.word	0x2000219b
10007cd4:	100085c9 	.word	0x100085c9
10007cd8:	100099c8 	.word	0x100099c8
10007cdc:	10009988 	.word	0x10009988
	...
10007cec:	20000eac 	.word	0x20000eac
10007cf0:	1e58      	subs	r0, r3, #1
10007cf2:	b2c0      	uxtb	r0, r0
10007cf4:	f7ff f958 	bl	10006fa8 <tud_descriptor_configuration_cb>
10007cf8:	2800      	cmp	r0, #0
10007cfa:	d100      	bne.n	10007cfe <tud_task_ext+0x6b2>
10007cfc:	e537      	b.n	1000776e <tud_task_ext+0x122>
10007cfe:	7843      	ldrb	r3, [r0, #1]
10007d00:	9305      	str	r3, [sp, #20]
10007d02:	2b02      	cmp	r3, #2
10007d04:	d000      	beq.n	10007d08 <tud_task_ext+0x6bc>
10007d06:	e532      	b.n	1000776e <tud_task_ext+0x122>
10007d08:	2101      	movs	r1, #1
10007d0a:	79c2      	ldrb	r2, [r0, #7]
10007d0c:	46b9      	mov	r9, r7
10007d0e:	1193      	asrs	r3, r2, #6
10007d10:	1152      	asrs	r2, r2, #5
10007d12:	400b      	ands	r3, r1
10007d14:	400a      	ands	r2, r1
10007d16:	0112      	lsls	r2, r2, #4
10007d18:	015b      	lsls	r3, r3, #5
10007d1a:	4313      	orrs	r3, r2
10007d1c:	783a      	ldrb	r2, [r7, #0]
10007d1e:	312f      	adds	r1, #47	; 0x2f
10007d20:	438a      	bics	r2, r1
10007d22:	4313      	orrs	r3, r2
10007d24:	703b      	strb	r3, [r7, #0]
10007d26:	2309      	movs	r3, #9
10007d28:	4698      	mov	r8, r3
10007d2a:	4480      	add	r8, r0
10007d2c:	7882      	ldrb	r2, [r0, #2]
10007d2e:	78c3      	ldrb	r3, [r0, #3]
10007d30:	9500      	str	r5, [sp, #0]
10007d32:	4645      	mov	r5, r8
10007d34:	021b      	lsls	r3, r3, #8
10007d36:	4313      	orrs	r3, r2
10007d38:	18c3      	adds	r3, r0, r3
10007d3a:	9303      	str	r3, [sp, #12]
10007d3c:	9b03      	ldr	r3, [sp, #12]
10007d3e:	42ab      	cmp	r3, r5
10007d40:	d800      	bhi.n	10007d44 <tud_task_ext+0x6f8>
10007d42:	e0aa      	b.n	10007e9a <tud_task_ext+0x84e>
10007d44:	2201      	movs	r2, #1
10007d46:	786b      	ldrb	r3, [r5, #1]
10007d48:	9201      	str	r2, [sp, #4]
10007d4a:	2b0b      	cmp	r3, #11
10007d4c:	d103      	bne.n	10007d56 <tud_task_ext+0x70a>
10007d4e:	78eb      	ldrb	r3, [r5, #3]
10007d50:	9301      	str	r3, [sp, #4]
10007d52:	782b      	ldrb	r3, [r5, #0]
10007d54:	18ed      	adds	r5, r5, r3
10007d56:	786b      	ldrb	r3, [r5, #1]
10007d58:	2b04      	cmp	r3, #4
10007d5a:	d124      	bne.n	10007da6 <tud_task_ext+0x75a>
10007d5c:	2600      	movs	r6, #0
10007d5e:	9b03      	ldr	r3, [sp, #12]
10007d60:	4a5c      	ldr	r2, [pc, #368]	; (10007ed4 <tud_task_ext+0x888>)
10007d62:	1b5b      	subs	r3, r3, r5
10007d64:	b29b      	uxth	r3, r3
10007d66:	001f      	movs	r7, r3
10007d68:	4b5b      	ldr	r3, [pc, #364]	; (10007ed8 <tud_task_ext+0x88c>)
10007d6a:	9304      	str	r3, [sp, #16]
10007d6c:	781b      	ldrb	r3, [r3, #0]
10007d6e:	42b2      	cmp	r2, r6
10007d70:	d05b      	beq.n	10007e2a <tud_task_ext+0x7de>
10007d72:	46a8      	mov	r8, r5
10007d74:	4a59      	ldr	r2, [pc, #356]	; (10007edc <tud_task_ext+0x890>)
10007d76:	9206      	str	r2, [sp, #24]
10007d78:	4a59      	ldr	r2, [pc, #356]	; (10007ee0 <tud_task_ext+0x894>)
10007d7a:	9207      	str	r2, [sp, #28]
10007d7c:	42b3      	cmp	r3, r6
10007d7e:	d900      	bls.n	10007d82 <tud_task_ext+0x736>
10007d80:	e082      	b.n	10007e88 <tud_task_ext+0x83c>
10007d82:	d110      	bne.n	10007da6 <tud_task_ext+0x75a>
10007d84:	9b06      	ldr	r3, [sp, #24]
10007d86:	9d07      	ldr	r5, [sp, #28]
10007d88:	003a      	movs	r2, r7
10007d8a:	4641      	mov	r1, r8
10007d8c:	4658      	mov	r0, fp
10007d8e:	4798      	blx	r3
10007d90:	2808      	cmp	r0, #8
10007d92:	d902      	bls.n	10007d9a <tud_task_ext+0x74e>
10007d94:	4287      	cmp	r7, r0
10007d96:	d300      	bcc.n	10007d9a <tud_task_ext+0x74e>
10007d98:	e088      	b.n	10007eac <tud_task_ext+0x860>
10007d9a:	9b04      	ldr	r3, [sp, #16]
10007d9c:	3601      	adds	r6, #1
10007d9e:	781b      	ldrb	r3, [r3, #0]
10007da0:	b2f6      	uxtb	r6, r6
10007da2:	42b3      	cmp	r3, r6
10007da4:	d2ea      	bcs.n	10007d7c <tud_task_ext+0x730>
10007da6:	464f      	mov	r7, r9
10007da8:	9d00      	ldr	r5, [sp, #0]
10007daa:	e4e0      	b.n	1000776e <tud_task_ext+0x122>
10007dac:	4658      	mov	r0, fp
10007dae:	f7ff fb2b 	bl	10007408 <dcd_edpt_close_all>
10007db2:	78bb      	ldrb	r3, [r7, #2]
10007db4:	4a47      	ldr	r2, [pc, #284]	; (10007ed4 <tud_task_ext+0x888>)
10007db6:	9300      	str	r3, [sp, #0]
10007db8:	4b47      	ldr	r3, [pc, #284]	; (10007ed8 <tud_task_ext+0x88c>)
10007dba:	2600      	movs	r6, #0
10007dbc:	4698      	mov	r8, r3
10007dbe:	781b      	ldrb	r3, [r3, #0]
10007dc0:	2a00      	cmp	r2, #0
10007dc2:	d010      	beq.n	10007de6 <tud_task_ext+0x79a>
10007dc4:	4a47      	ldr	r2, [pc, #284]	; (10007ee4 <tud_task_ext+0x898>)
10007dc6:	9201      	str	r2, [sp, #4]
10007dc8:	4a47      	ldr	r2, [pc, #284]	; (10007ee8 <tud_task_ext+0x89c>)
10007dca:	4691      	mov	r9, r2
10007dcc:	42b3      	cmp	r3, r6
10007dce:	d823      	bhi.n	10007e18 <tud_task_ext+0x7cc>
10007dd0:	d11f      	bne.n	10007e12 <tud_task_ext+0x7c6>
10007dd2:	9b01      	ldr	r3, [sp, #4]
10007dd4:	4658      	mov	r0, fp
10007dd6:	4798      	blx	r3
10007dd8:	4643      	mov	r3, r8
10007dda:	3601      	adds	r6, #1
10007ddc:	781b      	ldrb	r3, [r3, #0]
10007dde:	b2f6      	uxtb	r6, r6
10007de0:	42b3      	cmp	r3, r6
10007de2:	d2f3      	bcs.n	10007dcc <tud_task_ext+0x780>
10007de4:	e006      	b.n	10007df4 <tud_task_ext+0x7a8>
10007de6:	4658      	mov	r0, fp
10007de8:	f000 fb64 	bl	100084b4 <cdcd_reset>
10007dec:	4643      	mov	r3, r8
10007dee:	781b      	ldrb	r3, [r3, #0]
10007df0:	2b00      	cmp	r3, #0
10007df2:	d10e      	bne.n	10007e12 <tud_task_ext+0x7c6>
10007df4:	2253      	movs	r2, #83	; 0x53
10007df6:	2100      	movs	r1, #0
10007df8:	0038      	movs	r0, r7
10007dfa:	f7fe fd11 	bl	10006820 <__wrap_memset>
10007dfe:	2210      	movs	r2, #16
10007e00:	21ff      	movs	r1, #255	; 0xff
10007e02:	1cf8      	adds	r0, r7, #3
10007e04:	f7fe fd0c 	bl	10006820 <__wrap_memset>
10007e08:	2220      	movs	r2, #32
10007e0a:	21ff      	movs	r1, #255	; 0xff
10007e0c:	4837      	ldr	r0, [pc, #220]	; (10007eec <tud_task_ext+0x8a0>)
10007e0e:	f7fe fd07 	bl	10006820 <__wrap_memset>
10007e12:	9b00      	ldr	r3, [sp, #0]
10007e14:	70bb      	strb	r3, [r7, #2]
10007e16:	e66e      	b.n	10007af6 <tud_task_ext+0x4aa>
10007e18:	2218      	movs	r2, #24
10007e1a:	464b      	mov	r3, r9
10007e1c:	4372      	muls	r2, r6
10007e1e:	681b      	ldr	r3, [r3, #0]
10007e20:	189b      	adds	r3, r3, r2
10007e22:	2b00      	cmp	r3, #0
10007e24:	d0f5      	beq.n	10007e12 <tud_task_ext+0x7c6>
10007e26:	685b      	ldr	r3, [r3, #4]
10007e28:	e7d4      	b.n	10007dd4 <tud_task_ext+0x788>
10007e2a:	003a      	movs	r2, r7
10007e2c:	0029      	movs	r1, r5
10007e2e:	4658      	mov	r0, fp
10007e30:	f000 fb56 	bl	100084e0 <cdcd_open>
10007e34:	46b8      	mov	r8, r7
10007e36:	0007      	movs	r7, r0
10007e38:	2808      	cmp	r0, #8
10007e3a:	d9b4      	bls.n	10007da6 <tud_task_ext+0x75a>
10007e3c:	4643      	mov	r3, r8
10007e3e:	4283      	cmp	r3, r0
10007e40:	d3b1      	bcc.n	10007da6 <tud_task_ext+0x75a>
10007e42:	4b27      	ldr	r3, [pc, #156]	; (10007ee0 <tud_task_ext+0x894>)
10007e44:	4698      	mov	r8, r3
10007e46:	9b01      	ldr	r3, [sp, #4]
10007e48:	2b01      	cmp	r3, #1
10007e4a:	d03b      	beq.n	10007ec4 <tud_task_ext+0x878>
10007e4c:	2200      	movs	r2, #0
10007e4e:	4648      	mov	r0, r9
10007e50:	e009      	b.n	10007e66 <tud_task_ext+0x81a>
10007e52:	78ab      	ldrb	r3, [r5, #2]
10007e54:	18d3      	adds	r3, r2, r3
10007e56:	b2db      	uxtb	r3, r3
10007e58:	18c3      	adds	r3, r0, r3
10007e5a:	78d9      	ldrb	r1, [r3, #3]
10007e5c:	29ff      	cmp	r1, #255	; 0xff
10007e5e:	d12e      	bne.n	10007ebe <tud_task_ext+0x872>
10007e60:	3201      	adds	r2, #1
10007e62:	70de      	strb	r6, [r3, #3]
10007e64:	b2d2      	uxtb	r2, r2
10007e66:	9b01      	ldr	r3, [sp, #4]
10007e68:	429a      	cmp	r2, r3
10007e6a:	d1f2      	bne.n	10007e52 <tud_task_ext+0x806>
10007e6c:	0033      	movs	r3, r6
10007e6e:	0029      	movs	r1, r5
10007e70:	4681      	mov	r9, r0
10007e72:	003a      	movs	r2, r7
10007e74:	481d      	ldr	r0, [pc, #116]	; (10007eec <tud_task_ext+0x8a0>)
10007e76:	f000 fd45 	bl	10008904 <tu_edpt_bind_driver>
10007e7a:	9b04      	ldr	r3, [sp, #16]
10007e7c:	19ed      	adds	r5, r5, r7
10007e7e:	781b      	ldrb	r3, [r3, #0]
10007e80:	42b3      	cmp	r3, r6
10007e82:	d300      	bcc.n	10007e86 <tud_task_ext+0x83a>
10007e84:	e75a      	b.n	10007d3c <tud_task_ext+0x6f0>
10007e86:	e78e      	b.n	10007da6 <tud_task_ext+0x75a>
10007e88:	4b17      	ldr	r3, [pc, #92]	; (10007ee8 <tud_task_ext+0x89c>)
10007e8a:	681d      	ldr	r5, [r3, #0]
10007e8c:	2318      	movs	r3, #24
10007e8e:	4373      	muls	r3, r6
10007e90:	18ed      	adds	r5, r5, r3
10007e92:	2d00      	cmp	r5, #0
10007e94:	d087      	beq.n	10007da6 <tud_task_ext+0x75a>
10007e96:	68ab      	ldr	r3, [r5, #8]
10007e98:	e776      	b.n	10007d88 <tud_task_ext+0x73c>
10007e9a:	4b15      	ldr	r3, [pc, #84]	; (10007ef0 <tud_task_ext+0x8a4>)
10007e9c:	464f      	mov	r7, r9
10007e9e:	9d00      	ldr	r5, [sp, #0]
10007ea0:	2b00      	cmp	r3, #0
10007ea2:	d100      	bne.n	10007ea6 <tud_task_ext+0x85a>
10007ea4:	e62b      	b.n	10007afe <tud_task_ext+0x4b2>
10007ea6:	e000      	b.n	10007eaa <tud_task_ext+0x85e>
10007ea8:	bf00      	nop
10007eaa:	e628      	b.n	10007afe <tud_task_ext+0x4b2>
10007eac:	002b      	movs	r3, r5
10007eae:	0007      	movs	r7, r0
10007eb0:	4645      	mov	r5, r8
10007eb2:	4698      	mov	r8, r3
10007eb4:	e7c7      	b.n	10007e46 <tud_task_ext+0x7fa>
10007eb6:	f7ff f877 	bl	10006fa8 <tud_descriptor_configuration_cb>
10007eba:	0002      	movs	r2, r0
10007ebc:	e69b      	b.n	10007bf6 <tud_task_ext+0x5aa>
10007ebe:	0007      	movs	r7, r0
10007ec0:	9d00      	ldr	r5, [sp, #0]
10007ec2:	e454      	b.n	1000776e <tud_task_ext+0x122>
10007ec4:	4642      	mov	r2, r8
10007ec6:	4b05      	ldr	r3, [pc, #20]	; (10007edc <tud_task_ext+0x890>)
10007ec8:	6892      	ldr	r2, [r2, #8]
10007eca:	429a      	cmp	r2, r3
10007ecc:	d1be      	bne.n	10007e4c <tud_task_ext+0x800>
10007ece:	9b05      	ldr	r3, [sp, #20]
10007ed0:	9301      	str	r3, [sp, #4]
10007ed2:	e7bb      	b.n	10007e4c <tud_task_ext+0x800>
10007ed4:	10006ba9 	.word	0x10006ba9
10007ed8:	2000219b 	.word	0x2000219b
10007edc:	100084e1 	.word	0x100084e1
10007ee0:	100099c8 	.word	0x100099c8
10007ee4:	100084b5 	.word	0x100084b5
10007ee8:	2000170c 	.word	0x2000170c
10007eec:	20001a47 	.word	0x20001a47
10007ef0:	00000000 	.word	0x00000000

10007ef4 <usbd_open_edpt_pair>:
10007ef4:	b5f8      	push	{r3, r4, r5, r6, r7, lr}
10007ef6:	4657      	mov	r7, sl
10007ef8:	464e      	mov	r6, r9
10007efa:	46de      	mov	lr, fp
10007efc:	4645      	mov	r5, r8
10007efe:	000c      	movs	r4, r1
10007f00:	b5e0      	push	{r5, r6, r7, lr}
10007f02:	0016      	movs	r6, r2
10007f04:	001f      	movs	r7, r3
10007f06:	2a00      	cmp	r2, #0
10007f08:	d03c      	beq.n	10007f84 <usbd_open_edpt_pair+0x90>
10007f0a:	4b1f      	ldr	r3, [pc, #124]	; (10007f88 <usbd_open_edpt_pair+0x94>)
10007f0c:	2500      	movs	r5, #0
10007f0e:	469a      	mov	sl, r3
10007f10:	2370      	movs	r3, #112	; 0x70
10007f12:	4699      	mov	r9, r3
10007f14:	4b1d      	ldr	r3, [pc, #116]	; (10007f8c <usbd_open_edpt_pair+0x98>)
10007f16:	469b      	mov	fp, r3
10007f18:	e017      	b.n	10007f4a <usbd_open_edpt_pair+0x56>
10007f1a:	465b      	mov	r3, fp
10007f1c:	0020      	movs	r0, r4
10007f1e:	7899      	ldrb	r1, [r3, #2]
10007f20:	f000 fcb6 	bl	10008890 <tu_edpt_validate>
10007f24:	2800      	cmp	r0, #0
10007f26:	d01f      	beq.n	10007f68 <usbd_open_edpt_pair+0x74>
10007f28:	0021      	movs	r1, r4
10007f2a:	4640      	mov	r0, r8
10007f2c:	f7ff f9e8 	bl	10007300 <dcd_edpt_open>
10007f30:	2800      	cmp	r0, #0
10007f32:	d019      	beq.n	10007f68 <usbd_open_edpt_pair+0x74>
10007f34:	78a3      	ldrb	r3, [r4, #2]
10007f36:	09da      	lsrs	r2, r3, #7
10007f38:	2a01      	cmp	r2, #1
10007f3a:	d01c      	beq.n	10007f76 <usbd_open_edpt_pair+0x82>
10007f3c:	9a0a      	ldr	r2, [sp, #40]	; 0x28
10007f3e:	3501      	adds	r5, #1
10007f40:	7013      	strb	r3, [r2, #0]
10007f42:	7823      	ldrb	r3, [r4, #0]
10007f44:	18e4      	adds	r4, r4, r3
10007f46:	42b5      	cmp	r5, r6
10007f48:	da1c      	bge.n	10007f84 <usbd_open_edpt_pair+0x90>
10007f4a:	7863      	ldrb	r3, [r4, #1]
10007f4c:	2b05      	cmp	r3, #5
10007f4e:	d10b      	bne.n	10007f68 <usbd_open_edpt_pair+0x74>
10007f50:	78e3      	ldrb	r3, [r4, #3]
10007f52:	079b      	lsls	r3, r3, #30
10007f54:	0f9b      	lsrs	r3, r3, #30
10007f56:	42bb      	cmp	r3, r7
10007f58:	d106      	bne.n	10007f68 <usbd_open_edpt_pair+0x74>
10007f5a:	4653      	mov	r3, sl
10007f5c:	464a      	mov	r2, r9
10007f5e:	781b      	ldrb	r3, [r3, #0]
10007f60:	4698      	mov	r8, r3
10007f62:	78a3      	ldrb	r3, [r4, #2]
10007f64:	421a      	tst	r2, r3
10007f66:	d0d8      	beq.n	10007f1a <usbd_open_edpt_pair+0x26>
10007f68:	2000      	movs	r0, #0
10007f6a:	bcf0      	pop	{r4, r5, r6, r7}
10007f6c:	46bb      	mov	fp, r7
10007f6e:	46b2      	mov	sl, r6
10007f70:	46a9      	mov	r9, r5
10007f72:	46a0      	mov	r8, r4
10007f74:	bdf8      	pop	{r3, r4, r5, r6, r7, pc}
10007f76:	9a0b      	ldr	r2, [sp, #44]	; 0x2c
10007f78:	3501      	adds	r5, #1
10007f7a:	7013      	strb	r3, [r2, #0]
10007f7c:	7823      	ldrb	r3, [r4, #0]
10007f7e:	18e4      	adds	r4, r4, r3
10007f80:	42b5      	cmp	r5, r6
10007f82:	dbe2      	blt.n	10007f4a <usbd_open_edpt_pair+0x56>
10007f84:	2001      	movs	r0, #1
10007f86:	e7f0      	b.n	10007f6a <usbd_open_edpt_pair+0x76>
10007f88:	20000eac 	.word	0x20000eac
10007f8c:	20001a34 	.word	0x20001a34

10007f90 <usbd_defer_func>:
10007f90:	2380      	movs	r3, #128	; 0x80
10007f92:	b510      	push	{r4, lr}
10007f94:	011b      	lsls	r3, r3, #4
10007f96:	b084      	sub	sp, #16
10007f98:	9301      	str	r3, [sp, #4]
10007f9a:	4b0e      	ldr	r3, [pc, #56]	; (10007fd4 <usbd_defer_func+0x44>)
10007f9c:	9002      	str	r0, [sp, #8]
10007f9e:	681c      	ldr	r4, [r3, #0]
10007fa0:	9103      	str	r1, [sp, #12]
10007fa2:	6962      	ldr	r2, [r4, #20]
10007fa4:	f3ef 8310 	mrs	r3, PRIMASK
10007fa8:	b672      	cpsid	i
10007faa:	6811      	ldr	r1, [r2, #0]
10007fac:	2900      	cmp	r1, #0
10007fae:	d0fc      	beq.n	10007faa <usbd_defer_func+0x1a>
10007fb0:	f3bf 8f5f 	dmb	sy
10007fb4:	61a3      	str	r3, [r4, #24]
10007fb6:	0020      	movs	r0, r4
10007fb8:	a901      	add	r1, sp, #4
10007fba:	f000 fe01 	bl	10008bc0 <tu_fifo_write>
10007fbe:	6962      	ldr	r2, [r4, #20]
10007fc0:	69a3      	ldr	r3, [r4, #24]
10007fc2:	f3bf 8f5f 	dmb	sy
10007fc6:	2100      	movs	r1, #0
10007fc8:	6011      	str	r1, [r2, #0]
10007fca:	f383 8810 	msr	PRIMASK, r3
10007fce:	b004      	add	sp, #16
10007fd0:	bd10      	pop	{r4, pc}
10007fd2:	46c0      	nop			; (mov r8, r8)
10007fd4:	20001a8c 	.word	0x20001a8c

10007fd8 <usbd_edpt_open>:
10007fd8:	2270      	movs	r2, #112	; 0x70
10007fda:	b570      	push	{r4, r5, r6, lr}
10007fdc:	4b09      	ldr	r3, [pc, #36]	; (10008004 <usbd_edpt_open+0x2c>)
10007fde:	000c      	movs	r4, r1
10007fe0:	781d      	ldrb	r5, [r3, #0]
10007fe2:	788b      	ldrb	r3, [r1, #2]
10007fe4:	421a      	tst	r2, r3
10007fe6:	d001      	beq.n	10007fec <usbd_edpt_open+0x14>
10007fe8:	2000      	movs	r0, #0
10007fea:	bd70      	pop	{r4, r5, r6, pc}
10007fec:	4b06      	ldr	r3, [pc, #24]	; (10008008 <usbd_edpt_open+0x30>)
10007fee:	0020      	movs	r0, r4
10007ff0:	7899      	ldrb	r1, [r3, #2]
10007ff2:	f000 fc4d 	bl	10008890 <tu_edpt_validate>
10007ff6:	2800      	cmp	r0, #0
10007ff8:	d0f6      	beq.n	10007fe8 <usbd_edpt_open+0x10>
10007ffa:	0021      	movs	r1, r4
10007ffc:	0028      	movs	r0, r5
10007ffe:	f7ff f97f 	bl	10007300 <dcd_edpt_open>
10008002:	e7f2      	b.n	10007fea <usbd_edpt_open+0x12>
10008004:	20000eac 	.word	0x20000eac
10008008:	20001a34 	.word	0x20001a34

1000800c <usbd_edpt_claim>:
1000800c:	4a07      	ldr	r2, [pc, #28]	; (1000802c <usbd_edpt_claim+0x20>)
1000800e:	000b      	movs	r3, r1
10008010:	6811      	ldr	r1, [r2, #0]
10008012:	227f      	movs	r2, #127	; 0x7f
10008014:	b510      	push	{r4, lr}
10008016:	401a      	ands	r2, r3
10008018:	09db      	lsrs	r3, r3, #7
1000801a:	4805      	ldr	r0, [pc, #20]	; (10008030 <usbd_edpt_claim+0x24>)
1000801c:	0052      	lsls	r2, r2, #1
1000801e:	3333      	adds	r3, #51	; 0x33
10008020:	18d3      	adds	r3, r2, r3
10008022:	18c0      	adds	r0, r0, r3
10008024:	f000 fbf0 	bl	10008808 <tu_edpt_claim>
10008028:	bd10      	pop	{r4, pc}
1000802a:	46c0      	nop			; (mov r8, r8)
1000802c:	20001a88 	.word	0x20001a88
10008030:	20001a34 	.word	0x20001a34

10008034 <usbd_edpt_release>:
10008034:	4a07      	ldr	r2, [pc, #28]	; (10008054 <usbd_edpt_release+0x20>)
10008036:	000b      	movs	r3, r1
10008038:	6811      	ldr	r1, [r2, #0]
1000803a:	227f      	movs	r2, #127	; 0x7f
1000803c:	b510      	push	{r4, lr}
1000803e:	401a      	ands	r2, r3
10008040:	09db      	lsrs	r3, r3, #7
10008042:	4805      	ldr	r0, [pc, #20]	; (10008058 <usbd_edpt_release+0x24>)
10008044:	0052      	lsls	r2, r2, #1
10008046:	3333      	adds	r3, #51	; 0x33
10008048:	18d3      	adds	r3, r2, r3
1000804a:	18c0      	adds	r0, r0, r3
1000804c:	f000 fc04 	bl	10008858 <tu_edpt_release>
10008050:	bd10      	pop	{r4, pc}
10008052:	46c0      	nop			; (mov r8, r8)
10008054:	20001a88 	.word	0x20001a88
10008058:	20001a34 	.word	0x20001a34

1000805c <usbd_edpt_xfer>:
1000805c:	b570      	push	{r4, r5, r6, lr}
1000805e:	257f      	movs	r5, #127	; 0x7f
10008060:	480f      	ldr	r0, [pc, #60]	; (100080a0 <usbd_edpt_xfer+0x44>)
10008062:	400d      	ands	r5, r1
10008064:	006d      	lsls	r5, r5, #1
10008066:	1944      	adds	r4, r0, r5
10008068:	09ce      	lsrs	r6, r1, #7
1000806a:	19a4      	adds	r4, r4, r6
1000806c:	3430      	adds	r4, #48	; 0x30
1000806e:	78e5      	ldrb	r5, [r4, #3]
10008070:	2000      	movs	r0, #0
10008072:	07ed      	lsls	r5, r5, #31
10008074:	d500      	bpl.n	10008078 <usbd_edpt_xfer+0x1c>
10008076:	bd70      	pop	{r4, r5, r6, pc}
10008078:	2601      	movs	r6, #1
1000807a:	78e5      	ldrb	r5, [r4, #3]
1000807c:	4809      	ldr	r0, [pc, #36]	; (100080a4 <usbd_edpt_xfer+0x48>)
1000807e:	4335      	orrs	r5, r6
10008080:	7800      	ldrb	r0, [r0, #0]
10008082:	70e5      	strb	r5, [r4, #3]
10008084:	f7ff f9c4 	bl	10007410 <dcd_edpt_xfer>
10008088:	2800      	cmp	r0, #0
1000808a:	d1f4      	bne.n	10008076 <usbd_edpt_xfer+0x1a>
1000808c:	2201      	movs	r2, #1
1000808e:	78e3      	ldrb	r3, [r4, #3]
10008090:	4393      	bics	r3, r2
10008092:	70e3      	strb	r3, [r4, #3]
10008094:	78e3      	ldrb	r3, [r4, #3]
10008096:	3203      	adds	r2, #3
10008098:	4393      	bics	r3, r2
1000809a:	70e3      	strb	r3, [r4, #3]
1000809c:	e7eb      	b.n	10008076 <usbd_edpt_xfer+0x1a>
1000809e:	46c0      	nop			; (mov r8, r8)
100080a0:	20001a34 	.word	0x20001a34
100080a4:	20000eac 	.word	0x20000eac

100080a8 <tud_control_status>:
100080a8:	b570      	push	{r4, r5, r6, lr}
100080aa:	4c09      	ldr	r4, [pc, #36]	; (100080d0 <tud_control_status+0x28>)
100080ac:	0006      	movs	r6, r0
100080ae:	2208      	movs	r2, #8
100080b0:	0020      	movs	r0, r4
100080b2:	000d      	movs	r5, r1
100080b4:	f7fe fbba 	bl	1000682c <__wrap___aeabi_memcpy>
100080b8:	2300      	movs	r3, #0
100080ba:	2180      	movs	r1, #128	; 0x80
100080bc:	60e3      	str	r3, [r4, #12]
100080be:	60a3      	str	r3, [r4, #8]
100080c0:	782b      	ldrb	r3, [r5, #0]
100080c2:	0030      	movs	r0, r6
100080c4:	4399      	bics	r1, r3
100080c6:	2200      	movs	r2, #0
100080c8:	2300      	movs	r3, #0
100080ca:	f7ff ffc7 	bl	1000805c <usbd_edpt_xfer>
100080ce:	bd70      	pop	{r4, r5, r6, pc}
100080d0:	200019d8 	.word	0x200019d8

100080d4 <tud_control_xfer>:
100080d4:	b5f8      	push	{r3, r4, r5, r6, r7, lr}
100080d6:	46ce      	mov	lr, r9
100080d8:	4647      	mov	r7, r8
100080da:	4690      	mov	r8, r2
100080dc:	4e26      	ldr	r6, [pc, #152]	; (10008178 <tud_control_xfer+0xa4>)
100080de:	b580      	push	{r7, lr}
100080e0:	4681      	mov	r9, r0
100080e2:	2208      	movs	r2, #8
100080e4:	0030      	movs	r0, r6
100080e6:	000d      	movs	r5, r1
100080e8:	001f      	movs	r7, r3
100080ea:	f7fe fb9f 	bl	1000682c <__wrap___aeabi_memcpy>
100080ee:	4643      	mov	r3, r8
100080f0:	60b3      	str	r3, [r6, #8]
100080f2:	2300      	movs	r3, #0
100080f4:	81f3      	strh	r3, [r6, #14]
100080f6:	79ec      	ldrb	r4, [r5, #7]
100080f8:	79ab      	ldrb	r3, [r5, #6]
100080fa:	0224      	lsls	r4, r4, #8
100080fc:	431c      	orrs	r4, r3
100080fe:	1c23      	adds	r3, r4, #0
10008100:	42bc      	cmp	r4, r7
10008102:	d900      	bls.n	10008106 <tud_control_xfer+0x32>
10008104:	1c3b      	adds	r3, r7, #0
10008106:	b29f      	uxth	r7, r3
10008108:	81b3      	strh	r3, [r6, #12]
1000810a:	2c00      	cmp	r4, #0
1000810c:	d012      	beq.n	10008134 <tud_control_xfer+0x60>
1000810e:	2f00      	cmp	r7, #0
10008110:	d01c      	beq.n	1000814c <tud_control_xfer+0x78>
10008112:	4643      	mov	r3, r8
10008114:	2b00      	cmp	r3, #0
10008116:	d02c      	beq.n	10008172 <tud_control_xfer+0x9e>
10008118:	1c3b      	adds	r3, r7, #0
1000811a:	2f40      	cmp	r7, #64	; 0x40
1000811c:	d81b      	bhi.n	10008156 <tud_control_xfer+0x82>
1000811e:	b29f      	uxth	r7, r3
10008120:	7833      	ldrb	r3, [r6, #0]
10008122:	2b7f      	cmp	r3, #127	; 0x7f
10008124:	d81c      	bhi.n	10008160 <tud_control_xfer+0x8c>
10008126:	2100      	movs	r1, #0
10008128:	4a14      	ldr	r2, [pc, #80]	; (1000817c <tud_control_xfer+0xa8>)
1000812a:	003b      	movs	r3, r7
1000812c:	4648      	mov	r0, r9
1000812e:	f7ff ff95 	bl	1000805c <usbd_edpt_xfer>
10008132:	e007      	b.n	10008144 <tud_control_xfer+0x70>
10008134:	2180      	movs	r1, #128	; 0x80
10008136:	782b      	ldrb	r3, [r5, #0]
10008138:	2200      	movs	r2, #0
1000813a:	4399      	bics	r1, r3
1000813c:	4648      	mov	r0, r9
1000813e:	2300      	movs	r3, #0
10008140:	f7ff ff8c 	bl	1000805c <usbd_edpt_xfer>
10008144:	bcc0      	pop	{r6, r7}
10008146:	46b9      	mov	r9, r7
10008148:	46b0      	mov	r8, r6
1000814a:	bdf8      	pop	{r3, r4, r5, r6, r7, pc}
1000814c:	7831      	ldrb	r1, [r6, #0]
1000814e:	2200      	movs	r2, #0
10008150:	09c9      	lsrs	r1, r1, #7
10008152:	01c9      	lsls	r1, r1, #7
10008154:	e7e9      	b.n	1000812a <tud_control_xfer+0x56>
10008156:	2340      	movs	r3, #64	; 0x40
10008158:	b29f      	uxth	r7, r3
1000815a:	7833      	ldrb	r3, [r6, #0]
1000815c:	2b7f      	cmp	r3, #127	; 0x7f
1000815e:	d9e2      	bls.n	10008126 <tud_control_xfer+0x52>
10008160:	4c06      	ldr	r4, [pc, #24]	; (1000817c <tud_control_xfer+0xa8>)
10008162:	003a      	movs	r2, r7
10008164:	4641      	mov	r1, r8
10008166:	0020      	movs	r0, r4
10008168:	f7fe fb60 	bl	1000682c <__wrap___aeabi_memcpy>
1000816c:	2180      	movs	r1, #128	; 0x80
1000816e:	0022      	movs	r2, r4
10008170:	e7db      	b.n	1000812a <tud_control_xfer+0x56>
10008172:	2000      	movs	r0, #0
10008174:	e7e6      	b.n	10008144 <tud_control_xfer+0x70>
10008176:	46c0      	nop			; (mov r8, r8)
10008178:	200019d8 	.word	0x200019d8
1000817c:	200019f4 	.word	0x200019f4

10008180 <usbd_control_reset>:
10008180:	b510      	push	{r4, lr}
10008182:	2214      	movs	r2, #20
10008184:	2100      	movs	r1, #0
10008186:	4802      	ldr	r0, [pc, #8]	; (10008190 <usbd_control_reset+0x10>)
10008188:	f7fe fb4a 	bl	10006820 <__wrap_memset>
1000818c:	bd10      	pop	{r4, pc}
1000818e:	46c0      	nop			; (mov r8, r8)
10008190:	200019d8 	.word	0x200019d8

10008194 <usbd_control_set_complete_callback>:
10008194:	4b01      	ldr	r3, [pc, #4]	; (1000819c <usbd_control_set_complete_callback+0x8>)
10008196:	6118      	str	r0, [r3, #16]
10008198:	4770      	bx	lr
1000819a:	46c0      	nop			; (mov r8, r8)
1000819c:	200019d8 	.word	0x200019d8

100081a0 <usbd_control_set_request>:
100081a0:	b510      	push	{r4, lr}
100081a2:	4c05      	ldr	r4, [pc, #20]	; (100081b8 <usbd_control_set_request+0x18>)
100081a4:	0001      	movs	r1, r0
100081a6:	2208      	movs	r2, #8
100081a8:	0020      	movs	r0, r4
100081aa:	f7fe fb3f 	bl	1000682c <__wrap___aeabi_memcpy>
100081ae:	2300      	movs	r3, #0
100081b0:	60a3      	str	r3, [r4, #8]
100081b2:	60e3      	str	r3, [r4, #12]
100081b4:	bd10      	pop	{r4, pc}
100081b6:	46c0      	nop			; (mov r8, r8)
100081b8:	200019d8 	.word	0x200019d8

100081bc <usbd_control_xfer_cb>:
100081bc:	b570      	push	{r4, r5, r6, lr}
100081be:	4c39      	ldr	r4, [pc, #228]	; (100082a4 <usbd_control_xfer_cb+0xe8>)
100081c0:	001d      	movs	r5, r3
100081c2:	7823      	ldrb	r3, [r4, #0]
100081c4:	0006      	movs	r6, r0
100081c6:	09da      	lsrs	r2, r3, #7
100081c8:	09c9      	lsrs	r1, r1, #7
100081ca:	428a      	cmp	r2, r1
100081cc:	d013      	beq.n	100081f6 <usbd_control_xfer_cb+0x3a>
100081ce:	2000      	movs	r0, #0
100081d0:	2d00      	cmp	r5, #0
100081d2:	d000      	beq.n	100081d6 <usbd_control_xfer_cb+0x1a>
100081d4:	bd70      	pop	{r4, r5, r6, pc}
100081d6:	4b34      	ldr	r3, [pc, #208]	; (100082a8 <usbd_control_xfer_cb+0xec>)
100081d8:	2b00      	cmp	r3, #0
100081da:	d003      	beq.n	100081e4 <usbd_control_xfer_cb+0x28>
100081dc:	0021      	movs	r1, r4
100081de:	0030      	movs	r0, r6
100081e0:	f7ff f880 	bl	100072e4 <dcd_edpt0_status_complete>
100081e4:	6923      	ldr	r3, [r4, #16]
100081e6:	2b00      	cmp	r3, #0
100081e8:	d041      	beq.n	1000826e <usbd_control_xfer_cb+0xb2>
100081ea:	0022      	movs	r2, r4
100081ec:	2103      	movs	r1, #3
100081ee:	0030      	movs	r0, r6
100081f0:	4798      	blx	r3
100081f2:	2001      	movs	r0, #1
100081f4:	e7ee      	b.n	100081d4 <usbd_control_xfer_cb+0x18>
100081f6:	2b7f      	cmp	r3, #127	; 0x7f
100081f8:	d806      	bhi.n	10008208 <usbd_control_xfer_cb+0x4c>
100081fa:	68a0      	ldr	r0, [r4, #8]
100081fc:	2800      	cmp	r0, #0
100081fe:	d034      	beq.n	1000826a <usbd_control_xfer_cb+0xae>
10008200:	002a      	movs	r2, r5
10008202:	492a      	ldr	r1, [pc, #168]	; (100082ac <usbd_control_xfer_cb+0xf0>)
10008204:	f7fe fb12 	bl	1000682c <__wrap___aeabi_memcpy>
10008208:	89e2      	ldrh	r2, [r4, #14]
1000820a:	68a1      	ldr	r1, [r4, #8]
1000820c:	1952      	adds	r2, r2, r5
1000820e:	88e3      	ldrh	r3, [r4, #6]
10008210:	b292      	uxth	r2, r2
10008212:	1949      	adds	r1, r1, r5
10008214:	81e2      	strh	r2, [r4, #14]
10008216:	60a1      	str	r1, [r4, #8]
10008218:	4293      	cmp	r3, r2
1000821a:	d014      	beq.n	10008246 <usbd_control_xfer_cb+0x8a>
1000821c:	2d3f      	cmp	r5, #63	; 0x3f
1000821e:	d912      	bls.n	10008246 <usbd_control_xfer_cb+0x8a>
10008220:	89a3      	ldrh	r3, [r4, #12]
10008222:	1a98      	subs	r0, r3, r2
10008224:	1c05      	adds	r5, r0, #0
10008226:	b280      	uxth	r0, r0
10008228:	2840      	cmp	r0, #64	; 0x40
1000822a:	d82c      	bhi.n	10008286 <usbd_control_xfer_cb+0xca>
1000822c:	7820      	ldrb	r0, [r4, #0]
1000822e:	b2ad      	uxth	r5, r5
10008230:	287f      	cmp	r0, #127	; 0x7f
10008232:	d82a      	bhi.n	1000828a <usbd_control_xfer_cb+0xce>
10008234:	2100      	movs	r1, #0
10008236:	429a      	cmp	r2, r3
10008238:	d032      	beq.n	100082a0 <usbd_control_xfer_cb+0xe4>
1000823a:	4a1c      	ldr	r2, [pc, #112]	; (100082ac <usbd_control_xfer_cb+0xf0>)
1000823c:	002b      	movs	r3, r5
1000823e:	0030      	movs	r0, r6
10008240:	f7ff ff0c 	bl	1000805c <usbd_edpt_xfer>
10008244:	e7c6      	b.n	100081d4 <usbd_control_xfer_cb+0x18>
10008246:	6923      	ldr	r3, [r4, #16]
10008248:	2b00      	cmp	r3, #0
1000824a:	d005      	beq.n	10008258 <usbd_control_xfer_cb+0x9c>
1000824c:	0022      	movs	r2, r4
1000824e:	2102      	movs	r1, #2
10008250:	0030      	movs	r0, r6
10008252:	4798      	blx	r3
10008254:	2800      	cmp	r0, #0
10008256:	d00c      	beq.n	10008272 <usbd_control_xfer_cb+0xb6>
10008258:	2180      	movs	r1, #128	; 0x80
1000825a:	7823      	ldrb	r3, [r4, #0]
1000825c:	2200      	movs	r2, #0
1000825e:	4399      	bics	r1, r3
10008260:	0030      	movs	r0, r6
10008262:	2300      	movs	r3, #0
10008264:	f7ff fefa 	bl	1000805c <usbd_edpt_xfer>
10008268:	e7b4      	b.n	100081d4 <usbd_control_xfer_cb+0x18>
1000826a:	2000      	movs	r0, #0
1000826c:	e7b2      	b.n	100081d4 <usbd_control_xfer_cb+0x18>
1000826e:	2001      	movs	r0, #1
10008270:	e7b0      	b.n	100081d4 <usbd_control_xfer_cb+0x18>
10008272:	2100      	movs	r1, #0
10008274:	0030      	movs	r0, r6
10008276:	f7ff f8dd 	bl	10007434 <dcd_edpt_stall>
1000827a:	0030      	movs	r0, r6
1000827c:	2180      	movs	r1, #128	; 0x80
1000827e:	f7ff f8d9 	bl	10007434 <dcd_edpt_stall>
10008282:	2001      	movs	r0, #1
10008284:	e7a6      	b.n	100081d4 <usbd_control_xfer_cb+0x18>
10008286:	2540      	movs	r5, #64	; 0x40
10008288:	e7d0      	b.n	1000822c <usbd_control_xfer_cb+0x70>
1000828a:	429a      	cmp	r2, r3
1000828c:	d007      	beq.n	1000829e <usbd_control_xfer_cb+0xe2>
1000828e:	4c07      	ldr	r4, [pc, #28]	; (100082ac <usbd_control_xfer_cb+0xf0>)
10008290:	002a      	movs	r2, r5
10008292:	0020      	movs	r0, r4
10008294:	f7fe faca 	bl	1000682c <__wrap___aeabi_memcpy>
10008298:	2180      	movs	r1, #128	; 0x80
1000829a:	0022      	movs	r2, r4
1000829c:	e7ce      	b.n	1000823c <usbd_control_xfer_cb+0x80>
1000829e:	2180      	movs	r1, #128	; 0x80
100082a0:	2200      	movs	r2, #0
100082a2:	e7cb      	b.n	1000823c <usbd_control_xfer_cb+0x80>
100082a4:	200019d8 	.word	0x200019d8
100082a8:	100072e5 	.word	0x100072e5
100082ac:	200019f4 	.word	0x200019f4

100082b0 <tud_cdc_n_connected>:
100082b0:	b510      	push	{r4, lr}
100082b2:	0004      	movs	r4, r0
100082b4:	f7ff f940 	bl	10007538 <tud_mounted>
100082b8:	2800      	cmp	r0, #0
100082ba:	d101      	bne.n	100082c0 <tud_cdc_n_connected+0x10>
100082bc:	2000      	movs	r0, #0
100082be:	bd10      	pop	{r4, pc}
100082c0:	f7ff f942 	bl	10007548 <tud_suspended>
100082c4:	2800      	cmp	r0, #0
100082c6:	d1f9      	bne.n	100082bc <tud_cdc_n_connected+0xc>
100082c8:	22b2      	movs	r2, #178	; 0xb2
100082ca:	0092      	lsls	r2, r2, #2
100082cc:	4362      	muls	r2, r4
100082ce:	4b03      	ldr	r3, [pc, #12]	; (100082dc <tud_cdc_n_connected+0x2c>)
100082d0:	3001      	adds	r0, #1
100082d2:	189b      	adds	r3, r3, r2
100082d4:	791b      	ldrb	r3, [r3, #4]
100082d6:	4018      	ands	r0, r3
100082d8:	e7f1      	b.n	100082be <tud_cdc_n_connected+0xe>
100082da:	46c0      	nop			; (mov r8, r8)
100082dc:	20001710 	.word	0x20001710

100082e0 <tud_cdc_n_available>:
100082e0:	23b2      	movs	r3, #178	; 0xb2
100082e2:	009b      	lsls	r3, r3, #2
100082e4:	4358      	muls	r0, r3
100082e6:	b510      	push	{r4, lr}
100082e8:	4b02      	ldr	r3, [pc, #8]	; (100082f4 <tud_cdc_n_available+0x14>)
100082ea:	3010      	adds	r0, #16
100082ec:	18c0      	adds	r0, r0, r3
100082ee:	f000 fb5b 	bl	100089a8 <tu_fifo_count>
100082f2:	bd10      	pop	{r4, pc}
100082f4:	20001710 	.word	0x20001710

100082f8 <tud_cdc_n_read>:
100082f8:	b5f0      	push	{r4, r5, r6, r7, lr}
100082fa:	25b2      	movs	r5, #178	; 0xb2
100082fc:	00ad      	lsls	r5, r5, #2
100082fe:	4345      	muls	r5, r0
10008300:	002c      	movs	r4, r5
10008302:	46c6      	mov	lr, r8
10008304:	4f17      	ldr	r7, [pc, #92]	; (10008364 <tud_cdc_n_read+0x6c>)
10008306:	3410      	adds	r4, #16
10008308:	19e4      	adds	r4, r4, r7
1000830a:	b500      	push	{lr}
1000830c:	0020      	movs	r0, r4
1000830e:	b292      	uxth	r2, r2
10008310:	f000 fbe2 	bl	10008ad8 <tu_fifo_read_n>
10008314:	0006      	movs	r6, r0
10008316:	0020      	movs	r0, r4
10008318:	f000 fb78 	bl	10008a0c <tu_fifo_remaining>
1000831c:	283f      	cmp	r0, #63	; 0x3f
1000831e:	d803      	bhi.n	10008328 <tud_cdc_n_read+0x30>
10008320:	0030      	movs	r0, r6
10008322:	bc80      	pop	{r7}
10008324:	46b8      	mov	r8, r7
10008326:	bdf0      	pop	{r4, r5, r6, r7, pc}
10008328:	197b      	adds	r3, r7, r5
1000832a:	2000      	movs	r0, #0
1000832c:	78d9      	ldrb	r1, [r3, #3]
1000832e:	4698      	mov	r8, r3
10008330:	f7ff fe6c 	bl	1000800c <usbd_edpt_claim>
10008334:	2800      	cmp	r0, #0
10008336:	d0f3      	beq.n	10008320 <tud_cdc_n_read+0x28>
10008338:	0020      	movs	r0, r4
1000833a:	f000 fb67 	bl	10008a0c <tu_fifo_remaining>
1000833e:	283f      	cmp	r0, #63	; 0x3f
10008340:	d90a      	bls.n	10008358 <tud_cdc_n_read+0x60>
10008342:	2392      	movs	r3, #146	; 0x92
10008344:	009b      	lsls	r3, r3, #2
10008346:	18ea      	adds	r2, r5, r3
10008348:	4643      	mov	r3, r8
1000834a:	19d2      	adds	r2, r2, r7
1000834c:	78d9      	ldrb	r1, [r3, #3]
1000834e:	2000      	movs	r0, #0
10008350:	2340      	movs	r3, #64	; 0x40
10008352:	f7ff fe83 	bl	1000805c <usbd_edpt_xfer>
10008356:	e7e3      	b.n	10008320 <tud_cdc_n_read+0x28>
10008358:	4643      	mov	r3, r8
1000835a:	2000      	movs	r0, #0
1000835c:	78d9      	ldrb	r1, [r3, #3]
1000835e:	f7ff fe69 	bl	10008034 <usbd_edpt_release>
10008362:	e7dd      	b.n	10008320 <tud_cdc_n_read+0x28>
10008364:	20001710 	.word	0x20001710

10008368 <tud_cdc_n_write_flush>:
10008368:	b5f8      	push	{r3, r4, r5, r6, r7, lr}
1000836a:	0004      	movs	r4, r0
1000836c:	f7ff f8e4 	bl	10007538 <tud_mounted>
10008370:	2800      	cmp	r0, #0
10008372:	d101      	bne.n	10008378 <tud_cdc_n_write_flush+0x10>
10008374:	2000      	movs	r0, #0
10008376:	bdf8      	pop	{r3, r4, r5, r6, r7, pc}
10008378:	f7ff f8e6 	bl	10007548 <tud_suspended>
1000837c:	2800      	cmp	r0, #0
1000837e:	d1f9      	bne.n	10008374 <tud_cdc_n_write_flush+0xc>
10008380:	23b2      	movs	r3, #178	; 0xb2
10008382:	009b      	lsls	r3, r3, #2
10008384:	435c      	muls	r4, r3
10008386:	0025      	movs	r5, r4
10008388:	4e14      	ldr	r6, [pc, #80]	; (100083dc <tud_cdc_n_write_flush+0x74>)
1000838a:	3524      	adds	r5, #36	; 0x24
1000838c:	19ad      	adds	r5, r5, r6
1000838e:	0028      	movs	r0, r5
10008390:	f000 fb0a 	bl	100089a8 <tu_fifo_count>
10008394:	2800      	cmp	r0, #0
10008396:	d0ed      	beq.n	10008374 <tud_cdc_n_write_flush+0xc>
10008398:	1937      	adds	r7, r6, r4
1000839a:	2000      	movs	r0, #0
1000839c:	78b9      	ldrb	r1, [r7, #2]
1000839e:	f7ff fe35 	bl	1000800c <usbd_edpt_claim>
100083a2:	2800      	cmp	r0, #0
100083a4:	d0e6      	beq.n	10008374 <tud_cdc_n_write_flush+0xc>
100083a6:	23a2      	movs	r3, #162	; 0xa2
100083a8:	009b      	lsls	r3, r3, #2
100083aa:	469c      	mov	ip, r3
100083ac:	4464      	add	r4, ip
100083ae:	19a4      	adds	r4, r4, r6
100083b0:	0021      	movs	r1, r4
100083b2:	0028      	movs	r0, r5
100083b4:	2240      	movs	r2, #64	; 0x40
100083b6:	f000 fb8f 	bl	10008ad8 <tu_fifo_read_n>
100083ba:	78b9      	ldrb	r1, [r7, #2]
100083bc:	1e05      	subs	r5, r0, #0
100083be:	d008      	beq.n	100083d2 <tud_cdc_n_write_flush+0x6a>
100083c0:	0003      	movs	r3, r0
100083c2:	0022      	movs	r2, r4
100083c4:	2000      	movs	r0, #0
100083c6:	f7ff fe49 	bl	1000805c <usbd_edpt_xfer>
100083ca:	2800      	cmp	r0, #0
100083cc:	d0d2      	beq.n	10008374 <tud_cdc_n_write_flush+0xc>
100083ce:	0028      	movs	r0, r5
100083d0:	e7d1      	b.n	10008376 <tud_cdc_n_write_flush+0xe>
100083d2:	2000      	movs	r0, #0
100083d4:	f7ff fe2e 	bl	10008034 <usbd_edpt_release>
100083d8:	e7cc      	b.n	10008374 <tud_cdc_n_write_flush+0xc>
100083da:	46c0      	nop			; (mov r8, r8)
100083dc:	20001710 	.word	0x20001710

100083e0 <tud_cdc_n_write>:
100083e0:	b570      	push	{r4, r5, r6, lr}
100083e2:	24b2      	movs	r4, #178	; 0xb2
100083e4:	00a4      	lsls	r4, r4, #2
100083e6:	4344      	muls	r4, r0
100083e8:	4b0c      	ldr	r3, [pc, #48]	; (1000841c <tud_cdc_n_write+0x3c>)
100083ea:	3424      	adds	r4, #36	; 0x24
100083ec:	18e4      	adds	r4, r4, r3
100083ee:	b292      	uxth	r2, r2
100083f0:	0005      	movs	r5, r0
100083f2:	0020      	movs	r0, r4
100083f4:	f000 fc28 	bl	10008c48 <tu_fifo_write_n>
100083f8:	0006      	movs	r6, r0
100083fa:	0020      	movs	r0, r4
100083fc:	f000 fad4 	bl	100089a8 <tu_fifo_count>
10008400:	2380      	movs	r3, #128	; 0x80
10008402:	009b      	lsls	r3, r3, #2
10008404:	4298      	cmp	r0, r3
10008406:	d204      	bcs.n	10008412 <tud_cdc_n_write+0x32>
10008408:	0020      	movs	r0, r4
1000840a:	f000 faeb 	bl	100089e4 <tu_fifo_full>
1000840e:	2800      	cmp	r0, #0
10008410:	d002      	beq.n	10008418 <tud_cdc_n_write+0x38>
10008412:	0028      	movs	r0, r5
10008414:	f7ff ffa8 	bl	10008368 <tud_cdc_n_write_flush>
10008418:	0030      	movs	r0, r6
1000841a:	bd70      	pop	{r4, r5, r6, pc}
1000841c:	20001710 	.word	0x20001710

10008420 <tud_cdc_n_write_available>:
10008420:	23b2      	movs	r3, #178	; 0xb2
10008422:	009b      	lsls	r3, r3, #2
10008424:	4358      	muls	r0, r3
10008426:	b510      	push	{r4, lr}
10008428:	4b02      	ldr	r3, [pc, #8]	; (10008434 <tud_cdc_n_write_available+0x14>)
1000842a:	3024      	adds	r0, #36	; 0x24
1000842c:	18c0      	adds	r0, r0, r3
1000842e:	f000 faed 	bl	10008a0c <tu_fifo_remaining>
10008432:	bd10      	pop	{r4, pc}
10008434:	20001710 	.word	0x20001710

10008438 <cdcd_init>:
10008438:	22b2      	movs	r2, #178	; 0xb2
1000843a:	b5f0      	push	{r4, r5, r6, r7, lr}
1000843c:	4c1b      	ldr	r4, [pc, #108]	; (100084ac <cdcd_init+0x74>)
1000843e:	b083      	sub	sp, #12
10008440:	2100      	movs	r1, #0
10008442:	0020      	movs	r0, r4
10008444:	0092      	lsls	r2, r2, #2
10008446:	f7fe f9eb 	bl	10006820 <__wrap_memset>
1000844a:	23ff      	movs	r3, #255	; 0xff
1000844c:	2680      	movs	r6, #128	; 0x80
1000844e:	2500      	movs	r5, #0
10008450:	7163      	strb	r3, [r4, #5]
10008452:	2701      	movs	r7, #1
10008454:	2308      	movs	r3, #8
10008456:	0021      	movs	r1, r4
10008458:	0020      	movs	r0, r4
1000845a:	4a15      	ldr	r2, [pc, #84]	; (100084b0 <cdcd_init+0x78>)
1000845c:	0076      	lsls	r6, r6, #1
1000845e:	80e2      	strh	r2, [r4, #6]
10008460:	7323      	strb	r3, [r4, #12]
10008462:	0032      	movs	r2, r6
10008464:	8125      	strh	r5, [r4, #8]
10008466:	72a7      	strb	r7, [r4, #10]
10008468:	3138      	adds	r1, #56	; 0x38
1000846a:	9500      	str	r5, [sp, #0]
1000846c:	3b07      	subs	r3, #7
1000846e:	3010      	adds	r0, #16
10008470:	f000 fa62 	bl	10008938 <tu_fifo_config>
10008474:	0021      	movs	r1, r4
10008476:	0020      	movs	r0, r4
10008478:	3139      	adds	r1, #57	; 0x39
1000847a:	0032      	movs	r2, r6
1000847c:	31ff      	adds	r1, #255	; 0xff
1000847e:	2301      	movs	r3, #1
10008480:	9700      	str	r7, [sp, #0]
10008482:	3024      	adds	r0, #36	; 0x24
10008484:	f000 fa58 	bl	10008938 <tu_fifo_config>
10008488:	238e      	movs	r3, #142	; 0x8e
1000848a:	009b      	lsls	r3, r3, #2
1000848c:	18e6      	adds	r6, r4, r3
1000848e:	0030      	movs	r0, r6
10008490:	f7fc f974 	bl	1000477c <mutex_init>
10008494:	2390      	movs	r3, #144	; 0x90
10008496:	009b      	lsls	r3, r3, #2
10008498:	6226      	str	r6, [r4, #32]
1000849a:	18e6      	adds	r6, r4, r3
1000849c:	0030      	movs	r0, r6
1000849e:	61e5      	str	r5, [r4, #28]
100084a0:	f7fc f96c 	bl	1000477c <mutex_init>
100084a4:	6326      	str	r6, [r4, #48]	; 0x30
100084a6:	6365      	str	r5, [r4, #52]	; 0x34
100084a8:	b003      	add	sp, #12
100084aa:	bdf0      	pop	{r4, r5, r6, r7, pc}
100084ac:	20001710 	.word	0x20001710
100084b0:	ffff9600 	.word	0xffff9600

100084b4 <cdcd_reset>:
100084b4:	b510      	push	{r4, lr}
100084b6:	4c09      	ldr	r4, [pc, #36]	; (100084dc <cdcd_reset+0x28>)
100084b8:	2205      	movs	r2, #5
100084ba:	2100      	movs	r1, #0
100084bc:	0020      	movs	r0, r4
100084be:	f7fe f9af 	bl	10006820 <__wrap_memset>
100084c2:	0020      	movs	r0, r4
100084c4:	3424      	adds	r4, #36	; 0x24
100084c6:	3010      	adds	r0, #16
100084c8:	f000 fc6e 	bl	10008da8 <tu_fifo_clear>
100084cc:	0020      	movs	r0, r4
100084ce:	f000 fc6b 	bl	10008da8 <tu_fifo_clear>
100084d2:	2101      	movs	r1, #1
100084d4:	0020      	movs	r0, r4
100084d6:	f000 fc87 	bl	10008de8 <tu_fifo_set_overwritable>
100084da:	bd10      	pop	{r4, pc}
100084dc:	20001710 	.word	0x20001710

100084e0 <cdcd_open>:
100084e0:	b5f0      	push	{r4, r5, r6, r7, lr}
100084e2:	794b      	ldrb	r3, [r1, #5]
100084e4:	0006      	movs	r6, r0
100084e6:	b083      	sub	sp, #12
100084e8:	2b02      	cmp	r3, #2
100084ea:	d102      	bne.n	100084f2 <cdcd_open+0x12>
100084ec:	798b      	ldrb	r3, [r1, #6]
100084ee:	2b02      	cmp	r3, #2
100084f0:	d003      	beq.n	100084fa <cdcd_open+0x1a>
100084f2:	2500      	movs	r5, #0
100084f4:	0028      	movs	r0, r5
100084f6:	b003      	add	sp, #12
100084f8:	bdf0      	pop	{r4, r5, r6, r7, pc}
100084fa:	4f30      	ldr	r7, [pc, #192]	; (100085bc <cdcd_open+0xdc>)
100084fc:	78bb      	ldrb	r3, [r7, #2]
100084fe:	2b00      	cmp	r3, #0
10008500:	d1f7      	bne.n	100084f2 <cdcd_open+0x12>
10008502:	788b      	ldrb	r3, [r1, #2]
10008504:	2509      	movs	r5, #9
10008506:	703b      	strb	r3, [r7, #0]
10008508:	780c      	ldrb	r4, [r1, #0]
1000850a:	190c      	adds	r4, r1, r4
1000850c:	7863      	ldrb	r3, [r4, #1]
1000850e:	2b24      	cmp	r3, #36	; 0x24
10008510:	d10b      	bne.n	1000852a <cdcd_open+0x4a>
10008512:	2a08      	cmp	r2, #8
10008514:	d802      	bhi.n	1000851c <cdcd_open+0x3c>
10008516:	e00f      	b.n	10008538 <cdcd_open+0x58>
10008518:	42aa      	cmp	r2, r5
1000851a:	d30d      	bcc.n	10008538 <cdcd_open+0x58>
1000851c:	7823      	ldrb	r3, [r4, #0]
1000851e:	18e4      	adds	r4, r4, r3
10008520:	18ed      	adds	r5, r5, r3
10008522:	7863      	ldrb	r3, [r4, #1]
10008524:	b2ad      	uxth	r5, r5
10008526:	2b24      	cmp	r3, #36	; 0x24
10008528:	d0f6      	beq.n	10008518 <cdcd_open+0x38>
1000852a:	2b05      	cmp	r3, #5
1000852c:	d021      	beq.n	10008572 <cdcd_open+0x92>
1000852e:	2b04      	cmp	r3, #4
10008530:	d102      	bne.n	10008538 <cdcd_open+0x58>
10008532:	7963      	ldrb	r3, [r4, #5]
10008534:	2b0a      	cmp	r3, #10
10008536:	d02f      	beq.n	10008598 <cdcd_open+0xb8>
10008538:	4c21      	ldr	r4, [pc, #132]	; (100085c0 <cdcd_open+0xe0>)
1000853a:	0020      	movs	r0, r4
1000853c:	f000 fa66 	bl	10008a0c <tu_fifo_remaining>
10008540:	283f      	cmp	r0, #63	; 0x3f
10008542:	d9d7      	bls.n	100084f4 <cdcd_open+0x14>
10008544:	0026      	movs	r6, r4
10008546:	3e10      	subs	r6, #16
10008548:	2000      	movs	r0, #0
1000854a:	78f1      	ldrb	r1, [r6, #3]
1000854c:	f7ff fd5e 	bl	1000800c <usbd_edpt_claim>
10008550:	2800      	cmp	r0, #0
10008552:	d0cf      	beq.n	100084f4 <cdcd_open+0x14>
10008554:	0020      	movs	r0, r4
10008556:	f000 fa59 	bl	10008a0c <tu_fifo_remaining>
1000855a:	283f      	cmp	r0, #63	; 0x3f
1000855c:	d917      	bls.n	1000858e <cdcd_open+0xae>
1000855e:	238e      	movs	r3, #142	; 0x8e
10008560:	009b      	lsls	r3, r3, #2
10008562:	18e2      	adds	r2, r4, r3
10008564:	3bf9      	subs	r3, #249	; 0xf9
10008566:	78f1      	ldrb	r1, [r6, #3]
10008568:	3bff      	subs	r3, #255	; 0xff
1000856a:	2000      	movs	r0, #0
1000856c:	f7ff fd76 	bl	1000805c <usbd_edpt_xfer>
10008570:	e7c0      	b.n	100084f4 <cdcd_open+0x14>
10008572:	0021      	movs	r1, r4
10008574:	0030      	movs	r0, r6
10008576:	f7ff fd2f 	bl	10007fd8 <usbd_edpt_open>
1000857a:	2800      	cmp	r0, #0
1000857c:	d0b9      	beq.n	100084f2 <cdcd_open+0x12>
1000857e:	78a3      	ldrb	r3, [r4, #2]
10008580:	707b      	strb	r3, [r7, #1]
10008582:	7823      	ldrb	r3, [r4, #0]
10008584:	18ed      	adds	r5, r5, r3
10008586:	18e4      	adds	r4, r4, r3
10008588:	7863      	ldrb	r3, [r4, #1]
1000858a:	b2ad      	uxth	r5, r5
1000858c:	e7cf      	b.n	1000852e <cdcd_open+0x4e>
1000858e:	78f1      	ldrb	r1, [r6, #3]
10008590:	2000      	movs	r0, #0
10008592:	f7ff fd4f 	bl	10008034 <usbd_edpt_release>
10008596:	e7ad      	b.n	100084f4 <cdcd_open+0x14>
10008598:	4b0a      	ldr	r3, [pc, #40]	; (100085c4 <cdcd_open+0xe4>)
1000859a:	7827      	ldrb	r7, [r4, #0]
1000859c:	9301      	str	r3, [sp, #4]
1000859e:	3301      	adds	r3, #1
100085a0:	9300      	str	r3, [sp, #0]
100085a2:	2202      	movs	r2, #2
100085a4:	2302      	movs	r3, #2
100085a6:	0030      	movs	r0, r6
100085a8:	19e1      	adds	r1, r4, r7
100085aa:	f7ff fca3 	bl	10007ef4 <usbd_open_edpt_pair>
100085ae:	2800      	cmp	r0, #0
100085b0:	d09f      	beq.n	100084f2 <cdcd_open+0x12>
100085b2:	350e      	adds	r5, #14
100085b4:	19ed      	adds	r5, r5, r7
100085b6:	b2ad      	uxth	r5, r5
100085b8:	e7be      	b.n	10008538 <cdcd_open+0x58>
100085ba:	46c0      	nop			; (mov r8, r8)
100085bc:	20001710 	.word	0x20001710
100085c0:	20001720 	.word	0x20001720
100085c4:	20001712 	.word	0x20001712

100085c8 <cdcd_control_xfer_cb>:
100085c8:	b5f8      	push	{r3, r4, r5, r6, r7, lr}
100085ca:	2360      	movs	r3, #96	; 0x60
100085cc:	0014      	movs	r4, r2
100085ce:	7812      	ldrb	r2, [r2, #0]
100085d0:	0005      	movs	r5, r0
100085d2:	4013      	ands	r3, r2
100085d4:	2000      	movs	r0, #0
100085d6:	2b20      	cmp	r3, #32
100085d8:	d112      	bne.n	10008600 <cdcd_control_xfer_cb+0x38>
100085da:	4a2f      	ldr	r2, [pc, #188]	; (10008698 <cdcd_control_xfer_cb+0xd0>)
100085dc:	7963      	ldrb	r3, [r4, #5]
100085de:	7927      	ldrb	r7, [r4, #4]
100085e0:	7816      	ldrb	r6, [r2, #0]
100085e2:	021b      	lsls	r3, r3, #8
100085e4:	433b      	orrs	r3, r7
100085e6:	429e      	cmp	r6, r3
100085e8:	d10a      	bne.n	10008600 <cdcd_control_xfer_cb+0x38>
100085ea:	7863      	ldrb	r3, [r4, #1]
100085ec:	2b22      	cmp	r3, #34	; 0x22
100085ee:	d027      	beq.n	10008640 <cdcd_control_xfer_cb+0x78>
100085f0:	d807      	bhi.n	10008602 <cdcd_control_xfer_cb+0x3a>
100085f2:	2b20      	cmp	r3, #32
100085f4:	d017      	beq.n	10008626 <cdcd_control_xfer_cb+0x5e>
100085f6:	2b21      	cmp	r3, #33	; 0x21
100085f8:	d102      	bne.n	10008600 <cdcd_control_xfer_cb+0x38>
100085fa:	2901      	cmp	r1, #1
100085fc:	d03d      	beq.n	1000867a <cdcd_control_xfer_cb+0xb2>
100085fe:	2001      	movs	r0, #1
10008600:	bdf8      	pop	{r3, r4, r5, r6, r7, pc}
10008602:	2b23      	cmp	r3, #35	; 0x23
10008604:	d1fc      	bne.n	10008600 <cdcd_control_xfer_cb+0x38>
10008606:	2901      	cmp	r1, #1
10008608:	d03f      	beq.n	1000868a <cdcd_control_xfer_cb+0xc2>
1000860a:	2903      	cmp	r1, #3
1000860c:	d1f7      	bne.n	100085fe <cdcd_control_xfer_cb+0x36>
1000860e:	4b23      	ldr	r3, [pc, #140]	; (1000869c <cdcd_control_xfer_cb+0xd4>)
10008610:	2b00      	cmp	r3, #0
10008612:	d0f4      	beq.n	100085fe <cdcd_control_xfer_cb+0x36>
10008614:	78e1      	ldrb	r1, [r4, #3]
10008616:	78a3      	ldrb	r3, [r4, #2]
10008618:	0209      	lsls	r1, r1, #8
1000861a:	2000      	movs	r0, #0
1000861c:	4319      	orrs	r1, r3
1000861e:	e000      	b.n	10008622 <cdcd_control_xfer_cb+0x5a>
10008620:	bf00      	nop
10008622:	2001      	movs	r0, #1
10008624:	e7ec      	b.n	10008600 <cdcd_control_xfer_cb+0x38>
10008626:	2901      	cmp	r1, #1
10008628:	d027      	beq.n	1000867a <cdcd_control_xfer_cb+0xb2>
1000862a:	2903      	cmp	r1, #3
1000862c:	d1e7      	bne.n	100085fe <cdcd_control_xfer_cb+0x36>
1000862e:	4b1c      	ldr	r3, [pc, #112]	; (100086a0 <cdcd_control_xfer_cb+0xd8>)
10008630:	2b00      	cmp	r3, #0
10008632:	d0e4      	beq.n	100085fe <cdcd_control_xfer_cb+0x36>
10008634:	2000      	movs	r0, #0
10008636:	1d91      	adds	r1, r2, #6
10008638:	f7fe fabc 	bl	10006bb4 <tud_cdc_line_coding_cb>
1000863c:	2001      	movs	r0, #1
1000863e:	e7df      	b.n	10008600 <cdcd_control_xfer_cb+0x38>
10008640:	2901      	cmp	r1, #1
10008642:	d022      	beq.n	1000868a <cdcd_control_xfer_cb+0xc2>
10008644:	2903      	cmp	r1, #3
10008646:	d1da      	bne.n	100085fe <cdcd_control_xfer_cb+0x36>
10008648:	2501      	movs	r5, #1
1000864a:	002e      	movs	r6, r5
1000864c:	78a3      	ldrb	r3, [r4, #2]
1000864e:	78e4      	ldrb	r4, [r4, #3]
10008650:	3902      	subs	r1, #2
10008652:	0224      	lsls	r4, r4, #8
10008654:	431c      	orrs	r4, r3
10008656:	7114      	strb	r4, [r2, #4]
10008658:	4026      	ands	r6, r4
1000865a:	3224      	adds	r2, #36	; 0x24
1000865c:	0010      	movs	r0, r2
1000865e:	4071      	eors	r1, r6
10008660:	f000 fbc2 	bl	10008de8 <tu_fifo_set_overwritable>
10008664:	4b0f      	ldr	r3, [pc, #60]	; (100086a4 <cdcd_control_xfer_cb+0xdc>)
10008666:	2b00      	cmp	r3, #0
10008668:	d0c9      	beq.n	100085fe <cdcd_control_xfer_cb+0x36>
1000866a:	0862      	lsrs	r2, r4, #1
1000866c:	2000      	movs	r0, #0
1000866e:	0031      	movs	r1, r6
10008670:	402a      	ands	r2, r5
10008672:	e000      	b.n	10008676 <cdcd_control_xfer_cb+0xae>
10008674:	bf00      	nop
10008676:	2001      	movs	r0, #1
10008678:	e7c2      	b.n	10008600 <cdcd_control_xfer_cb+0x38>
1000867a:	2307      	movs	r3, #7
1000867c:	0021      	movs	r1, r4
1000867e:	0028      	movs	r0, r5
10008680:	4a09      	ldr	r2, [pc, #36]	; (100086a8 <cdcd_control_xfer_cb+0xe0>)
10008682:	f7ff fd27 	bl	100080d4 <tud_control_xfer>
10008686:	2001      	movs	r0, #1
10008688:	e7ba      	b.n	10008600 <cdcd_control_xfer_cb+0x38>
1000868a:	0021      	movs	r1, r4
1000868c:	0028      	movs	r0, r5
1000868e:	f7ff fd0b 	bl	100080a8 <tud_control_status>
10008692:	2001      	movs	r0, #1
10008694:	e7b4      	b.n	10008600 <cdcd_control_xfer_cb+0x38>
10008696:	46c0      	nop			; (mov r8, r8)
10008698:	20001710 	.word	0x20001710
1000869c:	00000000 	.word	0x00000000
100086a0:	10006bb5 	.word	0x10006bb5
100086a4:	00000000 	.word	0x00000000
100086a8:	20001716 	.word	0x20001716

100086ac <cdcd_xfer_cb>:
100086ac:	b5f8      	push	{r3, r4, r5, r6, r7, lr}
100086ae:	4657      	mov	r7, sl
100086b0:	464e      	mov	r6, r9
100086b2:	4645      	mov	r5, r8
100086b4:	46de      	mov	lr, fp
100086b6:	b5e0      	push	{r5, r6, r7, lr}
100086b8:	4f49      	ldr	r7, [pc, #292]	; (100087e0 <cdcd_xfer_cb+0x134>)
100086ba:	4680      	mov	r8, r0
100086bc:	78fa      	ldrb	r2, [r7, #3]
100086be:	000c      	movs	r4, r1
100086c0:	001e      	movs	r6, r3
100086c2:	428a      	cmp	r2, r1
100086c4:	d164      	bne.n	10008790 <cdcd_xfer_cb+0xe4>
100086c6:	b29a      	uxth	r2, r3
100086c8:	2392      	movs	r3, #146	; 0x92
100086ca:	009b      	lsls	r3, r3, #2
100086cc:	18fd      	adds	r5, r7, r3
100086ce:	2310      	movs	r3, #16
100086d0:	469b      	mov	fp, r3
100086d2:	44bb      	add	fp, r7
100086d4:	0029      	movs	r1, r5
100086d6:	4658      	mov	r0, fp
100086d8:	f000 fab6 	bl	10008c48 <tu_fifo_write_n>
100086dc:	4b41      	ldr	r3, [pc, #260]	; (100087e4 <cdcd_xfer_cb+0x138>)
100086de:	46d9      	mov	r9, fp
100086e0:	2b00      	cmp	r3, #0
100086e2:	d018      	beq.n	10008716 <cdcd_xfer_cb+0x6a>
100086e4:	797b      	ldrb	r3, [r7, #5]
100086e6:	46d9      	mov	r9, fp
100086e8:	2bff      	cmp	r3, #255	; 0xff
100086ea:	d014      	beq.n	10008716 <cdcd_xfer_cb+0x6a>
100086ec:	2e00      	cmp	r6, #0
100086ee:	d012      	beq.n	10008716 <cdcd_xfer_cb+0x6a>
100086f0:	19aa      	adds	r2, r5, r6
100086f2:	4692      	mov	sl, r2
100086f4:	e003      	b.n	100086fe <cdcd_xfer_cb+0x52>
100086f6:	3501      	adds	r5, #1
100086f8:	4555      	cmp	r5, sl
100086fa:	d00c      	beq.n	10008716 <cdcd_xfer_cb+0x6a>
100086fc:	797b      	ldrb	r3, [r7, #5]
100086fe:	782a      	ldrb	r2, [r5, #0]
10008700:	429a      	cmp	r2, r3
10008702:	d1f8      	bne.n	100086f6 <cdcd_xfer_cb+0x4a>
10008704:	4648      	mov	r0, r9
10008706:	f000 f965 	bl	100089d4 <tu_fifo_empty>
1000870a:	2800      	cmp	r0, #0
1000870c:	d1f3      	bne.n	100086f6 <cdcd_xfer_cb+0x4a>
1000870e:	7979      	ldrb	r1, [r7, #5]
10008710:	e000      	b.n	10008714 <cdcd_xfer_cb+0x68>
10008712:	bf00      	nop
10008714:	e7ef      	b.n	100086f6 <cdcd_xfer_cb+0x4a>
10008716:	4b34      	ldr	r3, [pc, #208]	; (100087e8 <cdcd_xfer_cb+0x13c>)
10008718:	2b00      	cmp	r3, #0
1000871a:	d004      	beq.n	10008726 <cdcd_xfer_cb+0x7a>
1000871c:	4648      	mov	r0, r9
1000871e:	f000 f959 	bl	100089d4 <tu_fifo_empty>
10008722:	2800      	cmp	r0, #0
10008724:	d052      	beq.n	100087cc <cdcd_xfer_cb+0x120>
10008726:	4648      	mov	r0, r9
10008728:	f000 f970 	bl	10008a0c <tu_fifo_remaining>
1000872c:	283f      	cmp	r0, #63	; 0x3f
1000872e:	d834      	bhi.n	1000879a <cdcd_xfer_cb+0xee>
10008730:	464b      	mov	r3, r9
10008732:	3b10      	subs	r3, #16
10008734:	789b      	ldrb	r3, [r3, #2]
10008736:	42a3      	cmp	r3, r4
10008738:	d007      	beq.n	1000874a <cdcd_xfer_cb+0x9e>
1000873a:	2401      	movs	r4, #1
1000873c:	0020      	movs	r0, r4
1000873e:	bcf0      	pop	{r4, r5, r6, r7}
10008740:	46bb      	mov	fp, r7
10008742:	46b2      	mov	sl, r6
10008744:	46a9      	mov	r9, r5
10008746:	46a0      	mov	r8, r4
10008748:	bdf8      	pop	{r3, r4, r5, r6, r7, pc}
1000874a:	4b28      	ldr	r3, [pc, #160]	; (100087ec <cdcd_xfer_cb+0x140>)
1000874c:	2b00      	cmp	r3, #0
1000874e:	d002      	beq.n	10008756 <cdcd_xfer_cb+0xaa>
10008750:	2000      	movs	r0, #0
10008752:	e000      	b.n	10008756 <cdcd_xfer_cb+0xaa>
10008754:	bf00      	nop
10008756:	2000      	movs	r0, #0
10008758:	f7ff fe06 	bl	10008368 <tud_cdc_n_write_flush>
1000875c:	2800      	cmp	r0, #0
1000875e:	d1ec      	bne.n	1000873a <cdcd_xfer_cb+0x8e>
10008760:	4d23      	ldr	r5, [pc, #140]	; (100087f0 <cdcd_xfer_cb+0x144>)
10008762:	0028      	movs	r0, r5
10008764:	f000 f920 	bl	100089a8 <tu_fifo_count>
10008768:	2800      	cmp	r0, #0
1000876a:	d1e6      	bne.n	1000873a <cdcd_xfer_cb+0x8e>
1000876c:	2e00      	cmp	r6, #0
1000876e:	d0e4      	beq.n	1000873a <cdcd_xfer_cb+0x8e>
10008770:	05f6      	lsls	r6, r6, #23
10008772:	d1e2      	bne.n	1000873a <cdcd_xfer_cb+0x8e>
10008774:	3d24      	subs	r5, #36	; 0x24
10008776:	4640      	mov	r0, r8
10008778:	78a9      	ldrb	r1, [r5, #2]
1000877a:	f7ff fc47 	bl	1000800c <usbd_edpt_claim>
1000877e:	1e04      	subs	r4, r0, #0
10008780:	d0db      	beq.n	1000873a <cdcd_xfer_cb+0x8e>
10008782:	2300      	movs	r3, #0
10008784:	2200      	movs	r2, #0
10008786:	4640      	mov	r0, r8
10008788:	78a9      	ldrb	r1, [r5, #2]
1000878a:	f7ff fc67 	bl	1000805c <usbd_edpt_xfer>
1000878e:	e7d5      	b.n	1000873c <cdcd_xfer_cb+0x90>
10008790:	78bb      	ldrb	r3, [r7, #2]
10008792:	428b      	cmp	r3, r1
10008794:	d0d9      	beq.n	1000874a <cdcd_xfer_cb+0x9e>
10008796:	2400      	movs	r4, #0
10008798:	e7d0      	b.n	1000873c <cdcd_xfer_cb+0x90>
1000879a:	464d      	mov	r5, r9
1000879c:	3d10      	subs	r5, #16
1000879e:	2000      	movs	r0, #0
100087a0:	78e9      	ldrb	r1, [r5, #3]
100087a2:	f7ff fc33 	bl	1000800c <usbd_edpt_claim>
100087a6:	2800      	cmp	r0, #0
100087a8:	d101      	bne.n	100087ae <cdcd_xfer_cb+0x102>
100087aa:	78ab      	ldrb	r3, [r5, #2]
100087ac:	e7c3      	b.n	10008736 <cdcd_xfer_cb+0x8a>
100087ae:	4648      	mov	r0, r9
100087b0:	f000 f92c 	bl	10008a0c <tu_fifo_remaining>
100087b4:	283f      	cmp	r0, #63	; 0x3f
100087b6:	d90c      	bls.n	100087d2 <cdcd_xfer_cb+0x126>
100087b8:	228e      	movs	r2, #142	; 0x8e
100087ba:	0092      	lsls	r2, r2, #2
100087bc:	2340      	movs	r3, #64	; 0x40
100087be:	2000      	movs	r0, #0
100087c0:	78e9      	ldrb	r1, [r5, #3]
100087c2:	444a      	add	r2, r9
100087c4:	f7ff fc4a 	bl	1000805c <usbd_edpt_xfer>
100087c8:	78ab      	ldrb	r3, [r5, #2]
100087ca:	e7b4      	b.n	10008736 <cdcd_xfer_cb+0x8a>
100087cc:	f7fe fb68 	bl	10006ea0 <tud_cdc_rx_cb>
100087d0:	e7a9      	b.n	10008726 <cdcd_xfer_cb+0x7a>
100087d2:	2000      	movs	r0, #0
100087d4:	78e9      	ldrb	r1, [r5, #3]
100087d6:	f7ff fc2d 	bl	10008034 <usbd_edpt_release>
100087da:	78ab      	ldrb	r3, [r5, #2]
100087dc:	e7ab      	b.n	10008736 <cdcd_xfer_cb+0x8a>
100087de:	46c0      	nop			; (mov r8, r8)
100087e0:	20001710 	.word	0x20001710
100087e4:	00000000 	.word	0x00000000
100087e8:	10006ea1 	.word	0x10006ea1
100087ec:	00000000 	.word	0x00000000
100087f0:	20001734 	.word	0x20001734

100087f4 <tusb_init>:
100087f4:	b510      	push	{r4, lr}
100087f6:	2000      	movs	r0, #0
100087f8:	f7fe feb8 	bl	1000756c <tud_init>
100087fc:	bd10      	pop	{r4, pc}
100087fe:	46c0      	nop			; (mov r8, r8)

10008800 <tusb_inited>:
10008800:	b510      	push	{r4, lr}
10008802:	f7fe fea9 	bl	10007558 <tud_inited>
10008806:	bd10      	pop	{r4, pc}

10008808 <tu_edpt_claim>:
10008808:	7803      	ldrb	r3, [r0, #0]
1000880a:	b570      	push	{r4, r5, r6, lr}
1000880c:	07db      	lsls	r3, r3, #31
1000880e:	0004      	movs	r4, r0
10008810:	000e      	movs	r6, r1
10008812:	0fdd      	lsrs	r5, r3, #31
10008814:	2b00      	cmp	r3, #0
10008816:	d117      	bne.n	10008848 <tu_edpt_claim+0x40>
10008818:	7803      	ldrb	r3, [r0, #0]
1000881a:	075b      	lsls	r3, r3, #29
1000881c:	d501      	bpl.n	10008822 <tu_edpt_claim+0x1a>
1000881e:	0028      	movs	r0, r5
10008820:	bd70      	pop	{r4, r5, r6, pc}
10008822:	2101      	movs	r1, #1
10008824:	0030      	movs	r0, r6
10008826:	4249      	negs	r1, r1
10008828:	f000 fda6 	bl	10009378 <__mutex_enter_timeout_ms_veneer>
1000882c:	7823      	ldrb	r3, [r4, #0]
1000882e:	07db      	lsls	r3, r3, #31
10008830:	0fdd      	lsrs	r5, r3, #31
10008832:	2b00      	cmp	r3, #0
10008834:	d10a      	bne.n	1000884c <tu_edpt_claim+0x44>
10008836:	7823      	ldrb	r3, [r4, #0]
10008838:	075b      	lsls	r3, r3, #29
1000883a:	d408      	bmi.n	1000884e <tu_edpt_claim+0x46>
1000883c:	2204      	movs	r2, #4
1000883e:	7823      	ldrb	r3, [r4, #0]
10008840:	2501      	movs	r5, #1
10008842:	4313      	orrs	r3, r2
10008844:	7023      	strb	r3, [r4, #0]
10008846:	e002      	b.n	1000884e <tu_edpt_claim+0x46>
10008848:	2500      	movs	r5, #0
1000884a:	e7e8      	b.n	1000881e <tu_edpt_claim+0x16>
1000884c:	2500      	movs	r5, #0
1000884e:	0030      	movs	r0, r6
10008850:	f000 fd62 	bl	10009318 <__mutex_exit_veneer>
10008854:	e7e3      	b.n	1000881e <tu_edpt_claim+0x16>
10008856:	46c0      	nop			; (mov r8, r8)

10008858 <tu_edpt_release>:
10008858:	b570      	push	{r4, r5, r6, lr}
1000885a:	000d      	movs	r5, r1
1000885c:	2101      	movs	r1, #1
1000885e:	0004      	movs	r4, r0
10008860:	4249      	negs	r1, r1
10008862:	0028      	movs	r0, r5
10008864:	f000 fd88 	bl	10009378 <__mutex_enter_timeout_ms_veneer>
10008868:	7823      	ldrb	r3, [r4, #0]
1000886a:	075b      	lsls	r3, r3, #29
1000886c:	0fde      	lsrs	r6, r3, #31
1000886e:	2b00      	cmp	r3, #0
10008870:	db04      	blt.n	1000887c <tu_edpt_release+0x24>
10008872:	0028      	movs	r0, r5
10008874:	f000 fd50 	bl	10009318 <__mutex_exit_veneer>
10008878:	0030      	movs	r0, r6
1000887a:	bd70      	pop	{r4, r5, r6, pc}
1000887c:	7823      	ldrb	r3, [r4, #0]
1000887e:	07db      	lsls	r3, r3, #31
10008880:	d404      	bmi.n	1000888c <tu_edpt_release+0x34>
10008882:	2204      	movs	r2, #4
10008884:	7823      	ldrb	r3, [r4, #0]
10008886:	4393      	bics	r3, r2
10008888:	7023      	strb	r3, [r4, #0]
1000888a:	e7f2      	b.n	10008872 <tu_edpt_release+0x1a>
1000888c:	2600      	movs	r6, #0
1000888e:	e7f0      	b.n	10008872 <tu_edpt_release+0x1a>

10008890 <tu_edpt_validate>:
10008890:	7943      	ldrb	r3, [r0, #5]
10008892:	7902      	ldrb	r2, [r0, #4]
10008894:	021b      	lsls	r3, r3, #8
10008896:	4313      	orrs	r3, r2
10008898:	055b      	lsls	r3, r3, #21
1000889a:	0d5a      	lsrs	r2, r3, #21
1000889c:	78c3      	ldrb	r3, [r0, #3]
1000889e:	079b      	lsls	r3, r3, #30
100088a0:	0f9b      	lsrs	r3, r3, #30
100088a2:	2b02      	cmp	r3, #2
100088a4:	d005      	beq.n	100088b2 <tu_edpt_validate+0x22>
100088a6:	2b03      	cmp	r3, #3
100088a8:	d015      	beq.n	100088d6 <tu_edpt_validate+0x46>
100088aa:	2000      	movs	r0, #0
100088ac:	2b01      	cmp	r3, #1
100088ae:	d008      	beq.n	100088c2 <tu_edpt_validate+0x32>
100088b0:	4770      	bx	lr
100088b2:	2902      	cmp	r1, #2
100088b4:	d01c      	beq.n	100088f0 <tu_edpt_validate+0x60>
100088b6:	2000      	movs	r0, #0
100088b8:	2340      	movs	r3, #64	; 0x40
100088ba:	4293      	cmp	r3, r2
100088bc:	4140      	adcs	r0, r0
100088be:	b2c0      	uxtb	r0, r0
100088c0:	e7f6      	b.n	100088b0 <tu_edpt_validate+0x20>
100088c2:	3902      	subs	r1, #2
100088c4:	424b      	negs	r3, r1
100088c6:	4159      	adcs	r1, r3
100088c8:	4b0c      	ldr	r3, [pc, #48]	; (100088fc <tu_edpt_validate+0x6c>)
100088ca:	469c      	mov	ip, r3
100088cc:	4461      	add	r1, ip
100088ce:	4291      	cmp	r1, r2
100088d0:	4140      	adcs	r0, r0
100088d2:	b2c0      	uxtb	r0, r0
100088d4:	e7ec      	b.n	100088b0 <tu_edpt_validate+0x20>
100088d6:	3902      	subs	r1, #2
100088d8:	424b      	negs	r3, r1
100088da:	4159      	adcs	r1, r3
100088dc:	23f0      	movs	r3, #240	; 0xf0
100088de:	2000      	movs	r0, #0
100088e0:	4249      	negs	r1, r1
100088e2:	009b      	lsls	r3, r3, #2
100088e4:	4019      	ands	r1, r3
100088e6:	3140      	adds	r1, #64	; 0x40
100088e8:	4291      	cmp	r1, r2
100088ea:	4140      	adcs	r0, r0
100088ec:	b2c0      	uxtb	r0, r0
100088ee:	e7df      	b.n	100088b0 <tu_edpt_validate+0x20>
100088f0:	4b03      	ldr	r3, [pc, #12]	; (10008900 <tu_edpt_validate+0x70>)
100088f2:	18d0      	adds	r0, r2, r3
100088f4:	4243      	negs	r3, r0
100088f6:	4158      	adcs	r0, r3
100088f8:	b2c0      	uxtb	r0, r0
100088fa:	e7d9      	b.n	100088b0 <tu_edpt_validate+0x20>
100088fc:	000003ff 	.word	0x000003ff
10008900:	fffffe00 	.word	0xfffffe00

10008904 <tu_edpt_bind_driver>:
10008904:	188a      	adds	r2, r1, r2
10008906:	b570      	push	{r4, r5, r6, lr}
10008908:	4291      	cmp	r1, r2
1000890a:	d207      	bcs.n	1000891c <tu_edpt_bind_driver+0x18>
1000890c:	267f      	movs	r6, #127	; 0x7f
1000890e:	784c      	ldrb	r4, [r1, #1]
10008910:	2c05      	cmp	r4, #5
10008912:	d004      	beq.n	1000891e <tu_edpt_bind_driver+0x1a>
10008914:	780c      	ldrb	r4, [r1, #0]
10008916:	1909      	adds	r1, r1, r4
10008918:	428a      	cmp	r2, r1
1000891a:	d8f8      	bhi.n	1000890e <tu_edpt_bind_driver+0xa>
1000891c:	bd70      	pop	{r4, r5, r6, pc}
1000891e:	0034      	movs	r4, r6
10008920:	788d      	ldrb	r5, [r1, #2]
10008922:	402c      	ands	r4, r5
10008924:	0064      	lsls	r4, r4, #1
10008926:	1904      	adds	r4, r0, r4
10008928:	09ed      	lsrs	r5, r5, #7
1000892a:	5563      	strb	r3, [r4, r5]
1000892c:	780c      	ldrb	r4, [r1, #0]
1000892e:	1909      	adds	r1, r1, r4
10008930:	428a      	cmp	r2, r1
10008932:	d8ec      	bhi.n	1000890e <tu_edpt_bind_driver+0xa>
10008934:	e7f2      	b.n	1000891c <tu_edpt_bind_driver+0x18>
10008936:	46c0      	nop			; (mov r8, r8)

10008938 <tu_fifo_config>:
10008938:	b5f0      	push	{r4, r5, r6, r7, lr}
1000893a:	46c6      	mov	lr, r8
1000893c:	b500      	push	{lr}
1000893e:	0004      	movs	r4, r0
10008940:	a806      	add	r0, sp, #24
10008942:	7805      	ldrb	r5, [r0, #0]
10008944:	2080      	movs	r0, #128	; 0x80
10008946:	4688      	mov	r8, r1
10008948:	0017      	movs	r7, r2
1000894a:	001e      	movs	r6, r3
1000894c:	0200      	lsls	r0, r0, #8
1000894e:	4282      	cmp	r2, r0
10008950:	d827      	bhi.n	100089a2 <tu_fifo_config+0x6a>
10008952:	68e0      	ldr	r0, [r4, #12]
10008954:	2800      	cmp	r0, #0
10008956:	d003      	beq.n	10008960 <tu_fifo_config+0x28>
10008958:	2101      	movs	r1, #1
1000895a:	4249      	negs	r1, r1
1000895c:	f000 fd0c 	bl	10009378 <__mutex_enter_timeout_ms_veneer>
10008960:	6920      	ldr	r0, [r4, #16]
10008962:	2800      	cmp	r0, #0
10008964:	d003      	beq.n	1000896e <tu_fifo_config+0x36>
10008966:	2101      	movs	r1, #1
10008968:	4249      	negs	r1, r1
1000896a:	f000 fd05 	bl	10009378 <__mutex_enter_timeout_ms_veneer>
1000896e:	4643      	mov	r3, r8
10008970:	6023      	str	r3, [r4, #0]
10008972:	0473      	lsls	r3, r6, #17
10008974:	0c5b      	lsrs	r3, r3, #17
10008976:	03ed      	lsls	r5, r5, #15
10008978:	431d      	orrs	r5, r3
1000897a:	2300      	movs	r3, #0
1000897c:	68e0      	ldr	r0, [r4, #12]
1000897e:	8163      	strh	r3, [r4, #10]
10008980:	80a7      	strh	r7, [r4, #4]
10008982:	80e5      	strh	r5, [r4, #6]
10008984:	8123      	strh	r3, [r4, #8]
10008986:	2800      	cmp	r0, #0
10008988:	d001      	beq.n	1000898e <tu_fifo_config+0x56>
1000898a:	f000 fcc5 	bl	10009318 <__mutex_exit_veneer>
1000898e:	6920      	ldr	r0, [r4, #16]
10008990:	2401      	movs	r4, #1
10008992:	2800      	cmp	r0, #0
10008994:	d001      	beq.n	1000899a <tu_fifo_config+0x62>
10008996:	f000 fcbf 	bl	10009318 <__mutex_exit_veneer>
1000899a:	0020      	movs	r0, r4
1000899c:	bc80      	pop	{r7}
1000899e:	46b8      	mov	r8, r7
100089a0:	bdf0      	pop	{r4, r5, r6, r7, pc}
100089a2:	2400      	movs	r4, #0
100089a4:	e7f9      	b.n	1000899a <tu_fifo_config+0x62>
100089a6:	46c0      	nop			; (mov r8, r8)

100089a8 <tu_fifo_count>:
100089a8:	b510      	push	{r4, lr}
100089aa:	8904      	ldrh	r4, [r0, #8]
100089ac:	8941      	ldrh	r1, [r0, #10]
100089ae:	8882      	ldrh	r2, [r0, #4]
100089b0:	b2a3      	uxth	r3, r4
100089b2:	b288      	uxth	r0, r1
100089b4:	428c      	cmp	r4, r1
100089b6:	d307      	bcc.n	100089c8 <tu_fifo_count+0x20>
100089b8:	1a1b      	subs	r3, r3, r0
100089ba:	b29b      	uxth	r3, r3
100089bc:	1c10      	adds	r0, r2, #0
100089be:	429a      	cmp	r2, r3
100089c0:	d900      	bls.n	100089c4 <tu_fifo_count+0x1c>
100089c2:	1c18      	adds	r0, r3, #0
100089c4:	b280      	uxth	r0, r0
100089c6:	bd10      	pop	{r4, pc}
100089c8:	0051      	lsls	r1, r2, #1
100089ca:	1a09      	subs	r1, r1, r0
100089cc:	185b      	adds	r3, r3, r1
100089ce:	b29b      	uxth	r3, r3
100089d0:	e7f4      	b.n	100089bc <tu_fifo_count+0x14>
100089d2:	46c0      	nop			; (mov r8, r8)

100089d4 <tu_fifo_empty>:
100089d4:	8903      	ldrh	r3, [r0, #8]
100089d6:	8940      	ldrh	r0, [r0, #10]
100089d8:	1a18      	subs	r0, r3, r0
100089da:	4243      	negs	r3, r0
100089dc:	4158      	adcs	r0, r3
100089de:	b2c0      	uxtb	r0, r0
100089e0:	4770      	bx	lr
100089e2:	46c0      	nop			; (mov r8, r8)

100089e4 <tu_fifo_full>:
100089e4:	b510      	push	{r4, lr}
100089e6:	8901      	ldrh	r1, [r0, #8]
100089e8:	8942      	ldrh	r2, [r0, #10]
100089ea:	8884      	ldrh	r4, [r0, #4]
100089ec:	b28b      	uxth	r3, r1
100089ee:	b290      	uxth	r0, r2
100089f0:	4291      	cmp	r1, r2
100089f2:	d306      	bcc.n	10008a02 <tu_fifo_full+0x1e>
100089f4:	1a1b      	subs	r3, r3, r0
100089f6:	b29b      	uxth	r3, r3
100089f8:	2000      	movs	r0, #0
100089fa:	42a3      	cmp	r3, r4
100089fc:	4140      	adcs	r0, r0
100089fe:	b2c0      	uxtb	r0, r0
10008a00:	bd10      	pop	{r4, pc}
10008a02:	0062      	lsls	r2, r4, #1
10008a04:	1a12      	subs	r2, r2, r0
10008a06:	189b      	adds	r3, r3, r2
10008a08:	b29b      	uxth	r3, r3
10008a0a:	e7f5      	b.n	100089f8 <tu_fifo_full+0x14>

10008a0c <tu_fifo_remaining>:
10008a0c:	b510      	push	{r4, lr}
10008a0e:	8904      	ldrh	r4, [r0, #8]
10008a10:	8941      	ldrh	r1, [r0, #10]
10008a12:	8882      	ldrh	r2, [r0, #4]
10008a14:	b2a3      	uxth	r3, r4
10008a16:	b288      	uxth	r0, r1
10008a18:	428c      	cmp	r4, r1
10008a1a:	d307      	bcc.n	10008a2c <tu_fifo_remaining+0x20>
10008a1c:	1a1b      	subs	r3, r3, r0
10008a1e:	b29b      	uxth	r3, r3
10008a20:	2000      	movs	r0, #0
10008a22:	429a      	cmp	r2, r3
10008a24:	d901      	bls.n	10008a2a <tu_fifo_remaining+0x1e>
10008a26:	1ad2      	subs	r2, r2, r3
10008a28:	b290      	uxth	r0, r2
10008a2a:	bd10      	pop	{r4, pc}
10008a2c:	0051      	lsls	r1, r2, #1
10008a2e:	1a09      	subs	r1, r1, r0
10008a30:	185b      	adds	r3, r3, r1
10008a32:	b29b      	uxth	r3, r3
10008a34:	e7f4      	b.n	10008a20 <tu_fifo_remaining+0x14>
10008a36:	46c0      	nop			; (mov r8, r8)

10008a38 <tu_fifo_read>:
10008a38:	b570      	push	{r4, r5, r6, lr}
10008a3a:	0004      	movs	r4, r0
10008a3c:	6900      	ldr	r0, [r0, #16]
10008a3e:	000e      	movs	r6, r1
10008a40:	2800      	cmp	r0, #0
10008a42:	d003      	beq.n	10008a4c <tu_fifo_read+0x14>
10008a44:	2101      	movs	r1, #1
10008a46:	4249      	negs	r1, r1
10008a48:	f000 fc96 	bl	10009378 <__mutex_enter_timeout_ms_veneer>
10008a4c:	8925      	ldrh	r5, [r4, #8]
10008a4e:	8960      	ldrh	r0, [r4, #10]
10008a50:	88a2      	ldrh	r2, [r4, #4]
10008a52:	b2a9      	uxth	r1, r5
10008a54:	b283      	uxth	r3, r0
10008a56:	4285      	cmp	r5, r0
10008a58:	d32c      	bcc.n	10008ab4 <tu_fifo_read+0x7c>
10008a5a:	1acd      	subs	r5, r1, r3
10008a5c:	b2ad      	uxth	r5, r5
10008a5e:	2d00      	cmp	r5, #0
10008a60:	d02e      	beq.n	10008ac0 <tu_fifo_read+0x88>
10008a62:	42aa      	cmp	r2, r5
10008a64:	d208      	bcs.n	10008a78 <tu_fifo_read+0x40>
10008a66:	4291      	cmp	r1, r2
10008a68:	d331      	bcc.n	10008ace <tu_fifo_read+0x96>
10008a6a:	1a89      	subs	r1, r1, r2
10008a6c:	b28b      	uxth	r3, r1
10008a6e:	8163      	strh	r3, [r4, #10]
10008a70:	429a      	cmp	r2, r3
10008a72:	d803      	bhi.n	10008a7c <tu_fifo_read+0x44>
10008a74:	1a9b      	subs	r3, r3, r2
10008a76:	b29b      	uxth	r3, r3
10008a78:	429a      	cmp	r2, r3
10008a7a:	d9fb      	bls.n	10008a74 <tu_fifo_read+0x3c>
10008a7c:	88e2      	ldrh	r2, [r4, #6]
10008a7e:	6821      	ldr	r1, [r4, #0]
10008a80:	0452      	lsls	r2, r2, #17
10008a82:	0c52      	lsrs	r2, r2, #17
10008a84:	4353      	muls	r3, r2
10008a86:	0030      	movs	r0, r6
10008a88:	18c9      	adds	r1, r1, r3
10008a8a:	f7fd fecf 	bl	1000682c <__wrap___aeabi_memcpy>
10008a8e:	8961      	ldrh	r1, [r4, #10]
10008a90:	2501      	movs	r5, #1
10008a92:	1c4b      	adds	r3, r1, #1
10008a94:	b29b      	uxth	r3, r3
10008a96:	88a2      	ldrh	r2, [r4, #4]
10008a98:	4299      	cmp	r1, r3
10008a9a:	d914      	bls.n	10008ac6 <tu_fifo_read+0x8e>
10008a9c:	2300      	movs	r3, #0
10008a9e:	0052      	lsls	r2, r2, #1
10008aa0:	1a9b      	subs	r3, r3, r2
10008aa2:	b29b      	uxth	r3, r3
10008aa4:	6920      	ldr	r0, [r4, #16]
10008aa6:	8163      	strh	r3, [r4, #10]
10008aa8:	2800      	cmp	r0, #0
10008aaa:	d001      	beq.n	10008ab0 <tu_fifo_read+0x78>
10008aac:	f000 fc34 	bl	10009318 <__mutex_exit_veneer>
10008ab0:	0028      	movs	r0, r5
10008ab2:	bd70      	pop	{r4, r5, r6, pc}
10008ab4:	0055      	lsls	r5, r2, #1
10008ab6:	1aed      	subs	r5, r5, r3
10008ab8:	194d      	adds	r5, r1, r5
10008aba:	b2ad      	uxth	r5, r5
10008abc:	2d00      	cmp	r5, #0
10008abe:	d1d0      	bne.n	10008a62 <tu_fifo_read+0x2a>
10008ac0:	2500      	movs	r5, #0
10008ac2:	8963      	ldrh	r3, [r4, #10]
10008ac4:	b29b      	uxth	r3, r3
10008ac6:	0052      	lsls	r2, r2, #1
10008ac8:	4293      	cmp	r3, r2
10008aca:	dbeb      	blt.n	10008aa4 <tu_fifo_read+0x6c>
10008acc:	e7e8      	b.n	10008aa0 <tu_fifo_read+0x68>
10008ace:	1889      	adds	r1, r1, r2
10008ad0:	b28b      	uxth	r3, r1
10008ad2:	8163      	strh	r3, [r4, #10]
10008ad4:	e7cc      	b.n	10008a70 <tu_fifo_read+0x38>
10008ad6:	46c0      	nop			; (mov r8, r8)

10008ad8 <tu_fifo_read_n>:
10008ad8:	b5f0      	push	{r4, r5, r6, r7, lr}
10008ada:	4646      	mov	r6, r8
10008adc:	464f      	mov	r7, r9
10008ade:	46d6      	mov	lr, sl
10008ae0:	b5c0      	push	{r6, r7, lr}
10008ae2:	0006      	movs	r6, r0
10008ae4:	6900      	ldr	r0, [r0, #16]
10008ae6:	4689      	mov	r9, r1
10008ae8:	4690      	mov	r8, r2
10008aea:	2800      	cmp	r0, #0
10008aec:	d003      	beq.n	10008af6 <tu_fifo_read_n+0x1e>
10008aee:	2101      	movs	r1, #1
10008af0:	4249      	negs	r1, r1
10008af2:	f000 fc41 	bl	10009378 <__mutex_enter_timeout_ms_veneer>
10008af6:	8931      	ldrh	r1, [r6, #8]
10008af8:	8972      	ldrh	r2, [r6, #10]
10008afa:	88b5      	ldrh	r5, [r6, #4]
10008afc:	b28b      	uxth	r3, r1
10008afe:	b294      	uxth	r4, r2
10008b00:	4291      	cmp	r1, r2
10008b02:	d354      	bcc.n	10008bae <tu_fifo_read_n+0xd6>
10008b04:	1b1f      	subs	r7, r3, r4
10008b06:	b2bf      	uxth	r7, r7
10008b08:	2f00      	cmp	r7, #0
10008b0a:	d04a      	beq.n	10008ba2 <tu_fifo_read_n+0xca>
10008b0c:	42bd      	cmp	r5, r7
10008b0e:	d205      	bcs.n	10008b1c <tu_fifo_read_n+0x44>
10008b10:	42ab      	cmp	r3, r5
10008b12:	d251      	bcs.n	10008bb8 <tu_fifo_read_n+0xe0>
10008b14:	195b      	adds	r3, r3, r5
10008b16:	b29c      	uxth	r4, r3
10008b18:	002f      	movs	r7, r5
10008b1a:	8174      	strh	r4, [r6, #10]
10008b1c:	4643      	mov	r3, r8
10008b1e:	45b8      	cmp	r8, r7
10008b20:	d83d      	bhi.n	10008b9e <tu_fifo_read_n+0xc6>
10008b22:	b29f      	uxth	r7, r3
10008b24:	42a5      	cmp	r5, r4
10008b26:	d803      	bhi.n	10008b30 <tu_fifo_read_n+0x58>
10008b28:	1b64      	subs	r4, r4, r5
10008b2a:	b2a4      	uxth	r4, r4
10008b2c:	42a5      	cmp	r5, r4
10008b2e:	d9fb      	bls.n	10008b28 <tu_fifo_read_n+0x50>
10008b30:	88f2      	ldrh	r2, [r6, #6]
10008b32:	6831      	ldr	r1, [r6, #0]
10008b34:	0452      	lsls	r2, r2, #17
10008b36:	0c52      	lsrs	r2, r2, #17
10008b38:	4690      	mov	r8, r2
10008b3a:	4362      	muls	r2, r4
10008b3c:	1b2b      	subs	r3, r5, r4
10008b3e:	b29b      	uxth	r3, r3
10008b40:	1889      	adds	r1, r1, r2
10008b42:	4642      	mov	r2, r8
10008b44:	429f      	cmp	r7, r3
10008b46:	d925      	bls.n	10008b94 <tu_fifo_read_n+0xbc>
10008b48:	4353      	muls	r3, r2
10008b4a:	b29b      	uxth	r3, r3
10008b4c:	001a      	movs	r2, r3
10008b4e:	4648      	mov	r0, r9
10008b50:	469a      	mov	sl, r3
10008b52:	f7fd fe6b 	bl	1000682c <__wrap___aeabi_memcpy>
10008b56:	4643      	mov	r3, r8
10008b58:	4648      	mov	r0, r9
10008b5a:	1b7d      	subs	r5, r7, r5
10008b5c:	1964      	adds	r4, r4, r5
10008b5e:	435c      	muls	r4, r3
10008b60:	6831      	ldr	r1, [r6, #0]
10008b62:	4450      	add	r0, sl
10008b64:	b2a2      	uxth	r2, r4
10008b66:	f7fd fe61 	bl	1000682c <__wrap___aeabi_memcpy>
10008b6a:	8971      	ldrh	r1, [r6, #10]
10008b6c:	88b5      	ldrh	r5, [r6, #4]
10008b6e:	19cb      	adds	r3, r1, r7
10008b70:	b29b      	uxth	r3, r3
10008b72:	006a      	lsls	r2, r5, #1
10008b74:	4299      	cmp	r1, r3
10008b76:	d916      	bls.n	10008ba6 <tu_fifo_read_n+0xce>
10008b78:	1a9b      	subs	r3, r3, r2
10008b7a:	b29b      	uxth	r3, r3
10008b7c:	6930      	ldr	r0, [r6, #16]
10008b7e:	8173      	strh	r3, [r6, #10]
10008b80:	2800      	cmp	r0, #0
10008b82:	d001      	beq.n	10008b88 <tu_fifo_read_n+0xb0>
10008b84:	f000 fbc8 	bl	10009318 <__mutex_exit_veneer>
10008b88:	0038      	movs	r0, r7
10008b8a:	bce0      	pop	{r5, r6, r7}
10008b8c:	46ba      	mov	sl, r7
10008b8e:	46b1      	mov	r9, r6
10008b90:	46a8      	mov	r8, r5
10008b92:	bdf0      	pop	{r4, r5, r6, r7, pc}
10008b94:	4648      	mov	r0, r9
10008b96:	437a      	muls	r2, r7
10008b98:	f7fd fe48 	bl	1000682c <__wrap___aeabi_memcpy>
10008b9c:	e7e5      	b.n	10008b6a <tu_fifo_read_n+0x92>
10008b9e:	1c3b      	adds	r3, r7, #0
10008ba0:	e7bf      	b.n	10008b22 <tu_fifo_read_n+0x4a>
10008ba2:	8973      	ldrh	r3, [r6, #10]
10008ba4:	b29b      	uxth	r3, r3
10008ba6:	006a      	lsls	r2, r5, #1
10008ba8:	4293      	cmp	r3, r2
10008baa:	dbe7      	blt.n	10008b7c <tu_fifo_read_n+0xa4>
10008bac:	e7e4      	b.n	10008b78 <tu_fifo_read_n+0xa0>
10008bae:	006f      	lsls	r7, r5, #1
10008bb0:	1b3f      	subs	r7, r7, r4
10008bb2:	19df      	adds	r7, r3, r7
10008bb4:	b2bf      	uxth	r7, r7
10008bb6:	e7a7      	b.n	10008b08 <tu_fifo_read_n+0x30>
10008bb8:	1b5b      	subs	r3, r3, r5
10008bba:	b29c      	uxth	r4, r3
10008bbc:	e7ac      	b.n	10008b18 <tu_fifo_read_n+0x40>
10008bbe:	46c0      	nop			; (mov r8, r8)

10008bc0 <tu_fifo_write>:
10008bc0:	b5f8      	push	{r3, r4, r5, r6, r7, lr}
10008bc2:	0004      	movs	r4, r0
10008bc4:	68c0      	ldr	r0, [r0, #12]
10008bc6:	000e      	movs	r6, r1
10008bc8:	2800      	cmp	r0, #0
10008bca:	d003      	beq.n	10008bd4 <tu_fifo_write+0x14>
10008bcc:	2101      	movs	r1, #1
10008bce:	4249      	negs	r1, r1
10008bd0:	f000 fbd2 	bl	10009378 <__mutex_enter_timeout_ms_veneer>
10008bd4:	8925      	ldrh	r5, [r4, #8]
10008bd6:	8920      	ldrh	r0, [r4, #8]
10008bd8:	8961      	ldrh	r1, [r4, #10]
10008bda:	88a2      	ldrh	r2, [r4, #4]
10008bdc:	b2ad      	uxth	r5, r5
10008bde:	b283      	uxth	r3, r0
10008be0:	b28f      	uxth	r7, r1
10008be2:	4288      	cmp	r0, r1
10008be4:	d328      	bcc.n	10008c38 <tu_fifo_write+0x78>
10008be6:	1bdb      	subs	r3, r3, r7
10008be8:	b29b      	uxth	r3, r3
10008bea:	429a      	cmp	r2, r3
10008bec:	d809      	bhi.n	10008c02 <tu_fifo_write+0x42>
10008bee:	79e7      	ldrb	r7, [r4, #7]
10008bf0:	09ff      	lsrs	r7, r7, #7
10008bf2:	d106      	bne.n	10008c02 <tu_fifo_write+0x42>
10008bf4:	68e0      	ldr	r0, [r4, #12]
10008bf6:	2800      	cmp	r0, #0
10008bf8:	d001      	beq.n	10008bfe <tu_fifo_write+0x3e>
10008bfa:	f000 fb8d 	bl	10009318 <__mutex_exit_veneer>
10008bfe:	0038      	movs	r0, r7
10008c00:	bdf8      	pop	{r3, r4, r5, r6, r7, pc}
10008c02:	002b      	movs	r3, r5
10008c04:	4295      	cmp	r5, r2
10008c06:	d303      	bcc.n	10008c10 <tu_fifo_write+0x50>
10008c08:	1a9b      	subs	r3, r3, r2
10008c0a:	b29b      	uxth	r3, r3
10008c0c:	4293      	cmp	r3, r2
10008c0e:	d2fb      	bcs.n	10008c08 <tu_fifo_write+0x48>
10008c10:	88e2      	ldrh	r2, [r4, #6]
10008c12:	6820      	ldr	r0, [r4, #0]
10008c14:	0452      	lsls	r2, r2, #17
10008c16:	0c52      	lsrs	r2, r2, #17
10008c18:	4353      	muls	r3, r2
10008c1a:	0031      	movs	r1, r6
10008c1c:	18c0      	adds	r0, r0, r3
10008c1e:	f7fd fe05 	bl	1000682c <__wrap___aeabi_memcpy>
10008c22:	88a2      	ldrh	r2, [r4, #4]
10008c24:	1c6b      	adds	r3, r5, #1
10008c26:	b29b      	uxth	r3, r3
10008c28:	0052      	lsls	r2, r2, #1
10008c2a:	429d      	cmp	r5, r3
10008c2c:	d909      	bls.n	10008c42 <tu_fifo_write+0x82>
10008c2e:	1a9b      	subs	r3, r3, r2
10008c30:	b29b      	uxth	r3, r3
10008c32:	2701      	movs	r7, #1
10008c34:	8123      	strh	r3, [r4, #8]
10008c36:	e7dd      	b.n	10008bf4 <tu_fifo_write+0x34>
10008c38:	0051      	lsls	r1, r2, #1
10008c3a:	1bc9      	subs	r1, r1, r7
10008c3c:	185b      	adds	r3, r3, r1
10008c3e:	b29b      	uxth	r3, r3
10008c40:	e7d3      	b.n	10008bea <tu_fifo_write+0x2a>
10008c42:	4293      	cmp	r3, r2
10008c44:	dbf5      	blt.n	10008c32 <tu_fifo_write+0x72>
10008c46:	e7f2      	b.n	10008c2e <tu_fifo_write+0x6e>

10008c48 <tu_fifo_write_n>:
10008c48:	b5f0      	push	{r4, r5, r6, r7, lr}
10008c4a:	464e      	mov	r6, r9
10008c4c:	4645      	mov	r5, r8
10008c4e:	46de      	mov	lr, fp
10008c50:	4657      	mov	r7, sl
10008c52:	b5e0      	push	{r5, r6, r7, lr}
10008c54:	4689      	mov	r9, r1
10008c56:	0005      	movs	r5, r0
10008c58:	0014      	movs	r4, r2
10008c5a:	b083      	sub	sp, #12
10008c5c:	2a00      	cmp	r2, #0
10008c5e:	d06c      	beq.n	10008d3a <tu_fifo_write_n+0xf2>
10008c60:	68c0      	ldr	r0, [r0, #12]
10008c62:	2800      	cmp	r0, #0
10008c64:	d003      	beq.n	10008c6e <tu_fifo_write_n+0x26>
10008c66:	2101      	movs	r1, #1
10008c68:	4249      	negs	r1, r1
10008c6a:	f000 fb85 	bl	10009378 <__mutex_enter_timeout_ms_veneer>
10008c6e:	892f      	ldrh	r7, [r5, #8]
10008c70:	79ea      	ldrb	r2, [r5, #7]
10008c72:	896b      	ldrh	r3, [r5, #10]
10008c74:	b2bf      	uxth	r7, r7
10008c76:	b29b      	uxth	r3, r3
10008c78:	09d2      	lsrs	r2, r2, #7
10008c7a:	d140      	bne.n	10008cfe <tu_fifo_write_n+0xb6>
10008c7c:	88ae      	ldrh	r6, [r5, #4]
10008c7e:	429f      	cmp	r7, r3
10008c80:	d265      	bcs.n	10008d4e <tu_fifo_write_n+0x106>
10008c82:	0072      	lsls	r2, r6, #1
10008c84:	1ad3      	subs	r3, r2, r3
10008c86:	18fb      	adds	r3, r7, r3
10008c88:	b29b      	uxth	r3, r3
10008c8a:	2200      	movs	r2, #0
10008c8c:	4690      	mov	r8, r2
10008c8e:	429e      	cmp	r6, r3
10008c90:	d92f      	bls.n	10008cf2 <tu_fifo_write_n+0xaa>
10008c92:	1af3      	subs	r3, r6, r3
10008c94:	1c1a      	adds	r2, r3, #0
10008c96:	b29b      	uxth	r3, r3
10008c98:	42a3      	cmp	r3, r4
10008c9a:	d900      	bls.n	10008c9e <tu_fifo_write_n+0x56>
10008c9c:	1c22      	adds	r2, r4, #0
10008c9e:	b293      	uxth	r3, r2
10008ca0:	4698      	mov	r8, r3
10008ca2:	88ea      	ldrh	r2, [r5, #6]
10008ca4:	4643      	mov	r3, r8
10008ca6:	18fb      	adds	r3, r7, r3
10008ca8:	b29b      	uxth	r3, r3
10008caa:	469b      	mov	fp, r3
10008cac:	003c      	movs	r4, r7
10008cae:	42b7      	cmp	r7, r6
10008cb0:	d303      	bcc.n	10008cba <tu_fifo_write_n+0x72>
10008cb2:	1ba4      	subs	r4, r4, r6
10008cb4:	b2a4      	uxth	r4, r4
10008cb6:	42b4      	cmp	r4, r6
10008cb8:	d2fb      	bcs.n	10008cb2 <tu_fifo_write_n+0x6a>
10008cba:	0452      	lsls	r2, r2, #17
10008cbc:	0c52      	lsrs	r2, r2, #17
10008cbe:	4692      	mov	sl, r2
10008cc0:	4362      	muls	r2, r4
10008cc2:	6828      	ldr	r0, [r5, #0]
10008cc4:	1b33      	subs	r3, r6, r4
10008cc6:	b29b      	uxth	r3, r3
10008cc8:	1880      	adds	r0, r0, r2
10008cca:	4652      	mov	r2, sl
10008ccc:	4543      	cmp	r3, r8
10008cce:	d34d      	bcc.n	10008d6c <tu_fifo_write_n+0x124>
10008cd0:	4643      	mov	r3, r8
10008cd2:	4649      	mov	r1, r9
10008cd4:	435a      	muls	r2, r3
10008cd6:	f7fd fda9 	bl	1000682c <__wrap___aeabi_memcpy>
10008cda:	88ab      	ldrh	r3, [r5, #4]
10008cdc:	005b      	lsls	r3, r3, #1
10008cde:	45bb      	cmp	fp, r7
10008ce0:	d301      	bcc.n	10008ce6 <tu_fifo_write_n+0x9e>
10008ce2:	459b      	cmp	fp, r3
10008ce4:	db03      	blt.n	10008cee <tu_fifo_write_n+0xa6>
10008ce6:	465a      	mov	r2, fp
10008ce8:	1ad3      	subs	r3, r2, r3
10008cea:	b29b      	uxth	r3, r3
10008cec:	469b      	mov	fp, r3
10008cee:	465b      	mov	r3, fp
10008cf0:	812b      	strh	r3, [r5, #8]
10008cf2:	68e8      	ldr	r0, [r5, #12]
10008cf4:	2800      	cmp	r0, #0
10008cf6:	d022      	beq.n	10008d3e <tu_fifo_write_n+0xf6>
10008cf8:	f000 fb0e 	bl	10009318 <__mutex_exit_veneer>
10008cfc:	e01f      	b.n	10008d3e <tu_fifo_write_n+0xf6>
10008cfe:	88aa      	ldrh	r2, [r5, #4]
10008d00:	4690      	mov	r8, r2
10008d02:	4294      	cmp	r4, r2
10008d04:	d226      	bcs.n	10008d54 <tu_fifo_write_n+0x10c>
10008d06:	429f      	cmp	r7, r3
10008d08:	d343      	bcc.n	10008d92 <tu_fifo_write_n+0x14a>
10008d0a:	4641      	mov	r1, r8
10008d0c:	1afa      	subs	r2, r7, r3
10008d0e:	b292      	uxth	r2, r2
10008d10:	0049      	lsls	r1, r1, #1
10008d12:	1912      	adds	r2, r2, r4
10008d14:	428a      	cmp	r2, r1
10008d16:	db09      	blt.n	10008d2c <tu_fifo_write_n+0xe4>
10008d18:	4642      	mov	r2, r8
10008d1a:	189a      	adds	r2, r3, r2
10008d1c:	b292      	uxth	r2, r2
10008d1e:	1b17      	subs	r7, r2, r4
10008d20:	b2bf      	uxth	r7, r7
10008d22:	4693      	mov	fp, r2
10008d24:	42bb      	cmp	r3, r7
10008d26:	d939      	bls.n	10008d9c <tu_fifo_write_n+0x154>
10008d28:	1a7f      	subs	r7, r7, r1
10008d2a:	b2bf      	uxth	r7, r7
10008d2c:	19e3      	adds	r3, r4, r7
10008d2e:	b29b      	uxth	r3, r3
10008d30:	4646      	mov	r6, r8
10008d32:	469b      	mov	fp, r3
10008d34:	46a0      	mov	r8, r4
10008d36:	88ea      	ldrh	r2, [r5, #6]
10008d38:	e7b8      	b.n	10008cac <tu_fifo_write_n+0x64>
10008d3a:	2300      	movs	r3, #0
10008d3c:	4698      	mov	r8, r3
10008d3e:	4640      	mov	r0, r8
10008d40:	b003      	add	sp, #12
10008d42:	bcf0      	pop	{r4, r5, r6, r7}
10008d44:	46bb      	mov	fp, r7
10008d46:	46b2      	mov	sl, r6
10008d48:	46a9      	mov	r9, r5
10008d4a:	46a0      	mov	r8, r4
10008d4c:	bdf0      	pop	{r4, r5, r6, r7, pc}
10008d4e:	1afb      	subs	r3, r7, r3
10008d50:	b29b      	uxth	r3, r3
10008d52:	e79a      	b.n	10008c8a <tu_fifo_write_n+0x42>
10008d54:	1aa1      	subs	r1, r4, r2
10008d56:	88ea      	ldrh	r2, [r5, #6]
10008d58:	0454      	lsls	r4, r2, #17
10008d5a:	0c64      	lsrs	r4, r4, #17
10008d5c:	434c      	muls	r4, r1
10008d5e:	4641      	mov	r1, r8
10008d60:	44a1      	add	r9, r4
10008d62:	2900      	cmp	r1, #0
10008d64:	d0c5      	beq.n	10008cf2 <tu_fifo_write_n+0xaa>
10008d66:	4646      	mov	r6, r8
10008d68:	001f      	movs	r7, r3
10008d6a:	e79b      	b.n	10008ca4 <tu_fifo_write_n+0x5c>
10008d6c:	4353      	muls	r3, r2
10008d6e:	b299      	uxth	r1, r3
10008d70:	000a      	movs	r2, r1
10008d72:	9101      	str	r1, [sp, #4]
10008d74:	4649      	mov	r1, r9
10008d76:	f7fd fd59 	bl	1000682c <__wrap___aeabi_memcpy>
10008d7a:	4643      	mov	r3, r8
10008d7c:	1b9e      	subs	r6, r3, r6
10008d7e:	4653      	mov	r3, sl
10008d80:	19a4      	adds	r4, r4, r6
10008d82:	435c      	muls	r4, r3
10008d84:	9901      	ldr	r1, [sp, #4]
10008d86:	6828      	ldr	r0, [r5, #0]
10008d88:	b2a2      	uxth	r2, r4
10008d8a:	4449      	add	r1, r9
10008d8c:	f7fd fd4e 	bl	1000682c <__wrap___aeabi_memcpy>
10008d90:	e7a3      	b.n	10008cda <tu_fifo_write_n+0x92>
10008d92:	0051      	lsls	r1, r2, #1
10008d94:	1aca      	subs	r2, r1, r3
10008d96:	18ba      	adds	r2, r7, r2
10008d98:	b292      	uxth	r2, r2
10008d9a:	e7ba      	b.n	10008d12 <tu_fifo_write_n+0xca>
10008d9c:	42b9      	cmp	r1, r7
10008d9e:	ddc3      	ble.n	10008d28 <tu_fifo_write_n+0xe0>
10008da0:	4646      	mov	r6, r8
10008da2:	88ea      	ldrh	r2, [r5, #6]
10008da4:	46a0      	mov	r8, r4
10008da6:	e781      	b.n	10008cac <tu_fifo_write_n+0x64>

10008da8 <tu_fifo_clear>:
10008da8:	b510      	push	{r4, lr}
10008daa:	0004      	movs	r4, r0
10008dac:	68c0      	ldr	r0, [r0, #12]
10008dae:	2800      	cmp	r0, #0
10008db0:	d003      	beq.n	10008dba <tu_fifo_clear+0x12>
10008db2:	2101      	movs	r1, #1
10008db4:	4249      	negs	r1, r1
10008db6:	f000 fadf 	bl	10009378 <__mutex_enter_timeout_ms_veneer>
10008dba:	6920      	ldr	r0, [r4, #16]
10008dbc:	2800      	cmp	r0, #0
10008dbe:	d003      	beq.n	10008dc8 <tu_fifo_clear+0x20>
10008dc0:	2101      	movs	r1, #1
10008dc2:	4249      	negs	r1, r1
10008dc4:	f000 fad8 	bl	10009378 <__mutex_enter_timeout_ms_veneer>
10008dc8:	2300      	movs	r3, #0
10008dca:	68e0      	ldr	r0, [r4, #12]
10008dcc:	8163      	strh	r3, [r4, #10]
10008dce:	8123      	strh	r3, [r4, #8]
10008dd0:	2800      	cmp	r0, #0
10008dd2:	d001      	beq.n	10008dd8 <tu_fifo_clear+0x30>
10008dd4:	f000 faa0 	bl	10009318 <__mutex_exit_veneer>
10008dd8:	6920      	ldr	r0, [r4, #16]
10008dda:	2800      	cmp	r0, #0
10008ddc:	d001      	beq.n	10008de2 <tu_fifo_clear+0x3a>
10008dde:	f000 fa9b 	bl	10009318 <__mutex_exit_veneer>
10008de2:	2001      	movs	r0, #1
10008de4:	bd10      	pop	{r4, pc}
10008de6:	46c0      	nop			; (mov r8, r8)

10008de8 <tu_fifo_set_overwritable>:
10008de8:	b570      	push	{r4, r5, r6, lr}
10008dea:	0004      	movs	r4, r0
10008dec:	68c0      	ldr	r0, [r0, #12]
10008dee:	000d      	movs	r5, r1
10008df0:	2800      	cmp	r0, #0
10008df2:	d003      	beq.n	10008dfc <tu_fifo_set_overwritable+0x14>
10008df4:	2101      	movs	r1, #1
10008df6:	4249      	negs	r1, r1
10008df8:	f000 fabe 	bl	10009378 <__mutex_enter_timeout_ms_veneer>
10008dfc:	6920      	ldr	r0, [r4, #16]
10008dfe:	2800      	cmp	r0, #0
10008e00:	d003      	beq.n	10008e0a <tu_fifo_set_overwritable+0x22>
10008e02:	2101      	movs	r1, #1
10008e04:	4249      	negs	r1, r1
10008e06:	f000 fab7 	bl	10009378 <__mutex_enter_timeout_ms_veneer>
10008e0a:	217f      	movs	r1, #127	; 0x7f
10008e0c:	79e3      	ldrb	r3, [r4, #7]
10008e0e:	01ed      	lsls	r5, r5, #7
10008e10:	4019      	ands	r1, r3
10008e12:	68e0      	ldr	r0, [r4, #12]
10008e14:	4329      	orrs	r1, r5
10008e16:	71e1      	strb	r1, [r4, #7]
10008e18:	2800      	cmp	r0, #0
10008e1a:	d001      	beq.n	10008e20 <tu_fifo_set_overwritable+0x38>
10008e1c:	f000 fa7c 	bl	10009318 <__mutex_exit_veneer>
10008e20:	6920      	ldr	r0, [r4, #16]
10008e22:	2800      	cmp	r0, #0
10008e24:	d001      	beq.n	10008e2a <tu_fifo_set_overwritable+0x42>
10008e26:	f000 fa77 	bl	10009318 <__mutex_exit_veneer>
10008e2a:	2001      	movs	r0, #1
10008e2c:	bd70      	pop	{r4, r5, r6, pc}
10008e2e:	46c0      	nop			; (mov r8, r8)

10008e30 <i2c_set_baudrate>:
10008e30:	b5f8      	push	{r3, r4, r5, r6, r7, lr}
10008e32:	46de      	mov	lr, fp
10008e34:	4657      	mov	r7, sl
10008e36:	464e      	mov	r6, r9
10008e38:	4645      	mov	r5, r8
10008e3a:	4683      	mov	fp, r0
10008e3c:	b5e0      	push	{r5, r6, r7, lr}
10008e3e:	2005      	movs	r0, #5
10008e40:	000c      	movs	r4, r1
10008e42:	f7fc fe79 	bl	10005b38 <clock_get_hz>
10008e46:	0006      	movs	r6, r0
10008e48:	0860      	lsrs	r0, r4, #1
10008e4a:	0021      	movs	r1, r4
10008e4c:	1980      	adds	r0, r0, r6
10008e4e:	f7fd f8a3 	bl	10005f98 <__wrap___aeabi_uidiv>
10008e52:	0043      	lsls	r3, r0, #1
10008e54:	4698      	mov	r8, r3
10008e56:	4480      	add	r8, r0
10008e58:	0007      	movs	r7, r0
10008e5a:	2105      	movs	r1, #5
10008e5c:	4640      	mov	r0, r8
10008e5e:	f7fd f89b 	bl	10005f98 <__wrap___aeabi_uidiv>
10008e62:	1a3b      	subs	r3, r7, r0
10008e64:	469a      	mov	sl, r3
10008e66:	4b20      	ldr	r3, [pc, #128]	; (10008ee8 <i2c_set_baudrate+0xb8>)
10008e68:	4681      	mov	r9, r0
10008e6a:	0070      	lsls	r0, r6, #1
10008e6c:	1980      	adds	r0, r0, r6
10008e6e:	429c      	cmp	r4, r3
10008e70:	d834      	bhi.n	10008edc <i2c_set_baudrate+0xac>
10008e72:	491e      	ldr	r1, [pc, #120]	; (10008eec <i2c_set_baudrate+0xbc>)
10008e74:	f7fd f890 	bl	10005f98 <__wrap___aeabi_uidiv>
10008e78:	1c45      	adds	r5, r0, #1
10008e7a:	465b      	mov	r3, fp
10008e7c:	681c      	ldr	r4, [r3, #0]
10008e7e:	2300      	movs	r3, #0
10008e80:	2204      	movs	r2, #4
10008e82:	66e3      	str	r3, [r4, #108]	; 0x6c
10008e84:	6823      	ldr	r3, [r4, #0]
10008e86:	2001      	movs	r0, #1
10008e88:	4053      	eors	r3, r2
10008e8a:	3202      	adds	r2, #2
10008e8c:	401a      	ands	r2, r3
10008e8e:	2380      	movs	r3, #128	; 0x80
10008e90:	015b      	lsls	r3, r3, #5
10008e92:	4323      	orrs	r3, r4
10008e94:	601a      	str	r2, [r3, #0]
10008e96:	4653      	mov	r3, sl
10008e98:	61e3      	str	r3, [r4, #28]
10008e9a:	464b      	mov	r3, r9
10008e9c:	6223      	str	r3, [r4, #32]
10008e9e:	4643      	mov	r3, r8
10008ea0:	2b4f      	cmp	r3, #79	; 0x4f
10008ea2:	d903      	bls.n	10008eac <i2c_set_baudrate+0x7c>
10008ea4:	2150      	movs	r1, #80	; 0x50
10008ea6:	4640      	mov	r0, r8
10008ea8:	f7fd f876 	bl	10005f98 <__wrap___aeabi_uidiv>
10008eac:	23a0      	movs	r3, #160	; 0xa0
10008eae:	50e0      	str	r0, [r4, r3]
10008eb0:	6fe3      	ldr	r3, [r4, #124]	; 0x7c
10008eb2:	0022      	movs	r2, r4
10008eb4:	405d      	eors	r5, r3
10008eb6:	2380      	movs	r3, #128	; 0x80
10008eb8:	327c      	adds	r2, #124	; 0x7c
10008eba:	042d      	lsls	r5, r5, #16
10008ebc:	015b      	lsls	r3, r3, #5
10008ebe:	4313      	orrs	r3, r2
10008ec0:	0c2d      	lsrs	r5, r5, #16
10008ec2:	601d      	str	r5, [r3, #0]
10008ec4:	2301      	movs	r3, #1
10008ec6:	0039      	movs	r1, r7
10008ec8:	0030      	movs	r0, r6
10008eca:	66e3      	str	r3, [r4, #108]	; 0x6c
10008ecc:	f7fd f864 	bl	10005f98 <__wrap___aeabi_uidiv>
10008ed0:	bcf0      	pop	{r4, r5, r6, r7}
10008ed2:	46bb      	mov	fp, r7
10008ed4:	46b2      	mov	sl, r6
10008ed6:	46a9      	mov	r9, r5
10008ed8:	46a0      	mov	r8, r4
10008eda:	bdf8      	pop	{r3, r4, r5, r6, r7, pc}
10008edc:	4904      	ldr	r1, [pc, #16]	; (10008ef0 <i2c_set_baudrate+0xc0>)
10008ede:	f7fd f85b 	bl	10005f98 <__wrap___aeabi_uidiv>
10008ee2:	1c45      	adds	r5, r0, #1
10008ee4:	e7c9      	b.n	10008e7a <i2c_set_baudrate+0x4a>
10008ee6:	46c0      	nop			; (mov r8, r8)
10008ee8:	000f423f 	.word	0x000f423f
10008eec:	00989680 	.word	0x00989680
10008ef0:	017d7840 	.word	0x017d7840

10008ef4 <i2c_init>:
10008ef4:	4a10      	ldr	r2, [pc, #64]	; (10008f38 <i2c_init+0x44>)
10008ef6:	b570      	push	{r4, r5, r6, lr}
10008ef8:	1a82      	subs	r2, r0, r2
10008efa:	4253      	negs	r3, r2
10008efc:	415a      	adcs	r2, r3
10008efe:	2307      	movs	r3, #7
10008f00:	4252      	negs	r2, r2
10008f02:	439a      	bics	r2, r3
10008f04:	4b0d      	ldr	r3, [pc, #52]	; (10008f3c <i2c_init+0x48>)
10008f06:	3210      	adds	r2, #16
10008f08:	601a      	str	r2, [r3, #0]
10008f0a:	4b0d      	ldr	r3, [pc, #52]	; (10008f40 <i2c_init+0x4c>)
10008f0c:	4c0d      	ldr	r4, [pc, #52]	; (10008f44 <i2c_init+0x50>)
10008f0e:	601a      	str	r2, [r3, #0]
10008f10:	0015      	movs	r5, r2
10008f12:	68a3      	ldr	r3, [r4, #8]
10008f14:	439d      	bics	r5, r3
10008f16:	1e2b      	subs	r3, r5, #0
10008f18:	d1fa      	bne.n	10008f10 <i2c_init+0x1c>
10008f1a:	2466      	movs	r4, #102	; 0x66
10008f1c:	6802      	ldr	r2, [r0, #0]
10008f1e:	34ff      	adds	r4, #255	; 0xff
10008f20:	7105      	strb	r5, [r0, #4]
10008f22:	66d5      	str	r5, [r2, #108]	; 0x6c
10008f24:	6014      	str	r4, [r2, #0]
10008f26:	3c63      	subs	r4, #99	; 0x63
10008f28:	3388      	adds	r3, #136	; 0x88
10008f2a:	3cff      	subs	r4, #255	; 0xff
10008f2c:	63d5      	str	r5, [r2, #60]	; 0x3c
10008f2e:	6395      	str	r5, [r2, #56]	; 0x38
10008f30:	50d4      	str	r4, [r2, r3]
10008f32:	f7ff ff7d 	bl	10008e30 <i2c_set_baudrate>
10008f36:	bd70      	pop	{r4, r5, r6, pc}
10008f38:	20000eb0 	.word	0x20000eb0
10008f3c:	4000e000 	.word	0x4000e000
10008f40:	4000f000 	.word	0x4000f000
10008f44:	4000c000 	.word	0x4000c000

10008f48 <i2c_set_slave_mode>:
10008f48:	6803      	ldr	r3, [r0, #0]
10008f4a:	2000      	movs	r0, #0
10008f4c:	66d8      	str	r0, [r3, #108]	; 0x6c
10008f4e:	2900      	cmp	r1, #0
10008f50:	d00d      	beq.n	10008f6e <i2c_set_slave_mode+0x26>
10008f52:	2180      	movs	r1, #128	; 0x80
10008f54:	6818      	ldr	r0, [r3, #0]
10008f56:	0089      	lsls	r1, r1, #2
10008f58:	4041      	eors	r1, r0
10008f5a:	480a      	ldr	r0, [pc, #40]	; (10008f84 <i2c_set_slave_mode+0x3c>)
10008f5c:	4001      	ands	r1, r0
10008f5e:	2080      	movs	r0, #128	; 0x80
10008f60:	0140      	lsls	r0, r0, #5
10008f62:	4318      	orrs	r0, r3
10008f64:	6001      	str	r1, [r0, #0]
10008f66:	609a      	str	r2, [r3, #8]
10008f68:	2201      	movs	r2, #1
10008f6a:	66da      	str	r2, [r3, #108]	; 0x6c
10008f6c:	4770      	bx	lr
10008f6e:	2141      	movs	r1, #65	; 0x41
10008f70:	681a      	ldr	r2, [r3, #0]
10008f72:	404a      	eors	r2, r1
10008f74:	4903      	ldr	r1, [pc, #12]	; (10008f84 <i2c_set_slave_mode+0x3c>)
10008f76:	400a      	ands	r2, r1
10008f78:	2180      	movs	r1, #128	; 0x80
10008f7a:	0149      	lsls	r1, r1, #5
10008f7c:	4319      	orrs	r1, r3
10008f7e:	600a      	str	r2, [r1, #0]
10008f80:	e7f2      	b.n	10008f68 <i2c_set_slave_mode+0x20>
10008f82:	46c0      	nop			; (mov r8, r8)
10008f84:	00000241 	.word	0x00000241

10008f88 <i2c_write_blocking>:
10008f88:	b5f0      	push	{r4, r5, r6, r7, lr}
10008f8a:	4657      	mov	r7, sl
10008f8c:	464e      	mov	r6, r9
10008f8e:	4645      	mov	r5, r8
10008f90:	46de      	mov	lr, fp
10008f92:	4690      	mov	r8, r2
10008f94:	2200      	movs	r2, #0
10008f96:	b5e0      	push	{r5, r6, r7, lr}
10008f98:	b083      	sub	sp, #12
10008f9a:	001e      	movs	r6, r3
10008f9c:	ab0c      	add	r3, sp, #48	; 0x30
10008f9e:	781b      	ldrb	r3, [r3, #0]
10008fa0:	4684      	mov	ip, r0
10008fa2:	469a      	mov	sl, r3
10008fa4:	6803      	ldr	r3, [r0, #0]
10008fa6:	66da      	str	r2, [r3, #108]	; 0x6c
10008fa8:	3201      	adds	r2, #1
10008faa:	6059      	str	r1, [r3, #4]
10008fac:	66da      	str	r2, [r3, #108]	; 0x6c
10008fae:	2e00      	cmp	r6, #0
10008fb0:	dd4d      	ble.n	1000904e <i2c_write_blocking+0xc6>
10008fb2:	4651      	mov	r1, sl
10008fb4:	404a      	eors	r2, r1
10008fb6:	0252      	lsls	r2, r2, #9
10008fb8:	9201      	str	r2, [sp, #4]
10008fba:	2280      	movs	r2, #128	; 0x80
10008fbc:	4691      	mov	r9, r2
10008fbe:	0032      	movs	r2, r6
10008fc0:	2480      	movs	r4, #128	; 0x80
10008fc2:	1e77      	subs	r7, r6, #1
10008fc4:	2000      	movs	r0, #0
10008fc6:	4646      	mov	r6, r8
10008fc8:	2110      	movs	r1, #16
10008fca:	4690      	mov	r8, r2
10008fcc:	00a4      	lsls	r4, r4, #2
10008fce:	2500      	movs	r5, #0
10008fd0:	2800      	cmp	r0, #0
10008fd2:	d102      	bne.n	10008fda <i2c_write_blocking+0x52>
10008fd4:	4662      	mov	r2, ip
10008fd6:	7915      	ldrb	r5, [r2, #4]
10008fd8:	02ad      	lsls	r5, r5, #10
10008fda:	2200      	movs	r2, #0
10008fdc:	4693      	mov	fp, r2
10008fde:	4287      	cmp	r7, r0
10008fe0:	d01a      	beq.n	10009018 <i2c_write_blocking+0x90>
10008fe2:	5c32      	ldrb	r2, [r6, r0]
10008fe4:	432a      	orrs	r2, r5
10008fe6:	465d      	mov	r5, fp
10008fe8:	432a      	orrs	r2, r5
10008fea:	611a      	str	r2, [r3, #16]
10008fec:	6b5a      	ldr	r2, [r3, #52]	; 0x34
10008fee:	4211      	tst	r1, r2
10008ff0:	d0fc      	beq.n	10008fec <i2c_write_blocking+0x64>
10008ff2:	464a      	mov	r2, r9
10008ff4:	589d      	ldr	r5, [r3, r2]
10008ff6:	2d00      	cmp	r5, #0
10008ff8:	d111      	bne.n	1000901e <i2c_write_blocking+0x96>
10008ffa:	4287      	cmp	r7, r0
10008ffc:	d022      	beq.n	10009044 <i2c_write_blocking+0xbc>
10008ffe:	3001      	adds	r0, #1
10009000:	4580      	cmp	r8, r0
10009002:	d1e4      	bne.n	10008fce <i2c_write_blocking+0x46>
10009004:	4663      	mov	r3, ip
10009006:	4652      	mov	r2, sl
10009008:	711a      	strb	r2, [r3, #4]
1000900a:	b003      	add	sp, #12
1000900c:	bcf0      	pop	{r4, r5, r6, r7}
1000900e:	46bb      	mov	fp, r7
10009010:	46b2      	mov	sl, r6
10009012:	46a9      	mov	r9, r5
10009014:	46a0      	mov	r8, r4
10009016:	bdf0      	pop	{r4, r5, r6, r7, pc}
10009018:	9a01      	ldr	r2, [sp, #4]
1000901a:	4693      	mov	fp, r2
1000901c:	e7e1      	b.n	10008fe2 <i2c_write_blocking+0x5a>
1000901e:	6d5a      	ldr	r2, [r3, #84]	; 0x54
10009020:	2201      	movs	r2, #1
10009022:	4693      	mov	fp, r2
10009024:	6b5a      	ldr	r2, [r3, #52]	; 0x34
10009026:	4222      	tst	r2, r4
10009028:	d0fc      	beq.n	10009024 <i2c_write_blocking+0x9c>
1000902a:	6e1a      	ldr	r2, [r3, #96]	; 0x60
1000902c:	465a      	mov	r2, fp
1000902e:	2a00      	cmp	r2, #0
10009030:	d0e5      	beq.n	10008ffe <i2c_write_blocking+0x76>
10009032:	2d00      	cmp	r5, #0
10009034:	d003      	beq.n	1000903e <i2c_write_blocking+0xb6>
10009036:	07eb      	lsls	r3, r5, #31
10009038:	d401      	bmi.n	1000903e <i2c_write_blocking+0xb6>
1000903a:	072d      	lsls	r5, r5, #28
1000903c:	d4e2      	bmi.n	10009004 <i2c_write_blocking+0x7c>
1000903e:	2002      	movs	r0, #2
10009040:	4240      	negs	r0, r0
10009042:	e7df      	b.n	10009004 <i2c_write_blocking+0x7c>
10009044:	4652      	mov	r2, sl
10009046:	2a00      	cmp	r2, #0
10009048:	d1d9      	bne.n	10008ffe <i2c_write_blocking+0x76>
1000904a:	46d3      	mov	fp, sl
1000904c:	e7ea      	b.n	10009024 <i2c_write_blocking+0x9c>
1000904e:	2000      	movs	r0, #0
10009050:	e7d8      	b.n	10009004 <i2c_write_blocking+0x7c>
10009052:	46c0      	nop			; (mov r8, r8)

10009054 <i2c_read_blocking>:
10009054:	b5f0      	push	{r4, r5, r6, r7, lr}
10009056:	4645      	mov	r5, r8
10009058:	46de      	mov	lr, fp
1000905a:	4657      	mov	r7, sl
1000905c:	464e      	mov	r6, r9
1000905e:	4693      	mov	fp, r2
10009060:	2200      	movs	r2, #0
10009062:	b5e0      	push	{r5, r6, r7, lr}
10009064:	001d      	movs	r5, r3
10009066:	ab09      	add	r3, sp, #36	; 0x24
10009068:	781b      	ldrb	r3, [r3, #0]
1000906a:	0004      	movs	r4, r0
1000906c:	4698      	mov	r8, r3
1000906e:	6803      	ldr	r3, [r0, #0]
10009070:	66da      	str	r2, [r3, #108]	; 0x6c
10009072:	3201      	adds	r2, #1
10009074:	6059      	str	r1, [r3, #4]
10009076:	66da      	str	r2, [r3, #108]	; 0x6c
10009078:	2d00      	cmp	r5, #0
1000907a:	dd3e      	ble.n	100090fa <i2c_read_blocking+0xa6>
1000907c:	4641      	mov	r1, r8
1000907e:	404a      	eors	r2, r1
10009080:	0252      	lsls	r2, r2, #9
10009082:	4694      	mov	ip, r2
10009084:	2280      	movs	r2, #128	; 0x80
10009086:	2000      	movs	r0, #0
10009088:	0052      	lsls	r2, r2, #1
1000908a:	4691      	mov	r9, r2
1000908c:	1e6f      	subs	r7, r5, #1
1000908e:	3a80      	subs	r2, #128	; 0x80
10009090:	6f59      	ldr	r1, [r3, #116]	; 0x74
10009092:	2910      	cmp	r1, #16
10009094:	d0fc      	beq.n	10009090 <i2c_read_blocking+0x3c>
10009096:	2800      	cmp	r0, #0
10009098:	d026      	beq.n	100090e8 <i2c_read_blocking+0x94>
1000909a:	2600      	movs	r6, #0
1000909c:	2180      	movs	r1, #128	; 0x80
1000909e:	46b2      	mov	sl, r6
100090a0:	0049      	lsls	r1, r1, #1
100090a2:	4287      	cmp	r7, r0
100090a4:	d012      	beq.n	100090cc <i2c_read_blocking+0x78>
100090a6:	6119      	str	r1, [r3, #16]
100090a8:	e002      	b.n	100090b0 <i2c_read_blocking+0x5c>
100090aa:	6f99      	ldr	r1, [r3, #120]	; 0x78
100090ac:	2900      	cmp	r1, #0
100090ae:	d113      	bne.n	100090d8 <i2c_read_blocking+0x84>
100090b0:	5899      	ldr	r1, [r3, r2]
100090b2:	6d59      	ldr	r1, [r3, #84]	; 0x54
100090b4:	2900      	cmp	r1, #0
100090b6:	d0f8      	beq.n	100090aa <i2c_read_blocking+0x56>
100090b8:	2002      	movs	r0, #2
100090ba:	4240      	negs	r0, r0
100090bc:	4643      	mov	r3, r8
100090be:	7123      	strb	r3, [r4, #4]
100090c0:	bcf0      	pop	{r4, r5, r6, r7}
100090c2:	46bb      	mov	fp, r7
100090c4:	46b2      	mov	sl, r6
100090c6:	46a9      	mov	r9, r5
100090c8:	46a0      	mov	r8, r4
100090ca:	bdf0      	pop	{r4, r5, r6, r7, pc}
100090cc:	4666      	mov	r6, ip
100090ce:	4651      	mov	r1, sl
100090d0:	4331      	orrs	r1, r6
100090d2:	464e      	mov	r6, r9
100090d4:	4331      	orrs	r1, r6
100090d6:	e7e6      	b.n	100090a6 <i2c_read_blocking+0x52>
100090d8:	4659      	mov	r1, fp
100090da:	691b      	ldr	r3, [r3, #16]
100090dc:	540b      	strb	r3, [r1, r0]
100090de:	3001      	adds	r0, #1
100090e0:	4285      	cmp	r5, r0
100090e2:	d0eb      	beq.n	100090bc <i2c_read_blocking+0x68>
100090e4:	6823      	ldr	r3, [r4, #0]
100090e6:	e7d3      	b.n	10009090 <i2c_read_blocking+0x3c>
100090e8:	7921      	ldrb	r1, [r4, #4]
100090ea:	2900      	cmp	r1, #0
100090ec:	d0d5      	beq.n	1000909a <i2c_read_blocking+0x46>
100090ee:	2680      	movs	r6, #128	; 0x80
100090f0:	21a0      	movs	r1, #160	; 0xa0
100090f2:	00f6      	lsls	r6, r6, #3
100090f4:	46b2      	mov	sl, r6
100090f6:	00c9      	lsls	r1, r1, #3
100090f8:	e7d3      	b.n	100090a2 <i2c_read_blocking+0x4e>
100090fa:	2000      	movs	r0, #0
100090fc:	e7de      	b.n	100090bc <i2c_read_blocking+0x68>
100090fe:	46c0      	nop			; (mov r8, r8)

10009100 <spi_init>:
10009100:	b5f8      	push	{r3, r4, r5, r6, r7, lr}
10009102:	4657      	mov	r7, sl
10009104:	4682      	mov	sl, r0
10009106:	4b38      	ldr	r3, [pc, #224]	; (100091e8 <spi_init+0xe8>)
10009108:	4645      	mov	r5, r8
1000910a:	4453      	add	r3, sl
1000910c:	425a      	negs	r2, r3
1000910e:	4153      	adcs	r3, r2
10009110:	2280      	movs	r2, #128	; 0x80
10009112:	0292      	lsls	r2, r2, #10
10009114:	4694      	mov	ip, r2
10009116:	46de      	mov	lr, fp
10009118:	464e      	mov	r6, r9
1000911a:	425b      	negs	r3, r3
1000911c:	0c1b      	lsrs	r3, r3, #16
1000911e:	4a33      	ldr	r2, [pc, #204]	; (100091ec <spi_init+0xec>)
10009120:	041b      	lsls	r3, r3, #16
10009122:	4463      	add	r3, ip
10009124:	b5e0      	push	{r5, r6, r7, lr}
10009126:	6013      	str	r3, [r2, #0]
10009128:	4a31      	ldr	r2, [pc, #196]	; (100091f0 <spi_init+0xf0>)
1000912a:	000d      	movs	r5, r1
1000912c:	4931      	ldr	r1, [pc, #196]	; (100091f4 <spi_init+0xf4>)
1000912e:	6013      	str	r3, [r2, #0]
10009130:	0018      	movs	r0, r3
10009132:	688a      	ldr	r2, [r1, #8]
10009134:	4390      	bics	r0, r2
10009136:	4681      	mov	r9, r0
10009138:	d1fa      	bne.n	10009130 <spi_init+0x30>
1000913a:	2006      	movs	r0, #6
1000913c:	f7fc fcfc 	bl	10005b38 <clock_get_hz>
10009140:	4680      	mov	r8, r0
10009142:	2080      	movs	r0, #128	; 0x80
10009144:	2102      	movs	r1, #2
10009146:	0def      	lsrs	r7, r5, #23
10009148:	026e      	lsls	r6, r5, #9
1000914a:	0dab      	lsrs	r3, r5, #22
1000914c:	02aa      	lsls	r2, r5, #10
1000914e:	0040      	lsls	r0, r0, #1
10009150:	e005      	b.n	1000915e <spi_init+0x5e>
10009152:	4590      	cmp	r8, r2
10009154:	d307      	bcc.n	10009166 <spi_init+0x66>
10009156:	1992      	adds	r2, r2, r6
10009158:	417b      	adcs	r3, r7
1000915a:	4281      	cmp	r1, r0
1000915c:	d03f      	beq.n	100091de <spi_init+0xde>
1000915e:	000c      	movs	r4, r1
10009160:	3102      	adds	r1, #2
10009162:	2b00      	cmp	r3, #0
10009164:	d0f5      	beq.n	10009152 <spi_init+0x52>
10009166:	2680      	movs	r6, #128	; 0x80
10009168:	0227      	lsls	r7, r4, #8
1000916a:	1b3f      	subs	r7, r7, r4
1000916c:	0076      	lsls	r6, r6, #1
1000916e:	e002      	b.n	10009176 <spi_init+0x76>
10009170:	1b3f      	subs	r7, r7, r4
10009172:	2e01      	cmp	r6, #1
10009174:	d035      	beq.n	100091e2 <spi_init+0xe2>
10009176:	0039      	movs	r1, r7
10009178:	4640      	mov	r0, r8
1000917a:	46b3      	mov	fp, r6
1000917c:	3e01      	subs	r6, #1
1000917e:	f7fc ff0b 	bl	10005f98 <__wrap___aeabi_uidiv>
10009182:	4285      	cmp	r5, r0
10009184:	d2f4      	bcs.n	10009170 <spi_init+0x70>
10009186:	4659      	mov	r1, fp
10009188:	0233      	lsls	r3, r6, #8
1000918a:	4699      	mov	r9, r3
1000918c:	4361      	muls	r1, r4
1000918e:	4653      	mov	r3, sl
10009190:	464a      	mov	r2, r9
10009192:	611c      	str	r4, [r3, #16]
10009194:	681b      	ldr	r3, [r3, #0]
10009196:	4650      	mov	r0, sl
10009198:	4053      	eors	r3, r2
1000919a:	22ff      	movs	r2, #255	; 0xff
1000919c:	0212      	lsls	r2, r2, #8
1000919e:	4013      	ands	r3, r2
100091a0:	2280      	movs	r2, #128	; 0x80
100091a2:	0152      	lsls	r2, r2, #5
100091a4:	4302      	orrs	r2, r0
100091a6:	6013      	str	r3, [r2, #0]
100091a8:	2307      	movs	r3, #7
100091aa:	6800      	ldr	r0, [r0, #0]
100091ac:	4058      	eors	r0, r3
100091ae:	33c8      	adds	r3, #200	; 0xc8
100091b0:	4003      	ands	r3, r0
100091b2:	6013      	str	r3, [r2, #0]
100091b4:	4653      	mov	r3, sl
100091b6:	2280      	movs	r2, #128	; 0x80
100091b8:	2003      	movs	r0, #3
100091ba:	0192      	lsls	r2, r2, #6
100091bc:	3324      	adds	r3, #36	; 0x24
100091be:	4313      	orrs	r3, r2
100091c0:	6018      	str	r0, [r3, #0]
100091c2:	4653      	mov	r3, sl
100091c4:	3304      	adds	r3, #4
100091c6:	431a      	orrs	r2, r3
100091c8:	2302      	movs	r3, #2
100091ca:	4640      	mov	r0, r8
100091cc:	6013      	str	r3, [r2, #0]
100091ce:	f7fc fee3 	bl	10005f98 <__wrap___aeabi_uidiv>
100091d2:	bcf0      	pop	{r4, r5, r6, r7}
100091d4:	46bb      	mov	fp, r7
100091d6:	46b2      	mov	sl, r6
100091d8:	46a9      	mov	r9, r5
100091da:	46a0      	mov	r8, r4
100091dc:	bdf8      	pop	{r3, r4, r5, r6, r7, pc}
100091de:	000c      	movs	r4, r1
100091e0:	e7c1      	b.n	10009166 <spi_init+0x66>
100091e2:	0021      	movs	r1, r4
100091e4:	e7d3      	b.n	1000918e <spi_init+0x8e>
100091e6:	46c0      	nop			; (mov r8, r8)
100091e8:	bffc4000 	.word	0xbffc4000
100091ec:	4000e000 	.word	0x4000e000
100091f0:	4000f000 	.word	0x4000f000
100091f4:	4000c000 	.word	0x4000c000

100091f8 <memmove>:
100091f8:	b5f0      	push	{r4, r5, r6, r7, lr}
100091fa:	4288      	cmp	r0, r1
100091fc:	d90a      	bls.n	10009214 <memmove+0x1c>
100091fe:	188b      	adds	r3, r1, r2
10009200:	4298      	cmp	r0, r3
10009202:	d207      	bcs.n	10009214 <memmove+0x1c>
10009204:	1e53      	subs	r3, r2, #1
10009206:	2a00      	cmp	r2, #0
10009208:	d003      	beq.n	10009212 <memmove+0x1a>
1000920a:	5cca      	ldrb	r2, [r1, r3]
1000920c:	54c2      	strb	r2, [r0, r3]
1000920e:	3b01      	subs	r3, #1
10009210:	d2fb      	bcs.n	1000920a <memmove+0x12>
10009212:	bdf0      	pop	{r4, r5, r6, r7, pc}
10009214:	2a0f      	cmp	r2, #15
10009216:	d80b      	bhi.n	10009230 <memmove+0x38>
10009218:	0005      	movs	r5, r0
1000921a:	1e56      	subs	r6, r2, #1
1000921c:	2a00      	cmp	r2, #0
1000921e:	d0f8      	beq.n	10009212 <memmove+0x1a>
10009220:	2300      	movs	r3, #0
10009222:	5ccc      	ldrb	r4, [r1, r3]
10009224:	001a      	movs	r2, r3
10009226:	54ec      	strb	r4, [r5, r3]
10009228:	3301      	adds	r3, #1
1000922a:	4296      	cmp	r6, r2
1000922c:	d1f9      	bne.n	10009222 <memmove+0x2a>
1000922e:	e7f0      	b.n	10009212 <memmove+0x1a>
10009230:	2403      	movs	r4, #3
10009232:	0003      	movs	r3, r0
10009234:	0026      	movs	r6, r4
10009236:	430b      	orrs	r3, r1
10009238:	401e      	ands	r6, r3
1000923a:	421c      	tst	r4, r3
1000923c:	d12d      	bne.n	1000929a <memmove+0xa2>
1000923e:	0015      	movs	r5, r2
10009240:	3d10      	subs	r5, #16
10009242:	092d      	lsrs	r5, r5, #4
10009244:	0003      	movs	r3, r0
10009246:	000c      	movs	r4, r1
10009248:	46ac      	mov	ip, r5
1000924a:	012f      	lsls	r7, r5, #4
1000924c:	183f      	adds	r7, r7, r0
1000924e:	6825      	ldr	r5, [r4, #0]
10009250:	601d      	str	r5, [r3, #0]
10009252:	6865      	ldr	r5, [r4, #4]
10009254:	605d      	str	r5, [r3, #4]
10009256:	68a5      	ldr	r5, [r4, #8]
10009258:	609d      	str	r5, [r3, #8]
1000925a:	68e5      	ldr	r5, [r4, #12]
1000925c:	3410      	adds	r4, #16
1000925e:	60dd      	str	r5, [r3, #12]
10009260:	001d      	movs	r5, r3
10009262:	3310      	adds	r3, #16
10009264:	42bd      	cmp	r5, r7
10009266:	d1f2      	bne.n	1000924e <memmove+0x56>
10009268:	4665      	mov	r5, ip
1000926a:	230f      	movs	r3, #15
1000926c:	240c      	movs	r4, #12
1000926e:	3501      	adds	r5, #1
10009270:	012d      	lsls	r5, r5, #4
10009272:	1949      	adds	r1, r1, r5
10009274:	4013      	ands	r3, r2
10009276:	1945      	adds	r5, r0, r5
10009278:	4214      	tst	r4, r2
1000927a:	d011      	beq.n	100092a0 <memmove+0xa8>
1000927c:	598c      	ldr	r4, [r1, r6]
1000927e:	51ac      	str	r4, [r5, r6]
10009280:	3604      	adds	r6, #4
10009282:	1b9c      	subs	r4, r3, r6
10009284:	2c03      	cmp	r4, #3
10009286:	d8f9      	bhi.n	1000927c <memmove+0x84>
10009288:	3b04      	subs	r3, #4
1000928a:	089b      	lsrs	r3, r3, #2
1000928c:	3301      	adds	r3, #1
1000928e:	009b      	lsls	r3, r3, #2
10009290:	18ed      	adds	r5, r5, r3
10009292:	18c9      	adds	r1, r1, r3
10009294:	2303      	movs	r3, #3
10009296:	401a      	ands	r2, r3
10009298:	e7bf      	b.n	1000921a <memmove+0x22>
1000929a:	0005      	movs	r5, r0
1000929c:	1e56      	subs	r6, r2, #1
1000929e:	e7bf      	b.n	10009220 <memmove+0x28>
100092a0:	001a      	movs	r2, r3
100092a2:	e7ba      	b.n	1000921a <memmove+0x22>

100092a4 <strlen>:
100092a4:	b510      	push	{r4, lr}
100092a6:	0783      	lsls	r3, r0, #30
100092a8:	d00a      	beq.n	100092c0 <strlen+0x1c>
100092aa:	0003      	movs	r3, r0
100092ac:	2103      	movs	r1, #3
100092ae:	e002      	b.n	100092b6 <strlen+0x12>
100092b0:	3301      	adds	r3, #1
100092b2:	420b      	tst	r3, r1
100092b4:	d005      	beq.n	100092c2 <strlen+0x1e>
100092b6:	781a      	ldrb	r2, [r3, #0]
100092b8:	2a00      	cmp	r2, #0
100092ba:	d1f9      	bne.n	100092b0 <strlen+0xc>
100092bc:	1a18      	subs	r0, r3, r0
100092be:	bd10      	pop	{r4, pc}
100092c0:	0003      	movs	r3, r0
100092c2:	6819      	ldr	r1, [r3, #0]
100092c4:	4a0c      	ldr	r2, [pc, #48]	; (100092f8 <strlen+0x54>)
100092c6:	4c0d      	ldr	r4, [pc, #52]	; (100092fc <strlen+0x58>)
100092c8:	188a      	adds	r2, r1, r2
100092ca:	438a      	bics	r2, r1
100092cc:	4222      	tst	r2, r4
100092ce:	d10f      	bne.n	100092f0 <strlen+0x4c>
100092d0:	6859      	ldr	r1, [r3, #4]
100092d2:	4a09      	ldr	r2, [pc, #36]	; (100092f8 <strlen+0x54>)
100092d4:	3304      	adds	r3, #4
100092d6:	188a      	adds	r2, r1, r2
100092d8:	438a      	bics	r2, r1
100092da:	4222      	tst	r2, r4
100092dc:	d108      	bne.n	100092f0 <strlen+0x4c>
100092de:	6859      	ldr	r1, [r3, #4]
100092e0:	4a05      	ldr	r2, [pc, #20]	; (100092f8 <strlen+0x54>)
100092e2:	3304      	adds	r3, #4
100092e4:	188a      	adds	r2, r1, r2
100092e6:	438a      	bics	r2, r1
100092e8:	4222      	tst	r2, r4
100092ea:	d0f1      	beq.n	100092d0 <strlen+0x2c>
100092ec:	e000      	b.n	100092f0 <strlen+0x4c>
100092ee:	3301      	adds	r3, #1
100092f0:	781a      	ldrb	r2, [r3, #0]
100092f2:	2a00      	cmp	r2, #0
100092f4:	d1fb      	bne.n	100092ee <strlen+0x4a>
100092f6:	e7e1      	b.n	100092bc <strlen+0x18>
100092f8:	fefefeff 	.word	0xfefefeff
100092fc:	80808080 	.word	0x80808080

10009300 <_fini>:
10009300:	b5f8      	push	{r3, r4, r5, r6, r7, lr}
10009302:	46c0      	nop			; (mov r8, r8)
10009304:	0000      	movs	r0, r0
	...

10009308 <__flash_do_cmd_veneer>:
10009308:	b401      	push	{r0}
1000930a:	4802      	ldr	r0, [pc, #8]	; (10009314 <__flash_do_cmd_veneer+0xc>)
1000930c:	4684      	mov	ip, r0
1000930e:	bc01      	pop	{r0}
10009310:	4760      	bx	ip
10009312:	bf00      	nop
10009314:	200002d1 	.word	0x200002d1

10009318 <__mutex_exit_veneer>:
10009318:	b401      	push	{r0}
1000931a:	4802      	ldr	r0, [pc, #8]	; (10009324 <__mutex_exit_veneer+0xc>)
1000931c:	4684      	mov	ip, r0
1000931e:	bc01      	pop	{r0}
10009320:	4760      	bx	ip
10009322:	bf00      	nop
10009324:	20000231 	.word	0x20000231

10009328 <__e15_is_critical_frame_period_veneer>:
10009328:	b401      	push	{r0}
1000932a:	4802      	ldr	r0, [pc, #8]	; (10009334 <__e15_is_critical_frame_period_veneer+0xc>)
1000932c:	4684      	mov	ip, r0
1000932e:	bc01      	pop	{r0}
10009330:	4760      	bx	ip
10009332:	bf00      	nop
10009334:	200009c1 	.word	0x200009c1

10009338 <__e15_is_bulkin_ep_veneer>:
10009338:	b401      	push	{r0}
1000933a:	4802      	ldr	r0, [pc, #8]	; (10009344 <__e15_is_bulkin_ep_veneer+0xc>)
1000933c:	4684      	mov	ip, r0
1000933e:	bc01      	pop	{r0}
10009340:	4760      	bx	ip
10009342:	bf00      	nop
10009344:	20000999 	.word	0x20000999

10009348 <____aeabi_idiv0_veneer>:
10009348:	b401      	push	{r0}
1000934a:	4802      	ldr	r0, [pc, #8]	; (10009354 <____aeabi_idiv0_veneer+0xc>)
1000934c:	4684      	mov	ip, r0
1000934e:	bc01      	pop	{r0}
10009350:	4760      	bx	ip
10009352:	bf00      	nop
10009354:	20000d5d 	.word	0x20000d5d

10009358 <__mutex_try_enter_veneer>:
10009358:	b401      	push	{r0}
1000935a:	4802      	ldr	r0, [pc, #8]	; (10009364 <__mutex_try_enter_veneer+0xc>)
1000935c:	4684      	mov	ip, r0
1000935e:	bc01      	pop	{r0}
10009360:	4760      	bx	ip
10009362:	bf00      	nop
10009364:	200000c1 	.word	0x200000c1

10009368 <__reset_non_control_endpoints_veneer>:
10009368:	b401      	push	{r0}
1000936a:	4802      	ldr	r0, [pc, #8]	; (10009374 <__reset_non_control_endpoints_veneer+0xc>)
1000936c:	4684      	mov	ip, r0
1000936e:	bc01      	pop	{r0}
10009370:	4760      	bx	ip
10009372:	bf00      	nop
10009374:	20000395 	.word	0x20000395

10009378 <__mutex_enter_timeout_ms_veneer>:
10009378:	b401      	push	{r0}
1000937a:	4802      	ldr	r0, [pc, #8]	; (10009384 <__mutex_enter_timeout_ms_veneer+0xc>)
1000937c:	4684      	mov	ip, r0
1000937e:	bc01      	pop	{r0}
10009380:	4760      	bx	ip
10009382:	bf00      	nop
10009384:	200001a1 	.word	0x200001a1

10009388 <__mutex_try_enter_block_until_veneer>:
10009388:	b401      	push	{r0}
1000938a:	4802      	ldr	r0, [pc, #8]	; (10009394 <__mutex_try_enter_block_until_veneer+0xc>)
1000938c:	4684      	mov	ip, r0
1000938e:	bc01      	pop	{r0}
10009390:	4760      	bx	ip
10009392:	bf00      	nop
10009394:	20000105 	.word	0x20000105

10009398 <__hw_endpoint_start_next_buffer_veneer>:
10009398:	b401      	push	{r0}
1000939a:	4802      	ldr	r0, [pc, #8]	; (100093a4 <__hw_endpoint_start_next_buffer_veneer+0xc>)
1000939c:	4684      	mov	ip, r0
1000939e:	bc01      	pop	{r0}
100093a0:	4760      	bx	ip
100093a2:	bf00      	nop
100093a4:	20000b35 	.word	0x20000b35

100093a8 <__hw_endpoint_reset_transfer_veneer>:
100093a8:	b401      	push	{r0}
100093aa:	4802      	ldr	r0, [pc, #8]	; (100093b4 <__hw_endpoint_reset_transfer_veneer+0xc>)
100093ac:	4684      	mov	ip, r0
100093ae:	bc01      	pop	{r0}
100093b0:	4760      	bx	ip
100093b2:	bf00      	nop
100093b4:	20000ad1 	.word	0x20000ad1

100093b8 <___hw_endpoint_buffer_control_update32_veneer>:
100093b8:	b401      	push	{r0}
100093ba:	4802      	ldr	r0, [pc, #8]	; (100093c4 <___hw_endpoint_buffer_control_update32_veneer+0xc>)
100093bc:	4684      	mov	ip, r0
100093be:	bc01      	pop	{r0}
100093c0:	4760      	bx	ip
100093c2:	bf00      	nop
100093c4:	20000add 	.word	0x20000add

Disassembly of section .data:

200000c0 <mutex_try_enter>:
200000c0:	0003      	movs	r3, r0
200000c2:	6800      	ldr	r0, [r0, #0]
200000c4:	f3ef 8c10 	mrs	ip, PRIMASK
200000c8:	b672      	cpsid	i
200000ca:	6802      	ldr	r2, [r0, #0]
200000cc:	2a00      	cmp	r2, #0
200000ce:	d0fc      	beq.n	200000ca <mutex_try_enter+0xa>
200000d0:	f3bf 8f5f 	dmb	sy
200000d4:	2204      	movs	r2, #4
200000d6:	569a      	ldrsb	r2, [r3, r2]
200000d8:	2a00      	cmp	r2, #0
200000da:	db0b      	blt.n	200000f4 <mutex_try_enter+0x34>
200000dc:	2900      	cmp	r1, #0
200000de:	d00f      	beq.n	20000100 <mutex_try_enter+0x40>
200000e0:	2000      	movs	r0, #0
200000e2:	600a      	str	r2, [r1, #0]
200000e4:	681b      	ldr	r3, [r3, #0]
200000e6:	f3bf 8f5f 	dmb	sy
200000ea:	2200      	movs	r2, #0
200000ec:	601a      	str	r2, [r3, #0]
200000ee:	f38c 8810 	msr	PRIMASK, ip
200000f2:	4770      	bx	lr
200000f4:	22d0      	movs	r2, #208	; 0xd0
200000f6:	0612      	lsls	r2, r2, #24
200000f8:	6812      	ldr	r2, [r2, #0]
200000fa:	2001      	movs	r0, #1
200000fc:	711a      	strb	r2, [r3, #4]
200000fe:	e7f1      	b.n	200000e4 <mutex_try_enter+0x24>
20000100:	2000      	movs	r0, #0
20000102:	e7ef      	b.n	200000e4 <mutex_try_enter+0x24>

20000104 <mutex_try_enter_block_until>:
20000104:	b5f0      	push	{r4, r5, r6, r7, lr}
20000106:	46c6      	mov	lr, r8
20000108:	0015      	movs	r5, r2
2000010a:	b500      	push	{lr}
2000010c:	0004      	movs	r4, r0
2000010e:	001e      	movs	r6, r3
20000110:	6802      	ldr	r2, [r0, #0]
20000112:	f3ef 8110 	mrs	r1, PRIMASK
20000116:	b672      	cpsid	i
20000118:	6813      	ldr	r3, [r2, #0]
2000011a:	2b00      	cmp	r3, #0
2000011c:	d0fc      	beq.n	20000118 <mutex_try_enter_block_until+0x14>
2000011e:	f3bf 8f5f 	dmb	sy
20000122:	2304      	movs	r3, #4
20000124:	56e3      	ldrsb	r3, [r4, r3]
20000126:	2b00      	cmp	r3, #0
20000128:	db2d      	blt.n	20000186 <mutex_try_enter_block_until+0x82>
2000012a:	6822      	ldr	r2, [r4, #0]
2000012c:	f3bf 8f5f 	dmb	sy
20000130:	2000      	movs	r0, #0
20000132:	6010      	str	r0, [r2, #0]
20000134:	f381 8810 	msr	PRIMASK, r1
20000138:	22d0      	movs	r2, #208	; 0xd0
2000013a:	0612      	lsls	r2, r2, #24
2000013c:	7812      	ldrb	r2, [r2, #0]
2000013e:	b252      	sxtb	r2, r2
20000140:	4690      	mov	r8, r2
20000142:	429a      	cmp	r2, r3
20000144:	d103      	bne.n	2000014e <mutex_try_enter_block_until+0x4a>
20000146:	2000      	movs	r0, #0
20000148:	bc80      	pop	{r7}
2000014a:	46b8      	mov	r8, r7
2000014c:	bdf0      	pop	{r4, r5, r6, r7, pc}
2000014e:	2700      	movs	r7, #0
20000150:	e00b      	b.n	2000016a <mutex_try_enter_block_until+0x66>
20000152:	6823      	ldr	r3, [r4, #0]
20000154:	f3bf 8f5f 	dmb	sy
20000158:	601f      	str	r7, [r3, #0]
2000015a:	f381 8810 	msr	PRIMASK, r1
2000015e:	0028      	movs	r0, r5
20000160:	0031      	movs	r1, r6
20000162:	f000 fdfd 	bl	20000d60 <__best_effort_wfe_or_timeout_veneer>
20000166:	2800      	cmp	r0, #0
20000168:	d1ed      	bne.n	20000146 <mutex_try_enter_block_until+0x42>
2000016a:	6822      	ldr	r2, [r4, #0]
2000016c:	f3ef 8110 	mrs	r1, PRIMASK
20000170:	b672      	cpsid	i
20000172:	6813      	ldr	r3, [r2, #0]
20000174:	2b00      	cmp	r3, #0
20000176:	d0fc      	beq.n	20000172 <mutex_try_enter_block_until+0x6e>
20000178:	f3bf 8f5f 	dmb	sy
2000017c:	7923      	ldrb	r3, [r4, #4]
2000017e:	2b7f      	cmp	r3, #127	; 0x7f
20000180:	d9e7      	bls.n	20000152 <mutex_try_enter_block_until+0x4e>
20000182:	4643      	mov	r3, r8
20000184:	e002      	b.n	2000018c <mutex_try_enter_block_until+0x88>
20000186:	23d0      	movs	r3, #208	; 0xd0
20000188:	061b      	lsls	r3, r3, #24
2000018a:	681b      	ldr	r3, [r3, #0]
2000018c:	7123      	strb	r3, [r4, #4]
2000018e:	6823      	ldr	r3, [r4, #0]
20000190:	f3bf 8f5f 	dmb	sy
20000194:	2200      	movs	r2, #0
20000196:	601a      	str	r2, [r3, #0]
20000198:	f381 8810 	msr	PRIMASK, r1
2000019c:	2001      	movs	r0, #1
2000019e:	e7d3      	b.n	20000148 <mutex_try_enter_block_until+0x44>

200001a0 <mutex_enter_timeout_ms>:
200001a0:	b5f0      	push	{r4, r5, r6, r7, lr}
200001a2:	46c6      	mov	lr, r8
200001a4:	b500      	push	{lr}
200001a6:	000d      	movs	r5, r1
200001a8:	0004      	movs	r4, r0
200001aa:	f000 fde9 	bl	20000d80 <__time_us_64_veneer>
200001ae:	22fa      	movs	r2, #250	; 0xfa
200001b0:	0006      	movs	r6, r0
200001b2:	000f      	movs	r7, r1
200001b4:	2300      	movs	r3, #0
200001b6:	0028      	movs	r0, r5
200001b8:	2100      	movs	r1, #0
200001ba:	0092      	lsls	r2, r2, #2
200001bc:	f000 fe00 	bl	20000dc0 <____wrap___aeabi_lmul_veneer>
200001c0:	2380      	movs	r3, #128	; 0x80
200001c2:	1836      	adds	r6, r6, r0
200001c4:	414f      	adcs	r7, r1
200001c6:	061b      	lsls	r3, r3, #24
200001c8:	429f      	cmp	r7, r3
200001ca:	d302      	bcc.n	200001d2 <mutex_enter_timeout_ms+0x32>
200001cc:	2601      	movs	r6, #1
200001ce:	4f17      	ldr	r7, [pc, #92]	; (2000022c <mutex_enter_timeout_ms+0x8c>)
200001d0:	4276      	negs	r6, r6
200001d2:	23d0      	movs	r3, #208	; 0xd0
200001d4:	061b      	lsls	r3, r3, #24
200001d6:	681b      	ldr	r3, [r3, #0]
200001d8:	2500      	movs	r5, #0
200001da:	4698      	mov	r8, r3
200001dc:	e00b      	b.n	200001f6 <mutex_enter_timeout_ms+0x56>
200001de:	6823      	ldr	r3, [r4, #0]
200001e0:	f3bf 8f5f 	dmb	sy
200001e4:	601d      	str	r5, [r3, #0]
200001e6:	f381 8810 	msr	PRIMASK, r1
200001ea:	0030      	movs	r0, r6
200001ec:	0039      	movs	r1, r7
200001ee:	f000 fdb7 	bl	20000d60 <__best_effort_wfe_or_timeout_veneer>
200001f2:	2800      	cmp	r0, #0
200001f4:	d118      	bne.n	20000228 <mutex_enter_timeout_ms+0x88>
200001f6:	6822      	ldr	r2, [r4, #0]
200001f8:	f3ef 8110 	mrs	r1, PRIMASK
200001fc:	b672      	cpsid	i
200001fe:	6813      	ldr	r3, [r2, #0]
20000200:	2b00      	cmp	r3, #0
20000202:	d0fc      	beq.n	200001fe <mutex_enter_timeout_ms+0x5e>
20000204:	f3bf 8f5f 	dmb	sy
20000208:	7923      	ldrb	r3, [r4, #4]
2000020a:	2b7f      	cmp	r3, #127	; 0x7f
2000020c:	d9e7      	bls.n	200001de <mutex_enter_timeout_ms+0x3e>
2000020e:	4643      	mov	r3, r8
20000210:	7123      	strb	r3, [r4, #4]
20000212:	6823      	ldr	r3, [r4, #0]
20000214:	f3bf 8f5f 	dmb	sy
20000218:	2200      	movs	r2, #0
2000021a:	601a      	str	r2, [r3, #0]
2000021c:	f381 8810 	msr	PRIMASK, r1
20000220:	2001      	movs	r0, #1
20000222:	bc80      	pop	{r7}
20000224:	46b8      	mov	r8, r7
20000226:	bdf0      	pop	{r4, r5, r6, r7, pc}
20000228:	2000      	movs	r0, #0
2000022a:	e7fa      	b.n	20000222 <mutex_enter_timeout_ms+0x82>
2000022c:	7fffffff 	.word	0x7fffffff

20000230 <mutex_exit>:
20000230:	6802      	ldr	r2, [r0, #0]
20000232:	f3ef 8110 	mrs	r1, PRIMASK
20000236:	b672      	cpsid	i
20000238:	6813      	ldr	r3, [r2, #0]
2000023a:	2b00      	cmp	r3, #0
2000023c:	d0fc      	beq.n	20000238 <mutex_exit+0x8>
2000023e:	f3bf 8f5f 	dmb	sy
20000242:	23ff      	movs	r3, #255	; 0xff
20000244:	7103      	strb	r3, [r0, #4]
20000246:	6803      	ldr	r3, [r0, #0]
20000248:	f3bf 8f5f 	dmb	sy
2000024c:	2200      	movs	r2, #0
2000024e:	601a      	str	r2, [r3, #0]
20000250:	f381 8810 	msr	PRIMASK, r1
20000254:	bf40      	sev
20000256:	4770      	bx	lr

20000258 <flash_init_boot2_copyout>:
20000258:	b510      	push	{r4, lr}
2000025a:	4c08      	ldr	r4, [pc, #32]	; (2000027c <flash_init_boot2_copyout+0x24>)
2000025c:	7823      	ldrb	r3, [r4, #0]
2000025e:	2b00      	cmp	r3, #0
20000260:	d10a      	bne.n	20000278 <flash_init_boot2_copyout+0x20>
20000262:	2380      	movs	r3, #128	; 0x80
20000264:	4806      	ldr	r0, [pc, #24]	; (20000280 <flash_init_boot2_copyout+0x28>)
20000266:	4907      	ldr	r1, [pc, #28]	; (20000284 <flash_init_boot2_copyout+0x2c>)
20000268:	055b      	lsls	r3, r3, #21
2000026a:	681a      	ldr	r2, [r3, #0]
2000026c:	50c2      	str	r2, [r0, r3]
2000026e:	3304      	adds	r3, #4
20000270:	428b      	cmp	r3, r1
20000272:	d1fa      	bne.n	2000026a <flash_init_boot2_copyout+0x12>
20000274:	2301      	movs	r3, #1
20000276:	7023      	strb	r3, [r4, #0]
20000278:	bd10      	pop	{r4, pc}
2000027a:	46c0      	nop			; (mov r8, r8)
2000027c:	2000219d 	.word	0x2000219d
20000280:	10001b60 	.word	0x10001b60
20000284:	10000100 	.word	0x10000100

20000288 <flash_enable_xip_via_boot2>:
20000288:	b510      	push	{r4, lr}
2000028a:	4b02      	ldr	r3, [pc, #8]	; (20000294 <flash_enable_xip_via_boot2+0xc>)
2000028c:	3301      	adds	r3, #1
2000028e:	4798      	blx	r3
20000290:	bd10      	pop	{r4, pc}
20000292:	46c0      	nop			; (mov r8, r8)
20000294:	20001b60 	.word	0x20001b60

20000298 <flash_cs_force.constprop.0>:
20000298:	4b03      	ldr	r3, [pc, #12]	; (200002a8 <flash_cs_force.constprop.0+0x10>)
2000029a:	681a      	ldr	r2, [r3, #0]
2000029c:	23c0      	movs	r3, #192	; 0xc0
2000029e:	009b      	lsls	r3, r3, #2
200002a0:	4393      	bics	r3, r2
200002a2:	4a02      	ldr	r2, [pc, #8]	; (200002ac <flash_cs_force.constprop.0+0x14>)
200002a4:	6013      	str	r3, [r2, #0]
200002a6:	4770      	bx	lr
200002a8:	4001800c 	.word	0x4001800c
200002ac:	4001900c 	.word	0x4001900c

200002b0 <flash_cs_force.constprop.1>:
200002b0:	4b05      	ldr	r3, [pc, #20]	; (200002c8 <flash_cs_force.constprop.1+0x18>)
200002b2:	681a      	ldr	r2, [r3, #0]
200002b4:	2380      	movs	r3, #128	; 0x80
200002b6:	009b      	lsls	r3, r3, #2
200002b8:	4053      	eors	r3, r2
200002ba:	22c0      	movs	r2, #192	; 0xc0
200002bc:	0092      	lsls	r2, r2, #2
200002be:	4013      	ands	r3, r2
200002c0:	4a02      	ldr	r2, [pc, #8]	; (200002cc <flash_cs_force.constprop.1+0x1c>)
200002c2:	6013      	str	r3, [r2, #0]
200002c4:	4770      	bx	lr
200002c6:	46c0      	nop			; (mov r8, r8)
200002c8:	4001800c 	.word	0x4001800c
200002cc:	4001900c 	.word	0x4001900c

200002d0 <flash_do_cmd>:
200002d0:	2314      	movs	r3, #20
200002d2:	b5f0      	push	{r4, r5, r6, r7, lr}
200002d4:	46d6      	mov	lr, sl
200002d6:	464f      	mov	r7, r9
200002d8:	4646      	mov	r6, r8
200002da:	469a      	mov	sl, r3
200002dc:	4681      	mov	r9, r0
200002de:	8818      	ldrh	r0, [r3, #0]
200002e0:	3304      	adds	r3, #4
200002e2:	b5c0      	push	{r6, r7, lr}
200002e4:	4698      	mov	r8, r3
200002e6:	000e      	movs	r6, r1
200002e8:	881b      	ldrh	r3, [r3, #0]
200002ea:	4927      	ldr	r1, [pc, #156]	; (20000388 <flash_do_cmd+0xb8>)
200002ec:	0014      	movs	r4, r2
200002ee:	4798      	blx	r3
200002f0:	4653      	mov	r3, sl
200002f2:	0007      	movs	r7, r0
200002f4:	8818      	ldrh	r0, [r3, #0]
200002f6:	4643      	mov	r3, r8
200002f8:	4924      	ldr	r1, [pc, #144]	; (2000038c <flash_do_cmd+0xbc>)
200002fa:	881b      	ldrh	r3, [r3, #0]
200002fc:	4798      	blx	r3
200002fe:	4653      	mov	r3, sl
20000300:	0005      	movs	r5, r0
20000302:	8818      	ldrh	r0, [r3, #0]
20000304:	4643      	mov	r3, r8
20000306:	4922      	ldr	r1, [pc, #136]	; (20000390 <flash_do_cmd+0xc0>)
20000308:	881b      	ldrh	r3, [r3, #0]
2000030a:	4798      	blx	r3
2000030c:	4680      	mov	r8, r0
2000030e:	f7ff ffa3 	bl	20000258 <flash_init_boot2_copyout>
20000312:	47b8      	blx	r7
20000314:	47a8      	blx	r5
20000316:	f7ff ffcb 	bl	200002b0 <flash_cs_force.constprop.1>
2000031a:	2c00      	cmp	r4, #0
2000031c:	d01b      	beq.n	20000356 <flash_do_cmd+0x86>
2000031e:	21c0      	movs	r1, #192	; 0xc0
20000320:	0022      	movs	r2, r4
20000322:	2708      	movs	r7, #8
20000324:	2002      	movs	r0, #2
20000326:	0549      	lsls	r1, r1, #21
20000328:	003d      	movs	r5, r7
2000032a:	6a8b      	ldr	r3, [r1, #40]	; 0x28
2000032c:	401d      	ands	r5, r3
2000032e:	4218      	tst	r0, r3
20000330:	d00b      	beq.n	2000034a <flash_do_cmd+0x7a>
20000332:	2c00      	cmp	r4, #0
20000334:	d009      	beq.n	2000034a <flash_do_cmd+0x7a>
20000336:	1b13      	subs	r3, r2, r4
20000338:	2b0d      	cmp	r3, #13
2000033a:	d81f      	bhi.n	2000037c <flash_do_cmd+0xac>
2000033c:	464b      	mov	r3, r9
2000033e:	781b      	ldrb	r3, [r3, #0]
20000340:	3c01      	subs	r4, #1
20000342:	660b      	str	r3, [r1, #96]	; 0x60
20000344:	2301      	movs	r3, #1
20000346:	469c      	mov	ip, r3
20000348:	44e1      	add	r9, ip
2000034a:	0023      	movs	r3, r4
2000034c:	2d00      	cmp	r5, #0
2000034e:	d10c      	bne.n	2000036a <flash_do_cmd+0x9a>
20000350:	4313      	orrs	r3, r2
20000352:	2b00      	cmp	r3, #0
20000354:	d1e8      	bne.n	20000328 <flash_do_cmd+0x58>
20000356:	f7ff ff9f 	bl	20000298 <flash_cs_force.constprop.0>
2000035a:	47c0      	blx	r8
2000035c:	f7ff ff94 	bl	20000288 <flash_enable_xip_via_boot2>
20000360:	bce0      	pop	{r5, r6, r7}
20000362:	46ba      	mov	sl, r7
20000364:	46b1      	mov	r9, r6
20000366:	46a8      	mov	r8, r5
20000368:	bdf0      	pop	{r4, r5, r6, r7, pc}
2000036a:	2a00      	cmp	r2, #0
2000036c:	d0f1      	beq.n	20000352 <flash_do_cmd+0x82>
2000036e:	6e0b      	ldr	r3, [r1, #96]	; 0x60
20000370:	3a01      	subs	r2, #1
20000372:	7033      	strb	r3, [r6, #0]
20000374:	0013      	movs	r3, r2
20000376:	3601      	adds	r6, #1
20000378:	4323      	orrs	r3, r4
2000037a:	e7ea      	b.n	20000352 <flash_do_cmd+0x82>
2000037c:	2d00      	cmp	r5, #0
2000037e:	d0d3      	beq.n	20000328 <flash_do_cmd+0x58>
20000380:	2a00      	cmp	r2, #0
20000382:	d0d1      	beq.n	20000328 <flash_do_cmd+0x58>
20000384:	e7f3      	b.n	2000036e <flash_do_cmd+0x9e>
20000386:	46c0      	nop			; (mov r8, r8)
20000388:	00004649 	.word	0x00004649
2000038c:	00005845 	.word	0x00005845
20000390:	00004346 	.word	0x00004346

20000394 <reset_non_control_endpoints>:
20000394:	2200      	movs	r2, #0
20000396:	4b15      	ldr	r3, [pc, #84]	; (200003ec <reset_non_control_endpoints+0x58>)
20000398:	b510      	push	{r4, lr}
2000039a:	609a      	str	r2, [r3, #8]
2000039c:	60da      	str	r2, [r3, #12]
2000039e:	611a      	str	r2, [r3, #16]
200003a0:	615a      	str	r2, [r3, #20]
200003a2:	619a      	str	r2, [r3, #24]
200003a4:	61da      	str	r2, [r3, #28]
200003a6:	621a      	str	r2, [r3, #32]
200003a8:	625a      	str	r2, [r3, #36]	; 0x24
200003aa:	629a      	str	r2, [r3, #40]	; 0x28
200003ac:	62da      	str	r2, [r3, #44]	; 0x2c
200003ae:	631a      	str	r2, [r3, #48]	; 0x30
200003b0:	635a      	str	r2, [r3, #52]	; 0x34
200003b2:	639a      	str	r2, [r3, #56]	; 0x38
200003b4:	63da      	str	r2, [r3, #60]	; 0x3c
200003b6:	641a      	str	r2, [r3, #64]	; 0x40
200003b8:	645a      	str	r2, [r3, #68]	; 0x44
200003ba:	649a      	str	r2, [r3, #72]	; 0x48
200003bc:	64da      	str	r2, [r3, #76]	; 0x4c
200003be:	651a      	str	r2, [r3, #80]	; 0x50
200003c0:	655a      	str	r2, [r3, #84]	; 0x54
200003c2:	659a      	str	r2, [r3, #88]	; 0x58
200003c4:	65da      	str	r2, [r3, #92]	; 0x5c
200003c6:	661a      	str	r2, [r3, #96]	; 0x60
200003c8:	665a      	str	r2, [r3, #100]	; 0x64
200003ca:	669a      	str	r2, [r3, #104]	; 0x68
200003cc:	66da      	str	r2, [r3, #108]	; 0x6c
200003ce:	671a      	str	r2, [r3, #112]	; 0x70
200003d0:	675a      	str	r2, [r3, #116]	; 0x74
200003d2:	679a      	str	r2, [r3, #120]	; 0x78
200003d4:	67da      	str	r2, [r3, #124]	; 0x7c
200003d6:	32f0      	adds	r2, #240	; 0xf0
200003d8:	0092      	lsls	r2, r2, #2
200003da:	2100      	movs	r1, #0
200003dc:	4804      	ldr	r0, [pc, #16]	; (200003f0 <reset_non_control_endpoints+0x5c>)
200003de:	f000 fcdf 	bl	20000da0 <____wrap_memset_veneer>
200003e2:	4b04      	ldr	r3, [pc, #16]	; (200003f4 <reset_non_control_endpoints+0x60>)
200003e4:	4a04      	ldr	r2, [pc, #16]	; (200003f8 <reset_non_control_endpoints+0x64>)
200003e6:	601a      	str	r2, [r3, #0]
200003e8:	bd10      	pop	{r4, pc}
200003ea:	46c0      	nop			; (mov r8, r8)
200003ec:	50100000 	.word	0x50100000
200003f0:	20001d48 	.word	0x20001d48
200003f4:	20002110 	.word	0x20002110
200003f8:	50100180 	.word	0x50100180

200003fc <hw_handle_buff_status>:
200003fc:	b5f0      	push	{r4, r5, r6, r7, lr}
200003fe:	4657      	mov	r7, sl
20000400:	46de      	mov	lr, fp
20000402:	464e      	mov	r6, r9
20000404:	4645      	mov	r5, r8
20000406:	b5e0      	push	{r5, r6, r7, lr}
20000408:	4b23      	ldr	r3, [pc, #140]	; (20000498 <hw_handle_buff_status+0x9c>)
2000040a:	b087      	sub	sp, #28
2000040c:	6d9f      	ldr	r7, [r3, #88]	; 0x58
2000040e:	2f00      	cmp	r7, #0
20000410:	d023      	beq.n	2000045a <hw_handle_buff_status+0x5e>
20000412:	4b22      	ldr	r3, [pc, #136]	; (2000049c <hw_handle_buff_status+0xa0>)
20000414:	2400      	movs	r4, #0
20000416:	4699      	mov	r9, r3
20000418:	2301      	movs	r3, #1
2000041a:	4698      	mov	r8, r3
2000041c:	4b20      	ldr	r3, [pc, #128]	; (200004a0 <hw_handle_buff_status+0xa4>)
2000041e:	2601      	movs	r6, #1
20000420:	469a      	mov	sl, r3
20000422:	e004      	b.n	2000042e <hw_handle_buff_status+0x32>
20000424:	3401      	adds	r4, #1
20000426:	0076      	lsls	r6, r6, #1
20000428:	b2e4      	uxtb	r4, r4
2000042a:	2c20      	cmp	r4, #32
2000042c:	d015      	beq.n	2000045a <hw_handle_buff_status+0x5e>
2000042e:	423e      	tst	r6, r7
20000430:	d0f8      	beq.n	20000424 <hw_handle_buff_status+0x28>
20000432:	464b      	mov	r3, r9
20000434:	659e      	str	r6, [r3, #88]	; 0x58
20000436:	4643      	mov	r3, r8
20000438:	0865      	lsrs	r5, r4, #1
2000043a:	006d      	lsls	r5, r5, #1
2000043c:	43a3      	bics	r3, r4
2000043e:	18ed      	adds	r5, r5, r3
20000440:	016d      	lsls	r5, r5, #5
20000442:	4455      	add	r5, sl
20000444:	0028      	movs	r0, r5
20000446:	f000 fbab 	bl	20000ba0 <hw_endpoint_xfer_continue>
2000044a:	2800      	cmp	r0, #0
2000044c:	d10c      	bne.n	20000468 <hw_handle_buff_status+0x6c>
2000044e:	3401      	adds	r4, #1
20000450:	43b7      	bics	r7, r6
20000452:	b2e4      	uxtb	r4, r4
20000454:	0076      	lsls	r6, r6, #1
20000456:	2f00      	cmp	r7, #0
20000458:	d1e7      	bne.n	2000042a <hw_handle_buff_status+0x2e>
2000045a:	b007      	add	sp, #28
2000045c:	bcf0      	pop	{r4, r5, r6, r7}
2000045e:	46bb      	mov	fp, r7
20000460:	46b2      	mov	sl, r6
20000462:	46a9      	mov	r9, r5
20000464:	46a0      	mov	r8, r4
20000466:	bdf0      	pop	{r4, r5, r6, r7, pc}
20000468:	78ab      	ldrb	r3, [r5, #2]
2000046a:	2208      	movs	r2, #8
2000046c:	469b      	mov	fp, r3
2000046e:	8aeb      	ldrh	r3, [r5, #22]
20000470:	2100      	movs	r1, #0
20000472:	a803      	add	r0, sp, #12
20000474:	9301      	str	r3, [sp, #4]
20000476:	f000 fc93 	bl	20000da0 <____wrap_memset_veneer>
2000047a:	2307      	movs	r3, #7
2000047c:	4659      	mov	r1, fp
2000047e:	aa02      	add	r2, sp, #8
20000480:	7153      	strb	r3, [r2, #5]
20000482:	9b01      	ldr	r3, [sp, #4]
20000484:	7211      	strb	r1, [r2, #8]
20000486:	a803      	add	r0, sp, #12
20000488:	2101      	movs	r1, #1
2000048a:	9305      	str	r3, [sp, #20]
2000048c:	f000 fbb0 	bl	20000bf0 <dcd_event_handler>
20000490:	0028      	movs	r0, r5
20000492:	f000 fb1d 	bl	20000ad0 <hw_endpoint_reset_transfer>
20000496:	e7da      	b.n	2000044e <hw_handle_buff_status+0x52>
20000498:	50110000 	.word	0x50110000
2000049c:	50113000 	.word	0x50113000
200004a0:	20001d08 	.word	0x20001d08

200004a4 <dcd_rp2040_irq>:
200004a4:	2398      	movs	r3, #152	; 0x98
200004a6:	4acf      	ldr	r2, [pc, #828]	; (200007e4 <dcd_rp2040_irq+0x340>)
200004a8:	b570      	push	{r4, r5, r6, lr}
200004aa:	58d5      	ldr	r5, [r2, r3]
200004ac:	2380      	movs	r3, #128	; 0x80
200004ae:	002c      	movs	r4, r5
200004b0:	029b      	lsls	r3, r3, #10
200004b2:	2610      	movs	r6, #16
200004b4:	b084      	sub	sp, #16
200004b6:	401c      	ands	r4, r3
200004b8:	421d      	tst	r5, r3
200004ba:	d078      	beq.n	200005ae <dcd_rp2040_irq+0x10a>
200004bc:	4bca      	ldr	r3, [pc, #808]	; (200007e8 <dcd_rp2040_irq+0x344>)
200004be:	4ccb      	ldr	r4, [pc, #812]	; (200007ec <dcd_rp2040_irq+0x348>)
200004c0:	6a9a      	ldr	r2, [r3, #40]	; 0x28
200004c2:	4bcb      	ldr	r3, [pc, #812]	; (200007f0 <dcd_rp2040_irq+0x34c>)
200004c4:	2600      	movs	r6, #0
200004c6:	601a      	str	r2, [r3, #0]
200004c8:	233b      	movs	r3, #59	; 0x3b
200004ca:	5ce3      	ldrb	r3, [r4, r3]
200004cc:	2b02      	cmp	r3, #2
200004ce:	d100      	bne.n	200004d2 <dcd_rp2040_irq+0x2e>
200004d0:	e0d7      	b.n	20000682 <dcd_rp2040_irq+0x1de>
200004d2:	237b      	movs	r3, #123	; 0x7b
200004d4:	5ce3      	ldrb	r3, [r4, r3]
200004d6:	2b02      	cmp	r3, #2
200004d8:	d100      	bne.n	200004dc <dcd_rp2040_irq+0x38>
200004da:	e214      	b.n	20000906 <dcd_rp2040_irq+0x462>
200004dc:	23bb      	movs	r3, #187	; 0xbb
200004de:	5ce3      	ldrb	r3, [r4, r3]
200004e0:	2b02      	cmp	r3, #2
200004e2:	d100      	bne.n	200004e6 <dcd_rp2040_irq+0x42>
200004e4:	e1fd      	b.n	200008e2 <dcd_rp2040_irq+0x43e>
200004e6:	23fb      	movs	r3, #251	; 0xfb
200004e8:	5ce3      	ldrb	r3, [r4, r3]
200004ea:	2b02      	cmp	r3, #2
200004ec:	d100      	bne.n	200004f0 <dcd_rp2040_irq+0x4c>
200004ee:	e1e6      	b.n	200008be <dcd_rp2040_irq+0x41a>
200004f0:	233c      	movs	r3, #60	; 0x3c
200004f2:	33ff      	adds	r3, #255	; 0xff
200004f4:	5ce3      	ldrb	r3, [r4, r3]
200004f6:	2b02      	cmp	r3, #2
200004f8:	d100      	bne.n	200004fc <dcd_rp2040_irq+0x58>
200004fa:	e1cb      	b.n	20000894 <dcd_rp2040_irq+0x3f0>
200004fc:	237c      	movs	r3, #124	; 0x7c
200004fe:	33ff      	adds	r3, #255	; 0xff
20000500:	5ce3      	ldrb	r3, [r4, r3]
20000502:	2b02      	cmp	r3, #2
20000504:	d100      	bne.n	20000508 <dcd_rp2040_irq+0x64>
20000506:	e1b0      	b.n	2000086a <dcd_rp2040_irq+0x3c6>
20000508:	23bc      	movs	r3, #188	; 0xbc
2000050a:	33ff      	adds	r3, #255	; 0xff
2000050c:	5ce3      	ldrb	r3, [r4, r3]
2000050e:	2b02      	cmp	r3, #2
20000510:	d100      	bne.n	20000514 <dcd_rp2040_irq+0x70>
20000512:	e195      	b.n	20000840 <dcd_rp2040_irq+0x39c>
20000514:	23fc      	movs	r3, #252	; 0xfc
20000516:	33ff      	adds	r3, #255	; 0xff
20000518:	5ce3      	ldrb	r3, [r4, r3]
2000051a:	2b02      	cmp	r3, #2
2000051c:	d100      	bne.n	20000520 <dcd_rp2040_irq+0x7c>
2000051e:	e14c      	b.n	200007ba <dcd_rp2040_irq+0x316>
20000520:	4bb4      	ldr	r3, [pc, #720]	; (200007f4 <dcd_rp2040_irq+0x350>)
20000522:	5ce3      	ldrb	r3, [r4, r3]
20000524:	2b02      	cmp	r3, #2
20000526:	d100      	bne.n	2000052a <dcd_rp2040_irq+0x86>
20000528:	e133      	b.n	20000792 <dcd_rp2040_irq+0x2ee>
2000052a:	4bb3      	ldr	r3, [pc, #716]	; (200007f8 <dcd_rp2040_irq+0x354>)
2000052c:	5ce3      	ldrb	r3, [r4, r3]
2000052e:	2b02      	cmp	r3, #2
20000530:	d100      	bne.n	20000534 <dcd_rp2040_irq+0x90>
20000532:	e11a      	b.n	2000076a <dcd_rp2040_irq+0x2c6>
20000534:	4bb1      	ldr	r3, [pc, #708]	; (200007fc <dcd_rp2040_irq+0x358>)
20000536:	5ce3      	ldrb	r3, [r4, r3]
20000538:	2b02      	cmp	r3, #2
2000053a:	d100      	bne.n	2000053e <dcd_rp2040_irq+0x9a>
2000053c:	e101      	b.n	20000742 <dcd_rp2040_irq+0x29e>
2000053e:	4bb0      	ldr	r3, [pc, #704]	; (20000800 <dcd_rp2040_irq+0x35c>)
20000540:	5ce3      	ldrb	r3, [r4, r3]
20000542:	2b02      	cmp	r3, #2
20000544:	d100      	bne.n	20000548 <dcd_rp2040_irq+0xa4>
20000546:	e0e8      	b.n	2000071a <dcd_rp2040_irq+0x276>
20000548:	4bae      	ldr	r3, [pc, #696]	; (20000804 <dcd_rp2040_irq+0x360>)
2000054a:	5ce3      	ldrb	r3, [r4, r3]
2000054c:	2b02      	cmp	r3, #2
2000054e:	d100      	bne.n	20000552 <dcd_rp2040_irq+0xae>
20000550:	e0cf      	b.n	200006f2 <dcd_rp2040_irq+0x24e>
20000552:	4bad      	ldr	r3, [pc, #692]	; (20000808 <dcd_rp2040_irq+0x364>)
20000554:	5ce3      	ldrb	r3, [r4, r3]
20000556:	2b02      	cmp	r3, #2
20000558:	d100      	bne.n	2000055c <dcd_rp2040_irq+0xb8>
2000055a:	e0a3      	b.n	200006a4 <dcd_rp2040_irq+0x200>
2000055c:	4bab      	ldr	r3, [pc, #684]	; (2000080c <dcd_rp2040_irq+0x368>)
2000055e:	5ce3      	ldrb	r3, [r4, r3]
20000560:	2b02      	cmp	r3, #2
20000562:	d100      	bne.n	20000566 <dcd_rp2040_irq+0xc2>
20000564:	e1e1      	b.n	2000092a <dcd_rp2040_irq+0x486>
20000566:	4baa      	ldr	r3, [pc, #680]	; (20000810 <dcd_rp2040_irq+0x36c>)
20000568:	5ce3      	ldrb	r3, [r4, r3]
2000056a:	2b02      	cmp	r3, #2
2000056c:	d100      	bne.n	20000570 <dcd_rp2040_irq+0xcc>
2000056e:	e1f3      	b.n	20000958 <dcd_rp2040_irq+0x4b4>
20000570:	2e00      	cmp	r6, #0
20000572:	d108      	bne.n	20000586 <dcd_rp2040_irq+0xe2>
20000574:	4ba7      	ldr	r3, [pc, #668]	; (20000814 <dcd_rp2040_irq+0x370>)
20000576:	781b      	ldrb	r3, [r3, #0]
20000578:	2b00      	cmp	r3, #0
2000057a:	d104      	bne.n	20000586 <dcd_rp2040_irq+0xe2>
2000057c:	2180      	movs	r1, #128	; 0x80
2000057e:	4aa6      	ldr	r2, [pc, #664]	; (20000818 <dcd_rp2040_irq+0x374>)
20000580:	3390      	adds	r3, #144	; 0x90
20000582:	0289      	lsls	r1, r1, #10
20000584:	50d1      	str	r1, [r2, r3]
20000586:	ae01      	add	r6, sp, #4
20000588:	4b96      	ldr	r3, [pc, #600]	; (200007e4 <dcd_rp2040_irq+0x340>)
2000058a:	220c      	movs	r2, #12
2000058c:	2100      	movs	r1, #0
2000058e:	0030      	movs	r0, r6
20000590:	6c9c      	ldr	r4, [r3, #72]	; 0x48
20000592:	f000 fc05 	bl	20000da0 <____wrap_memset_veneer>
20000596:	2303      	movs	r3, #3
20000598:	0564      	lsls	r4, r4, #21
2000059a:	0d64      	lsrs	r4, r4, #21
2000059c:	7073      	strb	r3, [r6, #1]
2000059e:	0030      	movs	r0, r6
200005a0:	9402      	str	r4, [sp, #8]
200005a2:	2101      	movs	r1, #1
200005a4:	2480      	movs	r4, #128	; 0x80
200005a6:	f000 fb23 	bl	20000bf0 <dcd_event_handler>
200005aa:	4e9c      	ldr	r6, [pc, #624]	; (2000081c <dcd_rp2040_irq+0x378>)
200005ac:	02a4      	lsls	r4, r4, #10
200005ae:	06eb      	lsls	r3, r5, #27
200005b0:	d463      	bmi.n	2000067a <dcd_rp2040_irq+0x1d6>
200005b2:	2380      	movs	r3, #128	; 0x80
200005b4:	025b      	lsls	r3, r3, #9
200005b6:	421d      	tst	r5, r3
200005b8:	d014      	beq.n	200005e4 <dcd_rp2040_irq+0x140>
200005ba:	2201      	movs	r2, #1
200005bc:	2123      	movs	r1, #35	; 0x23
200005be:	431c      	orrs	r4, r3
200005c0:	4b8a      	ldr	r3, [pc, #552]	; (200007ec <dcd_rp2040_irq+0x348>)
200005c2:	545a      	strb	r2, [r3, r1]
200005c4:	70da      	strb	r2, [r3, #3]
200005c6:	23c0      	movs	r3, #192	; 0xc0
200005c8:	4a95      	ldr	r2, [pc, #596]	; (20000820 <dcd_rp2040_irq+0x37c>)
200005ca:	00db      	lsls	r3, r3, #3
200005cc:	9301      	str	r3, [sp, #4]
200005ce:	ab02      	add	r3, sp, #8
200005d0:	ca03      	ldmia	r2!, {r0, r1}
200005d2:	c303      	stmia	r3!, {r0, r1}
200005d4:	2101      	movs	r1, #1
200005d6:	a801      	add	r0, sp, #4
200005d8:	f000 fb0a 	bl	20000bf0 <dcd_event_handler>
200005dc:	2280      	movs	r2, #128	; 0x80
200005de:	4b8e      	ldr	r3, [pc, #568]	; (20000818 <dcd_rp2040_irq+0x374>)
200005e0:	0292      	lsls	r2, r2, #10
200005e2:	651a      	str	r2, [r3, #80]	; 0x50
200005e4:	2380      	movs	r3, #128	; 0x80
200005e6:	015b      	lsls	r3, r3, #5
200005e8:	421d      	tst	r5, r3
200005ea:	d12f      	bne.n	2000064c <dcd_rp2040_irq+0x1a8>
200005ec:	2380      	movs	r3, #128	; 0x80
200005ee:	01db      	lsls	r3, r3, #7
200005f0:	421d      	tst	r5, r3
200005f2:	d11a      	bne.n	2000062a <dcd_rp2040_irq+0x186>
200005f4:	2380      	movs	r3, #128	; 0x80
200005f6:	021b      	lsls	r3, r3, #8
200005f8:	421d      	tst	r5, r3
200005fa:	d104      	bne.n	20000606 <dcd_rp2040_irq+0x162>
200005fc:	42ac      	cmp	r4, r5
200005fe:	d000      	beq.n	20000602 <dcd_rp2040_irq+0x15e>
20000600:	e1bd      	b.n	2000097e <dcd_rp2040_irq+0x4da>
20000602:	b004      	add	sp, #16
20000604:	bd70      	pop	{r4, r5, r6, pc}
20000606:	ae01      	add	r6, sp, #4
20000608:	220c      	movs	r2, #12
2000060a:	2100      	movs	r1, #0
2000060c:	0030      	movs	r0, r6
2000060e:	431c      	orrs	r4, r3
20000610:	f000 fbc6 	bl	20000da0 <____wrap_memset_veneer>
20000614:	2305      	movs	r3, #5
20000616:	2101      	movs	r1, #1
20000618:	7073      	strb	r3, [r6, #1]
2000061a:	0030      	movs	r0, r6
2000061c:	f000 fae8 	bl	20000bf0 <dcd_event_handler>
20000620:	2280      	movs	r2, #128	; 0x80
20000622:	4b7d      	ldr	r3, [pc, #500]	; (20000818 <dcd_rp2040_irq+0x374>)
20000624:	0112      	lsls	r2, r2, #4
20000626:	651a      	str	r2, [r3, #80]	; 0x50
20000628:	e7e8      	b.n	200005fc <dcd_rp2040_irq+0x158>
2000062a:	ae01      	add	r6, sp, #4
2000062c:	220c      	movs	r2, #12
2000062e:	2100      	movs	r1, #0
20000630:	0030      	movs	r0, r6
20000632:	431c      	orrs	r4, r3
20000634:	f000 fbb4 	bl	20000da0 <____wrap_memset_veneer>
20000638:	2304      	movs	r3, #4
2000063a:	2101      	movs	r1, #1
2000063c:	7073      	strb	r3, [r6, #1]
2000063e:	0030      	movs	r0, r6
20000640:	f000 fad6 	bl	20000bf0 <dcd_event_handler>
20000644:	2210      	movs	r2, #16
20000646:	4b74      	ldr	r3, [pc, #464]	; (20000818 <dcd_rp2040_irq+0x374>)
20000648:	651a      	str	r2, [r3, #80]	; 0x50
2000064a:	e7d3      	b.n	200005f4 <dcd_rp2040_irq+0x150>
2000064c:	2200      	movs	r2, #0
2000064e:	431c      	orrs	r4, r3
20000650:	4b64      	ldr	r3, [pc, #400]	; (200007e4 <dcd_rp2040_irq+0x340>)
20000652:	ae01      	add	r6, sp, #4
20000654:	601a      	str	r2, [r3, #0]
20000656:	f7ff fe9d 	bl	20000394 <reset_non_control_endpoints>
2000065a:	220c      	movs	r2, #12
2000065c:	2100      	movs	r1, #0
2000065e:	0030      	movs	r0, r6
20000660:	f000 fb9e 	bl	20000da0 <____wrap_memset_veneer>
20000664:	2301      	movs	r3, #1
20000666:	2101      	movs	r1, #1
20000668:	7073      	strb	r3, [r6, #1]
2000066a:	0030      	movs	r0, r6
2000066c:	f000 fac0 	bl	20000bf0 <dcd_event_handler>
20000670:	2280      	movs	r2, #128	; 0x80
20000672:	4b69      	ldr	r3, [pc, #420]	; (20000818 <dcd_rp2040_irq+0x374>)
20000674:	0312      	lsls	r2, r2, #12
20000676:	651a      	str	r2, [r3, #80]	; 0x50
20000678:	e7b8      	b.n	200005ec <dcd_rp2040_irq+0x148>
2000067a:	f7ff febf 	bl	200003fc <hw_handle_buff_status>
2000067e:	0034      	movs	r4, r6
20000680:	e797      	b.n	200005b2 <dcd_rp2040_irq+0x10e>
20000682:	3338      	adds	r3, #56	; 0x38
20000684:	5ce6      	ldrb	r6, [r4, r3]
20000686:	2e00      	cmp	r6, #0
20000688:	d100      	bne.n	2000068c <dcd_rp2040_irq+0x1e8>
2000068a:	e722      	b.n	200004d2 <dcd_rp2040_irq+0x2e>
2000068c:	3302      	adds	r3, #2
2000068e:	5ce2      	ldrb	r2, [r4, r3]
20000690:	2a00      	cmp	r2, #0
20000692:	d100      	bne.n	20000696 <dcd_rp2040_irq+0x1f2>
20000694:	e71d      	b.n	200004d2 <dcd_rp2040_irq+0x2e>
20000696:	2200      	movs	r2, #0
20000698:	0020      	movs	r0, r4
2000069a:	54e2      	strb	r2, [r4, r3]
2000069c:	3020      	adds	r0, #32
2000069e:	f000 fa49 	bl	20000b34 <hw_endpoint_start_next_buffer>
200006a2:	e716      	b.n	200004d2 <dcd_rp2040_irq+0x2e>
200006a4:	4b5f      	ldr	r3, [pc, #380]	; (20000824 <dcd_rp2040_irq+0x380>)
200006a6:	5ce3      	ldrb	r3, [r4, r3]
200006a8:	2b00      	cmp	r3, #0
200006aa:	d100      	bne.n	200006ae <dcd_rp2040_irq+0x20a>
200006ac:	e756      	b.n	2000055c <dcd_rp2040_irq+0xb8>
200006ae:	23df      	movs	r3, #223	; 0xdf
200006b0:	009b      	lsls	r3, r3, #2
200006b2:	5ce2      	ldrb	r2, [r4, r3]
200006b4:	2a00      	cmp	r2, #0
200006b6:	d000      	beq.n	200006ba <dcd_rp2040_irq+0x216>
200006b8:	e159      	b.n	2000096e <dcd_rp2040_irq+0x4ca>
200006ba:	4b54      	ldr	r3, [pc, #336]	; (2000080c <dcd_rp2040_irq+0x368>)
200006bc:	5ce3      	ldrb	r3, [r4, r3]
200006be:	2b02      	cmp	r3, #2
200006c0:	d100      	bne.n	200006c4 <dcd_rp2040_irq+0x220>
200006c2:	e14f      	b.n	20000964 <dcd_rp2040_irq+0x4c0>
200006c4:	4b52      	ldr	r3, [pc, #328]	; (20000810 <dcd_rp2040_irq+0x36c>)
200006c6:	5ce3      	ldrb	r3, [r4, r3]
200006c8:	2b02      	cmp	r3, #2
200006ca:	d000      	beq.n	200006ce <dcd_rp2040_irq+0x22a>
200006cc:	e75b      	b.n	20000586 <dcd_rp2040_irq+0xe2>
200006ce:	4b56      	ldr	r3, [pc, #344]	; (20000828 <dcd_rp2040_irq+0x384>)
200006d0:	5ce3      	ldrb	r3, [r4, r3]
200006d2:	2b00      	cmp	r3, #0
200006d4:	d100      	bne.n	200006d8 <dcd_rp2040_irq+0x234>
200006d6:	e756      	b.n	20000586 <dcd_rp2040_irq+0xe2>
200006d8:	23ff      	movs	r3, #255	; 0xff
200006da:	009b      	lsls	r3, r3, #2
200006dc:	5ce2      	ldrb	r2, [r4, r3]
200006de:	2a00      	cmp	r2, #0
200006e0:	d100      	bne.n	200006e4 <dcd_rp2040_irq+0x240>
200006e2:	e750      	b.n	20000586 <dcd_rp2040_irq+0xe2>
200006e4:	2200      	movs	r2, #0
200006e6:	54e2      	strb	r2, [r4, r3]
200006e8:	3b1c      	subs	r3, #28
200006ea:	18e0      	adds	r0, r4, r3
200006ec:	f000 fa22 	bl	20000b34 <hw_endpoint_start_next_buffer>
200006f0:	e749      	b.n	20000586 <dcd_rp2040_irq+0xe2>
200006f2:	4b4e      	ldr	r3, [pc, #312]	; (2000082c <dcd_rp2040_irq+0x388>)
200006f4:	5ce3      	ldrb	r3, [r4, r3]
200006f6:	2b00      	cmp	r3, #0
200006f8:	d100      	bne.n	200006fc <dcd_rp2040_irq+0x258>
200006fa:	e72a      	b.n	20000552 <dcd_rp2040_irq+0xae>
200006fc:	22cf      	movs	r2, #207	; 0xcf
200006fe:	0092      	lsls	r2, r2, #2
20000700:	5ca1      	ldrb	r1, [r4, r2]
20000702:	001e      	movs	r6, r3
20000704:	2900      	cmp	r1, #0
20000706:	d100      	bne.n	2000070a <dcd_rp2040_irq+0x266>
20000708:	e723      	b.n	20000552 <dcd_rp2040_irq+0xae>
2000070a:	2300      	movs	r3, #0
2000070c:	54a3      	strb	r3, [r4, r2]
2000070e:	23c8      	movs	r3, #200	; 0xc8
20000710:	009b      	lsls	r3, r3, #2
20000712:	18e0      	adds	r0, r4, r3
20000714:	f000 fa0e 	bl	20000b34 <hw_endpoint_start_next_buffer>
20000718:	e71b      	b.n	20000552 <dcd_rp2040_irq+0xae>
2000071a:	4b45      	ldr	r3, [pc, #276]	; (20000830 <dcd_rp2040_irq+0x38c>)
2000071c:	5ce3      	ldrb	r3, [r4, r3]
2000071e:	2b00      	cmp	r3, #0
20000720:	d100      	bne.n	20000724 <dcd_rp2040_irq+0x280>
20000722:	e711      	b.n	20000548 <dcd_rp2040_irq+0xa4>
20000724:	22bf      	movs	r2, #191	; 0xbf
20000726:	0092      	lsls	r2, r2, #2
20000728:	5ca1      	ldrb	r1, [r4, r2]
2000072a:	001e      	movs	r6, r3
2000072c:	2900      	cmp	r1, #0
2000072e:	d100      	bne.n	20000732 <dcd_rp2040_irq+0x28e>
20000730:	e70a      	b.n	20000548 <dcd_rp2040_irq+0xa4>
20000732:	2300      	movs	r3, #0
20000734:	54a3      	strb	r3, [r4, r2]
20000736:	23b8      	movs	r3, #184	; 0xb8
20000738:	009b      	lsls	r3, r3, #2
2000073a:	18e0      	adds	r0, r4, r3
2000073c:	f000 f9fa 	bl	20000b34 <hw_endpoint_start_next_buffer>
20000740:	e702      	b.n	20000548 <dcd_rp2040_irq+0xa4>
20000742:	4b3c      	ldr	r3, [pc, #240]	; (20000834 <dcd_rp2040_irq+0x390>)
20000744:	5ce3      	ldrb	r3, [r4, r3]
20000746:	2b00      	cmp	r3, #0
20000748:	d100      	bne.n	2000074c <dcd_rp2040_irq+0x2a8>
2000074a:	e6f8      	b.n	2000053e <dcd_rp2040_irq+0x9a>
2000074c:	22af      	movs	r2, #175	; 0xaf
2000074e:	0092      	lsls	r2, r2, #2
20000750:	5ca1      	ldrb	r1, [r4, r2]
20000752:	001e      	movs	r6, r3
20000754:	2900      	cmp	r1, #0
20000756:	d100      	bne.n	2000075a <dcd_rp2040_irq+0x2b6>
20000758:	e6f1      	b.n	2000053e <dcd_rp2040_irq+0x9a>
2000075a:	2300      	movs	r3, #0
2000075c:	54a3      	strb	r3, [r4, r2]
2000075e:	23a8      	movs	r3, #168	; 0xa8
20000760:	009b      	lsls	r3, r3, #2
20000762:	18e0      	adds	r0, r4, r3
20000764:	f000 f9e6 	bl	20000b34 <hw_endpoint_start_next_buffer>
20000768:	e6e9      	b.n	2000053e <dcd_rp2040_irq+0x9a>
2000076a:	4b33      	ldr	r3, [pc, #204]	; (20000838 <dcd_rp2040_irq+0x394>)
2000076c:	5ce3      	ldrb	r3, [r4, r3]
2000076e:	2b00      	cmp	r3, #0
20000770:	d100      	bne.n	20000774 <dcd_rp2040_irq+0x2d0>
20000772:	e6df      	b.n	20000534 <dcd_rp2040_irq+0x90>
20000774:	229f      	movs	r2, #159	; 0x9f
20000776:	0092      	lsls	r2, r2, #2
20000778:	5ca1      	ldrb	r1, [r4, r2]
2000077a:	001e      	movs	r6, r3
2000077c:	2900      	cmp	r1, #0
2000077e:	d100      	bne.n	20000782 <dcd_rp2040_irq+0x2de>
20000780:	e6d8      	b.n	20000534 <dcd_rp2040_irq+0x90>
20000782:	2300      	movs	r3, #0
20000784:	54a3      	strb	r3, [r4, r2]
20000786:	2398      	movs	r3, #152	; 0x98
20000788:	009b      	lsls	r3, r3, #2
2000078a:	18e0      	adds	r0, r4, r3
2000078c:	f000 f9d2 	bl	20000b34 <hw_endpoint_start_next_buffer>
20000790:	e6d0      	b.n	20000534 <dcd_rp2040_irq+0x90>
20000792:	4b2a      	ldr	r3, [pc, #168]	; (2000083c <dcd_rp2040_irq+0x398>)
20000794:	5ce3      	ldrb	r3, [r4, r3]
20000796:	2b00      	cmp	r3, #0
20000798:	d100      	bne.n	2000079c <dcd_rp2040_irq+0x2f8>
2000079a:	e6c6      	b.n	2000052a <dcd_rp2040_irq+0x86>
2000079c:	228f      	movs	r2, #143	; 0x8f
2000079e:	0092      	lsls	r2, r2, #2
200007a0:	5ca1      	ldrb	r1, [r4, r2]
200007a2:	001e      	movs	r6, r3
200007a4:	2900      	cmp	r1, #0
200007a6:	d100      	bne.n	200007aa <dcd_rp2040_irq+0x306>
200007a8:	e6bf      	b.n	2000052a <dcd_rp2040_irq+0x86>
200007aa:	2300      	movs	r3, #0
200007ac:	54a3      	strb	r3, [r4, r2]
200007ae:	2388      	movs	r3, #136	; 0x88
200007b0:	009b      	lsls	r3, r3, #2
200007b2:	18e0      	adds	r0, r4, r3
200007b4:	f000 f9be 	bl	20000b34 <hw_endpoint_start_next_buffer>
200007b8:	e6b7      	b.n	2000052a <dcd_rp2040_irq+0x86>
200007ba:	33f9      	adds	r3, #249	; 0xf9
200007bc:	33ff      	adds	r3, #255	; 0xff
200007be:	5ce3      	ldrb	r3, [r4, r3]
200007c0:	2b00      	cmp	r3, #0
200007c2:	d100      	bne.n	200007c6 <dcd_rp2040_irq+0x322>
200007c4:	e6ac      	b.n	20000520 <dcd_rp2040_irq+0x7c>
200007c6:	22fe      	movs	r2, #254	; 0xfe
200007c8:	0052      	lsls	r2, r2, #1
200007ca:	5ca1      	ldrb	r1, [r4, r2]
200007cc:	001e      	movs	r6, r3
200007ce:	2900      	cmp	r1, #0
200007d0:	d100      	bne.n	200007d4 <dcd_rp2040_irq+0x330>
200007d2:	e6a5      	b.n	20000520 <dcd_rp2040_irq+0x7c>
200007d4:	0020      	movs	r0, r4
200007d6:	2300      	movs	r3, #0
200007d8:	30e1      	adds	r0, #225	; 0xe1
200007da:	54a3      	strb	r3, [r4, r2]
200007dc:	30ff      	adds	r0, #255	; 0xff
200007de:	f000 f9a9 	bl	20000b34 <hw_endpoint_start_next_buffer>
200007e2:	e69d      	b.n	20000520 <dcd_rp2040_irq+0x7c>
200007e4:	50110000 	.word	0x50110000
200007e8:	40054000 	.word	0x40054000
200007ec:	20001d08 	.word	0x20001d08
200007f0:	20001d00 	.word	0x20001d00
200007f4:	0000023b 	.word	0x0000023b
200007f8:	0000027b 	.word	0x0000027b
200007fc:	000002bb 	.word	0x000002bb
20000800:	000002fb 	.word	0x000002fb
20000804:	0000033b 	.word	0x0000033b
20000808:	0000037b 	.word	0x0000037b
2000080c:	000003bb 	.word	0x000003bb
20000810:	000003fb 	.word	0x000003fb
20000814:	2000219c 	.word	0x2000219c
20000818:	50113000 	.word	0x50113000
2000081c:	00020010 	.word	0x00020010
20000820:	50100000 	.word	0x50100000
20000824:	0000037a 	.word	0x0000037a
20000828:	000003fa 	.word	0x000003fa
2000082c:	0000033a 	.word	0x0000033a
20000830:	000002fa 	.word	0x000002fa
20000834:	000002ba 	.word	0x000002ba
20000838:	0000027a 	.word	0x0000027a
2000083c:	0000023a 	.word	0x0000023a
20000840:	33b9      	adds	r3, #185	; 0xb9
20000842:	33ff      	adds	r3, #255	; 0xff
20000844:	5ce3      	ldrb	r3, [r4, r3]
20000846:	2b00      	cmp	r3, #0
20000848:	d100      	bne.n	2000084c <dcd_rp2040_irq+0x3a8>
2000084a:	e663      	b.n	20000514 <dcd_rp2040_irq+0x70>
2000084c:	22de      	movs	r2, #222	; 0xde
2000084e:	0052      	lsls	r2, r2, #1
20000850:	5ca1      	ldrb	r1, [r4, r2]
20000852:	001e      	movs	r6, r3
20000854:	2900      	cmp	r1, #0
20000856:	d100      	bne.n	2000085a <dcd_rp2040_irq+0x3b6>
20000858:	e65c      	b.n	20000514 <dcd_rp2040_irq+0x70>
2000085a:	0020      	movs	r0, r4
2000085c:	2300      	movs	r3, #0
2000085e:	30a1      	adds	r0, #161	; 0xa1
20000860:	54a3      	strb	r3, [r4, r2]
20000862:	30ff      	adds	r0, #255	; 0xff
20000864:	f000 f966 	bl	20000b34 <hw_endpoint_start_next_buffer>
20000868:	e654      	b.n	20000514 <dcd_rp2040_irq+0x70>
2000086a:	3379      	adds	r3, #121	; 0x79
2000086c:	33ff      	adds	r3, #255	; 0xff
2000086e:	5ce3      	ldrb	r3, [r4, r3]
20000870:	2b00      	cmp	r3, #0
20000872:	d100      	bne.n	20000876 <dcd_rp2040_irq+0x3d2>
20000874:	e648      	b.n	20000508 <dcd_rp2040_irq+0x64>
20000876:	22be      	movs	r2, #190	; 0xbe
20000878:	0052      	lsls	r2, r2, #1
2000087a:	5ca1      	ldrb	r1, [r4, r2]
2000087c:	001e      	movs	r6, r3
2000087e:	2900      	cmp	r1, #0
20000880:	d100      	bne.n	20000884 <dcd_rp2040_irq+0x3e0>
20000882:	e641      	b.n	20000508 <dcd_rp2040_irq+0x64>
20000884:	0020      	movs	r0, r4
20000886:	2300      	movs	r3, #0
20000888:	3061      	adds	r0, #97	; 0x61
2000088a:	54a3      	strb	r3, [r4, r2]
2000088c:	30ff      	adds	r0, #255	; 0xff
2000088e:	f000 f951 	bl	20000b34 <hw_endpoint_start_next_buffer>
20000892:	e639      	b.n	20000508 <dcd_rp2040_irq+0x64>
20000894:	3339      	adds	r3, #57	; 0x39
20000896:	33ff      	adds	r3, #255	; 0xff
20000898:	5ce3      	ldrb	r3, [r4, r3]
2000089a:	2b00      	cmp	r3, #0
2000089c:	d100      	bne.n	200008a0 <dcd_rp2040_irq+0x3fc>
2000089e:	e62d      	b.n	200004fc <dcd_rp2040_irq+0x58>
200008a0:	229e      	movs	r2, #158	; 0x9e
200008a2:	0052      	lsls	r2, r2, #1
200008a4:	5ca1      	ldrb	r1, [r4, r2]
200008a6:	001e      	movs	r6, r3
200008a8:	2900      	cmp	r1, #0
200008aa:	d100      	bne.n	200008ae <dcd_rp2040_irq+0x40a>
200008ac:	e626      	b.n	200004fc <dcd_rp2040_irq+0x58>
200008ae:	0020      	movs	r0, r4
200008b0:	2300      	movs	r3, #0
200008b2:	3021      	adds	r0, #33	; 0x21
200008b4:	54a3      	strb	r3, [r4, r2]
200008b6:	30ff      	adds	r0, #255	; 0xff
200008b8:	f000 f93c 	bl	20000b34 <hw_endpoint_start_next_buffer>
200008bc:	e61e      	b.n	200004fc <dcd_rp2040_irq+0x58>
200008be:	33f8      	adds	r3, #248	; 0xf8
200008c0:	5ce3      	ldrb	r3, [r4, r3]
200008c2:	2b00      	cmp	r3, #0
200008c4:	d100      	bne.n	200008c8 <dcd_rp2040_irq+0x424>
200008c6:	e613      	b.n	200004f0 <dcd_rp2040_irq+0x4c>
200008c8:	22fc      	movs	r2, #252	; 0xfc
200008ca:	5ca1      	ldrb	r1, [r4, r2]
200008cc:	001e      	movs	r6, r3
200008ce:	2900      	cmp	r1, #0
200008d0:	d100      	bne.n	200008d4 <dcd_rp2040_irq+0x430>
200008d2:	e60d      	b.n	200004f0 <dcd_rp2040_irq+0x4c>
200008d4:	2300      	movs	r3, #0
200008d6:	0020      	movs	r0, r4
200008d8:	54a3      	strb	r3, [r4, r2]
200008da:	30e0      	adds	r0, #224	; 0xe0
200008dc:	f000 f92a 	bl	20000b34 <hw_endpoint_start_next_buffer>
200008e0:	e606      	b.n	200004f0 <dcd_rp2040_irq+0x4c>
200008e2:	33b8      	adds	r3, #184	; 0xb8
200008e4:	5ce3      	ldrb	r3, [r4, r3]
200008e6:	2b00      	cmp	r3, #0
200008e8:	d100      	bne.n	200008ec <dcd_rp2040_irq+0x448>
200008ea:	e5fc      	b.n	200004e6 <dcd_rp2040_irq+0x42>
200008ec:	22bc      	movs	r2, #188	; 0xbc
200008ee:	5ca1      	ldrb	r1, [r4, r2]
200008f0:	001e      	movs	r6, r3
200008f2:	2900      	cmp	r1, #0
200008f4:	d100      	bne.n	200008f8 <dcd_rp2040_irq+0x454>
200008f6:	e5f6      	b.n	200004e6 <dcd_rp2040_irq+0x42>
200008f8:	2300      	movs	r3, #0
200008fa:	0020      	movs	r0, r4
200008fc:	54a3      	strb	r3, [r4, r2]
200008fe:	30a0      	adds	r0, #160	; 0xa0
20000900:	f000 f918 	bl	20000b34 <hw_endpoint_start_next_buffer>
20000904:	e5ef      	b.n	200004e6 <dcd_rp2040_irq+0x42>
20000906:	3378      	adds	r3, #120	; 0x78
20000908:	5ce3      	ldrb	r3, [r4, r3]
2000090a:	2b00      	cmp	r3, #0
2000090c:	d100      	bne.n	20000910 <dcd_rp2040_irq+0x46c>
2000090e:	e5e5      	b.n	200004dc <dcd_rp2040_irq+0x38>
20000910:	227c      	movs	r2, #124	; 0x7c
20000912:	5ca1      	ldrb	r1, [r4, r2]
20000914:	001e      	movs	r6, r3
20000916:	2900      	cmp	r1, #0
20000918:	d100      	bne.n	2000091c <dcd_rp2040_irq+0x478>
2000091a:	e5df      	b.n	200004dc <dcd_rp2040_irq+0x38>
2000091c:	2300      	movs	r3, #0
2000091e:	0020      	movs	r0, r4
20000920:	54a3      	strb	r3, [r4, r2]
20000922:	3060      	adds	r0, #96	; 0x60
20000924:	f000 f906 	bl	20000b34 <hw_endpoint_start_next_buffer>
20000928:	e5d8      	b.n	200004dc <dcd_rp2040_irq+0x38>
2000092a:	4b17      	ldr	r3, [pc, #92]	; (20000988 <dcd_rp2040_irq+0x4e4>)
2000092c:	5ce3      	ldrb	r3, [r4, r3]
2000092e:	2b00      	cmp	r3, #0
20000930:	d100      	bne.n	20000934 <dcd_rp2040_irq+0x490>
20000932:	e618      	b.n	20000566 <dcd_rp2040_irq+0xc2>
20000934:	23ef      	movs	r3, #239	; 0xef
20000936:	009b      	lsls	r3, r3, #2
20000938:	5ce2      	ldrb	r2, [r4, r3]
2000093a:	2a00      	cmp	r2, #0
2000093c:	d100      	bne.n	20000940 <dcd_rp2040_irq+0x49c>
2000093e:	e6c1      	b.n	200006c4 <dcd_rp2040_irq+0x220>
20000940:	2200      	movs	r2, #0
20000942:	54e2      	strb	r2, [r4, r3]
20000944:	3b1c      	subs	r3, #28
20000946:	18e0      	adds	r0, r4, r3
20000948:	f000 f8f4 	bl	20000b34 <hw_endpoint_start_next_buffer>
2000094c:	4b0f      	ldr	r3, [pc, #60]	; (2000098c <dcd_rp2040_irq+0x4e8>)
2000094e:	5ce3      	ldrb	r3, [r4, r3]
20000950:	2b02      	cmp	r3, #2
20000952:	d000      	beq.n	20000956 <dcd_rp2040_irq+0x4b2>
20000954:	e617      	b.n	20000586 <dcd_rp2040_irq+0xe2>
20000956:	e6ba      	b.n	200006ce <dcd_rp2040_irq+0x22a>
20000958:	4b0d      	ldr	r3, [pc, #52]	; (20000990 <dcd_rp2040_irq+0x4ec>)
2000095a:	5ce3      	ldrb	r3, [r4, r3]
2000095c:	2b00      	cmp	r3, #0
2000095e:	d100      	bne.n	20000962 <dcd_rp2040_irq+0x4be>
20000960:	e606      	b.n	20000570 <dcd_rp2040_irq+0xcc>
20000962:	e6b9      	b.n	200006d8 <dcd_rp2040_irq+0x234>
20000964:	4b08      	ldr	r3, [pc, #32]	; (20000988 <dcd_rp2040_irq+0x4e4>)
20000966:	5ce3      	ldrb	r3, [r4, r3]
20000968:	2b00      	cmp	r3, #0
2000096a:	d1e3      	bne.n	20000934 <dcd_rp2040_irq+0x490>
2000096c:	e6aa      	b.n	200006c4 <dcd_rp2040_irq+0x220>
2000096e:	2200      	movs	r2, #0
20000970:	54e2      	strb	r2, [r4, r3]
20000972:	23d8      	movs	r3, #216	; 0xd8
20000974:	009b      	lsls	r3, r3, #2
20000976:	18e0      	adds	r0, r4, r3
20000978:	f000 f8dc 	bl	20000b34 <hw_endpoint_start_next_buffer>
2000097c:	e69d      	b.n	200006ba <dcd_rp2040_irq+0x216>
2000097e:	0021      	movs	r1, r4
20000980:	4804      	ldr	r0, [pc, #16]	; (20000994 <dcd_rp2040_irq+0x4f0>)
20000982:	4069      	eors	r1, r5
20000984:	f000 f9f4 	bl	20000d70 <__panic_veneer>
20000988:	000003ba 	.word	0x000003ba
2000098c:	000003fb 	.word	0x000003fb
20000990:	000003fa 	.word	0x000003fa
20000994:	100098d4 	.word	0x100098d4

20000998 <e15_is_bulkin_ep>:
20000998:	4a08      	ldr	r2, [pc, #32]	; (200009bc <e15_is_bulkin_ep+0x24>)
2000099a:	0003      	movs	r3, r0
2000099c:	6c12      	ldr	r2, [r2, #64]	; 0x40
2000099e:	2000      	movs	r0, #0
200009a0:	0792      	lsls	r2, r2, #30
200009a2:	d403      	bmi.n	200009ac <e15_is_bulkin_ep+0x14>
200009a4:	789a      	ldrb	r2, [r3, #2]
200009a6:	09d2      	lsrs	r2, r2, #7
200009a8:	2a01      	cmp	r2, #1
200009aa:	d000      	beq.n	200009ae <e15_is_bulkin_ep+0x16>
200009ac:	4770      	bx	lr
200009ae:	7ed8      	ldrb	r0, [r3, #27]
200009b0:	3802      	subs	r0, #2
200009b2:	4243      	negs	r3, r0
200009b4:	4158      	adcs	r0, r3
200009b6:	b2c0      	uxtb	r0, r0
200009b8:	e7f8      	b.n	200009ac <e15_is_bulkin_ep+0x14>
200009ba:	46c0      	nop			; (mov r8, r8)
200009bc:	50110000 	.word	0x50110000

200009c0 <e15_is_critical_frame_period>:
200009c0:	b510      	push	{r4, lr}
200009c2:	f7ff ffe9 	bl	20000998 <e15_is_bulkin_ep>
200009c6:	2800      	cmp	r0, #0
200009c8:	d00c      	beq.n	200009e4 <e15_is_critical_frame_period+0x24>
200009ca:	4907      	ldr	r1, [pc, #28]	; (200009e8 <e15_is_critical_frame_period+0x28>)
200009cc:	4b07      	ldr	r3, [pc, #28]	; (200009ec <e15_is_critical_frame_period+0x2c>)
200009ce:	468c      	mov	ip, r1
200009d0:	4a07      	ldr	r2, [pc, #28]	; (200009f0 <e15_is_critical_frame_period+0x30>)
200009d2:	6a9b      	ldr	r3, [r3, #40]	; 0x28
200009d4:	6812      	ldr	r2, [r2, #0]
200009d6:	4463      	add	r3, ip
200009d8:	1a9b      	subs	r3, r3, r2
200009da:	2000      	movs	r0, #0
200009dc:	22c6      	movs	r2, #198	; 0xc6
200009de:	429a      	cmp	r2, r3
200009e0:	4140      	adcs	r0, r0
200009e2:	b2c0      	uxtb	r0, r0
200009e4:	bd10      	pop	{r4, pc}
200009e6:	46c0      	nop			; (mov r8, r8)
200009e8:	fffffce0 	.word	0xfffffce0
200009ec:	40054000 	.word	0x40054000
200009f0:	20001d00 	.word	0x20001d00

200009f4 <prepare_ep_buffer>:
200009f4:	b5f8      	push	{r3, r4, r5, r6, r7, lr}
200009f6:	8b02      	ldrh	r2, [r0, #24]
200009f8:	8a83      	ldrh	r3, [r0, #20]
200009fa:	0004      	movs	r4, r0
200009fc:	000f      	movs	r7, r1
200009fe:	1c16      	adds	r6, r2, #0
20000a00:	429a      	cmp	r2, r3
20000a02:	d900      	bls.n	20000a06 <prepare_ep_buffer+0x12>
20000a04:	1c1e      	adds	r6, r3, #0
20000a06:	78e2      	ldrb	r2, [r4, #3]
20000a08:	2180      	movs	r1, #128	; 0x80
20000a0a:	0015      	movs	r5, r2
20000a0c:	1e68      	subs	r0, r5, #1
20000a0e:	4185      	sbcs	r5, r0
20000a10:	b2b6      	uxth	r6, r6
20000a12:	00c9      	lsls	r1, r1, #3
20000a14:	4331      	orrs	r1, r6
20000a16:	036d      	lsls	r5, r5, #13
20000a18:	430d      	orrs	r5, r1
20000a1a:	2101      	movs	r1, #1
20000a1c:	404a      	eors	r2, r1
20000a1e:	1b9b      	subs	r3, r3, r6
20000a20:	70e2      	strb	r2, [r4, #3]
20000a22:	7862      	ldrb	r2, [r4, #1]
20000a24:	b29b      	uxth	r3, r3
20000a26:	82a3      	strh	r3, [r4, #20]
20000a28:	2a00      	cmp	r2, #0
20000a2a:	d009      	beq.n	20000a40 <prepare_ep_buffer+0x4c>
20000a2c:	2b00      	cmp	r3, #0
20000a2e:	d102      	bne.n	20000a36 <prepare_ep_buffer+0x42>
20000a30:	2380      	movs	r3, #128	; 0x80
20000a32:	01db      	lsls	r3, r3, #7
20000a34:	431d      	orrs	r5, r3
20000a36:	2f00      	cmp	r7, #0
20000a38:	d000      	beq.n	20000a3c <prepare_ep_buffer+0x48>
20000a3a:	042d      	lsls	r5, r5, #16
20000a3c:	0028      	movs	r0, r5
20000a3e:	bdf8      	pop	{r3, r4, r5, r6, r7, pc}
20000a40:	68e0      	ldr	r0, [r4, #12]
20000a42:	01bb      	lsls	r3, r7, #6
20000a44:	18c0      	adds	r0, r0, r3
20000a46:	0032      	movs	r2, r6
20000a48:	6921      	ldr	r1, [r4, #16]
20000a4a:	f000 f9a1 	bl	20000d90 <____wrap_memcpy_veneer>
20000a4e:	6923      	ldr	r3, [r4, #16]
20000a50:	199b      	adds	r3, r3, r6
20000a52:	6123      	str	r3, [r4, #16]
20000a54:	2380      	movs	r3, #128	; 0x80
20000a56:	021b      	lsls	r3, r3, #8
20000a58:	431d      	orrs	r5, r3
20000a5a:	8aa3      	ldrh	r3, [r4, #20]
20000a5c:	e7e6      	b.n	20000a2c <prepare_ep_buffer+0x38>
20000a5e:	46c0      	nop			; (mov r8, r8)

20000a60 <sync_ep_buffer>:
20000a60:	6883      	ldr	r3, [r0, #8]
20000a62:	b570      	push	{r4, r5, r6, lr}
20000a64:	0004      	movs	r4, r0
20000a66:	681d      	ldr	r5, [r3, #0]
20000a68:	2900      	cmp	r1, #0
20000a6a:	d000      	beq.n	20000a6e <sync_ep_buffer+0xe>
20000a6c:	0c2d      	lsrs	r5, r5, #16
20000a6e:	7863      	ldrb	r3, [r4, #1]
20000a70:	05ad      	lsls	r5, r5, #22
20000a72:	0dad      	lsrs	r5, r5, #22
20000a74:	2b00      	cmp	r3, #0
20000a76:	d109      	bne.n	20000a8c <sync_ep_buffer+0x2c>
20000a78:	8ae3      	ldrh	r3, [r4, #22]
20000a7a:	18eb      	adds	r3, r5, r3
20000a7c:	82e3      	strh	r3, [r4, #22]
20000a7e:	8b23      	ldrh	r3, [r4, #24]
20000a80:	42ab      	cmp	r3, r5
20000a82:	d901      	bls.n	20000a88 <sync_ep_buffer+0x28>
20000a84:	2300      	movs	r3, #0
20000a86:	82a3      	strh	r3, [r4, #20]
20000a88:	0028      	movs	r0, r5
20000a8a:	bd70      	pop	{r4, r5, r6, pc}
20000a8c:	018b      	lsls	r3, r1, #6
20000a8e:	68e1      	ldr	r1, [r4, #12]
20000a90:	002a      	movs	r2, r5
20000a92:	18c9      	adds	r1, r1, r3
20000a94:	6920      	ldr	r0, [r4, #16]
20000a96:	f000 f97b 	bl	20000d90 <____wrap_memcpy_veneer>
20000a9a:	8ae3      	ldrh	r3, [r4, #22]
20000a9c:	18eb      	adds	r3, r5, r3
20000a9e:	82e3      	strh	r3, [r4, #22]
20000aa0:	6923      	ldr	r3, [r4, #16]
20000aa2:	195b      	adds	r3, r3, r5
20000aa4:	6123      	str	r3, [r4, #16]
20000aa6:	e7ea      	b.n	20000a7e <sync_ep_buffer+0x1e>

20000aa8 <_hw_endpoint_xfer_sync>:
20000aa8:	b510      	push	{r4, lr}
20000aaa:	0004      	movs	r4, r0
20000aac:	6883      	ldr	r3, [r0, #8]
20000aae:	2100      	movs	r1, #0
20000ab0:	681b      	ldr	r3, [r3, #0]
20000ab2:	f7ff ffd5 	bl	20000a60 <sync_ep_buffer>
20000ab6:	6863      	ldr	r3, [r4, #4]
20000ab8:	681b      	ldr	r3, [r3, #0]
20000aba:	005b      	lsls	r3, r3, #1
20000abc:	d502      	bpl.n	20000ac4 <_hw_endpoint_xfer_sync+0x1c>
20000abe:	8b23      	ldrh	r3, [r4, #24]
20000ac0:	4283      	cmp	r3, r0
20000ac2:	d000      	beq.n	20000ac6 <_hw_endpoint_xfer_sync+0x1e>
20000ac4:	bd10      	pop	{r4, pc}
20000ac6:	2101      	movs	r1, #1
20000ac8:	0020      	movs	r0, r4
20000aca:	f7ff ffc9 	bl	20000a60 <sync_ep_buffer>
20000ace:	e7f9      	b.n	20000ac4 <_hw_endpoint_xfer_sync+0x1c>

20000ad0 <hw_endpoint_reset_transfer>:
20000ad0:	2300      	movs	r3, #0
20000ad2:	7683      	strb	r3, [r0, #26]
20000ad4:	6143      	str	r3, [r0, #20]
20000ad6:	6103      	str	r3, [r0, #16]
20000ad8:	4770      	bx	lr
20000ada:	46c0      	nop			; (mov r8, r8)

20000adc <_hw_endpoint_buffer_control_update32>:
20000adc:	b510      	push	{r4, lr}
20000ade:	6883      	ldr	r3, [r0, #8]
20000ae0:	2900      	cmp	r1, #0
20000ae2:	d001      	beq.n	20000ae8 <_hw_endpoint_buffer_control_update32+0xc>
20000ae4:	681c      	ldr	r4, [r3, #0]
20000ae6:	4021      	ands	r1, r4
20000ae8:	2a00      	cmp	r2, #0
20000aea:	d011      	beq.n	20000b10 <_hw_endpoint_buffer_control_update32+0x34>
20000aec:	2480      	movs	r4, #128	; 0x80
20000aee:	00e4      	lsls	r4, r4, #3
20000af0:	4311      	orrs	r1, r2
20000af2:	4222      	tst	r2, r4
20000af4:	d00c      	beq.n	20000b10 <_hw_endpoint_buffer_control_update32+0x34>
20000af6:	681a      	ldr	r2, [r3, #0]
20000af8:	4222      	tst	r2, r4
20000afa:	d10b      	bne.n	20000b14 <_hw_endpoint_buffer_control_update32+0x38>
20000afc:	4a0a      	ldr	r2, [pc, #40]	; (20000b28 <_hw_endpoint_buffer_control_update32+0x4c>)
20000afe:	400a      	ands	r2, r1
20000b00:	601a      	str	r2, [r3, #0]
20000b02:	e7ff      	b.n	20000b04 <_hw_endpoint_buffer_control_update32+0x28>
20000b04:	e7ff      	b.n	20000b06 <_hw_endpoint_buffer_control_update32+0x2a>
20000b06:	e7ff      	b.n	20000b08 <_hw_endpoint_buffer_control_update32+0x2c>
20000b08:	e7ff      	b.n	20000b0a <_hw_endpoint_buffer_control_update32+0x2e>
20000b0a:	e7ff      	b.n	20000b0c <_hw_endpoint_buffer_control_update32+0x30>
20000b0c:	e7ff      	b.n	20000b0e <_hw_endpoint_buffer_control_update32+0x32>
20000b0e:	6883      	ldr	r3, [r0, #8]
20000b10:	6019      	str	r1, [r3, #0]
20000b12:	bd10      	pop	{r4, pc}
20000b14:	7881      	ldrb	r1, [r0, #2]
20000b16:	207f      	movs	r0, #127	; 0x7f
20000b18:	09ca      	lsrs	r2, r1, #7
20000b1a:	4b04      	ldr	r3, [pc, #16]	; (20000b2c <_hw_endpoint_buffer_control_update32+0x50>)
20000b1c:	0092      	lsls	r2, r2, #2
20000b1e:	4001      	ands	r1, r0
20000b20:	58d2      	ldr	r2, [r2, r3]
20000b22:	4803      	ldr	r0, [pc, #12]	; (20000b30 <_hw_endpoint_buffer_control_update32+0x54>)
20000b24:	f000 f924 	bl	20000d70 <__panic_veneer>
20000b28:	fffffbff 	.word	0xfffffbff
20000b2c:	20000e88 	.word	0x20000e88
20000b30:	100098e8 	.word	0x100098e8

20000b34 <hw_endpoint_start_next_buffer>:
20000b34:	6843      	ldr	r3, [r0, #4]
20000b36:	b570      	push	{r4, r5, r6, lr}
20000b38:	2100      	movs	r1, #0
20000b3a:	2580      	movs	r5, #128	; 0x80
20000b3c:	681e      	ldr	r6, [r3, #0]
20000b3e:	0004      	movs	r4, r0
20000b40:	f7ff ff58 	bl	200009f4 <prepare_ep_buffer>
20000b44:	4b13      	ldr	r3, [pc, #76]	; (20000b94 <hw_endpoint_start_next_buffer+0x60>)
20000b46:	016d      	lsls	r5, r5, #5
20000b48:	6c1b      	ldr	r3, [r3, #64]	; 0x40
20000b4a:	4305      	orrs	r5, r0
20000b4c:	079b      	lsls	r3, r3, #30
20000b4e:	d50f      	bpl.n	20000b70 <hw_endpoint_start_next_buffer+0x3c>
20000b50:	78a3      	ldrb	r3, [r4, #2]
20000b52:	065b      	lsls	r3, r3, #25
20000b54:	d00f      	beq.n	20000b76 <hw_endpoint_start_next_buffer+0x42>
20000b56:	2380      	movs	r3, #128	; 0x80
20000b58:	4a0f      	ldr	r2, [pc, #60]	; (20000b98 <hw_endpoint_start_next_buffer+0x64>)
20000b5a:	059b      	lsls	r3, r3, #22
20000b5c:	4032      	ands	r2, r6
20000b5e:	4313      	orrs	r3, r2
20000b60:	6862      	ldr	r2, [r4, #4]
20000b62:	2100      	movs	r1, #0
20000b64:	6013      	str	r3, [r2, #0]
20000b66:	0020      	movs	r0, r4
20000b68:	002a      	movs	r2, r5
20000b6a:	f7ff ffb7 	bl	20000adc <_hw_endpoint_buffer_control_update32>
20000b6e:	bd70      	pop	{r4, r5, r6, pc}
20000b70:	78a3      	ldrb	r3, [r4, #2]
20000b72:	09db      	lsrs	r3, r3, #7
20000b74:	d0ef      	beq.n	20000b56 <hw_endpoint_start_next_buffer+0x22>
20000b76:	8aa3      	ldrh	r3, [r4, #20]
20000b78:	2b00      	cmp	r3, #0
20000b7a:	d0ec      	beq.n	20000b56 <hw_endpoint_start_next_buffer+0x22>
20000b7c:	2101      	movs	r1, #1
20000b7e:	0020      	movs	r0, r4
20000b80:	f7ff ff38 	bl	200009f4 <prepare_ep_buffer>
20000b84:	23a0      	movs	r3, #160	; 0xa0
20000b86:	4a05      	ldr	r2, [pc, #20]	; (20000b9c <hw_endpoint_start_next_buffer+0x68>)
20000b88:	05db      	lsls	r3, r3, #23
20000b8a:	4032      	ands	r2, r6
20000b8c:	4305      	orrs	r5, r0
20000b8e:	4313      	orrs	r3, r2
20000b90:	e7e6      	b.n	20000b60 <hw_endpoint_start_next_buffer+0x2c>
20000b92:	46c0      	nop			; (mov r8, r8)
20000b94:	50110000 	.word	0x50110000
20000b98:	afffffff 	.word	0xafffffff
20000b9c:	dfffffff 	.word	0xdfffffff

20000ba0 <hw_endpoint_xfer_continue>:
20000ba0:	b570      	push	{r4, r5, r6, lr}
20000ba2:	7e85      	ldrb	r5, [r0, #26]
20000ba4:	0004      	movs	r4, r0
20000ba6:	2d00      	cmp	r5, #0
20000ba8:	d013      	beq.n	20000bd2 <hw_endpoint_xfer_continue+0x32>
20000baa:	f7ff ff7d 	bl	20000aa8 <_hw_endpoint_xfer_sync>
20000bae:	8aa3      	ldrh	r3, [r4, #20]
20000bb0:	2b00      	cmp	r3, #0
20000bb2:	d101      	bne.n	20000bb8 <hw_endpoint_xfer_continue+0x18>
20000bb4:	0028      	movs	r0, r5
20000bb6:	bd70      	pop	{r4, r5, r6, pc}
20000bb8:	0020      	movs	r0, r4
20000bba:	f7ff ff01 	bl	200009c0 <e15_is_critical_frame_period>
20000bbe:	1e05      	subs	r5, r0, #0
20000bc0:	d003      	beq.n	20000bca <hw_endpoint_xfer_continue+0x2a>
20000bc2:	2301      	movs	r3, #1
20000bc4:	2500      	movs	r5, #0
20000bc6:	7723      	strb	r3, [r4, #28]
20000bc8:	e7f4      	b.n	20000bb4 <hw_endpoint_xfer_continue+0x14>
20000bca:	0020      	movs	r0, r4
20000bcc:	f7ff ffb2 	bl	20000b34 <hw_endpoint_start_next_buffer>
20000bd0:	e7f0      	b.n	20000bb4 <hw_endpoint_xfer_continue+0x14>
20000bd2:	7881      	ldrb	r1, [r0, #2]
20000bd4:	207f      	movs	r0, #127	; 0x7f
20000bd6:	09ca      	lsrs	r2, r1, #7
20000bd8:	4b03      	ldr	r3, [pc, #12]	; (20000be8 <hw_endpoint_xfer_continue+0x48>)
20000bda:	0092      	lsls	r2, r2, #2
20000bdc:	4001      	ands	r1, r0
20000bde:	58d2      	ldr	r2, [r2, r3]
20000be0:	4802      	ldr	r0, [pc, #8]	; (20000bec <hw_endpoint_xfer_continue+0x4c>)
20000be2:	f000 f8c5 	bl	20000d70 <__panic_veneer>
20000be6:	46c0      	nop			; (mov r8, r8)
20000be8:	20000e88 	.word	0x20000e88
20000bec:	10009908 	.word	0x10009908

20000bf0 <dcd_event_handler>:
20000bf0:	b5f0      	push	{r4, r5, r6, r7, lr}
20000bf2:	7843      	ldrb	r3, [r0, #1]
20000bf4:	0005      	movs	r5, r0
20000bf6:	b085      	sub	sp, #20
20000bf8:	2b04      	cmp	r3, #4
20000bfa:	d100      	bne.n	20000bfe <dcd_event_handler+0xe>
20000bfc:	e074      	b.n	20000ce8 <dcd_event_handler+0xf8>
20000bfe:	d845      	bhi.n	20000c8c <dcd_event_handler+0x9c>
20000c00:	2b02      	cmp	r3, #2
20000c02:	d100      	bne.n	20000c06 <dcd_event_handler+0x16>
20000c04:	e082      	b.n	20000d0c <dcd_event_handler+0x11c>
20000c06:	2b03      	cmp	r3, #3
20000c08:	d154      	bne.n	20000cb4 <dcd_event_handler+0xc4>
20000c0a:	4e4f      	ldr	r6, [pc, #316]	; (20000d48 <dcd_event_handler+0x158>)
20000c0c:	4a4f      	ldr	r2, [pc, #316]	; (20000d4c <dcd_event_handler+0x15c>)
20000c0e:	2400      	movs	r4, #0
20000c10:	7833      	ldrb	r3, [r6, #0]
20000c12:	2a00      	cmp	r2, #0
20000c14:	d100      	bne.n	20000c18 <dcd_event_handler+0x28>
20000c16:	e091      	b.n	20000d3c <dcd_event_handler+0x14c>
20000c18:	4f4d      	ldr	r7, [pc, #308]	; (20000d50 <dcd_event_handler+0x160>)
20000c1a:	e003      	b.n	20000c24 <dcd_event_handler+0x34>
20000c1c:	3401      	adds	r4, #1
20000c1e:	b2e4      	uxtb	r4, r4
20000c20:	429c      	cmp	r4, r3
20000c22:	d813      	bhi.n	20000c4c <dcd_event_handler+0x5c>
20000c24:	42a3      	cmp	r3, r4
20000c26:	d9f9      	bls.n	20000c1c <dcd_event_handler+0x2c>
20000c28:	0062      	lsls	r2, r4, #1
20000c2a:	6839      	ldr	r1, [r7, #0]
20000c2c:	1912      	adds	r2, r2, r4
20000c2e:	00d2      	lsls	r2, r2, #3
20000c30:	188a      	adds	r2, r1, r2
20000c32:	2a00      	cmp	r2, #0
20000c34:	d0f2      	beq.n	20000c1c <dcd_event_handler+0x2c>
20000c36:	6952      	ldr	r2, [r2, #20]
20000c38:	2a00      	cmp	r2, #0
20000c3a:	d0ef      	beq.n	20000c1c <dcd_event_handler+0x2c>
20000c3c:	6869      	ldr	r1, [r5, #4]
20000c3e:	7828      	ldrb	r0, [r5, #0]
20000c40:	4790      	blx	r2
20000c42:	3401      	adds	r4, #1
20000c44:	7833      	ldrb	r3, [r6, #0]
20000c46:	b2e4      	uxtb	r4, r4
20000c48:	429c      	cmp	r4, r3
20000c4a:	d9eb      	bls.n	20000c24 <dcd_event_handler+0x34>
20000c4c:	4b41      	ldr	r3, [pc, #260]	; (20000d54 <dcd_event_handler+0x164>)
20000c4e:	781a      	ldrb	r2, [r3, #0]
20000c50:	0752      	lsls	r2, r2, #29
20000c52:	d547      	bpl.n	20000ce4 <dcd_event_handler+0xf4>
20000c54:	2104      	movs	r1, #4
20000c56:	781a      	ldrb	r2, [r3, #0]
20000c58:	a801      	add	r0, sp, #4
20000c5a:	438a      	bics	r2, r1
20000c5c:	701a      	strb	r2, [r3, #0]
20000c5e:	2100      	movs	r1, #0
20000c60:	220c      	movs	r2, #12
20000c62:	f000 f89d 	bl	20000da0 <____wrap_memset_veneer>
20000c66:	466a      	mov	r2, sp
20000c68:	782b      	ldrb	r3, [r5, #0]
20000c6a:	7113      	strb	r3, [r2, #4]
20000c6c:	2305      	movs	r3, #5
20000c6e:	7153      	strb	r3, [r2, #5]
20000c70:	4b39      	ldr	r3, [pc, #228]	; (20000d58 <dcd_event_handler+0x168>)
20000c72:	681c      	ldr	r4, [r3, #0]
20000c74:	6962      	ldr	r2, [r4, #20]
20000c76:	f3ef 8110 	mrs	r1, PRIMASK
20000c7a:	b672      	cpsid	i
20000c7c:	6813      	ldr	r3, [r2, #0]
20000c7e:	2b00      	cmp	r3, #0
20000c80:	d0fc      	beq.n	20000c7c <dcd_event_handler+0x8c>
20000c82:	f3bf 8f5f 	dmb	sy
20000c86:	61a1      	str	r1, [r4, #24]
20000c88:	a901      	add	r1, sp, #4
20000c8a:	e020      	b.n	20000cce <dcd_event_handler+0xde>
20000c8c:	2b05      	cmp	r3, #5
20000c8e:	d111      	bne.n	20000cb4 <dcd_event_handler+0xc4>
20000c90:	4b30      	ldr	r3, [pc, #192]	; (20000d54 <dcd_event_handler+0x164>)
20000c92:	781a      	ldrb	r2, [r3, #0]
20000c94:	07d2      	lsls	r2, r2, #31
20000c96:	d525      	bpl.n	20000ce4 <dcd_event_handler+0xf4>
20000c98:	2104      	movs	r1, #4
20000c9a:	781a      	ldrb	r2, [r3, #0]
20000c9c:	438a      	bics	r2, r1
20000c9e:	701a      	strb	r2, [r3, #0]
20000ca0:	4b2d      	ldr	r3, [pc, #180]	; (20000d58 <dcd_event_handler+0x168>)
20000ca2:	681c      	ldr	r4, [r3, #0]
20000ca4:	6962      	ldr	r2, [r4, #20]
20000ca6:	f3ef 8110 	mrs	r1, PRIMASK
20000caa:	b672      	cpsid	i
20000cac:	6813      	ldr	r3, [r2, #0]
20000cae:	2b00      	cmp	r3, #0
20000cb0:	d109      	bne.n	20000cc6 <dcd_event_handler+0xd6>
20000cb2:	e7fb      	b.n	20000cac <dcd_event_handler+0xbc>
20000cb4:	4b28      	ldr	r3, [pc, #160]	; (20000d58 <dcd_event_handler+0x168>)
20000cb6:	681c      	ldr	r4, [r3, #0]
20000cb8:	6962      	ldr	r2, [r4, #20]
20000cba:	f3ef 8110 	mrs	r1, PRIMASK
20000cbe:	b672      	cpsid	i
20000cc0:	6813      	ldr	r3, [r2, #0]
20000cc2:	2b00      	cmp	r3, #0
20000cc4:	d0fc      	beq.n	20000cc0 <dcd_event_handler+0xd0>
20000cc6:	f3bf 8f5f 	dmb	sy
20000cca:	61a1      	str	r1, [r4, #24]
20000ccc:	0029      	movs	r1, r5
20000cce:	0020      	movs	r0, r4
20000cd0:	f000 f86e 	bl	20000db0 <__tu_fifo_write_veneer>
20000cd4:	6962      	ldr	r2, [r4, #20]
20000cd6:	69a3      	ldr	r3, [r4, #24]
20000cd8:	f3bf 8f5f 	dmb	sy
20000cdc:	2100      	movs	r1, #0
20000cde:	6011      	str	r1, [r2, #0]
20000ce0:	f383 8810 	msr	PRIMASK, r3
20000ce4:	b005      	add	sp, #20
20000ce6:	bdf0      	pop	{r4, r5, r6, r7, pc}
20000ce8:	4b1a      	ldr	r3, [pc, #104]	; (20000d54 <dcd_event_handler+0x164>)
20000cea:	781a      	ldrb	r2, [r3, #0]
20000cec:	07d2      	lsls	r2, r2, #31
20000cee:	d5f9      	bpl.n	20000ce4 <dcd_event_handler+0xf4>
20000cf0:	2104      	movs	r1, #4
20000cf2:	781a      	ldrb	r2, [r3, #0]
20000cf4:	430a      	orrs	r2, r1
20000cf6:	701a      	strb	r2, [r3, #0]
20000cf8:	4b17      	ldr	r3, [pc, #92]	; (20000d58 <dcd_event_handler+0x168>)
20000cfa:	681c      	ldr	r4, [r3, #0]
20000cfc:	6962      	ldr	r2, [r4, #20]
20000cfe:	f3ef 8110 	mrs	r1, PRIMASK
20000d02:	b672      	cpsid	i
20000d04:	6813      	ldr	r3, [r2, #0]
20000d06:	2b00      	cmp	r3, #0
20000d08:	d1dd      	bne.n	20000cc6 <dcd_event_handler+0xd6>
20000d0a:	e7fb      	b.n	20000d04 <dcd_event_handler+0x114>
20000d0c:	2001      	movs	r0, #1
20000d0e:	4a11      	ldr	r2, [pc, #68]	; (20000d54 <dcd_event_handler+0x164>)
20000d10:	7811      	ldrb	r1, [r2, #0]
20000d12:	4381      	bics	r1, r0
20000d14:	7011      	strb	r1, [r2, #0]
20000d16:	7811      	ldrb	r1, [r2, #0]
20000d18:	4399      	bics	r1, r3
20000d1a:	2300      	movs	r3, #0
20000d1c:	7011      	strb	r1, [r2, #0]
20000d1e:	2104      	movs	r1, #4
20000d20:	7053      	strb	r3, [r2, #1]
20000d22:	7813      	ldrb	r3, [r2, #0]
20000d24:	438b      	bics	r3, r1
20000d26:	7013      	strb	r3, [r2, #0]
20000d28:	4b0b      	ldr	r3, [pc, #44]	; (20000d58 <dcd_event_handler+0x168>)
20000d2a:	681c      	ldr	r4, [r3, #0]
20000d2c:	6962      	ldr	r2, [r4, #20]
20000d2e:	f3ef 8110 	mrs	r1, PRIMASK
20000d32:	b672      	cpsid	i
20000d34:	6813      	ldr	r3, [r2, #0]
20000d36:	2b00      	cmp	r3, #0
20000d38:	d1c5      	bne.n	20000cc6 <dcd_event_handler+0xd6>
20000d3a:	e7fb      	b.n	20000d34 <dcd_event_handler+0x144>
20000d3c:	2200      	movs	r2, #0
20000d3e:	3201      	adds	r2, #1
20000d40:	b2d2      	uxtb	r2, r2
20000d42:	429a      	cmp	r2, r3
20000d44:	d9fb      	bls.n	20000d3e <dcd_event_handler+0x14e>
20000d46:	e781      	b.n	20000c4c <dcd_event_handler+0x5c>
20000d48:	2000219b 	.word	0x2000219b
20000d4c:	10006ba9 	.word	0x10006ba9
20000d50:	2000170c 	.word	0x2000170c
20000d54:	20001a34 	.word	0x20001a34
20000d58:	20001a8c 	.word	0x20001a8c

20000d5c <__aeabi_idiv0>:
20000d5c:	4770      	bx	lr
20000d5e:	46c0      	nop			; (mov r8, r8)

20000d60 <__best_effort_wfe_or_timeout_veneer>:
20000d60:	b401      	push	{r0}
20000d62:	4802      	ldr	r0, [pc, #8]	; (20000d6c <__best_effort_wfe_or_timeout_veneer+0xc>)
20000d64:	4684      	mov	ip, r0
20000d66:	bc01      	pop	{r0}
20000d68:	4760      	bx	ip
20000d6a:	bf00      	nop
20000d6c:	100050c1 	.word	0x100050c1

20000d70 <__panic_veneer>:
20000d70:	b401      	push	{r0}
20000d72:	4802      	ldr	r0, [pc, #8]	; (20000d7c <__panic_veneer+0xc>)
20000d74:	4684      	mov	ip, r0
20000d76:	bc01      	pop	{r0}
20000d78:	4760      	bx	ip
20000d7a:	bf00      	nop
20000d7c:	10005e59 	.word	0x10005e59

20000d80 <__time_us_64_veneer>:
20000d80:	b401      	push	{r0}
20000d82:	4802      	ldr	r0, [pc, #8]	; (20000d8c <__time_us_64_veneer+0xc>)
20000d84:	4684      	mov	ip, r0
20000d86:	bc01      	pop	{r0}
20000d88:	4760      	bx	ip
20000d8a:	bf00      	nop
20000d8c:	1000520d 	.word	0x1000520d

20000d90 <____wrap_memcpy_veneer>:
20000d90:	b401      	push	{r0}
20000d92:	4802      	ldr	r0, [pc, #8]	; (20000d9c <____wrap_memcpy_veneer+0xc>)
20000d94:	4684      	mov	ip, r0
20000d96:	bc01      	pop	{r0}
20000d98:	4760      	bx	ip
20000d9a:	bf00      	nop
20000d9c:	1000682d 	.word	0x1000682d

20000da0 <____wrap_memset_veneer>:
20000da0:	b401      	push	{r0}
20000da2:	4802      	ldr	r0, [pc, #8]	; (20000dac <____wrap_memset_veneer+0xc>)
20000da4:	4684      	mov	ip, r0
20000da6:	bc01      	pop	{r0}
20000da8:	4760      	bx	ip
20000daa:	bf00      	nop
20000dac:	10006821 	.word	0x10006821

20000db0 <__tu_fifo_write_veneer>:
20000db0:	b401      	push	{r0}
20000db2:	4802      	ldr	r0, [pc, #8]	; (20000dbc <__tu_fifo_write_veneer+0xc>)
20000db4:	4684      	mov	ip, r0
20000db6:	bc01      	pop	{r0}
20000db8:	4760      	bx	ip
20000dba:	bf00      	nop
20000dbc:	10008bc1 	.word	0x10008bc1

20000dc0 <____wrap___aeabi_lmul_veneer>:
20000dc0:	b401      	push	{r0}
20000dc2:	4802      	ldr	r0, [pc, #8]	; (20000dcc <____wrap___aeabi_lmul_veneer+0xc>)
20000dc4:	4684      	mov	ip, r0
20000dc6:	bc01      	pop	{r0}
20000dc8:	4760      	bx	ip
20000dca:	bf00      	nop
20000dcc:	100066a9 	.word	0x100066a9

20000dd0 <b_DAC_Ready>:
20000dd0:	                                         .

20000dd1 <striped_spin_lock_num>:
20000dd1:	                                         ...

20000dd4 <irq_handler_chain_slots>:
20000dd4:	00000000 	.word	0x00000000
20000dd8:	00010000 	.word	0x00010000
	...
20000de4:	00020000 	.word	0x00020000
	...
20000df0:	00030000 	.word	0x00030000
	...
20000dfc:	00ff0000 	.word	0x00ff0000
20000e00:	00000000 	.word	0x00000000

20000e04 <irq_handler_chain_first_slot>:
20000e04:	b501      	push	{r0, lr}
20000e06:	6848      	ldr	r0, [r1, #4]
20000e08:	3101      	adds	r1, #1
20000e0a:	468e      	mov	lr, r1
20000e0c:	4700      	bx	r0

20000e0e <irq_handler_chain_remove_tail>:
20000e0e:	4670      	mov	r0, lr
20000e10:	3809      	subs	r0, #9
20000e12:	4901      	ldr	r1, [pc, #4]	; (20000e18 <irq_handler_chain_remove_tail+0xa>)
20000e14:	4788      	blx	r1
20000e16:	bd01      	pop	{r0, pc}
20000e18:	10004669 	.word	0x10004669

20000e1c <default_alarm_pool>:
20000e1c:	20000e34 00000000 20001340 20001c94     4.. ....@.. ... 
	...

20000e34 <default_alarm_pool_heap>:
20000e34:	20001ca4 00000000 00000000 00000010     ... ............
	...

20000e50 <aeabi_bits_funcs>:
20000e50:	00003350 	.word	0x00003350
20000e54:	0000334c 	.word	0x0000334c
20000e58:	00003354 	.word	0x00003354
20000e5c:	00003352 	.word	0x00003352

20000e60 <aeabi_bits_funcs_end>:
20000e60:	0000534d 	.word	0x0000534d
20000e64:	0000434d 	.word	0x0000434d
20000e68:	00003453 	.word	0x00003453
20000e6c:	00003443 	.word	0x00003443

20000e70 <stdio_usb>:
20000e70:	10006cf5 00000000 10006c61 10006be9     .l......al...k..
20000e80:	00000000 00000100                       ........

20000e88 <ep_dir_string>:
20000e88:	10009934 10009938                       4...8...

20000e90 <_usbd_qdef>:
20000e90:	20001a90 000c0010 00000000 00000000     ... ............
	...

20000eac <_usbd_rhport>:
20000eac:	000000ff                                ....

20000eb0 <i2c0_inst>:
20000eb0:	40044000 00000000                       .@.@....

20000eb8 <print_mutex>:
	...

20000ec0 <__mutex_array_end>:
20000ec0:	10006811 	.word	0x10006811
20000ec4:	10005ed5 	.word	0x10005ed5
20000ec8:	100060b5 	.word	0x100060b5
20000ecc:	10006781 	.word	0x10006781

20000ed0 <__frame_dummy_init_array_entry>:
20000ed0:	100002e5 10007025                       ....%p..
