
C:/Users/craig.hemingway/VisualCode_Workspace/RP2040_TestBed/build/src/src.elf:     file format elf32-littlearm

Sections:
Idx Name          Size      VMA       LMA       File off  Algn
  0 .boot2        00000100  10000000  10000000  00001000  2**0
                  CONTENTS, ALLOC, LOAD, READONLY, CODE
  1 .text         0000aa90  10000100  10000100  00001100  2**3
                  CONTENTS, ALLOC, LOAD, READONLY, CODE
  2 .rodata       0000188c  1000ab90  1000ab90  0000bb90  2**3
                  CONTENTS, ALLOC, LOAD, READONLY, DATA
  3 .binary_info  00000024  1000c41c  1000c41c  0000d41c  2**2
                  CONTENTS, ALLOC, LOAD, DATA
  4 .ram_vector_table 000000c0  20000000  20000000  0000ec98  2**2
                  CONTENTS
  5 .data         00000bd8  200000c0  1000c440  0000e0c0  2**4
                  CONTENTS, ALLOC, LOAD, READONLY, CODE
  6 .uninitialized_data 00000000  20000c98  20000c98  0000ed58  2**0
                  CONTENTS
  7 .scratch_x    00000000  20040000  20040000  0000ed58  2**0
                  CONTENTS
  8 .scratch_y    00000000  20041000  20041000  0000ed58  2**0
                  CONTENTS
  9 .bss          000012d4  20000ca0  20000ca0  0000eca0  2**4
                  ALLOC
 10 .heap         00000800  20001f74  20001f74  0000ed58  2**2
                  CONTENTS, READONLY
 11 .stack_dummy  00000800  20041000  20041000  0000f560  2**5
                  CONTENTS, READONLY
 12 .ARM.attributes 00000028  00000000  00000000  0000fd60  2**0
                  CONTENTS, READONLY
 13 .comment      00000033  00000000  00000000  0000fd88  2**0
                  CONTENTS, READONLY
 14 .debug_info   000321c8  00000000  00000000  0000fdbb  2**0
                  CONTENTS, READONLY, DEBUGGING, OCTETS
 15 .debug_abbrev 000085bb  00000000  00000000  00041f83  2**0
                  CONTENTS, READONLY, DEBUGGING, OCTETS
 16 .debug_loclists 00014fc1  00000000  00000000  0004a53e  2**0
                  CONTENTS, READONLY, DEBUGGING, OCTETS
 17 .debug_aranges 000016d0  00000000  00000000  0005f500  2**3
                  CONTENTS, READONLY, DEBUGGING, OCTETS
 18 .debug_rnglists 00001db2  00000000  00000000  00060bd0  2**0
                  CONTENTS, READONLY, DEBUGGING, OCTETS
 19 .debug_line   0001ddb9  00000000  00000000  00062982  2**0
                  CONTENTS, READONLY, DEBUGGING, OCTETS
 20 .debug_str    00008770  00000000  00000000  0008073b  2**0
                  CONTENTS, READONLY, DEBUGGING, OCTETS
 21 .debug_frame  00002f54  00000000  00000000  00088eac  2**2
                  CONTENTS, READONLY, DEBUGGING, OCTETS
 22 .debug_line_str 00000324  00000000  00000000  0008be00  2**0
                  CONTENTS, READONLY, DEBUGGING, OCTETS

C:/Users/craig.hemingway/VisualCode_Workspace/RP2040_TestBed/build/src/src.elf:     file format elf32-littlearm


Disassembly of section .boot2:

10000000 <__boot2_start__>:
10000000:	4b32b500 	.word	0x4b32b500
10000004:	60582021 	.word	0x60582021
10000008:	21026898 	.word	0x21026898
1000000c:	60984388 	.word	0x60984388
10000010:	611860d8 	.word	0x611860d8
10000014:	4b2e6158 	.word	0x4b2e6158
10000018:	60992100 	.word	0x60992100
1000001c:	61592102 	.word	0x61592102
10000020:	22f02101 	.word	0x22f02101
10000024:	492b5099 	.word	0x492b5099
10000028:	21016019 	.word	0x21016019
1000002c:	20356099 	.word	0x20356099
10000030:	f844f000 	.word	0xf844f000
10000034:	42902202 	.word	0x42902202
10000038:	2106d014 	.word	0x2106d014
1000003c:	f0006619 	.word	0xf0006619
10000040:	6e19f834 	.word	0x6e19f834
10000044:	66192101 	.word	0x66192101
10000048:	66182000 	.word	0x66182000
1000004c:	f000661a 	.word	0xf000661a
10000050:	6e19f82c 	.word	0x6e19f82c
10000054:	6e196e19 	.word	0x6e196e19
10000058:	f0002005 	.word	0xf0002005
1000005c:	2101f82f 	.word	0x2101f82f
10000060:	d1f94208 	.word	0xd1f94208
10000064:	60992100 	.word	0x60992100
10000068:	6019491b 	.word	0x6019491b
1000006c:	60592100 	.word	0x60592100
10000070:	481b491a 	.word	0x481b491a
10000074:	21016001 	.word	0x21016001
10000078:	21eb6099 	.word	0x21eb6099
1000007c:	21a06619 	.word	0x21a06619
10000080:	f0006619 	.word	0xf0006619
10000084:	2100f812 	.word	0x2100f812
10000088:	49166099 	.word	0x49166099
1000008c:	60014814 	.word	0x60014814
10000090:	60992101 	.word	0x60992101
10000094:	2800bc01 	.word	0x2800bc01
10000098:	4700d000 	.word	0x4700d000
1000009c:	49134812 	.word	0x49134812
100000a0:	c8036008 	.word	0xc8036008
100000a4:	8808f380 	.word	0x8808f380
100000a8:	b5034708 	.word	0xb5034708
100000ac:	20046a99 	.word	0x20046a99
100000b0:	d0fb4201 	.word	0xd0fb4201
100000b4:	42012001 	.word	0x42012001
100000b8:	bd03d1f8 	.word	0xbd03d1f8
100000bc:	6618b502 	.word	0x6618b502
100000c0:	f7ff6618 	.word	0xf7ff6618
100000c4:	6e18fff2 	.word	0x6e18fff2
100000c8:	bd026e18 	.word	0xbd026e18
100000cc:	40020000 	.word	0x40020000
100000d0:	18000000 	.word	0x18000000
100000d4:	00070000 	.word	0x00070000
100000d8:	005f0300 	.word	0x005f0300
100000dc:	00002221 	.word	0x00002221
100000e0:	180000f4 	.word	0x180000f4
100000e4:	a0002022 	.word	0xa0002022
100000e8:	10000100 	.word	0x10000100
100000ec:	e000ed08 	.word	0xe000ed08
	...
100000fc:	7a4eb274 	.word	0x7a4eb274

Disassembly of section .text:

10000100 <__VECTOR_TABLE>:
10000100:	20042000 	.word	0x20042000
10000104:	100001f7 	.word	0x100001f7
10000108:	100001c3 	.word	0x100001c3
1000010c:	100001c5 	.word	0x100001c5
10000110:	100001c1 	.word	0x100001c1
10000114:	100001c1 	.word	0x100001c1
10000118:	100001c1 	.word	0x100001c1
1000011c:	100001c1 	.word	0x100001c1
10000120:	100001c1 	.word	0x100001c1
10000124:	100001c1 	.word	0x100001c1
10000128:	100001c1 	.word	0x100001c1
1000012c:	100001c7 	.word	0x100001c7
10000130:	100001c1 	.word	0x100001c1
10000134:	100001c1 	.word	0x100001c1
10000138:	100001c9 	.word	0x100001c9
1000013c:	100001cb 	.word	0x100001cb
10000140:	100001cd 	.word	0x100001cd
10000144:	100001cd 	.word	0x100001cd
10000148:	100001cd 	.word	0x100001cd
1000014c:	100001cd 	.word	0x100001cd
10000150:	100001cd 	.word	0x100001cd
10000154:	100001cd 	.word	0x100001cd
10000158:	100001cd 	.word	0x100001cd
1000015c:	100001cd 	.word	0x100001cd
10000160:	100001cd 	.word	0x100001cd
10000164:	100001cd 	.word	0x100001cd
10000168:	100001cd 	.word	0x100001cd
1000016c:	100001cd 	.word	0x100001cd
10000170:	100001cd 	.word	0x100001cd
10000174:	100001cd 	.word	0x100001cd
10000178:	100001cd 	.word	0x100001cd
1000017c:	100001cd 	.word	0x100001cd
10000180:	100001cd 	.word	0x100001cd
10000184:	100001cd 	.word	0x100001cd
10000188:	100001cd 	.word	0x100001cd
1000018c:	100001cd 	.word	0x100001cd
10000190:	100001cd 	.word	0x100001cd
10000194:	100001cd 	.word	0x100001cd
10000198:	100001cd 	.word	0x100001cd
1000019c:	100001cd 	.word	0x100001cd
100001a0:	100001cd 	.word	0x100001cd
100001a4:	100001cd 	.word	0x100001cd
100001a8:	100001cd 	.word	0x100001cd
100001ac:	100001cd 	.word	0x100001cd
100001b0:	100001cd 	.word	0x100001cd
100001b4:	100001cd 	.word	0x100001cd
100001b8:	100001cd 	.word	0x100001cd
100001bc:	100001cd 	.word	0x100001cd

100001c0 <isr_invalid>:
100001c0:	be00      	bkpt	0x0000

100001c2 <isr_nmi>:
100001c2:	be00      	bkpt	0x0000

100001c4 <isr_hardfault>:
100001c4:	be00      	bkpt	0x0000

100001c6 <isr_svcall>:
100001c6:	be00      	bkpt	0x0000

100001c8 <isr_pendsv>:
100001c8:	be00      	bkpt	0x0000

100001ca <isr_systick>:
100001ca:	be00      	bkpt	0x0000

100001cc <__unhandled_user_irq>:
100001cc:	f3ef 8005 	mrs	r0, IPSR
100001d0:	3810      	subs	r0, #16

100001d2 <unhandled_user_irq_num_in_r0>:
100001d2:	be00      	bkpt	0x0000

100001d4 <binary_info_header>:
100001d4:	7188ebf2 	.word	0x7188ebf2
100001d8:	1000c41c 	.word	0x1000c41c
100001dc:	1000c440 	.word	0x1000c440
100001e0:	10000234 	.word	0x10000234
100001e4:	e71aa390 	.word	0xe71aa390

100001e8 <_entry_point>:
100001e8:	2000      	movs	r0, #0
100001ea:	491f      	ldr	r1, [pc, #124]	; (10000268 <hold_non_core0_in_bootrom+0xa>)
100001ec:	6008      	str	r0, [r1, #0]
100001ee:	c806      	ldmia	r0!, {r1, r2}
100001f0:	f381 8808 	msr	MSP, r1
100001f4:	4710      	bx	r2

100001f6 <_reset_handler>:
100001f6:	481d      	ldr	r0, [pc, #116]	; (1000026c <hold_non_core0_in_bootrom+0xe>)
100001f8:	6800      	ldr	r0, [r0, #0]
100001fa:	2800      	cmp	r0, #0
100001fc:	d12f      	bne.n	1000025e <hold_non_core0_in_bootrom>
100001fe:	a40d      	add	r4, pc, #52	; (adr r4, 10000234 <data_cpy_table>)
10000200:	cc0e      	ldmia	r4!, {r1, r2, r3}
10000202:	2900      	cmp	r1, #0
10000204:	d002      	beq.n	1000020c <_reset_handler+0x16>
10000206:	f000 f812 	bl	1000022e <data_cpy>
1000020a:	e7f9      	b.n	10000200 <_reset_handler+0xa>
1000020c:	4918      	ldr	r1, [pc, #96]	; (10000270 <hold_non_core0_in_bootrom+0x12>)
1000020e:	4a19      	ldr	r2, [pc, #100]	; (10000274 <hold_non_core0_in_bootrom+0x16>)
10000210:	2000      	movs	r0, #0
10000212:	e000      	b.n	10000216 <bss_fill_test>

10000214 <bss_fill_loop>:
10000214:	c101      	stmia	r1!, {r0}

10000216 <bss_fill_test>:
10000216:	4291      	cmp	r1, r2
10000218:	d1fc      	bne.n	10000214 <bss_fill_loop>

1000021a <platform_entry>:
1000021a:	4917      	ldr	r1, [pc, #92]	; (10000278 <hold_non_core0_in_bootrom+0x1a>)
1000021c:	4788      	blx	r1
1000021e:	4917      	ldr	r1, [pc, #92]	; (1000027c <hold_non_core0_in_bootrom+0x1e>)
10000220:	4788      	blx	r1
10000222:	4917      	ldr	r1, [pc, #92]	; (10000280 <hold_non_core0_in_bootrom+0x22>)
10000224:	4788      	blx	r1
10000226:	be00      	bkpt	0x0000
10000228:	e7fd      	b.n	10000226 <platform_entry+0xc>

1000022a <data_cpy_loop>:
1000022a:	c901      	ldmia	r1!, {r0}
1000022c:	c201      	stmia	r2!, {r0}

1000022e <data_cpy>:
1000022e:	429a      	cmp	r2, r3
10000230:	d3fb      	bcc.n	1000022a <data_cpy_loop>
10000232:	4770      	bx	lr

10000234 <data_cpy_table>:
10000234:	1000c440 	.word	0x1000c440
10000238:	200000c0 	.word	0x200000c0
1000023c:	20000c98 	.word	0x20000c98
10000240:	1000d018 	.word	0x1000d018
10000244:	20040000 	.word	0x20040000
10000248:	20040000 	.word	0x20040000
1000024c:	1000d018 	.word	0x1000d018
10000250:	20041000 	.word	0x20041000
10000254:	20041000 	.word	0x20041000
10000258:	00000000 	.word	0x00000000
1000025c:	4770      	bx	lr

1000025e <hold_non_core0_in_bootrom>:
1000025e:	4809      	ldr	r0, [pc, #36]	; (10000284 <hold_non_core0_in_bootrom+0x26>)
10000260:	f006 fcf2 	bl	10006c48 <rom_func_lookup>
10000264:	4700      	bx	r0
10000266:	0000      	.short	0x0000
10000268:	e000ed08 	.word	0xe000ed08
1000026c:	d0000000 	.word	0xd0000000
10000270:	20000ca0 	.word	0x20000ca0
10000274:	20001f74 	.word	0x20001f74
10000278:	100059a5 	.word	0x100059a5
1000027c:	10000809 	.word	0x10000809
10000280:	10005961 	.word	0x10005961
10000284:	00005657 	.word	0x00005657

10000288 <__bi_50>:
10000288:	50520006 5360b3ab 1000bd44              ..RP..`SD...

10000294 <__bi_38>:
10000294:	50520006 02031c86 1000bd54              ..RP....T...

100002a0 <__bi_30>:
100002a0:	50520006 9da22254 1000bd58              ..RPT"..X...

100002ac <__bi_22>:
100002ac:	50520005 68f465de 1000d018              ..RP.e.h....

100002b8 <_init>:
100002b8:	b5f8      	push	{r3, r4, r5, r6, r7, lr}
100002ba:	46c0      	nop			; (mov r8, r8)

100002bc <register_tm_clones>:
100002bc:	4806      	ldr	r0, [pc, #24]	; (100002d8 <register_tm_clones+0x1c>)
100002be:	4907      	ldr	r1, [pc, #28]	; (100002dc <register_tm_clones+0x20>)
100002c0:	1a09      	subs	r1, r1, r0
100002c2:	108b      	asrs	r3, r1, #2
100002c4:	0fc9      	lsrs	r1, r1, #31
100002c6:	18c9      	adds	r1, r1, r3
100002c8:	b510      	push	{r4, lr}
100002ca:	1049      	asrs	r1, r1, #1
100002cc:	d003      	beq.n	100002d6 <register_tm_clones+0x1a>
100002ce:	4b04      	ldr	r3, [pc, #16]	; (100002e0 <register_tm_clones+0x24>)
100002d0:	2b00      	cmp	r3, #0
100002d2:	d000      	beq.n	100002d6 <register_tm_clones+0x1a>
100002d4:	4798      	blx	r3
100002d6:	bd10      	pop	{r4, pc}
100002d8:	20000c98 	.word	0x20000c98
100002dc:	20000c98 	.word	0x20000c98
100002e0:	00000000 	.word	0x00000000

100002e4 <frame_dummy>:
100002e4:	4b05      	ldr	r3, [pc, #20]	; (100002fc <frame_dummy+0x18>)
100002e6:	b510      	push	{r4, lr}
100002e8:	2b00      	cmp	r3, #0
100002ea:	d003      	beq.n	100002f4 <frame_dummy+0x10>
100002ec:	4904      	ldr	r1, [pc, #16]	; (10000300 <frame_dummy+0x1c>)
100002ee:	4805      	ldr	r0, [pc, #20]	; (10000304 <frame_dummy+0x20>)
100002f0:	e000      	b.n	100002f4 <frame_dummy+0x10>
100002f2:	bf00      	nop
100002f4:	f7ff ffe2 	bl	100002bc <register_tm_clones>
100002f8:	bd10      	pop	{r4, pc}
100002fa:	46c0      	nop			; (mov r8, r8)
100002fc:	00000000 	.word	0x00000000
10000300:	20001cd0 	.word	0x20001cd0
10000304:	1000ab90 	.word	0x1000ab90

10000308 <get_temperature_isr>:
10000308:	4b01      	ldr	r3, [pc, #4]	; (10000310 <get_temperature_isr+0x8>)
1000030a:	2201      	movs	r2, #1
1000030c:	701a      	strb	r2, [r3, #0]
1000030e:	4770      	bx	lr
10000310:	20001f60 	.word	0x20001f60

10000314 <timer_counter_isr>:
10000314:	4b27      	ldr	r3, [pc, #156]	; (100003b4 <timer_counter_isr+0xa0>)
10000316:	781b      	ldrb	r3, [r3, #0]
10000318:	2b00      	cmp	r3, #0
1000031a:	d01a      	beq.n	10000352 <timer_counter_isr+0x3e>
1000031c:	23d0      	movs	r3, #208	; 0xd0
1000031e:	061b      	lsls	r3, r3, #24
10000320:	2240      	movs	r2, #64	; 0x40
10000322:	615a      	str	r2, [r3, #20]
10000324:	3240      	adds	r2, #64	; 0x40
10000326:	615a      	str	r2, [r3, #20]
10000328:	4b23      	ldr	r3, [pc, #140]	; (100003b8 <timer_counter_isr+0xa4>)
1000032a:	881b      	ldrh	r3, [r3, #0]
1000032c:	b29b      	uxth	r3, r3
1000032e:	2b00      	cmp	r3, #0
10000330:	d004      	beq.n	1000033c <timer_counter_isr+0x28>
10000332:	4a21      	ldr	r2, [pc, #132]	; (100003b8 <timer_counter_isr+0xa4>)
10000334:	8813      	ldrh	r3, [r2, #0]
10000336:	3b01      	subs	r3, #1
10000338:	b29b      	uxth	r3, r3
1000033a:	8013      	strh	r3, [r2, #0]
1000033c:	4b1f      	ldr	r3, [pc, #124]	; (100003bc <timer_counter_isr+0xa8>)
1000033e:	881b      	ldrh	r3, [r3, #0]
10000340:	b29b      	uxth	r3, r3
10000342:	2b00      	cmp	r3, #0
10000344:	d004      	beq.n	10000350 <timer_counter_isr+0x3c>
10000346:	4a1d      	ldr	r2, [pc, #116]	; (100003bc <timer_counter_isr+0xa8>)
10000348:	8813      	ldrh	r3, [r2, #0]
1000034a:	3b01      	subs	r3, #1
1000034c:	b29b      	uxth	r3, r3
1000034e:	8013      	strh	r3, [r2, #0]
10000350:	4770      	bx	lr
10000352:	4b1b      	ldr	r3, [pc, #108]	; (100003c0 <timer_counter_isr+0xac>)
10000354:	781b      	ldrb	r3, [r3, #0]
10000356:	2b00      	cmp	r3, #0
10000358:	d003      	beq.n	10000362 <timer_counter_isr+0x4e>
1000035a:	23d0      	movs	r3, #208	; 0xd0
1000035c:	061b      	lsls	r3, r3, #24
1000035e:	2240      	movs	r2, #64	; 0x40
10000360:	615a      	str	r2, [r3, #20]
10000362:	4b18      	ldr	r3, [pc, #96]	; (100003c4 <timer_counter_isr+0xb0>)
10000364:	781b      	ldrb	r3, [r3, #0]
10000366:	2b00      	cmp	r3, #0
10000368:	d003      	beq.n	10000372 <timer_counter_isr+0x5e>
1000036a:	23d0      	movs	r3, #208	; 0xd0
1000036c:	061b      	lsls	r3, r3, #24
1000036e:	2280      	movs	r2, #128	; 0x80
10000370:	615a      	str	r2, [r3, #20]
10000372:	4a15      	ldr	r2, [pc, #84]	; (100003c8 <timer_counter_isr+0xb4>)
10000374:	7813      	ldrb	r3, [r2, #0]
10000376:	3301      	adds	r3, #1
10000378:	b2db      	uxtb	r3, r3
1000037a:	7013      	strb	r3, [r2, #0]
1000037c:	2b13      	cmp	r3, #19
1000037e:	d908      	bls.n	10000392 <timer_counter_isr+0x7e>
10000380:	23d0      	movs	r3, #208	; 0xd0
10000382:	061b      	lsls	r3, r3, #24
10000384:	2240      	movs	r2, #64	; 0x40
10000386:	619a      	str	r2, [r3, #24]
10000388:	4b0d      	ldr	r3, [pc, #52]	; (100003c0 <timer_counter_isr+0xac>)
1000038a:	2200      	movs	r2, #0
1000038c:	701a      	strb	r2, [r3, #0]
1000038e:	4b0e      	ldr	r3, [pc, #56]	; (100003c8 <timer_counter_isr+0xb4>)
10000390:	701a      	strb	r2, [r3, #0]
10000392:	4a0e      	ldr	r2, [pc, #56]	; (100003cc <timer_counter_isr+0xb8>)
10000394:	7813      	ldrb	r3, [r2, #0]
10000396:	3301      	adds	r3, #1
10000398:	b2db      	uxtb	r3, r3
1000039a:	7013      	strb	r3, [r2, #0]
1000039c:	2b13      	cmp	r3, #19
1000039e:	d9c3      	bls.n	10000328 <timer_counter_isr+0x14>
100003a0:	23d0      	movs	r3, #208	; 0xd0
100003a2:	061b      	lsls	r3, r3, #24
100003a4:	2280      	movs	r2, #128	; 0x80
100003a6:	619a      	str	r2, [r3, #24]
100003a8:	4b06      	ldr	r3, [pc, #24]	; (100003c4 <timer_counter_isr+0xb0>)
100003aa:	2200      	movs	r2, #0
100003ac:	701a      	strb	r2, [r3, #0]
100003ae:	4b07      	ldr	r3, [pc, #28]	; (100003cc <timer_counter_isr+0xb8>)
100003b0:	701a      	strb	r2, [r3, #0]
100003b2:	e7b9      	b.n	10000328 <timer_counter_isr+0x14>
100003b4:	20001f62 	.word	0x20001f62
100003b8:	20001f44 	.word	0x20001f44
100003bc:	20001f3e 	.word	0x20001f3e
100003c0:	20001f65 	.word	0x20001f65
100003c4:	20001f66 	.word	0x20001f66
100003c8:	20001f5d 	.word	0x20001f5d
100003cc:	20001f5e 	.word	0x20001f5e

100003d0 <timer_heartbeat_isr>:
100003d0:	23d0      	movs	r3, #208	; 0xd0
100003d2:	061b      	lsls	r3, r3, #24
100003d4:	685b      	ldr	r3, [r3, #4]
100003d6:	019b      	lsls	r3, r3, #6
100003d8:	d505      	bpl.n	100003e6 <timer_heartbeat_isr+0x16>
100003da:	23d0      	movs	r3, #208	; 0xd0
100003dc:	061b      	lsls	r3, r3, #24
100003de:	2280      	movs	r2, #128	; 0x80
100003e0:	0492      	lsls	r2, r2, #18
100003e2:	619a      	str	r2, [r3, #24]
100003e4:	4770      	bx	lr
100003e6:	23d0      	movs	r3, #208	; 0xd0
100003e8:	061b      	lsls	r3, r3, #24
100003ea:	2280      	movs	r2, #128	; 0x80
100003ec:	0492      	lsls	r2, r2, #18
100003ee:	615a      	str	r2, [r3, #20]
100003f0:	e7f8      	b.n	100003e4 <timer_heartbeat_isr+0x14>
	...

100003f4 <spi_slave_rx_isr>:
100003f4:	b510      	push	{r4, lr}
100003f6:	4b47      	ldr	r3, [pc, #284]	; (10000514 <spi_slave_rx_isr+0x120>)
100003f8:	689b      	ldr	r3, [r3, #8]
100003fa:	4a47      	ldr	r2, [pc, #284]	; (10000518 <spi_slave_rx_isr+0x124>)
100003fc:	7812      	ldrb	r2, [r2, #0]
100003fe:	b2db      	uxtb	r3, r3
10000400:	4946      	ldr	r1, [pc, #280]	; (1000051c <spi_slave_rx_isr+0x128>)
10000402:	548b      	strb	r3, [r1, r2]
10000404:	2b55      	cmp	r3, #85	; 0x55
10000406:	d030      	beq.n	1000046a <spi_slave_rx_isr+0x76>
10000408:	1e51      	subs	r1, r2, #1
1000040a:	4844      	ldr	r0, [pc, #272]	; (1000051c <spi_slave_rx_isr+0x128>)
1000040c:	5c41      	ldrb	r1, [r0, r1]
1000040e:	2955      	cmp	r1, #85	; 0x55
10000410:	d035      	beq.n	1000047e <spi_slave_rx_isr+0x8a>
10000412:	2955      	cmp	r1, #85	; 0x55
10000414:	d041      	beq.n	1000049a <spi_slave_rx_isr+0xa6>
10000416:	1e93      	subs	r3, r2, #2
10000418:	4840      	ldr	r0, [pc, #256]	; (1000051c <spi_slave_rx_isr+0x128>)
1000041a:	5cc0      	ldrb	r0, [r0, r3]
1000041c:	2855      	cmp	r0, #85	; 0x55
1000041e:	d043      	beq.n	100004a8 <spi_slave_rx_isr+0xb4>
10000420:	1ed3      	subs	r3, r2, #3
10000422:	493e      	ldr	r1, [pc, #248]	; (1000051c <spi_slave_rx_isr+0x128>)
10000424:	5cc9      	ldrb	r1, [r1, r3]
10000426:	2955      	cmp	r1, #85	; 0x55
10000428:	d050      	beq.n	100004cc <spi_slave_rx_isr+0xd8>
1000042a:	1f13      	subs	r3, r2, #4
1000042c:	483b      	ldr	r0, [pc, #236]	; (1000051c <spi_slave_rx_isr+0x128>)
1000042e:	5cc0      	ldrb	r0, [r0, r3]
10000430:	2855      	cmp	r0, #85	; 0x55
10000432:	d054      	beq.n	100004de <spi_slave_rx_isr+0xea>
10000434:	1f53      	subs	r3, r2, #5
10000436:	4939      	ldr	r1, [pc, #228]	; (1000051c <spi_slave_rx_isr+0x128>)
10000438:	5ccb      	ldrb	r3, [r1, r3]
1000043a:	2b55      	cmp	r3, #85	; 0x55
1000043c:	d058      	beq.n	100004f0 <spi_slave_rx_isr+0xfc>
1000043e:	3a06      	subs	r2, #6
10000440:	4936      	ldr	r1, [pc, #216]	; (1000051c <spi_slave_rx_isr+0x128>)
10000442:	5c8a      	ldrb	r2, [r1, r2]
10000444:	2a55      	cmp	r2, #85	; 0x55
10000446:	d112      	bne.n	1000046e <spi_slave_rx_isr+0x7a>
10000448:	4a35      	ldr	r2, [pc, #212]	; (10000520 <spi_slave_rx_isr+0x12c>)
1000044a:	7812      	ldrb	r2, [r2, #0]
1000044c:	4293      	cmp	r3, r2
1000044e:	d10e      	bne.n	1000046e <spi_slave_rx_isr+0x7a>
10000450:	4b34      	ldr	r3, [pc, #208]	; (10000524 <spi_slave_rx_isr+0x130>)
10000452:	78da      	ldrb	r2, [r3, #3]
10000454:	4b2f      	ldr	r3, [pc, #188]	; (10000514 <spi_slave_rx_isr+0x120>)
10000456:	609a      	str	r2, [r3, #8]
10000458:	0008      	movs	r0, r1
1000045a:	2264      	movs	r2, #100	; 0x64
1000045c:	2100      	movs	r1, #0
1000045e:	f007 fb99 	bl	10007b94 <__wrap_memset>
10000462:	4b2d      	ldr	r3, [pc, #180]	; (10000518 <spi_slave_rx_isr+0x124>)
10000464:	2200      	movs	r2, #0
10000466:	701a      	strb	r2, [r3, #0]
10000468:	e001      	b.n	1000046e <spi_slave_rx_isr+0x7a>
1000046a:	4a2a      	ldr	r2, [pc, #168]	; (10000514 <spi_slave_rx_isr+0x120>)
1000046c:	6093      	str	r3, [r2, #8]
1000046e:	4a2a      	ldr	r2, [pc, #168]	; (10000518 <spi_slave_rx_isr+0x124>)
10000470:	7813      	ldrb	r3, [r2, #0]
10000472:	3301      	adds	r3, #1
10000474:	b2db      	uxtb	r3, r3
10000476:	7013      	strb	r3, [r2, #0]
10000478:	2b64      	cmp	r3, #100	; 0x64
1000047a:	d042      	beq.n	10000502 <spi_slave_rx_isr+0x10e>
1000047c:	bd10      	pop	{r4, pc}
1000047e:	2b09      	cmp	r3, #9
10000480:	d8c7      	bhi.n	10000412 <spi_slave_rx_isr+0x1e>
10000482:	4a29      	ldr	r2, [pc, #164]	; (10000528 <spi_slave_rx_isr+0x134>)
10000484:	7013      	strb	r3, [r2, #0]
10000486:	2264      	movs	r2, #100	; 0x64
10000488:	2100      	movs	r1, #0
1000048a:	f007 fb83 	bl	10007b94 <__wrap_memset>
1000048e:	4b27      	ldr	r3, [pc, #156]	; (1000052c <spi_slave_rx_isr+0x138>)
10000490:	2200      	movs	r2, #0
10000492:	701a      	strb	r2, [r3, #0]
10000494:	4b20      	ldr	r3, [pc, #128]	; (10000518 <spi_slave_rx_isr+0x124>)
10000496:	701a      	strb	r2, [r3, #0]
10000498:	e7e9      	b.n	1000046e <spi_slave_rx_isr+0x7a>
1000049a:	4821      	ldr	r0, [pc, #132]	; (10000520 <spi_slave_rx_isr+0x12c>)
1000049c:	7800      	ldrb	r0, [r0, #0]
1000049e:	4283      	cmp	r3, r0
100004a0:	d1b9      	bne.n	10000416 <spi_slave_rx_isr+0x22>
100004a2:	4a1c      	ldr	r2, [pc, #112]	; (10000514 <spi_slave_rx_isr+0x120>)
100004a4:	6093      	str	r3, [r2, #8]
100004a6:	e7e2      	b.n	1000046e <spi_slave_rx_isr+0x7a>
100004a8:	4b1d      	ldr	r3, [pc, #116]	; (10000520 <spi_slave_rx_isr+0x12c>)
100004aa:	781b      	ldrb	r3, [r3, #0]
100004ac:	4299      	cmp	r1, r3
100004ae:	d1b7      	bne.n	10000420 <spi_slave_rx_isr+0x2c>
100004b0:	4b1e      	ldr	r3, [pc, #120]	; (1000052c <spi_slave_rx_isr+0x138>)
100004b2:	781b      	ldrb	r3, [r3, #0]
100004b4:	2b00      	cmp	r3, #0
100004b6:	d004      	beq.n	100004c2 <spi_slave_rx_isr+0xce>
100004b8:	4b1d      	ldr	r3, [pc, #116]	; (10000530 <spi_slave_rx_isr+0x13c>)
100004ba:	781a      	ldrb	r2, [r3, #0]
100004bc:	4b15      	ldr	r3, [pc, #84]	; (10000514 <spi_slave_rx_isr+0x120>)
100004be:	609a      	str	r2, [r3, #8]
100004c0:	e7d5      	b.n	1000046e <spi_slave_rx_isr+0x7a>
100004c2:	4b1c      	ldr	r3, [pc, #112]	; (10000534 <spi_slave_rx_isr+0x140>)
100004c4:	781a      	ldrb	r2, [r3, #0]
100004c6:	4b13      	ldr	r3, [pc, #76]	; (10000514 <spi_slave_rx_isr+0x120>)
100004c8:	609a      	str	r2, [r3, #8]
100004ca:	e7d0      	b.n	1000046e <spi_slave_rx_isr+0x7a>
100004cc:	4b14      	ldr	r3, [pc, #80]	; (10000520 <spi_slave_rx_isr+0x12c>)
100004ce:	781b      	ldrb	r3, [r3, #0]
100004d0:	4298      	cmp	r0, r3
100004d2:	d1aa      	bne.n	1000042a <spi_slave_rx_isr+0x36>
100004d4:	4b13      	ldr	r3, [pc, #76]	; (10000524 <spi_slave_rx_isr+0x130>)
100004d6:	781a      	ldrb	r2, [r3, #0]
100004d8:	4b0e      	ldr	r3, [pc, #56]	; (10000514 <spi_slave_rx_isr+0x120>)
100004da:	609a      	str	r2, [r3, #8]
100004dc:	e7c7      	b.n	1000046e <spi_slave_rx_isr+0x7a>
100004de:	4b10      	ldr	r3, [pc, #64]	; (10000520 <spi_slave_rx_isr+0x12c>)
100004e0:	781b      	ldrb	r3, [r3, #0]
100004e2:	4299      	cmp	r1, r3
100004e4:	d1a6      	bne.n	10000434 <spi_slave_rx_isr+0x40>
100004e6:	4b0f      	ldr	r3, [pc, #60]	; (10000524 <spi_slave_rx_isr+0x130>)
100004e8:	785a      	ldrb	r2, [r3, #1]
100004ea:	4b0a      	ldr	r3, [pc, #40]	; (10000514 <spi_slave_rx_isr+0x120>)
100004ec:	609a      	str	r2, [r3, #8]
100004ee:	e7be      	b.n	1000046e <spi_slave_rx_isr+0x7a>
100004f0:	490b      	ldr	r1, [pc, #44]	; (10000520 <spi_slave_rx_isr+0x12c>)
100004f2:	7809      	ldrb	r1, [r1, #0]
100004f4:	4288      	cmp	r0, r1
100004f6:	d1a2      	bne.n	1000043e <spi_slave_rx_isr+0x4a>
100004f8:	4b0a      	ldr	r3, [pc, #40]	; (10000524 <spi_slave_rx_isr+0x130>)
100004fa:	789a      	ldrb	r2, [r3, #2]
100004fc:	4b05      	ldr	r3, [pc, #20]	; (10000514 <spi_slave_rx_isr+0x120>)
100004fe:	609a      	str	r2, [r3, #8]
10000500:	e7b5      	b.n	1000046e <spi_slave_rx_isr+0x7a>
10000502:	4806      	ldr	r0, [pc, #24]	; (1000051c <spi_slave_rx_isr+0x128>)
10000504:	2264      	movs	r2, #100	; 0x64
10000506:	2100      	movs	r1, #0
10000508:	f007 fb44 	bl	10007b94 <__wrap_memset>
1000050c:	4b02      	ldr	r3, [pc, #8]	; (10000518 <spi_slave_rx_isr+0x124>)
1000050e:	2200      	movs	r2, #0
10000510:	701a      	strb	r2, [r3, #0]
10000512:	e7b3      	b.n	1000047c <spi_slave_rx_isr+0x88>
10000514:	4003c000 	.word	0x4003c000
10000518:	20001f58 	.word	0x20001f58
1000051c:	20001264 	.word	0x20001264
10000520:	1000ae2c 	.word	0x1000ae2c
10000524:	200012c8 	.word	0x200012c8
10000528:	20001f5f 	.word	0x20001f5f
1000052c:	20000b98 	.word	0x20000b98
10000530:	1000ae2d 	.word	0x1000ae2d
10000534:	1000ae2e 	.word	0x1000ae2e

10000538 <add_repeating_timer_ms>:
10000538:	b5f0      	push	{r4, r5, r6, r7, lr}
1000053a:	46c6      	mov	lr, r8
1000053c:	b500      	push	{lr}
1000053e:	b084      	sub	sp, #16
10000540:	0004      	movs	r4, r0
10000542:	000e      	movs	r6, r1
10000544:	0017      	movs	r7, r2
10000546:	001d      	movs	r5, r3
10000548:	f004 f958 	bl	100047fc <alarm_pool_get_default>
1000054c:	4680      	mov	r8, r0
1000054e:	17e1      	asrs	r1, r4, #31
10000550:	22fa      	movs	r2, #250	; 0xfa
10000552:	0092      	lsls	r2, r2, #2
10000554:	2300      	movs	r3, #0
10000556:	0020      	movs	r0, r4
10000558:	f007 fa06 	bl	10007968 <__wrap___aeabi_lmul>
1000055c:	0002      	movs	r2, r0
1000055e:	000b      	movs	r3, r1
10000560:	9502      	str	r5, [sp, #8]
10000562:	9701      	str	r7, [sp, #4]
10000564:	9600      	str	r6, [sp, #0]
10000566:	4640      	mov	r0, r8
10000568:	f004 fa8c 	bl	10004a84 <alarm_pool_add_repeating_timer_us>
1000056c:	b004      	add	sp, #16
1000056e:	bc80      	pop	{r7}
10000570:	46b8      	mov	r8, r7
10000572:	bdf0      	pop	{r4, r5, r6, r7, pc}

10000574 <uart_rx_isr>:
10000574:	b082      	sub	sp, #8
10000576:	4b3e      	ldr	r3, [pc, #248]	; (10000670 <uart_rx_isr+0xfc>)
10000578:	699b      	ldr	r3, [r3, #24]
1000057a:	2110      	movs	r1, #16
1000057c:	000a      	movs	r2, r1
1000057e:	401a      	ands	r2, r3
10000580:	4219      	tst	r1, r3
10000582:	d008      	beq.n	10000596 <uart_rx_isr+0x22>
10000584:	4b3b      	ldr	r3, [pc, #236]	; (10000674 <uart_rx_isr+0x100>)
10000586:	699b      	ldr	r3, [r3, #24]
10000588:	2110      	movs	r1, #16
1000058a:	000a      	movs	r2, r1
1000058c:	401a      	ands	r2, r3
1000058e:	4219      	tst	r1, r3
10000590:	d038      	beq.n	10000604 <uart_rx_isr+0x90>
10000592:	b002      	add	sp, #8
10000594:	4770      	bx	lr
10000596:	4b38      	ldr	r3, [pc, #224]	; (10000678 <uart_rx_isr+0x104>)
10000598:	390f      	subs	r1, #15
1000059a:	7019      	strb	r1, [r3, #0]
1000059c:	4b37      	ldr	r3, [pc, #220]	; (1000067c <uart_rx_isr+0x108>)
1000059e:	8818      	ldrh	r0, [r3, #0]
100005a0:	b280      	uxth	r0, r0
100005a2:	466b      	mov	r3, sp
100005a4:	1dd9      	adds	r1, r3, #7
100005a6:	2a00      	cmp	r2, #0
100005a8:	d109      	bne.n	100005be <uart_rx_isr+0x4a>
100005aa:	4b31      	ldr	r3, [pc, #196]	; (10000670 <uart_rx_isr+0xfc>)
100005ac:	699b      	ldr	r3, [r3, #24]
100005ae:	06db      	lsls	r3, r3, #27
100005b0:	d4fb      	bmi.n	100005aa <uart_rx_isr+0x36>
100005b2:	4b2f      	ldr	r3, [pc, #188]	; (10000670 <uart_rx_isr+0xfc>)
100005b4:	681b      	ldr	r3, [r3, #0]
100005b6:	700b      	strb	r3, [r1, #0]
100005b8:	3201      	adds	r2, #1
100005ba:	3101      	adds	r1, #1
100005bc:	e7f3      	b.n	100005a6 <uart_rx_isr+0x32>
100005be:	466b      	mov	r3, sp
100005c0:	79da      	ldrb	r2, [r3, #7]
100005c2:	4b2f      	ldr	r3, [pc, #188]	; (10000680 <uart_rx_isr+0x10c>)
100005c4:	541a      	strb	r2, [r3, r0]
100005c6:	4a2d      	ldr	r2, [pc, #180]	; (1000067c <uart_rx_isr+0x108>)
100005c8:	8813      	ldrh	r3, [r2, #0]
100005ca:	3301      	adds	r3, #1
100005cc:	b29b      	uxth	r3, r3
100005ce:	8013      	strh	r3, [r2, #0]
100005d0:	8813      	ldrh	r3, [r2, #0]
100005d2:	b29b      	uxth	r3, r3
100005d4:	228c      	movs	r2, #140	; 0x8c
100005d6:	0092      	lsls	r2, r2, #2
100005d8:	4293      	cmp	r3, r2
100005da:	d00b      	beq.n	100005f4 <uart_rx_isr+0x80>
100005dc:	4b24      	ldr	r3, [pc, #144]	; (10000670 <uart_rx_isr+0xfc>)
100005de:	685b      	ldr	r3, [r3, #4]
100005e0:	2b01      	cmp	r3, #1
100005e2:	d00b      	beq.n	100005fc <uart_rx_isr+0x88>
100005e4:	4b22      	ldr	r3, [pc, #136]	; (10000670 <uart_rx_isr+0xfc>)
100005e6:	685b      	ldr	r3, [r3, #4]
100005e8:	2b08      	cmp	r3, #8
100005ea:	d1d2      	bne.n	10000592 <uart_rx_isr+0x1e>
100005ec:	4b25      	ldr	r3, [pc, #148]	; (10000684 <uart_rx_isr+0x110>)
100005ee:	2208      	movs	r2, #8
100005f0:	601a      	str	r2, [r3, #0]
100005f2:	e7ce      	b.n	10000592 <uart_rx_isr+0x1e>
100005f4:	4b21      	ldr	r3, [pc, #132]	; (1000067c <uart_rx_isr+0x108>)
100005f6:	2200      	movs	r2, #0
100005f8:	801a      	strh	r2, [r3, #0]
100005fa:	e7ef      	b.n	100005dc <uart_rx_isr+0x68>
100005fc:	4b21      	ldr	r3, [pc, #132]	; (10000684 <uart_rx_isr+0x110>)
100005fe:	2201      	movs	r2, #1
10000600:	601a      	str	r2, [r3, #0]
10000602:	e7ef      	b.n	100005e4 <uart_rx_isr+0x70>
10000604:	4b20      	ldr	r3, [pc, #128]	; (10000688 <uart_rx_isr+0x114>)
10000606:	390f      	subs	r1, #15
10000608:	7019      	strb	r1, [r3, #0]
1000060a:	4920      	ldr	r1, [pc, #128]	; (1000068c <uart_rx_isr+0x118>)
1000060c:	880b      	ldrh	r3, [r1, #0]
1000060e:	b298      	uxth	r0, r3
10000610:	3301      	adds	r3, #1
10000612:	b29b      	uxth	r3, r3
10000614:	800b      	strh	r3, [r1, #0]
10000616:	466b      	mov	r3, sp
10000618:	1dd9      	adds	r1, r3, #7
1000061a:	e008      	b.n	1000062e <uart_rx_isr+0xba>
1000061c:	4b15      	ldr	r3, [pc, #84]	; (10000674 <uart_rx_isr+0x100>)
1000061e:	699b      	ldr	r3, [r3, #24]
10000620:	06db      	lsls	r3, r3, #27
10000622:	d4fb      	bmi.n	1000061c <uart_rx_isr+0xa8>
10000624:	4b13      	ldr	r3, [pc, #76]	; (10000674 <uart_rx_isr+0x100>)
10000626:	681b      	ldr	r3, [r3, #0]
10000628:	700b      	strb	r3, [r1, #0]
1000062a:	3201      	adds	r2, #1
1000062c:	3101      	adds	r1, #1
1000062e:	2a00      	cmp	r2, #0
10000630:	d0f4      	beq.n	1000061c <uart_rx_isr+0xa8>
10000632:	466b      	mov	r3, sp
10000634:	79da      	ldrb	r2, [r3, #7]
10000636:	4b16      	ldr	r3, [pc, #88]	; (10000690 <uart_rx_isr+0x11c>)
10000638:	541a      	strb	r2, [r3, r0]
1000063a:	4b14      	ldr	r3, [pc, #80]	; (1000068c <uart_rx_isr+0x118>)
1000063c:	881b      	ldrh	r3, [r3, #0]
1000063e:	b29b      	uxth	r3, r3
10000640:	228c      	movs	r2, #140	; 0x8c
10000642:	0092      	lsls	r2, r2, #2
10000644:	4293      	cmp	r3, r2
10000646:	d00b      	beq.n	10000660 <uart_rx_isr+0xec>
10000648:	4b0a      	ldr	r3, [pc, #40]	; (10000674 <uart_rx_isr+0x100>)
1000064a:	685b      	ldr	r3, [r3, #4]
1000064c:	2b01      	cmp	r3, #1
1000064e:	d00b      	beq.n	10000668 <uart_rx_isr+0xf4>
10000650:	4b08      	ldr	r3, [pc, #32]	; (10000674 <uart_rx_isr+0x100>)
10000652:	685b      	ldr	r3, [r3, #4]
10000654:	2b08      	cmp	r3, #8
10000656:	d19c      	bne.n	10000592 <uart_rx_isr+0x1e>
10000658:	4b0e      	ldr	r3, [pc, #56]	; (10000694 <uart_rx_isr+0x120>)
1000065a:	2208      	movs	r2, #8
1000065c:	601a      	str	r2, [r3, #0]
1000065e:	e798      	b.n	10000592 <uart_rx_isr+0x1e>
10000660:	4b0a      	ldr	r3, [pc, #40]	; (1000068c <uart_rx_isr+0x118>)
10000662:	2200      	movs	r2, #0
10000664:	801a      	strh	r2, [r3, #0]
10000666:	e7ef      	b.n	10000648 <uart_rx_isr+0xd4>
10000668:	4b0a      	ldr	r3, [pc, #40]	; (10000694 <uart_rx_isr+0x120>)
1000066a:	2201      	movs	r2, #1
1000066c:	601a      	str	r2, [r3, #0]
1000066e:	e7ef      	b.n	10000650 <uart_rx_isr+0xdc>
10000670:	40038000 	.word	0x40038000
10000674:	40034000 	.word	0x40034000
10000678:	20001f65 	.word	0x20001f65
1000067c:	20001f48 	.word	0x20001f48
10000680:	20000ca0 	.word	0x20000ca0
10000684:	4003b004 	.word	0x4003b004
10000688:	20001f66 	.word	0x20001f66
1000068c:	20001f4c 	.word	0x20001f4c
10000690:	20000ed0 	.word	0x20000ed0
10000694:	40037004 	.word	0x40037004

10000698 <ADC_Read>:
10000698:	b530      	push	{r4, r5, lr}
1000069a:	b087      	sub	sp, #28
1000069c:	aa03      	add	r2, sp, #12
1000069e:	4b34      	ldr	r3, [pc, #208]	; (10000770 <ADC_Read+0xd8>)
100006a0:	cb30      	ldmia	r3!, {r4, r5}
100006a2:	c230      	stmia	r2!, {r4, r5}
100006a4:	881b      	ldrh	r3, [r3, #0]
100006a6:	8013      	strh	r3, [r2, #0]
100006a8:	2800      	cmp	r0, #0
100006aa:	d004      	beq.n	100006b6 <ADC_Read+0x1e>
100006ac:	2801      	cmp	r0, #1
100006ae:	d030      	beq.n	10000712 <ADC_Read+0x7a>
100006b0:	2000      	movs	r0, #0
100006b2:	b007      	add	sp, #28
100006b4:	bd30      	pop	{r4, r5, pc}
100006b6:	aa03      	add	r2, sp, #12
100006b8:	23a8      	movs	r3, #168	; 0xa8
100006ba:	7013      	strb	r3, [r2, #0]
100006bc:	482d      	ldr	r0, [pc, #180]	; (10000774 <ADC_Read+0xdc>)
100006be:	2300      	movs	r3, #0
100006c0:	9300      	str	r3, [sp, #0]
100006c2:	3301      	adds	r3, #1
100006c4:	2168      	movs	r1, #104	; 0x68
100006c6:	f00a f8b1 	bl	1000a82c <i2c_write_blocking>
100006ca:	2064      	movs	r0, #100	; 0x64
100006cc:	2100      	movs	r1, #0
100006ce:	f004 faa1 	bl	10004c14 <sleep_us>
100006d2:	4b29      	ldr	r3, [pc, #164]	; (10000778 <ADC_Read+0xe0>)
100006d4:	2264      	movs	r2, #100	; 0x64
100006d6:	801a      	strh	r2, [r3, #0]
100006d8:	4826      	ldr	r0, [pc, #152]	; (10000774 <ADC_Read+0xdc>)
100006da:	2300      	movs	r3, #0
100006dc:	9300      	str	r3, [sp, #0]
100006de:	3303      	adds	r3, #3
100006e0:	aa03      	add	r2, sp, #12
100006e2:	2168      	movs	r1, #104	; 0x68
100006e4:	f00a f8ae 	bl	1000a844 <i2c_read_blocking>
100006e8:	200a      	movs	r0, #10
100006ea:	2100      	movs	r1, #0
100006ec:	f004 fa92 	bl	10004c14 <sleep_us>
100006f0:	4b21      	ldr	r3, [pc, #132]	; (10000778 <ADC_Read+0xe0>)
100006f2:	881b      	ldrh	r3, [r3, #0]
100006f4:	b29b      	uxth	r3, r3
100006f6:	2b00      	cmp	r3, #0
100006f8:	d004      	beq.n	10000704 <ADC_Read+0x6c>
100006fa:	ab03      	add	r3, sp, #12
100006fc:	789b      	ldrb	r3, [r3, #2]
100006fe:	b25b      	sxtb	r3, r3
10000700:	2b00      	cmp	r3, #0
10000702:	dbe9      	blt.n	100006d8 <ADC_Read+0x40>
10000704:	ab03      	add	r3, sp, #12
10000706:	7818      	ldrb	r0, [r3, #0]
10000708:	0200      	lsls	r0, r0, #8
1000070a:	785b      	ldrb	r3, [r3, #1]
1000070c:	18c0      	adds	r0, r0, r3
1000070e:	b280      	uxth	r0, r0
10000710:	e7cf      	b.n	100006b2 <ADC_Read+0x1a>
10000712:	aa03      	add	r2, sp, #12
10000714:	2388      	movs	r3, #136	; 0x88
10000716:	7013      	strb	r3, [r2, #0]
10000718:	4816      	ldr	r0, [pc, #88]	; (10000774 <ADC_Read+0xdc>)
1000071a:	2300      	movs	r3, #0
1000071c:	9300      	str	r3, [sp, #0]
1000071e:	3301      	adds	r3, #1
10000720:	2168      	movs	r1, #104	; 0x68
10000722:	f00a f883 	bl	1000a82c <i2c_write_blocking>
10000726:	2064      	movs	r0, #100	; 0x64
10000728:	2100      	movs	r1, #0
1000072a:	f004 fa73 	bl	10004c14 <sleep_us>
1000072e:	4b12      	ldr	r3, [pc, #72]	; (10000778 <ADC_Read+0xe0>)
10000730:	2264      	movs	r2, #100	; 0x64
10000732:	801a      	strh	r2, [r3, #0]
10000734:	480f      	ldr	r0, [pc, #60]	; (10000774 <ADC_Read+0xdc>)
10000736:	2300      	movs	r3, #0
10000738:	9300      	str	r3, [sp, #0]
1000073a:	3303      	adds	r3, #3
1000073c:	aa03      	add	r2, sp, #12
1000073e:	2168      	movs	r1, #104	; 0x68
10000740:	f00a f880 	bl	1000a844 <i2c_read_blocking>
10000744:	200a      	movs	r0, #10
10000746:	2100      	movs	r1, #0
10000748:	f004 fa64 	bl	10004c14 <sleep_us>
1000074c:	4b0a      	ldr	r3, [pc, #40]	; (10000778 <ADC_Read+0xe0>)
1000074e:	881b      	ldrh	r3, [r3, #0]
10000750:	b29b      	uxth	r3, r3
10000752:	2b00      	cmp	r3, #0
10000754:	d004      	beq.n	10000760 <ADC_Read+0xc8>
10000756:	ab03      	add	r3, sp, #12
10000758:	789b      	ldrb	r3, [r3, #2]
1000075a:	b25b      	sxtb	r3, r3
1000075c:	2b00      	cmp	r3, #0
1000075e:	dbe9      	blt.n	10000734 <ADC_Read+0x9c>
10000760:	ab03      	add	r3, sp, #12
10000762:	7818      	ldrb	r0, [r3, #0]
10000764:	0200      	lsls	r0, r0, #8
10000766:	785b      	ldrb	r3, [r3, #1]
10000768:	18c0      	adds	r0, r0, r3
1000076a:	b280      	uxth	r0, r0
1000076c:	e7a1      	b.n	100006b2 <ADC_Read+0x1a>
1000076e:	46c0      	nop			; (mov r8, r8)
10000770:	1000aba0 	.word	0x1000aba0
10000774:	20000c70 	.word	0x20000c70
10000778:	20001f3e 	.word	0x20001f3e

1000077c <getTemperatureStatus>:
1000077c:	b510      	push	{r4, lr}
1000077e:	2000      	movs	r0, #0
10000780:	f7ff ff8a 	bl	10000698 <ADC_Read>
10000784:	0002      	movs	r2, r0
10000786:	4b11      	ldr	r3, [pc, #68]	; (100007cc <getTemperatureStatus+0x50>)
10000788:	881b      	ldrh	r3, [r3, #0]
1000078a:	4283      	cmp	r3, r0
1000078c:	d20e      	bcs.n	100007ac <getTemperatureStatus+0x30>
1000078e:	1ac3      	subs	r3, r0, r3
10000790:	b29b      	uxth	r3, r3
10000792:	490f      	ldr	r1, [pc, #60]	; (100007d0 <getTemperatureStatus+0x54>)
10000794:	428b      	cmp	r3, r1
10000796:	d806      	bhi.n	100007a6 <getTemperatureStatus+0x2a>
10000798:	4b0e      	ldr	r3, [pc, #56]	; (100007d4 <getTemperatureStatus+0x58>)
1000079a:	881b      	ldrh	r3, [r3, #0]
1000079c:	4293      	cmp	r3, r2
1000079e:	d908      	bls.n	100007b2 <getTemperatureStatus+0x36>
100007a0:	4b0d      	ldr	r3, [pc, #52]	; (100007d8 <getTemperatureStatus+0x5c>)
100007a2:	2201      	movs	r2, #1
100007a4:	701a      	strb	r2, [r3, #0]
100007a6:	4b09      	ldr	r3, [pc, #36]	; (100007cc <getTemperatureStatus+0x50>)
100007a8:	8018      	strh	r0, [r3, #0]
100007aa:	bd10      	pop	{r4, pc}
100007ac:	1a1b      	subs	r3, r3, r0
100007ae:	b29b      	uxth	r3, r3
100007b0:	e7ef      	b.n	10000792 <getTemperatureStatus+0x16>
100007b2:	4b09      	ldr	r3, [pc, #36]	; (100007d8 <getTemperatureStatus+0x5c>)
100007b4:	781b      	ldrb	r3, [r3, #0]
100007b6:	2b00      	cmp	r3, #0
100007b8:	d0f5      	beq.n	100007a6 <getTemperatureStatus+0x2a>
100007ba:	4b08      	ldr	r3, [pc, #32]	; (100007dc <getTemperatureStatus+0x60>)
100007bc:	881b      	ldrh	r3, [r3, #0]
100007be:	4293      	cmp	r3, r2
100007c0:	d2f1      	bcs.n	100007a6 <getTemperatureStatus+0x2a>
100007c2:	4b05      	ldr	r3, [pc, #20]	; (100007d8 <getTemperatureStatus+0x5c>)
100007c4:	2200      	movs	r2, #0
100007c6:	701a      	strb	r2, [r3, #0]
100007c8:	e7ed      	b.n	100007a6 <getTemperatureStatus+0x2a>
100007ca:	46c0      	nop			; (mov r8, r8)
100007cc:	20001f56 	.word	0x20001f56
100007d0:	00001387 	.word	0x00001387
100007d4:	20001f50 	.word	0x20001f50
100007d8:	20001f62 	.word	0x20001f62
100007dc:	20001f52 	.word	0x20001f52

100007e0 <BaudRate_Update>:
100007e0:	b510      	push	{r4, lr}
100007e2:	0004      	movs	r4, r0
100007e4:	0001      	movs	r1, r0
100007e6:	4804      	ldr	r0, [pc, #16]	; (100007f8 <BaudRate_Update+0x18>)
100007e8:	f004 fe48 	bl	1000547c <uart_init>
100007ec:	0021      	movs	r1, r4
100007ee:	4803      	ldr	r0, [pc, #12]	; (100007fc <BaudRate_Update+0x1c>)
100007f0:	f004 fe44 	bl	1000547c <uart_init>
100007f4:	bd10      	pop	{r4, pc}
100007f6:	46c0      	nop			; (mov r8, r8)
100007f8:	40038000 	.word	0x40038000
100007fc:	40034000 	.word	0x40034000

10000800 <Watchdog>:
10000800:	b510      	push	{r4, lr}
10000802:	f005 f821 	bl	10005848 <watchdog_update>
10000806:	bd10      	pop	{r4, pc}

10000808 <main>:
10000808:	b5f8      	push	{r3, r4, r5, r6, r7, lr}
1000080a:	46de      	mov	lr, fp
1000080c:	4657      	mov	r7, sl
1000080e:	464e      	mov	r6, r9
10000810:	4645      	mov	r5, r8
10000812:	b5e0      	push	{r5, r6, r7, lr}
10000814:	f007 fb28 	bl	10007e68 <stdio_init_all>
10000818:	20fa      	movs	r0, #250	; 0xfa
1000081a:	2101      	movs	r1, #1
1000081c:	0140      	lsls	r0, r0, #5
1000081e:	f005 f859 	bl	100058d4 <watchdog_enable>
10000822:	2012      	movs	r0, #18
10000824:	f003 f84c 	bl	100038c0 <gpio_init>
10000828:	2013      	movs	r0, #19
1000082a:	f003 f849 	bl	100038c0 <gpio_init>
1000082e:	2014      	movs	r0, #20
10000830:	f003 f846 	bl	100038c0 <gpio_init>
10000834:	2015      	movs	r0, #21
10000836:	f003 f843 	bl	100038c0 <gpio_init>
1000083a:	201a      	movs	r0, #26
1000083c:	f003 f840 	bl	100038c0 <gpio_init>
10000840:	201b      	movs	r0, #27
10000842:	f003 f83d 	bl	100038c0 <gpio_init>
10000846:	2019      	movs	r0, #25
10000848:	f003 f83a 	bl	100038c0 <gpio_init>
1000084c:	2007      	movs	r0, #7
1000084e:	f003 f837 	bl	100038c0 <gpio_init>
10000852:	2006      	movs	r0, #6
10000854:	f003 f834 	bl	100038c0 <gpio_init>
10000858:	2016      	movs	r0, #22
1000085a:	f003 f831 	bl	100038c0 <gpio_init>
1000085e:	24d0      	movs	r4, #208	; 0xd0
10000860:	0624      	lsls	r4, r4, #24
10000862:	2380      	movs	r3, #128	; 0x80
10000864:	02db      	lsls	r3, r3, #11
10000866:	4699      	mov	r9, r3
10000868:	6263      	str	r3, [r4, #36]	; 0x24
1000086a:	2380      	movs	r3, #128	; 0x80
1000086c:	031b      	lsls	r3, r3, #12
1000086e:	4698      	mov	r8, r3
10000870:	6263      	str	r3, [r4, #36]	; 0x24
10000872:	2380      	movs	r3, #128	; 0x80
10000874:	035b      	lsls	r3, r3, #13
10000876:	469c      	mov	ip, r3
10000878:	6263      	str	r3, [r4, #36]	; 0x24
1000087a:	2680      	movs	r6, #128	; 0x80
1000087c:	03b6      	lsls	r6, r6, #14
1000087e:	6266      	str	r6, [r4, #36]	; 0x24
10000880:	2580      	movs	r5, #128	; 0x80
10000882:	04ed      	lsls	r5, r5, #19
10000884:	6265      	str	r5, [r4, #36]	; 0x24
10000886:	2080      	movs	r0, #128	; 0x80
10000888:	0500      	lsls	r0, r0, #20
1000088a:	6260      	str	r0, [r4, #36]	; 0x24
1000088c:	2180      	movs	r1, #128	; 0x80
1000088e:	0489      	lsls	r1, r1, #18
10000890:	6261      	str	r1, [r4, #36]	; 0x24
10000892:	2280      	movs	r2, #128	; 0x80
10000894:	6262      	str	r2, [r4, #36]	; 0x24
10000896:	2340      	movs	r3, #64	; 0x40
10000898:	6263      	str	r3, [r4, #36]	; 0x24
1000089a:	2780      	movs	r7, #128	; 0x80
1000089c:	03ff      	lsls	r7, r7, #15
1000089e:	46bb      	mov	fp, r7
100008a0:	6267      	str	r7, [r4, #36]	; 0x24
100008a2:	464f      	mov	r7, r9
100008a4:	61a7      	str	r7, [r4, #24]
100008a6:	4647      	mov	r7, r8
100008a8:	61a7      	str	r7, [r4, #24]
100008aa:	4667      	mov	r7, ip
100008ac:	61a7      	str	r7, [r4, #24]
100008ae:	61a6      	str	r6, [r4, #24]
100008b0:	61a5      	str	r5, [r4, #24]
100008b2:	61a0      	str	r0, [r4, #24]
100008b4:	61a1      	str	r1, [r4, #24]
100008b6:	61a2      	str	r2, [r4, #24]
100008b8:	61a3      	str	r3, [r4, #24]
100008ba:	465b      	mov	r3, fp
100008bc:	61a3      	str	r3, [r4, #24]
100008be:	4b8b      	ldr	r3, [pc, #556]	; (10000aec <main+0x2e4>)
100008c0:	498b      	ldr	r1, [pc, #556]	; (10000af0 <main+0x2e8>)
100008c2:	2200      	movs	r2, #0
100008c4:	488b      	ldr	r0, [pc, #556]	; (10000af4 <main+0x2ec>)
100008c6:	f7ff fe37 	bl	10000538 <add_repeating_timer_ms>
100008ca:	4b8b      	ldr	r3, [pc, #556]	; (10000af8 <main+0x2f0>)
100008cc:	498b      	ldr	r1, [pc, #556]	; (10000afc <main+0x2f4>)
100008ce:	2200      	movs	r2, #0
100008d0:	200a      	movs	r0, #10
100008d2:	f7ff fe31 	bl	10000538 <add_repeating_timer_ms>
100008d6:	4b8a      	ldr	r3, [pc, #552]	; (10000b00 <main+0x2f8>)
100008d8:	498a      	ldr	r1, [pc, #552]	; (10000b04 <main+0x2fc>)
100008da:	22fa      	movs	r2, #250	; 0xfa
100008dc:	0052      	lsls	r2, r2, #1
100008de:	4690      	mov	r8, r2
100008e0:	2200      	movs	r2, #0
100008e2:	4640      	mov	r0, r8
100008e4:	f7ff fe28 	bl	10000538 <add_repeating_timer_ms>
100008e8:	4e87      	ldr	r6, [pc, #540]	; (10000b08 <main+0x300>)
100008ea:	4d88      	ldr	r5, [pc, #544]	; (10000b0c <main+0x304>)
100008ec:	0031      	movs	r1, r6
100008ee:	0028      	movs	r0, r5
100008f0:	f009 ff4c 	bl	1000a78c <i2c_init>
100008f4:	2200      	movs	r2, #0
100008f6:	2100      	movs	r1, #0
100008f8:	0028      	movs	r0, r5
100008fa:	f009 ff73 	bl	1000a7e4 <i2c_set_slave_mode>
100008fe:	2103      	movs	r1, #3
10000900:	200d      	movs	r0, #13
10000902:	f002 ffab 	bl	1000385c <gpio_set_function>
10000906:	2103      	movs	r1, #3
10000908:	200c      	movs	r0, #12
1000090a:	f002 ffa7 	bl	1000385c <gpio_set_function>
1000090e:	2200      	movs	r2, #0
10000910:	2101      	movs	r1, #1
10000912:	200d      	movs	r0, #13
10000914:	f002 ffba 	bl	1000388c <gpio_set_pulls>
10000918:	2200      	movs	r2, #0
1000091a:	2101      	movs	r1, #1
1000091c:	200c      	movs	r0, #12
1000091e:	f002 ffb5 	bl	1000388c <gpio_set_pulls>
10000922:	4d7b      	ldr	r5, [pc, #492]	; (10000b10 <main+0x308>)
10000924:	0031      	movs	r1, r6
10000926:	0028      	movs	r0, r5
10000928:	f009 ffe2 	bl	1000a8f0 <spi_init>
1000092c:	2604      	movs	r6, #4
1000092e:	4b79      	ldr	r3, [pc, #484]	; (10000b14 <main+0x30c>)
10000930:	601e      	str	r6, [r3, #0]
10000932:	2101      	movs	r1, #1
10000934:	2005      	movs	r0, #5
10000936:	f002 ff91 	bl	1000385c <gpio_set_function>
1000093a:	2101      	movs	r1, #1
1000093c:	2003      	movs	r0, #3
1000093e:	f002 ff8d 	bl	1000385c <gpio_set_function>
10000942:	2101      	movs	r1, #1
10000944:	2004      	movs	r0, #4
10000946:	f002 ff89 	bl	1000385c <gpio_set_function>
1000094a:	2101      	movs	r1, #1
1000094c:	2002      	movs	r0, #2
1000094e:	f002 ff85 	bl	1000385c <gpio_set_function>
10000952:	2201      	movs	r2, #1
10000954:	2100      	movs	r1, #0
10000956:	2003      	movs	r0, #3
10000958:	f002 ff98 	bl	1000388c <gpio_set_pulls>
1000095c:	616e      	str	r6, [r5, #20]
1000095e:	496e      	ldr	r1, [pc, #440]	; (10000b18 <main+0x310>)
10000960:	2012      	movs	r0, #18
10000962:	f003 f8e9 	bl	10003b38 <irq_set_exclusive_handler>
10000966:	2101      	movs	r1, #1
10000968:	2012      	movs	r0, #18
1000096a:	f003 f8bb 	bl	10003ae4 <irq_set_enabled>
1000096e:	2396      	movs	r3, #150	; 0x96
10000970:	021b      	lsls	r3, r3, #8
10000972:	4699      	mov	r9, r3
10000974:	4e69      	ldr	r6, [pc, #420]	; (10000b1c <main+0x314>)
10000976:	0019      	movs	r1, r3
10000978:	0030      	movs	r0, r6
1000097a:	f004 fd7f 	bl	1000547c <uart_init>
1000097e:	2102      	movs	r1, #2
10000980:	2009      	movs	r0, #9
10000982:	f002 ff6b 	bl	1000385c <gpio_set_function>
10000986:	2102      	movs	r1, #2
10000988:	2008      	movs	r0, #8
1000098a:	f002 ff67 	bl	1000385c <gpio_set_function>
1000098e:	4d64      	ldr	r5, [pc, #400]	; (10000b20 <main+0x318>)
10000990:	4649      	mov	r1, r9
10000992:	0028      	movs	r0, r5
10000994:	f004 fd72 	bl	1000547c <uart_init>
10000998:	2102      	movs	r1, #2
1000099a:	2010      	movs	r0, #16
1000099c:	f002 ff5e 	bl	1000385c <gpio_set_function>
100009a0:	2102      	movs	r1, #2
100009a2:	2011      	movs	r0, #17
100009a4:	f002 ff5a 	bl	1000385c <gpio_set_function>
100009a8:	6b33      	ldr	r3, [r6, #48]	; 0x30
100009aa:	22c0      	movs	r2, #192	; 0xc0
100009ac:	0212      	lsls	r2, r2, #8
100009ae:	4694      	mov	ip, r2
100009b0:	4013      	ands	r3, r2
100009b2:	4a5c      	ldr	r2, [pc, #368]	; (10000b24 <main+0x31c>)
100009b4:	6013      	str	r3, [r2, #0]
100009b6:	6af3      	ldr	r3, [r6, #44]	; 0x2c
100009b8:	2060      	movs	r0, #96	; 0x60
100009ba:	4043      	eors	r3, r0
100009bc:	226e      	movs	r2, #110	; 0x6e
100009be:	4013      	ands	r3, r2
100009c0:	4959      	ldr	r1, [pc, #356]	; (10000b28 <main+0x320>)
100009c2:	4689      	mov	r9, r1
100009c4:	600b      	str	r3, [r1, #0]
100009c6:	6af1      	ldr	r1, [r6, #44]	; 0x2c
100009c8:	2310      	movs	r3, #16
100009ca:	4019      	ands	r1, r3
100009cc:	464f      	mov	r7, r9
100009ce:	6039      	str	r1, [r7, #0]
100009d0:	6b29      	ldr	r1, [r5, #48]	; 0x30
100009d2:	4667      	mov	r7, ip
100009d4:	4039      	ands	r1, r7
100009d6:	4f55      	ldr	r7, [pc, #340]	; (10000b2c <main+0x324>)
100009d8:	6039      	str	r1, [r7, #0]
100009da:	6ae9      	ldr	r1, [r5, #44]	; 0x2c
100009dc:	4041      	eors	r1, r0
100009de:	400a      	ands	r2, r1
100009e0:	4953      	ldr	r1, [pc, #332]	; (10000b30 <main+0x328>)
100009e2:	600a      	str	r2, [r1, #0]
100009e4:	6aea      	ldr	r2, [r5, #44]	; 0x2c
100009e6:	4013      	ands	r3, r2
100009e8:	600b      	str	r3, [r1, #0]
100009ea:	4b52      	ldr	r3, [pc, #328]	; (10000b34 <main+0x32c>)
100009ec:	469a      	mov	sl, r3
100009ee:	0019      	movs	r1, r3
100009f0:	384b      	subs	r0, #75	; 0x4b
100009f2:	f003 f8a1 	bl	10003b38 <irq_set_exclusive_handler>
100009f6:	2101      	movs	r1, #1
100009f8:	2015      	movs	r0, #21
100009fa:	f003 f873 	bl	10003ae4 <irq_set_enabled>
100009fe:	2350      	movs	r3, #80	; 0x50
10000a00:	4699      	mov	r9, r3
10000a02:	63b3      	str	r3, [r6, #56]	; 0x38
10000a04:	6b73      	ldr	r3, [r6, #52]	; 0x34
10000a06:	2638      	movs	r6, #56	; 0x38
10000a08:	4033      	ands	r3, r6
10000a0a:	4a4b      	ldr	r2, [pc, #300]	; (10000b38 <main+0x330>)
10000a0c:	6013      	str	r3, [r2, #0]
10000a0e:	4651      	mov	r1, sl
10000a10:	2014      	movs	r0, #20
10000a12:	f003 f891 	bl	10003b38 <irq_set_exclusive_handler>
10000a16:	2101      	movs	r1, #1
10000a18:	2014      	movs	r0, #20
10000a1a:	f003 f863 	bl	10003ae4 <irq_set_enabled>
10000a1e:	464b      	mov	r3, r9
10000a20:	63ab      	str	r3, [r5, #56]	; 0x38
10000a22:	6b6b      	ldr	r3, [r5, #52]	; 0x34
10000a24:	401e      	ands	r6, r3
10000a26:	4b45      	ldr	r3, [pc, #276]	; (10000b3c <main+0x334>)
10000a28:	601e      	str	r6, [r3, #0]
10000a2a:	4a45      	ldr	r2, [pc, #276]	; (10000b40 <main+0x338>)
10000a2c:	2300      	movs	r3, #0
10000a2e:	7013      	strb	r3, [r2, #0]
10000a30:	4a44      	ldr	r2, [pc, #272]	; (10000b44 <main+0x33c>)
10000a32:	7013      	strb	r3, [r2, #0]
10000a34:	4a44      	ldr	r2, [pc, #272]	; (10000b48 <main+0x340>)
10000a36:	7013      	strb	r3, [r2, #0]
10000a38:	4a44      	ldr	r2, [pc, #272]	; (10000b4c <main+0x344>)
10000a3a:	7013      	strb	r3, [r2, #0]
10000a3c:	465b      	mov	r3, fp
10000a3e:	6163      	str	r3, [r4, #20]
10000a40:	4b43      	ldr	r3, [pc, #268]	; (10000b50 <main+0x348>)
10000a42:	4642      	mov	r2, r8
10000a44:	801a      	strh	r2, [r3, #0]
10000a46:	4b42      	ldr	r3, [pc, #264]	; (10000b50 <main+0x348>)
10000a48:	881b      	ldrh	r3, [r3, #0]
10000a4a:	b29b      	uxth	r3, r3
10000a4c:	2b00      	cmp	r3, #0
10000a4e:	d1fa      	bne.n	10000a46 <main+0x23e>
10000a50:	4a40      	ldr	r2, [pc, #256]	; (10000b54 <main+0x34c>)
10000a52:	8013      	strh	r3, [r2, #0]
10000a54:	4a40      	ldr	r2, [pc, #256]	; (10000b58 <main+0x350>)
10000a56:	8013      	strh	r3, [r2, #0]
10000a58:	4a40      	ldr	r2, [pc, #256]	; (10000b5c <main+0x354>)
10000a5a:	8013      	strh	r3, [r2, #0]
10000a5c:	4a40      	ldr	r2, [pc, #256]	; (10000b60 <main+0x358>)
10000a5e:	8013      	strh	r3, [r2, #0]
10000a60:	4b40      	ldr	r3, [pc, #256]	; (10000b64 <main+0x35c>)
10000a62:	4a41      	ldr	r2, [pc, #260]	; (10000b68 <main+0x360>)
10000a64:	801a      	strh	r2, [r3, #0]
10000a66:	4b41      	ldr	r3, [pc, #260]	; (10000b6c <main+0x364>)
10000a68:	4a41      	ldr	r2, [pc, #260]	; (10000b70 <main+0x368>)
10000a6a:	801a      	strh	r2, [r3, #0]
10000a6c:	e013      	b.n	10000a96 <main+0x28e>
10000a6e:	f001 ff29 	bl	100028c4 <DAC_Check>
10000a72:	e016      	b.n	10000aa2 <main+0x29a>
10000a74:	f7ff fe82 	bl	1000077c <getTemperatureStatus>
10000a78:	4b3e      	ldr	r3, [pc, #248]	; (10000b74 <main+0x36c>)
10000a7a:	2200      	movs	r2, #0
10000a7c:	701a      	strb	r2, [r3, #0]
10000a7e:	e014      	b.n	10000aaa <main+0x2a2>
10000a80:	f000 ffa0 	bl	100019c4 <p2pPollSlaveWrite>
10000a84:	e007      	b.n	10000a96 <main+0x28e>
10000a86:	f000 fe93 	bl	100017b0 <p2pPollSlaveRead>
10000a8a:	e004      	b.n	10000a96 <main+0x28e>
10000a8c:	23d0      	movs	r3, #208	; 0xd0
10000a8e:	061b      	lsls	r3, r3, #24
10000a90:	2280      	movs	r2, #128	; 0x80
10000a92:	03d2      	lsls	r2, r2, #15
10000a94:	619a      	str	r2, [r3, #24]
10000a96:	f7ff feb3 	bl	10000800 <Watchdog>
10000a9a:	4b37      	ldr	r3, [pc, #220]	; (10000b78 <main+0x370>)
10000a9c:	781b      	ldrb	r3, [r3, #0]
10000a9e:	2b00      	cmp	r3, #0
10000aa0:	d1e5      	bne.n	10000a6e <main+0x266>
10000aa2:	4b34      	ldr	r3, [pc, #208]	; (10000b74 <main+0x36c>)
10000aa4:	781b      	ldrb	r3, [r3, #0]
10000aa6:	2b00      	cmp	r3, #0
10000aa8:	d1e4      	bne.n	10000a74 <main+0x26c>
10000aaa:	4b25      	ldr	r3, [pc, #148]	; (10000b40 <main+0x338>)
10000aac:	781b      	ldrb	r3, [r3, #0]
10000aae:	2b00      	cmp	r3, #0
10000ab0:	d1ec      	bne.n	10000a8c <main+0x284>
10000ab2:	23d0      	movs	r3, #208	; 0xd0
10000ab4:	061b      	lsls	r3, r3, #24
10000ab6:	2280      	movs	r2, #128	; 0x80
10000ab8:	03d2      	lsls	r2, r2, #15
10000aba:	615a      	str	r2, [r3, #20]
10000abc:	4b2f      	ldr	r3, [pc, #188]	; (10000b7c <main+0x374>)
10000abe:	2200      	movs	r2, #0
10000ac0:	701a      	strb	r2, [r3, #0]
10000ac2:	f000 f917 	bl	10000cf4 <p2pPollMaster>
10000ac6:	2800      	cmp	r0, #0
10000ac8:	d0e5      	beq.n	10000a96 <main+0x28e>
10000aca:	4b2d      	ldr	r3, [pc, #180]	; (10000b80 <main+0x378>)
10000acc:	881b      	ldrh	r3, [r3, #0]
10000ace:	b29b      	uxth	r3, r3
10000ad0:	2b02      	cmp	r3, #2
10000ad2:	d1d8      	bne.n	10000a86 <main+0x27e>
10000ad4:	4b1b      	ldr	r3, [pc, #108]	; (10000b44 <main+0x33c>)
10000ad6:	781b      	ldrb	r3, [r3, #0]
10000ad8:	2b00      	cmp	r3, #0
10000ada:	d0d1      	beq.n	10000a80 <main+0x278>
10000adc:	4b19      	ldr	r3, [pc, #100]	; (10000b44 <main+0x33c>)
10000ade:	2200      	movs	r2, #0
10000ae0:	701a      	strb	r2, [r3, #0]
10000ae2:	4b27      	ldr	r3, [pc, #156]	; (10000b80 <main+0x378>)
10000ae4:	801a      	strh	r2, [r3, #0]
10000ae6:	f001 fba1 	bl	1000222c <p2pPollSlaveWritePassThrough>
10000aea:	e7d4      	b.n	10000a96 <main+0x28e>
10000aec:	20001220 	.word	0x20001220
10000af0:	10000309 	.word	0x10000309
10000af4:	00001388 	.word	0x00001388
10000af8:	20001208 	.word	0x20001208
10000afc:	10000315 	.word	0x10000315
10000b00:	20001238 	.word	0x20001238
10000b04:	100003d1 	.word	0x100003d1
10000b08:	000186a0 	.word	0x000186a0
10000b0c:	20000c70 	.word	0x20000c70
10000b10:	4003c000 	.word	0x4003c000
10000b14:	4003e004 	.word	0x4003e004
10000b18:	100003f5 	.word	0x100003f5
10000b1c:	40038000 	.word	0x40038000
10000b20:	40034000 	.word	0x40034000
10000b24:	40039030 	.word	0x40039030
10000b28:	4003902c 	.word	0x4003902c
10000b2c:	40035030 	.word	0x40035030
10000b30:	4003502c 	.word	0x4003502c
10000b34:	10000575 	.word	0x10000575
10000b38:	40039034 	.word	0x40039034
10000b3c:	40035034 	.word	0x40035034
10000b40:	20001f62 	.word	0x20001f62
10000b44:	20001f64 	.word	0x20001f64
10000b48:	20001f65 	.word	0x20001f65
10000b4c:	20001f66 	.word	0x20001f66
10000b50:	20001f44 	.word	0x20001f44
10000b54:	20001f46 	.word	0x20001f46
10000b58:	20001f48 	.word	0x20001f48
10000b5c:	20001f4a 	.word	0x20001f4a
10000b60:	20001f4c 	.word	0x20001f4c
10000b64:	20001f50 	.word	0x20001f50
10000b68:	00003249 	.word	0x00003249
10000b6c:	20001f52 	.word	0x20001f52
10000b70:	0000382b 	.word	0x0000382b
10000b74:	20001f60 	.word	0x20001f60
10000b78:	20001f5f 	.word	0x20001f5f
10000b7c:	20001f61 	.word	0x20001f61
10000b80:	20001f42 	.word	0x20001f42

10000b84 <p2pTxByteMaster>:
10000b84:	b530      	push	{r4, r5, lr}
10000b86:	b083      	sub	sp, #12
10000b88:	0004      	movs	r4, r0
10000b8a:	4b17      	ldr	r3, [pc, #92]	; (10000be8 <p2pTxByteMaster+0x64>)
10000b8c:	699b      	ldr	r3, [r3, #24]
10000b8e:	2108      	movs	r1, #8
10000b90:	000a      	movs	r2, r1
10000b92:	401a      	ands	r2, r3
10000b94:	4219      	tst	r1, r3
10000b96:	d1f8      	bne.n	10000b8a <p2pTxByteMaster+0x6>
10000b98:	4b14      	ldr	r3, [pc, #80]	; (10000bec <p2pTxByteMaster+0x68>)
10000b9a:	2102      	movs	r1, #2
10000b9c:	5e5b      	ldrsh	r3, [r3, r1]
10000b9e:	42a3      	cmp	r3, r4
10000ba0:	d00e      	beq.n	10000bc0 <p2pTxByteMaster+0x3c>
10000ba2:	466b      	mov	r3, sp
10000ba4:	1dd9      	adds	r1, r3, #7
10000ba6:	700c      	strb	r4, [r1, #0]
10000ba8:	2a00      	cmp	r2, #0
10000baa:	d11a      	bne.n	10000be2 <p2pTxByteMaster+0x5e>
10000bac:	4b0e      	ldr	r3, [pc, #56]	; (10000be8 <p2pTxByteMaster+0x64>)
10000bae:	699b      	ldr	r3, [r3, #24]
10000bb0:	069b      	lsls	r3, r3, #26
10000bb2:	d4fb      	bmi.n	10000bac <p2pTxByteMaster+0x28>
10000bb4:	7808      	ldrb	r0, [r1, #0]
10000bb6:	4b0c      	ldr	r3, [pc, #48]	; (10000be8 <p2pTxByteMaster+0x64>)
10000bb8:	6018      	str	r0, [r3, #0]
10000bba:	3201      	adds	r2, #1
10000bbc:	3101      	adds	r1, #1
10000bbe:	e7f3      	b.n	10000ba8 <p2pTxByteMaster+0x24>
10000bc0:	466b      	mov	r3, sp
10000bc2:	1dd9      	adds	r1, r3, #7
10000bc4:	230d      	movs	r3, #13
10000bc6:	700b      	strb	r3, [r1, #0]
10000bc8:	0010      	movs	r0, r2
10000bca:	2800      	cmp	r0, #0
10000bcc:	d1e9      	bne.n	10000ba2 <p2pTxByteMaster+0x1e>
10000bce:	4b06      	ldr	r3, [pc, #24]	; (10000be8 <p2pTxByteMaster+0x64>)
10000bd0:	699b      	ldr	r3, [r3, #24]
10000bd2:	069b      	lsls	r3, r3, #26
10000bd4:	d4fb      	bmi.n	10000bce <p2pTxByteMaster+0x4a>
10000bd6:	780d      	ldrb	r5, [r1, #0]
10000bd8:	4b03      	ldr	r3, [pc, #12]	; (10000be8 <p2pTxByteMaster+0x64>)
10000bda:	601d      	str	r5, [r3, #0]
10000bdc:	3001      	adds	r0, #1
10000bde:	3101      	adds	r1, #1
10000be0:	e7f3      	b.n	10000bca <p2pTxByteMaster+0x46>
10000be2:	b003      	add	sp, #12
10000be4:	bd30      	pop	{r4, r5, pc}
10000be6:	46c0      	nop			; (mov r8, r8)
10000be8:	40038000 	.word	0x40038000
10000bec:	20001f28 	.word	0x20001f28

10000bf0 <p2pTxByteSlave>:
10000bf0:	b530      	push	{r4, r5, lr}
10000bf2:	b083      	sub	sp, #12
10000bf4:	0004      	movs	r4, r0
10000bf6:	4b17      	ldr	r3, [pc, #92]	; (10000c54 <p2pTxByteSlave+0x64>)
10000bf8:	699b      	ldr	r3, [r3, #24]
10000bfa:	2108      	movs	r1, #8
10000bfc:	000a      	movs	r2, r1
10000bfe:	401a      	ands	r2, r3
10000c00:	4219      	tst	r1, r3
10000c02:	d1f8      	bne.n	10000bf6 <p2pTxByteSlave+0x6>
10000c04:	4b14      	ldr	r3, [pc, #80]	; (10000c58 <p2pTxByteSlave+0x68>)
10000c06:	2100      	movs	r1, #0
10000c08:	5e5b      	ldrsh	r3, [r3, r1]
10000c0a:	42a3      	cmp	r3, r4
10000c0c:	d00e      	beq.n	10000c2c <p2pTxByteSlave+0x3c>
10000c0e:	466b      	mov	r3, sp
10000c10:	1dd9      	adds	r1, r3, #7
10000c12:	700c      	strb	r4, [r1, #0]
10000c14:	2a00      	cmp	r2, #0
10000c16:	d11a      	bne.n	10000c4e <p2pTxByteSlave+0x5e>
10000c18:	4b0e      	ldr	r3, [pc, #56]	; (10000c54 <p2pTxByteSlave+0x64>)
10000c1a:	699b      	ldr	r3, [r3, #24]
10000c1c:	069b      	lsls	r3, r3, #26
10000c1e:	d4fb      	bmi.n	10000c18 <p2pTxByteSlave+0x28>
10000c20:	7808      	ldrb	r0, [r1, #0]
10000c22:	4b0c      	ldr	r3, [pc, #48]	; (10000c54 <p2pTxByteSlave+0x64>)
10000c24:	6018      	str	r0, [r3, #0]
10000c26:	3201      	adds	r2, #1
10000c28:	3101      	adds	r1, #1
10000c2a:	e7f3      	b.n	10000c14 <p2pTxByteSlave+0x24>
10000c2c:	466b      	mov	r3, sp
10000c2e:	1dd9      	adds	r1, r3, #7
10000c30:	230d      	movs	r3, #13
10000c32:	700b      	strb	r3, [r1, #0]
10000c34:	0010      	movs	r0, r2
10000c36:	2800      	cmp	r0, #0
10000c38:	d1e9      	bne.n	10000c0e <p2pTxByteSlave+0x1e>
10000c3a:	4b06      	ldr	r3, [pc, #24]	; (10000c54 <p2pTxByteSlave+0x64>)
10000c3c:	699b      	ldr	r3, [r3, #24]
10000c3e:	069b      	lsls	r3, r3, #26
10000c40:	d4fb      	bmi.n	10000c3a <p2pTxByteSlave+0x4a>
10000c42:	780d      	ldrb	r5, [r1, #0]
10000c44:	4b03      	ldr	r3, [pc, #12]	; (10000c54 <p2pTxByteSlave+0x64>)
10000c46:	601d      	str	r5, [r3, #0]
10000c48:	3001      	adds	r0, #1
10000c4a:	3101      	adds	r1, #1
10000c4c:	e7f3      	b.n	10000c36 <p2pTxByteSlave+0x46>
10000c4e:	b003      	add	sp, #12
10000c50:	bd30      	pop	{r4, r5, pc}
10000c52:	46c0      	nop			; (mov r8, r8)
10000c54:	40034000 	.word	0x40034000
10000c58:	20001f28 	.word	0x20001f28

10000c5c <p2pRxByteMaster>:
10000c5c:	4b0f      	ldr	r3, [pc, #60]	; (10000c9c <p2pRxByteMaster+0x40>)
10000c5e:	881a      	ldrh	r2, [r3, #0]
10000c60:	b292      	uxth	r2, r2
10000c62:	4b0f      	ldr	r3, [pc, #60]	; (10000ca0 <p2pRxByteMaster+0x44>)
10000c64:	881b      	ldrh	r3, [r3, #0]
10000c66:	b29b      	uxth	r3, r3
10000c68:	429a      	cmp	r2, r3
10000c6a:	d015      	beq.n	10000c98 <p2pRxByteMaster+0x3c>
10000c6c:	4a0b      	ldr	r2, [pc, #44]	; (10000c9c <p2pRxByteMaster+0x40>)
10000c6e:	8813      	ldrh	r3, [r2, #0]
10000c70:	b299      	uxth	r1, r3
10000c72:	3301      	adds	r3, #1
10000c74:	b29b      	uxth	r3, r3
10000c76:	8013      	strh	r3, [r2, #0]
10000c78:	4b0a      	ldr	r3, [pc, #40]	; (10000ca4 <p2pRxByteMaster+0x48>)
10000c7a:	5c5b      	ldrb	r3, [r3, r1]
10000c7c:	7003      	strb	r3, [r0, #0]
10000c7e:	8813      	ldrh	r3, [r2, #0]
10000c80:	b29b      	uxth	r3, r3
10000c82:	228c      	movs	r2, #140	; 0x8c
10000c84:	0092      	lsls	r2, r2, #2
10000c86:	4293      	cmp	r3, r2
10000c88:	d001      	beq.n	10000c8e <p2pRxByteMaster+0x32>
10000c8a:	2001      	movs	r0, #1
10000c8c:	4770      	bx	lr
10000c8e:	4b03      	ldr	r3, [pc, #12]	; (10000c9c <p2pRxByteMaster+0x40>)
10000c90:	2200      	movs	r2, #0
10000c92:	801a      	strh	r2, [r3, #0]
10000c94:	2001      	movs	r0, #1
10000c96:	e7f9      	b.n	10000c8c <p2pRxByteMaster+0x30>
10000c98:	2000      	movs	r0, #0
10000c9a:	e7f7      	b.n	10000c8c <p2pRxByteMaster+0x30>
10000c9c:	20001f46 	.word	0x20001f46
10000ca0:	20001f48 	.word	0x20001f48
10000ca4:	20000ca0 	.word	0x20000ca0

10000ca8 <p2pRxByteSlave>:
10000ca8:	4b0f      	ldr	r3, [pc, #60]	; (10000ce8 <p2pRxByteSlave+0x40>)
10000caa:	881a      	ldrh	r2, [r3, #0]
10000cac:	b292      	uxth	r2, r2
10000cae:	4b0f      	ldr	r3, [pc, #60]	; (10000cec <p2pRxByteSlave+0x44>)
10000cb0:	881b      	ldrh	r3, [r3, #0]
10000cb2:	b29b      	uxth	r3, r3
10000cb4:	429a      	cmp	r2, r3
10000cb6:	d015      	beq.n	10000ce4 <p2pRxByteSlave+0x3c>
10000cb8:	4a0b      	ldr	r2, [pc, #44]	; (10000ce8 <p2pRxByteSlave+0x40>)
10000cba:	8813      	ldrh	r3, [r2, #0]
10000cbc:	b299      	uxth	r1, r3
10000cbe:	3301      	adds	r3, #1
10000cc0:	b29b      	uxth	r3, r3
10000cc2:	8013      	strh	r3, [r2, #0]
10000cc4:	4b0a      	ldr	r3, [pc, #40]	; (10000cf0 <p2pRxByteSlave+0x48>)
10000cc6:	5c5b      	ldrb	r3, [r3, r1]
10000cc8:	7003      	strb	r3, [r0, #0]
10000cca:	8813      	ldrh	r3, [r2, #0]
10000ccc:	b29b      	uxth	r3, r3
10000cce:	228c      	movs	r2, #140	; 0x8c
10000cd0:	0092      	lsls	r2, r2, #2
10000cd2:	4293      	cmp	r3, r2
10000cd4:	d001      	beq.n	10000cda <p2pRxByteSlave+0x32>
10000cd6:	2001      	movs	r0, #1
10000cd8:	4770      	bx	lr
10000cda:	4b03      	ldr	r3, [pc, #12]	; (10000ce8 <p2pRxByteSlave+0x40>)
10000cdc:	2200      	movs	r2, #0
10000cde:	801a      	strh	r2, [r3, #0]
10000ce0:	2001      	movs	r0, #1
10000ce2:	e7f9      	b.n	10000cd8 <p2pRxByteSlave+0x30>
10000ce4:	2000      	movs	r0, #0
10000ce6:	e7f7      	b.n	10000cd8 <p2pRxByteSlave+0x30>
10000ce8:	20001f4a 	.word	0x20001f4a
10000cec:	20001f4c 	.word	0x20001f4c
10000cf0:	20000ed0 	.word	0x20000ed0

10000cf4 <p2pPollMaster>:
10000cf4:	b5f0      	push	{r4, r5, r6, r7, lr}
10000cf6:	46ce      	mov	lr, r9
10000cf8:	4647      	mov	r7, r8
10000cfa:	b580      	push	{r7, lr}
10000cfc:	b083      	sub	sp, #12
10000cfe:	2300      	movs	r3, #0
10000d00:	466a      	mov	r2, sp
10000d02:	71d3      	strb	r3, [r2, #7]
10000d04:	4ab5      	ldr	r2, [pc, #724]	; (10000fdc <p2pPollMaster+0x2e8>)
10000d06:	7013      	strb	r3, [r2, #0]
10000d08:	4ab5      	ldr	r2, [pc, #724]	; (10000fe0 <p2pPollMaster+0x2ec>)
10000d0a:	8013      	strh	r3, [r2, #0]
10000d0c:	4bb5      	ldr	r3, [pc, #724]	; (10000fe4 <p2pPollMaster+0x2f0>)
10000d0e:	22fa      	movs	r2, #250	; 0xfa
10000d10:	0052      	lsls	r2, r2, #1
10000d12:	801a      	strh	r2, [r3, #0]
10000d14:	2600      	movs	r6, #0
10000d16:	2700      	movs	r7, #0
10000d18:	2501      	movs	r5, #1
10000d1a:	2d00      	cmp	r5, #0
10000d1c:	d101      	bne.n	10000d22 <p2pPollMaster+0x2e>
10000d1e:	f000 fd1f 	bl	10001760 <p2pPollMaster+0xa6c>
10000d22:	4bb0      	ldr	r3, [pc, #704]	; (10000fe4 <p2pPollMaster+0x2f0>)
10000d24:	881b      	ldrh	r3, [r3, #0]
10000d26:	b29b      	uxth	r3, r3
10000d28:	2b00      	cmp	r3, #0
10000d2a:	d101      	bne.n	10000d30 <p2pPollMaster+0x3c>
10000d2c:	f000 fd18 	bl	10001760 <p2pPollMaster+0xa6c>
10000d30:	466b      	mov	r3, sp
10000d32:	1dd8      	adds	r0, r3, #7
10000d34:	f7ff ff92 	bl	10000c5c <p2pRxByteMaster>
10000d38:	0004      	movs	r4, r0
10000d3a:	2801      	cmp	r0, #1
10000d3c:	d1ed      	bne.n	10000d1a <p2pPollMaster+0x26>
10000d3e:	4ba9      	ldr	r3, [pc, #676]	; (10000fe4 <p2pPollMaster+0x2f0>)
10000d40:	22fa      	movs	r2, #250	; 0xfa
10000d42:	0052      	lsls	r2, r2, #1
10000d44:	801a      	strh	r2, [r3, #0]
10000d46:	466b      	mov	r3, sp
10000d48:	3307      	adds	r3, #7
10000d4a:	781b      	ldrb	r3, [r3, #0]
10000d4c:	2b10      	cmp	r3, #16
10000d4e:	d002      	beq.n	10000d56 <p2pPollMaster+0x62>
10000d50:	2600      	movs	r6, #0
10000d52:	2700      	movs	r7, #0
10000d54:	e7e1      	b.n	10000d1a <p2pPollMaster+0x26>
10000d56:	18ff      	adds	r7, r7, r3
10000d58:	b2bf      	uxth	r7, r7
10000d5a:	0231      	lsls	r1, r6, #8
10000d5c:	0a36      	lsrs	r6, r6, #8
10000d5e:	4073      	eors	r3, r6
10000d60:	4aa1      	ldr	r2, [pc, #644]	; (10000fe8 <p2pPollMaster+0x2f4>)
10000d62:	005b      	lsls	r3, r3, #1
10000d64:	5a9e      	ldrh	r6, [r3, r2]
10000d66:	404e      	eors	r6, r1
10000d68:	b2b6      	uxth	r6, r6
10000d6a:	466b      	mov	r3, sp
10000d6c:	1dd8      	adds	r0, r3, #7
10000d6e:	f7ff ff75 	bl	10000c5c <p2pRxByteMaster>
10000d72:	2801      	cmp	r0, #1
10000d74:	d004      	beq.n	10000d80 <p2pPollMaster+0x8c>
10000d76:	4b9b      	ldr	r3, [pc, #620]	; (10000fe4 <p2pPollMaster+0x2f0>)
10000d78:	881b      	ldrh	r3, [r3, #0]
10000d7a:	b29b      	uxth	r3, r3
10000d7c:	2b00      	cmp	r3, #0
10000d7e:	d1f4      	bne.n	10000d6a <p2pPollMaster+0x76>
10000d80:	466b      	mov	r3, sp
10000d82:	3307      	adds	r3, #7
10000d84:	781b      	ldrb	r3, [r3, #0]
10000d86:	2b13      	cmp	r3, #19
10000d88:	d01f      	beq.n	10000dca <p2pPollMaster+0xd6>
10000d8a:	2b15      	cmp	r3, #21
10000d8c:	d100      	bne.n	10000d90 <p2pPollMaster+0x9c>
10000d8e:	e2fd      	b.n	1000138c <p2pPollMaster+0x698>
10000d90:	2b21      	cmp	r3, #33	; 0x21
10000d92:	d1c2      	bne.n	10000d1a <p2pPollMaster+0x26>
10000d94:	4b93      	ldr	r3, [pc, #588]	; (10000fe4 <p2pPollMaster+0x2f0>)
10000d96:	881b      	ldrh	r3, [r3, #0]
10000d98:	b29b      	uxth	r3, r3
10000d9a:	2b00      	cmp	r3, #0
10000d9c:	d0bd      	beq.n	10000d1a <p2pPollMaster+0x26>
10000d9e:	466b      	mov	r3, sp
10000da0:	1dd8      	adds	r0, r3, #7
10000da2:	f7ff ff5b 	bl	10000c5c <p2pRxByteMaster>
10000da6:	2801      	cmp	r0, #1
10000da8:	d004      	beq.n	10000db4 <p2pPollMaster+0xc0>
10000daa:	4b8e      	ldr	r3, [pc, #568]	; (10000fe4 <p2pPollMaster+0x2f0>)
10000dac:	881b      	ldrh	r3, [r3, #0]
10000dae:	b29b      	uxth	r3, r3
10000db0:	2b00      	cmp	r3, #0
10000db2:	d1f4      	bne.n	10000d9e <p2pPollMaster+0xaa>
10000db4:	4b89      	ldr	r3, [pc, #548]	; (10000fdc <p2pPollMaster+0x2e8>)
10000db6:	2201      	movs	r2, #1
10000db8:	701a      	strb	r2, [r3, #0]
10000dba:	4b8c      	ldr	r3, [pc, #560]	; (10000fec <p2pPollMaster+0x2f8>)
10000dbc:	466a      	mov	r2, sp
10000dbe:	3207      	adds	r2, #7
10000dc0:	7812      	ldrb	r2, [r2, #0]
10000dc2:	701a      	strb	r2, [r3, #0]
10000dc4:	2600      	movs	r6, #0
10000dc6:	2700      	movs	r7, #0
10000dc8:	e7a7      	b.n	10000d1a <p2pPollMaster+0x26>
10000dca:	4a86      	ldr	r2, [pc, #536]	; (10000fe4 <p2pPollMaster+0x2f0>)
10000dcc:	8812      	ldrh	r2, [r2, #0]
10000dce:	b292      	uxth	r2, r2
10000dd0:	2a00      	cmp	r2, #0
10000dd2:	d0da      	beq.n	10000d8a <p2pPollMaster+0x96>
10000dd4:	4a82      	ldr	r2, [pc, #520]	; (10000fe0 <p2pPollMaster+0x2ec>)
10000dd6:	2101      	movs	r1, #1
10000dd8:	8011      	strh	r1, [r2, #0]
10000dda:	18ff      	adds	r7, r7, r3
10000ddc:	b2bf      	uxth	r7, r7
10000dde:	0231      	lsls	r1, r6, #8
10000de0:	0a36      	lsrs	r6, r6, #8
10000de2:	4073      	eors	r3, r6
10000de4:	4a80      	ldr	r2, [pc, #512]	; (10000fe8 <p2pPollMaster+0x2f4>)
10000de6:	005b      	lsls	r3, r3, #1
10000de8:	5a9e      	ldrh	r6, [r3, r2]
10000dea:	404e      	eors	r6, r1
10000dec:	b2b6      	uxth	r6, r6
10000dee:	466b      	mov	r3, sp
10000df0:	1dd8      	adds	r0, r3, #7
10000df2:	f7ff ff33 	bl	10000c5c <p2pRxByteMaster>
10000df6:	2801      	cmp	r0, #1
10000df8:	d004      	beq.n	10000e04 <p2pPollMaster+0x110>
10000dfa:	4b7a      	ldr	r3, [pc, #488]	; (10000fe4 <p2pPollMaster+0x2f0>)
10000dfc:	881b      	ldrh	r3, [r3, #0]
10000dfe:	b29b      	uxth	r3, r3
10000e00:	2b00      	cmp	r3, #0
10000e02:	d1f4      	bne.n	10000dee <p2pPollMaster+0xfa>
10000e04:	466b      	mov	r3, sp
10000e06:	3307      	adds	r3, #7
10000e08:	781b      	ldrb	r3, [r3, #0]
10000e0a:	2bff      	cmp	r3, #255	; 0xff
10000e0c:	d000      	beq.n	10000e10 <p2pPollMaster+0x11c>
10000e0e:	e23f      	b.n	10001290 <p2pPollMaster+0x59c>
10000e10:	4a74      	ldr	r2, [pc, #464]	; (10000fe4 <p2pPollMaster+0x2f0>)
10000e12:	8812      	ldrh	r2, [r2, #0]
10000e14:	b292      	uxth	r2, r2
10000e16:	2a00      	cmp	r2, #0
10000e18:	d100      	bne.n	10000e1c <p2pPollMaster+0x128>
10000e1a:	e239      	b.n	10001290 <p2pPollMaster+0x59c>
10000e1c:	18ff      	adds	r7, r7, r3
10000e1e:	b2bf      	uxth	r7, r7
10000e20:	0231      	lsls	r1, r6, #8
10000e22:	0a36      	lsrs	r6, r6, #8
10000e24:	4073      	eors	r3, r6
10000e26:	4a70      	ldr	r2, [pc, #448]	; (10000fe8 <p2pPollMaster+0x2f4>)
10000e28:	005b      	lsls	r3, r3, #1
10000e2a:	5a9e      	ldrh	r6, [r3, r2]
10000e2c:	404e      	eors	r6, r1
10000e2e:	b2b6      	uxth	r6, r6
10000e30:	466b      	mov	r3, sp
10000e32:	1dd8      	adds	r0, r3, #7
10000e34:	f7ff ff12 	bl	10000c5c <p2pRxByteMaster>
10000e38:	2801      	cmp	r0, #1
10000e3a:	d004      	beq.n	10000e46 <p2pPollMaster+0x152>
10000e3c:	4b69      	ldr	r3, [pc, #420]	; (10000fe4 <p2pPollMaster+0x2f0>)
10000e3e:	881b      	ldrh	r3, [r3, #0]
10000e40:	b29b      	uxth	r3, r3
10000e42:	2b00      	cmp	r3, #0
10000e44:	d1f4      	bne.n	10000e30 <p2pPollMaster+0x13c>
10000e46:	4b67      	ldr	r3, [pc, #412]	; (10000fe4 <p2pPollMaster+0x2f0>)
10000e48:	881b      	ldrh	r3, [r3, #0]
10000e4a:	b29b      	uxth	r3, r3
10000e4c:	2b00      	cmp	r3, #0
10000e4e:	d101      	bne.n	10000e54 <p2pPollMaster+0x160>
10000e50:	2500      	movs	r5, #0
10000e52:	e762      	b.n	10000d1a <p2pPollMaster+0x26>
10000e54:	466b      	mov	r3, sp
10000e56:	3307      	adds	r3, #7
10000e58:	781b      	ldrb	r3, [r3, #0]
10000e5a:	b298      	uxth	r0, r3
10000e5c:	19df      	adds	r7, r3, r7
10000e5e:	b2bf      	uxth	r7, r7
10000e60:	0235      	lsls	r5, r6, #8
10000e62:	0a32      	lsrs	r2, r6, #8
10000e64:	405a      	eors	r2, r3
10000e66:	4960      	ldr	r1, [pc, #384]	; (10000fe8 <p2pPollMaster+0x2f4>)
10000e68:	0052      	lsls	r2, r2, #1
10000e6a:	5a56      	ldrh	r6, [r2, r1]
10000e6c:	406e      	eors	r6, r5
10000e6e:	b2b6      	uxth	r6, r6
10000e70:	2800      	cmp	r0, #0
10000e72:	d119      	bne.n	10000ea8 <p2pPollMaster+0x1b4>
10000e74:	4b5e      	ldr	r3, [pc, #376]	; (10000ff0 <p2pPollMaster+0x2fc>)
10000e76:	2201      	movs	r2, #1
10000e78:	701a      	strb	r2, [r3, #0]
10000e7a:	466b      	mov	r3, sp
10000e7c:	3307      	adds	r3, #7
10000e7e:	781b      	ldrb	r3, [r3, #0]
10000e80:	2b10      	cmp	r3, #16
10000e82:	d019      	beq.n	10000eb8 <p2pPollMaster+0x1c4>
10000e84:	466b      	mov	r3, sp
10000e86:	1dd8      	adds	r0, r3, #7
10000e88:	f7ff fee8 	bl	10000c5c <p2pRxByteMaster>
10000e8c:	2801      	cmp	r0, #1
10000e8e:	d004      	beq.n	10000e9a <p2pPollMaster+0x1a6>
10000e90:	4b54      	ldr	r3, [pc, #336]	; (10000fe4 <p2pPollMaster+0x2f0>)
10000e92:	881b      	ldrh	r3, [r3, #0]
10000e94:	b29b      	uxth	r3, r3
10000e96:	2b00      	cmp	r3, #0
10000e98:	d1f4      	bne.n	10000e84 <p2pPollMaster+0x190>
10000e9a:	4b52      	ldr	r3, [pc, #328]	; (10000fe4 <p2pPollMaster+0x2f0>)
10000e9c:	881b      	ldrh	r3, [r3, #0]
10000e9e:	b29b      	uxth	r3, r3
10000ea0:	2b00      	cmp	r3, #0
10000ea2:	d122      	bne.n	10000eea <p2pPollMaster+0x1f6>
10000ea4:	2500      	movs	r5, #0
10000ea6:	e738      	b.n	10000d1a <p2pPollMaster+0x26>
10000ea8:	4a51      	ldr	r2, [pc, #324]	; (10000ff0 <p2pPollMaster+0x2fc>)
10000eaa:	2100      	movs	r1, #0
10000eac:	7011      	strb	r1, [r2, #0]
10000eae:	3b01      	subs	r3, #1
10000eb0:	b2d8      	uxtb	r0, r3
10000eb2:	f001 faef 	bl	10002494 <MUX_Set>
10000eb6:	e7e0      	b.n	10000e7a <p2pPollMaster+0x186>
10000eb8:	466b      	mov	r3, sp
10000eba:	1dd8      	adds	r0, r3, #7
10000ebc:	f7ff fece 	bl	10000c5c <p2pRxByteMaster>
10000ec0:	2801      	cmp	r0, #1
10000ec2:	d004      	beq.n	10000ece <p2pPollMaster+0x1da>
10000ec4:	4b47      	ldr	r3, [pc, #284]	; (10000fe4 <p2pPollMaster+0x2f0>)
10000ec6:	881b      	ldrh	r3, [r3, #0]
10000ec8:	b29b      	uxth	r3, r3
10000eca:	2b00      	cmp	r3, #0
10000ecc:	d1f4      	bne.n	10000eb8 <p2pPollMaster+0x1c4>
10000ece:	466b      	mov	r3, sp
10000ed0:	3307      	adds	r3, #7
10000ed2:	781b      	ldrb	r3, [r3, #0]
10000ed4:	18ff      	adds	r7, r7, r3
10000ed6:	b2bf      	uxth	r7, r7
10000ed8:	0231      	lsls	r1, r6, #8
10000eda:	0a36      	lsrs	r6, r6, #8
10000edc:	4073      	eors	r3, r6
10000ede:	4a42      	ldr	r2, [pc, #264]	; (10000fe8 <p2pPollMaster+0x2f4>)
10000ee0:	005b      	lsls	r3, r3, #1
10000ee2:	5a9e      	ldrh	r6, [r3, r2]
10000ee4:	404e      	eors	r6, r1
10000ee6:	b2b6      	uxth	r6, r6
10000ee8:	e7cc      	b.n	10000e84 <p2pPollMaster+0x190>
10000eea:	466b      	mov	r3, sp
10000eec:	79da      	ldrb	r2, [r3, #7]
10000eee:	4b41      	ldr	r3, [pc, #260]	; (10000ff4 <p2pPollMaster+0x300>)
10000ef0:	701a      	strb	r2, [r3, #0]
10000ef2:	18bf      	adds	r7, r7, r2
10000ef4:	b2bf      	uxth	r7, r7
10000ef6:	0230      	lsls	r0, r6, #8
10000ef8:	0a33      	lsrs	r3, r6, #8
10000efa:	4053      	eors	r3, r2
10000efc:	493a      	ldr	r1, [pc, #232]	; (10000fe8 <p2pPollMaster+0x2f4>)
10000efe:	005b      	lsls	r3, r3, #1
10000f00:	5a5e      	ldrh	r6, [r3, r1]
10000f02:	4046      	eors	r6, r0
10000f04:	b2b6      	uxth	r6, r6
10000f06:	2a10      	cmp	r2, #16
10000f08:	d011      	beq.n	10000f2e <p2pPollMaster+0x23a>
10000f0a:	466b      	mov	r3, sp
10000f0c:	1dd8      	adds	r0, r3, #7
10000f0e:	f7ff fea5 	bl	10000c5c <p2pRxByteMaster>
10000f12:	2801      	cmp	r0, #1
10000f14:	d004      	beq.n	10000f20 <p2pPollMaster+0x22c>
10000f16:	4b33      	ldr	r3, [pc, #204]	; (10000fe4 <p2pPollMaster+0x2f0>)
10000f18:	881b      	ldrh	r3, [r3, #0]
10000f1a:	b29b      	uxth	r3, r3
10000f1c:	2b00      	cmp	r3, #0
10000f1e:	d1f4      	bne.n	10000f0a <p2pPollMaster+0x216>
10000f20:	4b30      	ldr	r3, [pc, #192]	; (10000fe4 <p2pPollMaster+0x2f0>)
10000f22:	881b      	ldrh	r3, [r3, #0]
10000f24:	b29b      	uxth	r3, r3
10000f26:	2b00      	cmp	r3, #0
10000f28:	d11a      	bne.n	10000f60 <p2pPollMaster+0x26c>
10000f2a:	2500      	movs	r5, #0
10000f2c:	e6f5      	b.n	10000d1a <p2pPollMaster+0x26>
10000f2e:	466b      	mov	r3, sp
10000f30:	1dd8      	adds	r0, r3, #7
10000f32:	f7ff fe93 	bl	10000c5c <p2pRxByteMaster>
10000f36:	2801      	cmp	r0, #1
10000f38:	d004      	beq.n	10000f44 <p2pPollMaster+0x250>
10000f3a:	4b2a      	ldr	r3, [pc, #168]	; (10000fe4 <p2pPollMaster+0x2f0>)
10000f3c:	881b      	ldrh	r3, [r3, #0]
10000f3e:	b29b      	uxth	r3, r3
10000f40:	2b00      	cmp	r3, #0
10000f42:	d1f4      	bne.n	10000f2e <p2pPollMaster+0x23a>
10000f44:	466b      	mov	r3, sp
10000f46:	3307      	adds	r3, #7
10000f48:	781b      	ldrb	r3, [r3, #0]
10000f4a:	18ff      	adds	r7, r7, r3
10000f4c:	b2bf      	uxth	r7, r7
10000f4e:	0231      	lsls	r1, r6, #8
10000f50:	0a36      	lsrs	r6, r6, #8
10000f52:	4073      	eors	r3, r6
10000f54:	4a24      	ldr	r2, [pc, #144]	; (10000fe8 <p2pPollMaster+0x2f4>)
10000f56:	005b      	lsls	r3, r3, #1
10000f58:	5a9e      	ldrh	r6, [r3, r2]
10000f5a:	404e      	eors	r6, r1
10000f5c:	b2b6      	uxth	r6, r6
10000f5e:	e7d4      	b.n	10000f0a <p2pPollMaster+0x216>
10000f60:	466b      	mov	r3, sp
10000f62:	3307      	adds	r3, #7
10000f64:	781b      	ldrb	r3, [r3, #0]
10000f66:	18ff      	adds	r7, r7, r3
10000f68:	b2bf      	uxth	r7, r7
10000f6a:	0231      	lsls	r1, r6, #8
10000f6c:	0a36      	lsrs	r6, r6, #8
10000f6e:	4073      	eors	r3, r6
10000f70:	4a1d      	ldr	r2, [pc, #116]	; (10000fe8 <p2pPollMaster+0x2f4>)
10000f72:	005b      	lsls	r3, r3, #1
10000f74:	5a9e      	ldrh	r6, [r3, r2]
10000f76:	404e      	eors	r6, r1
10000f78:	b2b6      	uxth	r6, r6
10000f7a:	466b      	mov	r3, sp
10000f7c:	1dd8      	adds	r0, r3, #7
10000f7e:	f7ff fe6d 	bl	10000c5c <p2pRxByteMaster>
10000f82:	2801      	cmp	r0, #1
10000f84:	d004      	beq.n	10000f90 <p2pPollMaster+0x29c>
10000f86:	4b17      	ldr	r3, [pc, #92]	; (10000fe4 <p2pPollMaster+0x2f0>)
10000f88:	881b      	ldrh	r3, [r3, #0]
10000f8a:	b29b      	uxth	r3, r3
10000f8c:	2b00      	cmp	r3, #0
10000f8e:	d1f4      	bne.n	10000f7a <p2pPollMaster+0x286>
10000f90:	4b14      	ldr	r3, [pc, #80]	; (10000fe4 <p2pPollMaster+0x2f0>)
10000f92:	881b      	ldrh	r3, [r3, #0]
10000f94:	b29b      	uxth	r3, r3
10000f96:	2b00      	cmp	r3, #0
10000f98:	d101      	bne.n	10000f9e <p2pPollMaster+0x2aa>
10000f9a:	2500      	movs	r5, #0
10000f9c:	e6bd      	b.n	10000d1a <p2pPollMaster+0x26>
10000f9e:	466b      	mov	r3, sp
10000fa0:	3307      	adds	r3, #7
10000fa2:	781b      	ldrb	r3, [r3, #0]
10000fa4:	18ff      	adds	r7, r7, r3
10000fa6:	b2bf      	uxth	r7, r7
10000fa8:	0231      	lsls	r1, r6, #8
10000faa:	0a36      	lsrs	r6, r6, #8
10000fac:	4073      	eors	r3, r6
10000fae:	4a0e      	ldr	r2, [pc, #56]	; (10000fe8 <p2pPollMaster+0x2f4>)
10000fb0:	005b      	lsls	r3, r3, #1
10000fb2:	5a9e      	ldrh	r6, [r3, r2]
10000fb4:	404e      	eors	r6, r1
10000fb6:	b2b6      	uxth	r6, r6
10000fb8:	466b      	mov	r3, sp
10000fba:	1dd8      	adds	r0, r3, #7
10000fbc:	f7ff fe4e 	bl	10000c5c <p2pRxByteMaster>
10000fc0:	2801      	cmp	r0, #1
10000fc2:	d004      	beq.n	10000fce <p2pPollMaster+0x2da>
10000fc4:	4b07      	ldr	r3, [pc, #28]	; (10000fe4 <p2pPollMaster+0x2f0>)
10000fc6:	881b      	ldrh	r3, [r3, #0]
10000fc8:	b29b      	uxth	r3, r3
10000fca:	2b00      	cmp	r3, #0
10000fcc:	d1f4      	bne.n	10000fb8 <p2pPollMaster+0x2c4>
10000fce:	4b05      	ldr	r3, [pc, #20]	; (10000fe4 <p2pPollMaster+0x2f0>)
10000fd0:	881b      	ldrh	r3, [r3, #0]
10000fd2:	b29b      	uxth	r3, r3
10000fd4:	2b00      	cmp	r3, #0
10000fd6:	d10f      	bne.n	10000ff8 <p2pPollMaster+0x304>
10000fd8:	2500      	movs	r5, #0
10000fda:	e69e      	b.n	10000d1a <p2pPollMaster+0x26>
10000fdc:	20001f63 	.word	0x20001f63
10000fe0:	20001f42 	.word	0x20001f42
10000fe4:	20001f44 	.word	0x20001f44
10000fe8:	1000abb8 	.word	0x1000abb8
10000fec:	20001f68 	.word	0x20001f68
10000ff0:	20001f61 	.word	0x20001f61
10000ff4:	20001f67 	.word	0x20001f67
10000ff8:	466b      	mov	r3, sp
10000ffa:	79dd      	ldrb	r5, [r3, #7]
10000ffc:	022d      	lsls	r5, r5, #8
10000ffe:	466b      	mov	r3, sp
10001000:	1dd8      	adds	r0, r3, #7
10001002:	f7ff fe2b 	bl	10000c5c <p2pRxByteMaster>
10001006:	2801      	cmp	r0, #1
10001008:	d004      	beq.n	10001014 <p2pPollMaster+0x320>
1000100a:	4b96      	ldr	r3, [pc, #600]	; (10001264 <p2pPollMaster+0x570>)
1000100c:	881b      	ldrh	r3, [r3, #0]
1000100e:	b29b      	uxth	r3, r3
10001010:	2b00      	cmp	r3, #0
10001012:	d1f4      	bne.n	10000ffe <p2pPollMaster+0x30a>
10001014:	4b93      	ldr	r3, [pc, #588]	; (10001264 <p2pPollMaster+0x570>)
10001016:	881b      	ldrh	r3, [r3, #0]
10001018:	b29b      	uxth	r3, r3
1000101a:	2b00      	cmp	r3, #0
1000101c:	d100      	bne.n	10001020 <p2pPollMaster+0x32c>
1000101e:	e390      	b.n	10001742 <p2pPollMaster+0xa4e>
10001020:	466b      	mov	r3, sp
10001022:	3307      	adds	r3, #7
10001024:	781b      	ldrb	r3, [r3, #0]
10001026:	18eb      	adds	r3, r5, r3
10001028:	b29b      	uxth	r3, r3
1000102a:	429f      	cmp	r7, r3
1000102c:	d002      	beq.n	10001034 <p2pPollMaster+0x340>
1000102e:	429e      	cmp	r6, r3
10001030:	d115      	bne.n	1000105e <p2pPollMaster+0x36a>
10001032:	2402      	movs	r4, #2
10001034:	200a      	movs	r0, #10
10001036:	f003 fe19 	bl	10004c6c <sleep_ms>
1000103a:	4b8b      	ldr	r3, [pc, #556]	; (10001268 <p2pPollMaster+0x574>)
1000103c:	781b      	ldrb	r3, [r3, #0]
1000103e:	2b00      	cmp	r3, #0
10001040:	d118      	bne.n	10001074 <p2pPollMaster+0x380>
10001042:	4b8a      	ldr	r3, [pc, #552]	; (1000126c <p2pPollMaster+0x578>)
10001044:	2200      	movs	r2, #0
10001046:	801a      	strh	r2, [r3, #0]
10001048:	4b89      	ldr	r3, [pc, #548]	; (10001270 <p2pPollMaster+0x57c>)
1000104a:	781b      	ldrb	r3, [r3, #0]
1000104c:	b2dd      	uxtb	r5, r3
1000104e:	4293      	cmp	r3, r2
10001050:	d01b      	beq.n	1000108a <p2pPollMaster+0x396>
10001052:	4b88      	ldr	r3, [pc, #544]	; (10001274 <p2pPollMaster+0x580>)
10001054:	781b      	ldrb	r3, [r3, #0]
10001056:	2bfd      	cmp	r3, #253	; 0xfd
10001058:	d056      	beq.n	10001108 <p2pPollMaster+0x414>
1000105a:	2500      	movs	r5, #0
1000105c:	e65d      	b.n	10000d1a <p2pPollMaster+0x26>
1000105e:	2010      	movs	r0, #16
10001060:	f7ff fd90 	bl	10000b84 <p2pTxByteMaster>
10001064:	2019      	movs	r0, #25
10001066:	f7ff fd8d 	bl	10000b84 <p2pTxByteMaster>
1000106a:	2006      	movs	r0, #6
1000106c:	f7ff fd8a 	bl	10000b84 <p2pTxByteMaster>
10001070:	2400      	movs	r4, #0
10001072:	e7df      	b.n	10001034 <p2pPollMaster+0x340>
10001074:	4980      	ldr	r1, [pc, #512]	; (10001278 <p2pPollMaster+0x584>)
10001076:	4881      	ldr	r0, [pc, #516]	; (1000127c <p2pPollMaster+0x588>)
10001078:	4a81      	ldr	r2, [pc, #516]	; (10001280 <p2pPollMaster+0x58c>)
1000107a:	f009 fc91 	bl	1000a9a0 <memmove>
1000107e:	4a81      	ldr	r2, [pc, #516]	; (10001284 <p2pPollMaster+0x590>)
10001080:	8813      	ldrh	r3, [r2, #0]
10001082:	3b03      	subs	r3, #3
10001084:	b29b      	uxth	r3, r3
10001086:	8013      	strh	r3, [r2, #0]
10001088:	e7db      	b.n	10001042 <p2pPollMaster+0x34e>
1000108a:	4690      	mov	r8, r2
1000108c:	e019      	b.n	100010c2 <p2pPollMaster+0x3ce>
1000108e:	4b7b      	ldr	r3, [pc, #492]	; (1000127c <p2pPollMaster+0x588>)
10001090:	464a      	mov	r2, r9
10001092:	5c98      	ldrb	r0, [r3, r2]
10001094:	f7ff fdac 	bl	10000bf0 <p2pTxByteSlave>
10001098:	2c01      	cmp	r4, #1
1000109a:	d024      	beq.n	100010e6 <p2pPollMaster+0x3f2>
1000109c:	4973      	ldr	r1, [pc, #460]	; (1000126c <p2pPollMaster+0x578>)
1000109e:	880b      	ldrh	r3, [r1, #0]
100010a0:	0218      	lsls	r0, r3, #8
100010a2:	0a1b      	lsrs	r3, r3, #8
100010a4:	469c      	mov	ip, r3
100010a6:	4a75      	ldr	r2, [pc, #468]	; (1000127c <p2pPollMaster+0x588>)
100010a8:	464b      	mov	r3, r9
100010aa:	5cd2      	ldrb	r2, [r2, r3]
100010ac:	4663      	mov	r3, ip
100010ae:	4053      	eors	r3, r2
100010b0:	4a75      	ldr	r2, [pc, #468]	; (10001288 <p2pPollMaster+0x594>)
100010b2:	005b      	lsls	r3, r3, #1
100010b4:	5a9b      	ldrh	r3, [r3, r2]
100010b6:	4043      	eors	r3, r0
100010b8:	800b      	strh	r3, [r1, #0]
100010ba:	4643      	mov	r3, r8
100010bc:	3301      	adds	r3, #1
100010be:	b29b      	uxth	r3, r3
100010c0:	4698      	mov	r8, r3
100010c2:	46c1      	mov	r9, r8
100010c4:	4b6f      	ldr	r3, [pc, #444]	; (10001284 <p2pPollMaster+0x590>)
100010c6:	881b      	ldrh	r3, [r3, #0]
100010c8:	3b02      	subs	r3, #2
100010ca:	4598      	cmp	r8, r3
100010cc:	da13      	bge.n	100010f6 <p2pPollMaster+0x402>
100010ce:	4643      	mov	r3, r8
100010d0:	2b02      	cmp	r3, #2
100010d2:	d0f2      	beq.n	100010ba <p2pPollMaster+0x3c6>
100010d4:	2b03      	cmp	r3, #3
100010d6:	d0f0      	beq.n	100010ba <p2pPollMaster+0x3c6>
100010d8:	2b04      	cmp	r3, #4
100010da:	d1d8      	bne.n	1000108e <p2pPollMaster+0x39a>
100010dc:	4b67      	ldr	r3, [pc, #412]	; (1000127c <p2pPollMaster+0x588>)
100010de:	78db      	ldrb	r3, [r3, #3]
100010e0:	2b10      	cmp	r3, #16
100010e2:	d1d4      	bne.n	1000108e <p2pPollMaster+0x39a>
100010e4:	e7e9      	b.n	100010ba <p2pPollMaster+0x3c6>
100010e6:	4b65      	ldr	r3, [pc, #404]	; (1000127c <p2pPollMaster+0x588>)
100010e8:	464a      	mov	r2, r9
100010ea:	5c9b      	ldrb	r3, [r3, r2]
100010ec:	4a5f      	ldr	r2, [pc, #380]	; (1000126c <p2pPollMaster+0x578>)
100010ee:	8811      	ldrh	r1, [r2, #0]
100010f0:	185b      	adds	r3, r3, r1
100010f2:	8013      	strh	r3, [r2, #0]
100010f4:	e7e1      	b.n	100010ba <p2pPollMaster+0x3c6>
100010f6:	4c5d      	ldr	r4, [pc, #372]	; (1000126c <p2pPollMaster+0x578>)
100010f8:	8820      	ldrh	r0, [r4, #0]
100010fa:	0a00      	lsrs	r0, r0, #8
100010fc:	f7ff fd78 	bl	10000bf0 <p2pTxByteSlave>
10001100:	7820      	ldrb	r0, [r4, #0]
10001102:	f7ff fd75 	bl	10000bf0 <p2pTxByteSlave>
10001106:	e608      	b.n	10000d1a <p2pPollMaster+0x26>
10001108:	2010      	movs	r0, #16
1000110a:	f7ff fd3b 	bl	10000b84 <p2pTxByteMaster>
1000110e:	2c01      	cmp	r4, #1
10001110:	d100      	bne.n	10001114 <p2pPollMaster+0x420>
10001112:	e07f      	b.n	10001214 <p2pPollMaster+0x520>
10001114:	4955      	ldr	r1, [pc, #340]	; (1000126c <p2pPollMaster+0x578>)
10001116:	880a      	ldrh	r2, [r1, #0]
10001118:	0210      	lsls	r0, r2, #8
1000111a:	0a12      	lsrs	r2, r2, #8
1000111c:	2310      	movs	r3, #16
1000111e:	4053      	eors	r3, r2
10001120:	4a59      	ldr	r2, [pc, #356]	; (10001288 <p2pPollMaster+0x594>)
10001122:	005b      	lsls	r3, r3, #1
10001124:	5a9b      	ldrh	r3, [r3, r2]
10001126:	4043      	eors	r3, r0
10001128:	800b      	strh	r3, [r1, #0]
1000112a:	201a      	movs	r0, #26
1000112c:	f7ff fd2a 	bl	10000b84 <p2pTxByteMaster>
10001130:	2c01      	cmp	r4, #1
10001132:	d100      	bne.n	10001136 <p2pPollMaster+0x442>
10001134:	e073      	b.n	1000121e <p2pPollMaster+0x52a>
10001136:	494d      	ldr	r1, [pc, #308]	; (1000126c <p2pPollMaster+0x578>)
10001138:	880a      	ldrh	r2, [r1, #0]
1000113a:	0210      	lsls	r0, r2, #8
1000113c:	0a12      	lsrs	r2, r2, #8
1000113e:	231a      	movs	r3, #26
10001140:	4053      	eors	r3, r2
10001142:	4a51      	ldr	r2, [pc, #324]	; (10001288 <p2pPollMaster+0x594>)
10001144:	005b      	lsls	r3, r3, #1
10001146:	5a9b      	ldrh	r3, [r3, r2]
10001148:	4043      	eors	r3, r0
1000114a:	800b      	strh	r3, [r1, #0]
1000114c:	2002      	movs	r0, #2
1000114e:	f7ff fd19 	bl	10000b84 <p2pTxByteMaster>
10001152:	2c01      	cmp	r4, #1
10001154:	d068      	beq.n	10001228 <p2pPollMaster+0x534>
10001156:	4945      	ldr	r1, [pc, #276]	; (1000126c <p2pPollMaster+0x578>)
10001158:	880a      	ldrh	r2, [r1, #0]
1000115a:	0210      	lsls	r0, r2, #8
1000115c:	0a12      	lsrs	r2, r2, #8
1000115e:	2302      	movs	r3, #2
10001160:	4053      	eors	r3, r2
10001162:	4a49      	ldr	r2, [pc, #292]	; (10001288 <p2pPollMaster+0x594>)
10001164:	005b      	lsls	r3, r3, #1
10001166:	5a9b      	ldrh	r3, [r3, r2]
10001168:	4043      	eors	r3, r0
1000116a:	800b      	strh	r3, [r1, #0]
1000116c:	4b47      	ldr	r3, [pc, #284]	; (1000128c <p2pPollMaster+0x598>)
1000116e:	7818      	ldrb	r0, [r3, #0]
10001170:	f7ff fd08 	bl	10000b84 <p2pTxByteMaster>
10001174:	2c01      	cmp	r4, #1
10001176:	d05c      	beq.n	10001232 <p2pPollMaster+0x53e>
10001178:	493c      	ldr	r1, [pc, #240]	; (1000126c <p2pPollMaster+0x578>)
1000117a:	880a      	ldrh	r2, [r1, #0]
1000117c:	0210      	lsls	r0, r2, #8
1000117e:	4b43      	ldr	r3, [pc, #268]	; (1000128c <p2pPollMaster+0x598>)
10001180:	881b      	ldrh	r3, [r3, #0]
10001182:	0a1b      	lsrs	r3, r3, #8
10001184:	0a12      	lsrs	r2, r2, #8
10001186:	4053      	eors	r3, r2
10001188:	4a3f      	ldr	r2, [pc, #252]	; (10001288 <p2pPollMaster+0x594>)
1000118a:	005b      	lsls	r3, r3, #1
1000118c:	5a9b      	ldrh	r3, [r3, r2]
1000118e:	4043      	eors	r3, r0
10001190:	800b      	strh	r3, [r1, #0]
10001192:	4b3e      	ldr	r3, [pc, #248]	; (1000128c <p2pPollMaster+0x598>)
10001194:	8818      	ldrh	r0, [r3, #0]
10001196:	0a00      	lsrs	r0, r0, #8
10001198:	f7ff fcf4 	bl	10000b84 <p2pTxByteMaster>
1000119c:	2c01      	cmp	r4, #1
1000119e:	d050      	beq.n	10001242 <p2pPollMaster+0x54e>
100011a0:	4932      	ldr	r1, [pc, #200]	; (1000126c <p2pPollMaster+0x578>)
100011a2:	880b      	ldrh	r3, [r1, #0]
100011a4:	0218      	lsls	r0, r3, #8
100011a6:	0a1b      	lsrs	r3, r3, #8
100011a8:	4a38      	ldr	r2, [pc, #224]	; (1000128c <p2pPollMaster+0x598>)
100011aa:	7812      	ldrb	r2, [r2, #0]
100011ac:	4053      	eors	r3, r2
100011ae:	4a36      	ldr	r2, [pc, #216]	; (10001288 <p2pPollMaster+0x594>)
100011b0:	005b      	lsls	r3, r3, #1
100011b2:	5a9b      	ldrh	r3, [r3, r2]
100011b4:	4043      	eors	r3, r0
100011b6:	800b      	strh	r3, [r1, #0]
100011b8:	2010      	movs	r0, #16
100011ba:	f7ff fce3 	bl	10000b84 <p2pTxByteMaster>
100011be:	2c01      	cmp	r4, #1
100011c0:	d046      	beq.n	10001250 <p2pPollMaster+0x55c>
100011c2:	492a      	ldr	r1, [pc, #168]	; (1000126c <p2pPollMaster+0x578>)
100011c4:	880a      	ldrh	r2, [r1, #0]
100011c6:	0210      	lsls	r0, r2, #8
100011c8:	0a12      	lsrs	r2, r2, #8
100011ca:	2310      	movs	r3, #16
100011cc:	4053      	eors	r3, r2
100011ce:	4a2e      	ldr	r2, [pc, #184]	; (10001288 <p2pPollMaster+0x594>)
100011d0:	005b      	lsls	r3, r3, #1
100011d2:	5a9b      	ldrh	r3, [r3, r2]
100011d4:	4043      	eors	r3, r0
100011d6:	800b      	strh	r3, [r1, #0]
100011d8:	201f      	movs	r0, #31
100011da:	f7ff fcd3 	bl	10000b84 <p2pTxByteMaster>
100011de:	2c01      	cmp	r4, #1
100011e0:	d03b      	beq.n	1000125a <p2pPollMaster+0x566>
100011e2:	4922      	ldr	r1, [pc, #136]	; (1000126c <p2pPollMaster+0x578>)
100011e4:	880a      	ldrh	r2, [r1, #0]
100011e6:	0210      	lsls	r0, r2, #8
100011e8:	0a12      	lsrs	r2, r2, #8
100011ea:	231f      	movs	r3, #31
100011ec:	4053      	eors	r3, r2
100011ee:	4a26      	ldr	r2, [pc, #152]	; (10001288 <p2pPollMaster+0x594>)
100011f0:	005b      	lsls	r3, r3, #1
100011f2:	5a9b      	ldrh	r3, [r3, r2]
100011f4:	4043      	eors	r3, r0
100011f6:	800b      	strh	r3, [r1, #0]
100011f8:	4c1c      	ldr	r4, [pc, #112]	; (1000126c <p2pPollMaster+0x578>)
100011fa:	8820      	ldrh	r0, [r4, #0]
100011fc:	0a00      	lsrs	r0, r0, #8
100011fe:	f7ff fcc1 	bl	10000b84 <p2pTxByteMaster>
10001202:	7820      	ldrb	r0, [r4, #0]
10001204:	f7ff fcbe 	bl	10000b84 <p2pTxByteMaster>
10001208:	4b19      	ldr	r3, [pc, #100]	; (10001270 <p2pPollMaster+0x57c>)
1000120a:	2500      	movs	r5, #0
1000120c:	701d      	strb	r5, [r3, #0]
1000120e:	4b19      	ldr	r3, [pc, #100]	; (10001274 <p2pPollMaster+0x580>)
10001210:	701d      	strb	r5, [r3, #0]
10001212:	e582      	b.n	10000d1a <p2pPollMaster+0x26>
10001214:	4a15      	ldr	r2, [pc, #84]	; (1000126c <p2pPollMaster+0x578>)
10001216:	8813      	ldrh	r3, [r2, #0]
10001218:	3310      	adds	r3, #16
1000121a:	8013      	strh	r3, [r2, #0]
1000121c:	e785      	b.n	1000112a <p2pPollMaster+0x436>
1000121e:	4a13      	ldr	r2, [pc, #76]	; (1000126c <p2pPollMaster+0x578>)
10001220:	8813      	ldrh	r3, [r2, #0]
10001222:	331a      	adds	r3, #26
10001224:	8013      	strh	r3, [r2, #0]
10001226:	e791      	b.n	1000114c <p2pPollMaster+0x458>
10001228:	4a10      	ldr	r2, [pc, #64]	; (1000126c <p2pPollMaster+0x578>)
1000122a:	8813      	ldrh	r3, [r2, #0]
1000122c:	3302      	adds	r3, #2
1000122e:	8013      	strh	r3, [r2, #0]
10001230:	e79c      	b.n	1000116c <p2pPollMaster+0x478>
10001232:	4a0e      	ldr	r2, [pc, #56]	; (1000126c <p2pPollMaster+0x578>)
10001234:	4b15      	ldr	r3, [pc, #84]	; (1000128c <p2pPollMaster+0x598>)
10001236:	881b      	ldrh	r3, [r3, #0]
10001238:	0a1b      	lsrs	r3, r3, #8
1000123a:	8811      	ldrh	r1, [r2, #0]
1000123c:	185b      	adds	r3, r3, r1
1000123e:	8013      	strh	r3, [r2, #0]
10001240:	e7a7      	b.n	10001192 <p2pPollMaster+0x49e>
10001242:	4b12      	ldr	r3, [pc, #72]	; (1000128c <p2pPollMaster+0x598>)
10001244:	781b      	ldrb	r3, [r3, #0]
10001246:	4a09      	ldr	r2, [pc, #36]	; (1000126c <p2pPollMaster+0x578>)
10001248:	8811      	ldrh	r1, [r2, #0]
1000124a:	185b      	adds	r3, r3, r1
1000124c:	8013      	strh	r3, [r2, #0]
1000124e:	e7b3      	b.n	100011b8 <p2pPollMaster+0x4c4>
10001250:	4a06      	ldr	r2, [pc, #24]	; (1000126c <p2pPollMaster+0x578>)
10001252:	8813      	ldrh	r3, [r2, #0]
10001254:	3310      	adds	r3, #16
10001256:	8013      	strh	r3, [r2, #0]
10001258:	e7be      	b.n	100011d8 <p2pPollMaster+0x4e4>
1000125a:	4a04      	ldr	r2, [pc, #16]	; (1000126c <p2pPollMaster+0x578>)
1000125c:	8813      	ldrh	r3, [r2, #0]
1000125e:	331f      	adds	r3, #31
10001260:	8013      	strh	r3, [r2, #0]
10001262:	e7c9      	b.n	100011f8 <p2pPollMaster+0x504>
10001264:	20001f44 	.word	0x20001f44
10001268:	20001f63 	.word	0x20001f63
1000126c:	20001f40 	.word	0x20001f40
10001270:	20001f61 	.word	0x20001f61
10001274:	20001f67 	.word	0x20001f67
10001278:	20000ca3 	.word	0x20000ca3
1000127c:	20000ca0 	.word	0x20000ca0
10001280:	0000022d 	.word	0x0000022d
10001284:	20001f46 	.word	0x20001f46
10001288:	1000abb8 	.word	0x1000abb8
1000128c:	20001f4e 	.word	0x20001f4e
10001290:	2b00      	cmp	r3, #0
10001292:	d104      	bne.n	1000129e <p2pPollMaster+0x5aa>
10001294:	4bb4      	ldr	r3, [pc, #720]	; (10001568 <p2pPollMaster+0x874>)
10001296:	881b      	ldrh	r3, [r3, #0]
10001298:	b29b      	uxth	r3, r3
1000129a:	2b00      	cmp	r3, #0
1000129c:	d16a      	bne.n	10001374 <p2pPollMaster+0x680>
1000129e:	466b      	mov	r3, sp
100012a0:	1dd8      	adds	r0, r3, #7
100012a2:	f7ff fcdb 	bl	10000c5c <p2pRxByteMaster>
100012a6:	2801      	cmp	r0, #1
100012a8:	d004      	beq.n	100012b4 <p2pPollMaster+0x5c0>
100012aa:	4baf      	ldr	r3, [pc, #700]	; (10001568 <p2pPollMaster+0x874>)
100012ac:	881b      	ldrh	r3, [r3, #0]
100012ae:	b29b      	uxth	r3, r3
100012b0:	2b00      	cmp	r3, #0
100012b2:	d1f4      	bne.n	1000129e <p2pPollMaster+0x5aa>
100012b4:	466b      	mov	r3, sp
100012b6:	1dd8      	adds	r0, r3, #7
100012b8:	f7ff fcd0 	bl	10000c5c <p2pRxByteMaster>
100012bc:	2801      	cmp	r0, #1
100012be:	d004      	beq.n	100012ca <p2pPollMaster+0x5d6>
100012c0:	4ba9      	ldr	r3, [pc, #676]	; (10001568 <p2pPollMaster+0x874>)
100012c2:	881b      	ldrh	r3, [r3, #0]
100012c4:	b29b      	uxth	r3, r3
100012c6:	2b00      	cmp	r3, #0
100012c8:	d1f4      	bne.n	100012b4 <p2pPollMaster+0x5c0>
100012ca:	466b      	mov	r3, sp
100012cc:	1dd8      	adds	r0, r3, #7
100012ce:	f7ff fcc5 	bl	10000c5c <p2pRxByteMaster>
100012d2:	2801      	cmp	r0, #1
100012d4:	d004      	beq.n	100012e0 <p2pPollMaster+0x5ec>
100012d6:	4ba4      	ldr	r3, [pc, #656]	; (10001568 <p2pPollMaster+0x874>)
100012d8:	881b      	ldrh	r3, [r3, #0]
100012da:	b29b      	uxth	r3, r3
100012dc:	2b00      	cmp	r3, #0
100012de:	d1f4      	bne.n	100012ca <p2pPollMaster+0x5d6>
100012e0:	466b      	mov	r3, sp
100012e2:	1dd8      	adds	r0, r3, #7
100012e4:	f7ff fcba 	bl	10000c5c <p2pRxByteMaster>
100012e8:	2801      	cmp	r0, #1
100012ea:	d004      	beq.n	100012f6 <p2pPollMaster+0x602>
100012ec:	4b9e      	ldr	r3, [pc, #632]	; (10001568 <p2pPollMaster+0x874>)
100012ee:	881b      	ldrh	r3, [r3, #0]
100012f0:	b29b      	uxth	r3, r3
100012f2:	2b00      	cmp	r3, #0
100012f4:	d1f4      	bne.n	100012e0 <p2pPollMaster+0x5ec>
100012f6:	466b      	mov	r3, sp
100012f8:	1dd8      	adds	r0, r3, #7
100012fa:	f7ff fcaf 	bl	10000c5c <p2pRxByteMaster>
100012fe:	2801      	cmp	r0, #1
10001300:	d004      	beq.n	1000130c <p2pPollMaster+0x618>
10001302:	4b99      	ldr	r3, [pc, #612]	; (10001568 <p2pPollMaster+0x874>)
10001304:	881b      	ldrh	r3, [r3, #0]
10001306:	b29b      	uxth	r3, r3
10001308:	2b00      	cmp	r3, #0
1000130a:	d1f4      	bne.n	100012f6 <p2pPollMaster+0x602>
1000130c:	4897      	ldr	r0, [pc, #604]	; (1000156c <p2pPollMaster+0x878>)
1000130e:	228c      	movs	r2, #140	; 0x8c
10001310:	0092      	lsls	r2, r2, #2
10001312:	2100      	movs	r1, #0
10001314:	f006 fc3e 	bl	10007b94 <__wrap_memset>
10001318:	4b95      	ldr	r3, [pc, #596]	; (10001570 <p2pPollMaster+0x87c>)
1000131a:	2201      	movs	r2, #1
1000131c:	701a      	strb	r2, [r3, #0]
1000131e:	4b95      	ldr	r3, [pc, #596]	; (10001574 <p2pPollMaster+0x880>)
10001320:	2200      	movs	r2, #0
10001322:	801a      	strh	r2, [r3, #0]
10001324:	4b94      	ldr	r3, [pc, #592]	; (10001578 <p2pPollMaster+0x884>)
10001326:	801a      	strh	r2, [r3, #0]
10001328:	2010      	movs	r0, #16
1000132a:	f7ff fc2b 	bl	10000b84 <p2pTxByteMaster>
1000132e:	2021      	movs	r0, #33	; 0x21
10001330:	f7ff fc28 	bl	10000b84 <p2pTxByteMaster>
10001334:	4b91      	ldr	r3, [pc, #580]	; (1000157c <p2pPollMaster+0x888>)
10001336:	7818      	ldrb	r0, [r3, #0]
10001338:	f7ff fc24 	bl	10000b84 <p2pTxByteMaster>
1000133c:	2010      	movs	r0, #16
1000133e:	f7ff fc21 	bl	10000b84 <p2pTxByteMaster>
10001342:	201a      	movs	r0, #26
10001344:	f7ff fc1e 	bl	10000b84 <p2pTxByteMaster>
10001348:	2002      	movs	r0, #2
1000134a:	f7ff fc1b 	bl	10000b84 <p2pTxByteMaster>
1000134e:	2001      	movs	r0, #1
10001350:	f7ff fc18 	bl	10000b84 <p2pTxByteMaster>
10001354:	2018      	movs	r0, #24
10001356:	f7ff fc15 	bl	10000b84 <p2pTxByteMaster>
1000135a:	2010      	movs	r0, #16
1000135c:	f7ff fc12 	bl	10000b84 <p2pTxByteMaster>
10001360:	201f      	movs	r0, #31
10001362:	f7ff fc0f 	bl	10000b84 <p2pTxByteMaster>
10001366:	2000      	movs	r0, #0
10001368:	f7ff fc0c 	bl	10000b84 <p2pTxByteMaster>
1000136c:	2074      	movs	r0, #116	; 0x74
1000136e:	f7ff fc09 	bl	10000b84 <p2pTxByteMaster>
10001372:	e4d2      	b.n	10000d1a <p2pPollMaster+0x26>
10001374:	466b      	mov	r3, sp
10001376:	1dd8      	adds	r0, r3, #7
10001378:	f7ff fc70 	bl	10000c5c <p2pRxByteMaster>
1000137c:	2801      	cmp	r0, #1
1000137e:	d08e      	beq.n	1000129e <p2pPollMaster+0x5aa>
10001380:	4b79      	ldr	r3, [pc, #484]	; (10001568 <p2pPollMaster+0x874>)
10001382:	881b      	ldrh	r3, [r3, #0]
10001384:	b29b      	uxth	r3, r3
10001386:	2b00      	cmp	r3, #0
10001388:	d1f4      	bne.n	10001374 <p2pPollMaster+0x680>
1000138a:	e788      	b.n	1000129e <p2pPollMaster+0x5aa>
1000138c:	4a76      	ldr	r2, [pc, #472]	; (10001568 <p2pPollMaster+0x874>)
1000138e:	8812      	ldrh	r2, [r2, #0]
10001390:	b292      	uxth	r2, r2
10001392:	2a00      	cmp	r2, #0
10001394:	d100      	bne.n	10001398 <p2pPollMaster+0x6a4>
10001396:	e4fb      	b.n	10000d90 <p2pPollMaster+0x9c>
10001398:	4a73      	ldr	r2, [pc, #460]	; (10001568 <p2pPollMaster+0x874>)
1000139a:	2164      	movs	r1, #100	; 0x64
1000139c:	8011      	strh	r1, [r2, #0]
1000139e:	18ff      	adds	r7, r7, r3
100013a0:	b2bf      	uxth	r7, r7
100013a2:	0231      	lsls	r1, r6, #8
100013a4:	0a36      	lsrs	r6, r6, #8
100013a6:	4073      	eors	r3, r6
100013a8:	4a75      	ldr	r2, [pc, #468]	; (10001580 <p2pPollMaster+0x88c>)
100013aa:	005b      	lsls	r3, r3, #1
100013ac:	5a9e      	ldrh	r6, [r3, r2]
100013ae:	404e      	eors	r6, r1
100013b0:	b2b6      	uxth	r6, r6
100013b2:	466b      	mov	r3, sp
100013b4:	1dd8      	adds	r0, r3, #7
100013b6:	f7ff fc51 	bl	10000c5c <p2pRxByteMaster>
100013ba:	2801      	cmp	r0, #1
100013bc:	d004      	beq.n	100013c8 <p2pPollMaster+0x6d4>
100013be:	4b6a      	ldr	r3, [pc, #424]	; (10001568 <p2pPollMaster+0x874>)
100013c0:	881b      	ldrh	r3, [r3, #0]
100013c2:	b29b      	uxth	r3, r3
100013c4:	2b00      	cmp	r3, #0
100013c6:	d1f4      	bne.n	100013b2 <p2pPollMaster+0x6be>
100013c8:	466b      	mov	r3, sp
100013ca:	3307      	adds	r3, #7
100013cc:	781b      	ldrb	r3, [r3, #0]
100013ce:	2be5      	cmp	r3, #229	; 0xe5
100013d0:	d026      	beq.n	10001420 <p2pPollMaster+0x72c>
100013d2:	466b      	mov	r3, sp
100013d4:	1dd8      	adds	r0, r3, #7
100013d6:	f7ff fc41 	bl	10000c5c <p2pRxByteMaster>
100013da:	2801      	cmp	r0, #1
100013dc:	d004      	beq.n	100013e8 <p2pPollMaster+0x6f4>
100013de:	4b62      	ldr	r3, [pc, #392]	; (10001568 <p2pPollMaster+0x874>)
100013e0:	881b      	ldrh	r3, [r3, #0]
100013e2:	b29b      	uxth	r3, r3
100013e4:	2b00      	cmp	r3, #0
100013e6:	d1f4      	bne.n	100013d2 <p2pPollMaster+0x6de>
100013e8:	466b      	mov	r3, sp
100013ea:	3307      	adds	r3, #7
100013ec:	781b      	ldrb	r3, [r3, #0]
100013ee:	2ba2      	cmp	r3, #162	; 0xa2
100013f0:	d026      	beq.n	10001440 <p2pPollMaster+0x74c>
100013f2:	466b      	mov	r3, sp
100013f4:	1dd8      	adds	r0, r3, #7
100013f6:	f7ff fc31 	bl	10000c5c <p2pRxByteMaster>
100013fa:	2801      	cmp	r0, #1
100013fc:	d004      	beq.n	10001408 <p2pPollMaster+0x714>
100013fe:	4b5a      	ldr	r3, [pc, #360]	; (10001568 <p2pPollMaster+0x874>)
10001400:	881b      	ldrh	r3, [r3, #0]
10001402:	b29b      	uxth	r3, r3
10001404:	2b00      	cmp	r3, #0
10001406:	d1f4      	bne.n	100013f2 <p2pPollMaster+0x6fe>
10001408:	466b      	mov	r3, sp
1000140a:	79da      	ldrb	r2, [r3, #7]
1000140c:	2afd      	cmp	r2, #253	; 0xfd
1000140e:	d800      	bhi.n	10001412 <p2pPollMaster+0x71e>
10001410:	e19a      	b.n	10001748 <p2pPollMaster+0xa54>
10001412:	4b55      	ldr	r3, [pc, #340]	; (10001568 <p2pPollMaster+0x874>)
10001414:	881b      	ldrh	r3, [r3, #0]
10001416:	b29b      	uxth	r3, r3
10001418:	2b00      	cmp	r3, #0
1000141a:	d121      	bne.n	10001460 <p2pPollMaster+0x76c>
1000141c:	2500      	movs	r5, #0
1000141e:	e47c      	b.n	10000d1a <p2pPollMaster+0x26>
10001420:	4a51      	ldr	r2, [pc, #324]	; (10001568 <p2pPollMaster+0x874>)
10001422:	8812      	ldrh	r2, [r2, #0]
10001424:	b292      	uxth	r2, r2
10001426:	2a00      	cmp	r2, #0
10001428:	d0d3      	beq.n	100013d2 <p2pPollMaster+0x6de>
1000142a:	18ff      	adds	r7, r7, r3
1000142c:	b2bf      	uxth	r7, r7
1000142e:	0231      	lsls	r1, r6, #8
10001430:	0a36      	lsrs	r6, r6, #8
10001432:	4073      	eors	r3, r6
10001434:	4a52      	ldr	r2, [pc, #328]	; (10001580 <p2pPollMaster+0x88c>)
10001436:	005b      	lsls	r3, r3, #1
10001438:	5a9e      	ldrh	r6, [r3, r2]
1000143a:	404e      	eors	r6, r1
1000143c:	b2b6      	uxth	r6, r6
1000143e:	e7c8      	b.n	100013d2 <p2pPollMaster+0x6de>
10001440:	4a49      	ldr	r2, [pc, #292]	; (10001568 <p2pPollMaster+0x874>)
10001442:	8812      	ldrh	r2, [r2, #0]
10001444:	b292      	uxth	r2, r2
10001446:	2a00      	cmp	r2, #0
10001448:	d0d3      	beq.n	100013f2 <p2pPollMaster+0x6fe>
1000144a:	18ff      	adds	r7, r7, r3
1000144c:	b2bf      	uxth	r7, r7
1000144e:	0231      	lsls	r1, r6, #8
10001450:	0a36      	lsrs	r6, r6, #8
10001452:	4073      	eors	r3, r6
10001454:	4a4a      	ldr	r2, [pc, #296]	; (10001580 <p2pPollMaster+0x88c>)
10001456:	005b      	lsls	r3, r3, #1
10001458:	5a9e      	ldrh	r6, [r3, r2]
1000145a:	404e      	eors	r6, r1
1000145c:	b2b6      	uxth	r6, r6
1000145e:	e7c8      	b.n	100013f2 <p2pPollMaster+0x6fe>
10001460:	18bf      	adds	r7, r7, r2
10001462:	b2bf      	uxth	r7, r7
10001464:	0230      	lsls	r0, r6, #8
10001466:	0a33      	lsrs	r3, r6, #8
10001468:	4053      	eors	r3, r2
1000146a:	4945      	ldr	r1, [pc, #276]	; (10001580 <p2pPollMaster+0x88c>)
1000146c:	005b      	lsls	r3, r3, #1
1000146e:	5a5e      	ldrh	r6, [r3, r1]
10001470:	4046      	eors	r6, r0
10001472:	b2b6      	uxth	r6, r6
10001474:	2afe      	cmp	r2, #254	; 0xfe
10001476:	d036      	beq.n	100014e6 <p2pPollMaster+0x7f2>
10001478:	4b42      	ldr	r3, [pc, #264]	; (10001584 <p2pPollMaster+0x890>)
1000147a:	2200      	movs	r2, #0
1000147c:	701a      	strb	r2, [r3, #0]
1000147e:	466b      	mov	r3, sp
10001480:	1dd8      	adds	r0, r3, #7
10001482:	f7ff fbeb 	bl	10000c5c <p2pRxByteMaster>
10001486:	2801      	cmp	r0, #1
10001488:	d004      	beq.n	10001494 <p2pPollMaster+0x7a0>
1000148a:	4b37      	ldr	r3, [pc, #220]	; (10001568 <p2pPollMaster+0x874>)
1000148c:	881b      	ldrh	r3, [r3, #0]
1000148e:	b29b      	uxth	r3, r3
10001490:	2b00      	cmp	r3, #0
10001492:	d1f4      	bne.n	1000147e <p2pPollMaster+0x78a>
10001494:	4b34      	ldr	r3, [pc, #208]	; (10001568 <p2pPollMaster+0x874>)
10001496:	881b      	ldrh	r3, [r3, #0]
10001498:	b29b      	uxth	r3, r3
1000149a:	2b00      	cmp	r3, #0
1000149c:	d100      	bne.n	100014a0 <p2pPollMaster+0x7ac>
1000149e:	e156      	b.n	1000174e <p2pPollMaster+0xa5a>
100014a0:	466b      	mov	r3, sp
100014a2:	79dc      	ldrb	r4, [r3, #7]
100014a4:	b2a1      	uxth	r1, r4
100014a6:	19e7      	adds	r7, r4, r7
100014a8:	b2bf      	uxth	r7, r7
100014aa:	0230      	lsls	r0, r6, #8
100014ac:	0a33      	lsrs	r3, r6, #8
100014ae:	4063      	eors	r3, r4
100014b0:	4a33      	ldr	r2, [pc, #204]	; (10001580 <p2pPollMaster+0x88c>)
100014b2:	005b      	lsls	r3, r3, #1
100014b4:	5a9e      	ldrh	r6, [r3, r2]
100014b6:	4046      	eors	r6, r0
100014b8:	b2b6      	uxth	r6, r6
100014ba:	2900      	cmp	r1, #0
100014bc:	d117      	bne.n	100014ee <p2pPollMaster+0x7fa>
100014be:	4b32      	ldr	r3, [pc, #200]	; (10001588 <p2pPollMaster+0x894>)
100014c0:	2201      	movs	r2, #1
100014c2:	701a      	strb	r2, [r3, #0]
100014c4:	466b      	mov	r3, sp
100014c6:	3307      	adds	r3, #7
100014c8:	781b      	ldrb	r3, [r3, #0]
100014ca:	2b10      	cmp	r3, #16
100014cc:	d017      	beq.n	100014fe <p2pPollMaster+0x80a>
100014ce:	4b2d      	ldr	r3, [pc, #180]	; (10001584 <p2pPollMaster+0x890>)
100014d0:	781b      	ldrb	r3, [r3, #0]
100014d2:	2b00      	cmp	r3, #0
100014d4:	d02c      	beq.n	10001530 <p2pPollMaster+0x83c>
100014d6:	4b24      	ldr	r3, [pc, #144]	; (10001568 <p2pPollMaster+0x874>)
100014d8:	881b      	ldrh	r3, [r3, #0]
100014da:	b29b      	uxth	r3, r3
100014dc:	2b00      	cmp	r3, #0
100014de:	d157      	bne.n	10001590 <p2pPollMaster+0x89c>
100014e0:	2500      	movs	r5, #0
100014e2:	f7ff fc1a 	bl	10000d1a <p2pPollMaster+0x26>
100014e6:	4b27      	ldr	r3, [pc, #156]	; (10001584 <p2pPollMaster+0x890>)
100014e8:	3afd      	subs	r2, #253	; 0xfd
100014ea:	701a      	strb	r2, [r3, #0]
100014ec:	e7c7      	b.n	1000147e <p2pPollMaster+0x78a>
100014ee:	4b26      	ldr	r3, [pc, #152]	; (10001588 <p2pPollMaster+0x894>)
100014f0:	2200      	movs	r2, #0
100014f2:	701a      	strb	r2, [r3, #0]
100014f4:	1e60      	subs	r0, r4, #1
100014f6:	b2c0      	uxtb	r0, r0
100014f8:	f000 ffcc 	bl	10002494 <MUX_Set>
100014fc:	e7e2      	b.n	100014c4 <p2pPollMaster+0x7d0>
100014fe:	466b      	mov	r3, sp
10001500:	1dd8      	adds	r0, r3, #7
10001502:	f7ff fbab 	bl	10000c5c <p2pRxByteMaster>
10001506:	2801      	cmp	r0, #1
10001508:	d004      	beq.n	10001514 <p2pPollMaster+0x820>
1000150a:	4b17      	ldr	r3, [pc, #92]	; (10001568 <p2pPollMaster+0x874>)
1000150c:	881b      	ldrh	r3, [r3, #0]
1000150e:	b29b      	uxth	r3, r3
10001510:	2b00      	cmp	r3, #0
10001512:	d1f4      	bne.n	100014fe <p2pPollMaster+0x80a>
10001514:	466b      	mov	r3, sp
10001516:	3307      	adds	r3, #7
10001518:	781b      	ldrb	r3, [r3, #0]
1000151a:	18ff      	adds	r7, r7, r3
1000151c:	b2bf      	uxth	r7, r7
1000151e:	0231      	lsls	r1, r6, #8
10001520:	0a36      	lsrs	r6, r6, #8
10001522:	4073      	eors	r3, r6
10001524:	4a16      	ldr	r2, [pc, #88]	; (10001580 <p2pPollMaster+0x88c>)
10001526:	005b      	lsls	r3, r3, #1
10001528:	5a9e      	ldrh	r6, [r3, r2]
1000152a:	404e      	eors	r6, r1
1000152c:	b2b6      	uxth	r6, r6
1000152e:	e7ce      	b.n	100014ce <p2pPollMaster+0x7da>
10001530:	466b      	mov	r3, sp
10001532:	1dd8      	adds	r0, r3, #7
10001534:	f7ff fb92 	bl	10000c5c <p2pRxByteMaster>
10001538:	2801      	cmp	r0, #1
1000153a:	d004      	beq.n	10001546 <p2pPollMaster+0x852>
1000153c:	4b0a      	ldr	r3, [pc, #40]	; (10001568 <p2pPollMaster+0x874>)
1000153e:	881b      	ldrh	r3, [r3, #0]
10001540:	b29b      	uxth	r3, r3
10001542:	2b00      	cmp	r3, #0
10001544:	d1f4      	bne.n	10001530 <p2pPollMaster+0x83c>
10001546:	466b      	mov	r3, sp
10001548:	3307      	adds	r3, #7
1000154a:	781b      	ldrb	r3, [r3, #0]
1000154c:	4a0f      	ldr	r2, [pc, #60]	; (1000158c <p2pPollMaster+0x898>)
1000154e:	7013      	strb	r3, [r2, #0]
10001550:	18ff      	adds	r7, r7, r3
10001552:	b2bf      	uxth	r7, r7
10001554:	0231      	lsls	r1, r6, #8
10001556:	0a36      	lsrs	r6, r6, #8
10001558:	4073      	eors	r3, r6
1000155a:	4a09      	ldr	r2, [pc, #36]	; (10001580 <p2pPollMaster+0x88c>)
1000155c:	005b      	lsls	r3, r3, #1
1000155e:	5a9e      	ldrh	r6, [r3, r2]
10001560:	404e      	eors	r6, r1
10001562:	b2b6      	uxth	r6, r6
10001564:	e7b7      	b.n	100014d6 <p2pPollMaster+0x7e2>
10001566:	46c0      	nop			; (mov r8, r8)
10001568:	20001f44 	.word	0x20001f44
1000156c:	20000ca0 	.word	0x20000ca0
10001570:	20001f63 	.word	0x20001f63
10001574:	20001f46 	.word	0x20001f46
10001578:	20001f48 	.word	0x20001f48
1000157c:	20001f68 	.word	0x20001f68
10001580:	1000abb8 	.word	0x1000abb8
10001584:	20001f64 	.word	0x20001f64
10001588:	20001f61 	.word	0x20001f61
1000158c:	20001f67 	.word	0x20001f67
10001590:	466b      	mov	r3, sp
10001592:	3307      	adds	r3, #7
10001594:	781b      	ldrb	r3, [r3, #0]
10001596:	2b10      	cmp	r3, #16
10001598:	d029      	beq.n	100015ee <p2pPollMaster+0x8fa>
1000159a:	466b      	mov	r3, sp
1000159c:	1dd8      	adds	r0, r3, #7
1000159e:	f7ff fb5d 	bl	10000c5c <p2pRxByteMaster>
100015a2:	2801      	cmp	r0, #1
100015a4:	d004      	beq.n	100015b0 <p2pPollMaster+0x8bc>
100015a6:	4b7c      	ldr	r3, [pc, #496]	; (10001798 <p2pPollMaster+0xaa4>)
100015a8:	881b      	ldrh	r3, [r3, #0]
100015aa:	b29b      	uxth	r3, r3
100015ac:	2b00      	cmp	r3, #0
100015ae:	d1f4      	bne.n	1000159a <p2pPollMaster+0x8a6>
100015b0:	4b79      	ldr	r3, [pc, #484]	; (10001798 <p2pPollMaster+0xaa4>)
100015b2:	881b      	ldrh	r3, [r3, #0]
100015b4:	b29b      	uxth	r3, r3
100015b6:	2b00      	cmp	r3, #0
100015b8:	d100      	bne.n	100015bc <p2pPollMaster+0x8c8>
100015ba:	e0cb      	b.n	10001754 <p2pPollMaster+0xa60>
100015bc:	466b      	mov	r3, sp
100015be:	3307      	adds	r3, #7
100015c0:	781b      	ldrb	r3, [r3, #0]
100015c2:	18ff      	adds	r7, r7, r3
100015c4:	b2bf      	uxth	r7, r7
100015c6:	0231      	lsls	r1, r6, #8
100015c8:	0a36      	lsrs	r6, r6, #8
100015ca:	4073      	eors	r3, r6
100015cc:	4a73      	ldr	r2, [pc, #460]	; (1000179c <p2pPollMaster+0xaa8>)
100015ce:	005b      	lsls	r3, r3, #1
100015d0:	5a9e      	ldrh	r6, [r3, r2]
100015d2:	404e      	eors	r6, r1
100015d4:	b2b6      	uxth	r6, r6
100015d6:	4b72      	ldr	r3, [pc, #456]	; (100017a0 <p2pPollMaster+0xaac>)
100015d8:	781b      	ldrb	r3, [r3, #0]
100015da:	2b00      	cmp	r3, #0
100015dc:	d020      	beq.n	10001620 <p2pPollMaster+0x92c>
100015de:	4b6e      	ldr	r3, [pc, #440]	; (10001798 <p2pPollMaster+0xaa4>)
100015e0:	881b      	ldrh	r3, [r3, #0]
100015e2:	b29b      	uxth	r3, r3
100015e4:	2b00      	cmp	r3, #0
100015e6:	d134      	bne.n	10001652 <p2pPollMaster+0x95e>
100015e8:	2500      	movs	r5, #0
100015ea:	f7ff fb96 	bl	10000d1a <p2pPollMaster+0x26>
100015ee:	466b      	mov	r3, sp
100015f0:	1dd8      	adds	r0, r3, #7
100015f2:	f7ff fb33 	bl	10000c5c <p2pRxByteMaster>
100015f6:	2801      	cmp	r0, #1
100015f8:	d004      	beq.n	10001604 <p2pPollMaster+0x910>
100015fa:	4b67      	ldr	r3, [pc, #412]	; (10001798 <p2pPollMaster+0xaa4>)
100015fc:	881b      	ldrh	r3, [r3, #0]
100015fe:	b29b      	uxth	r3, r3
10001600:	2b00      	cmp	r3, #0
10001602:	d1f4      	bne.n	100015ee <p2pPollMaster+0x8fa>
10001604:	466b      	mov	r3, sp
10001606:	3307      	adds	r3, #7
10001608:	781b      	ldrb	r3, [r3, #0]
1000160a:	18ff      	adds	r7, r7, r3
1000160c:	b2bf      	uxth	r7, r7
1000160e:	0231      	lsls	r1, r6, #8
10001610:	0a36      	lsrs	r6, r6, #8
10001612:	4073      	eors	r3, r6
10001614:	4a61      	ldr	r2, [pc, #388]	; (1000179c <p2pPollMaster+0xaa8>)
10001616:	005b      	lsls	r3, r3, #1
10001618:	5a9e      	ldrh	r6, [r3, r2]
1000161a:	404e      	eors	r6, r1
1000161c:	b2b6      	uxth	r6, r6
1000161e:	e7bc      	b.n	1000159a <p2pPollMaster+0x8a6>
10001620:	466b      	mov	r3, sp
10001622:	1dd8      	adds	r0, r3, #7
10001624:	f7ff fb1a 	bl	10000c5c <p2pRxByteMaster>
10001628:	2801      	cmp	r0, #1
1000162a:	d004      	beq.n	10001636 <p2pPollMaster+0x942>
1000162c:	4b5a      	ldr	r3, [pc, #360]	; (10001798 <p2pPollMaster+0xaa4>)
1000162e:	881b      	ldrh	r3, [r3, #0]
10001630:	b29b      	uxth	r3, r3
10001632:	2b00      	cmp	r3, #0
10001634:	d1f4      	bne.n	10001620 <p2pPollMaster+0x92c>
10001636:	466b      	mov	r3, sp
10001638:	3307      	adds	r3, #7
1000163a:	781b      	ldrb	r3, [r3, #0]
1000163c:	18ff      	adds	r7, r7, r3
1000163e:	b2bf      	uxth	r7, r7
10001640:	0231      	lsls	r1, r6, #8
10001642:	0a36      	lsrs	r6, r6, #8
10001644:	4073      	eors	r3, r6
10001646:	4a55      	ldr	r2, [pc, #340]	; (1000179c <p2pPollMaster+0xaa8>)
10001648:	005b      	lsls	r3, r3, #1
1000164a:	5a9e      	ldrh	r6, [r3, r2]
1000164c:	404e      	eors	r6, r1
1000164e:	b2b6      	uxth	r6, r6
10001650:	e7c5      	b.n	100015de <p2pPollMaster+0x8ea>
10001652:	4b53      	ldr	r3, [pc, #332]	; (100017a0 <p2pPollMaster+0xaac>)
10001654:	781b      	ldrb	r3, [r3, #0]
10001656:	2b00      	cmp	r3, #0
10001658:	d001      	beq.n	1000165e <p2pPollMaster+0x96a>
1000165a:	2c10      	cmp	r4, #16
1000165c:	d112      	bne.n	10001684 <p2pPollMaster+0x990>
1000165e:	466b      	mov	r3, sp
10001660:	1dd8      	adds	r0, r3, #7
10001662:	f7ff fafb 	bl	10000c5c <p2pRxByteMaster>
10001666:	2801      	cmp	r0, #1
10001668:	d004      	beq.n	10001674 <p2pPollMaster+0x980>
1000166a:	4b4b      	ldr	r3, [pc, #300]	; (10001798 <p2pPollMaster+0xaa4>)
1000166c:	881b      	ldrh	r3, [r3, #0]
1000166e:	b29b      	uxth	r3, r3
10001670:	2b00      	cmp	r3, #0
10001672:	d1f4      	bne.n	1000165e <p2pPollMaster+0x96a>
10001674:	4b48      	ldr	r3, [pc, #288]	; (10001798 <p2pPollMaster+0xaa4>)
10001676:	881b      	ldrh	r3, [r3, #0]
10001678:	b29b      	uxth	r3, r3
1000167a:	2b00      	cmp	r3, #0
1000167c:	d11b      	bne.n	100016b6 <p2pPollMaster+0x9c2>
1000167e:	2500      	movs	r5, #0
10001680:	f7ff fb4b 	bl	10000d1a <p2pPollMaster+0x26>
10001684:	466b      	mov	r3, sp
10001686:	1dd8      	adds	r0, r3, #7
10001688:	f7ff fae8 	bl	10000c5c <p2pRxByteMaster>
1000168c:	2801      	cmp	r0, #1
1000168e:	d004      	beq.n	1000169a <p2pPollMaster+0x9a6>
10001690:	4b41      	ldr	r3, [pc, #260]	; (10001798 <p2pPollMaster+0xaa4>)
10001692:	881b      	ldrh	r3, [r3, #0]
10001694:	b29b      	uxth	r3, r3
10001696:	2b00      	cmp	r3, #0
10001698:	d1f4      	bne.n	10001684 <p2pPollMaster+0x990>
1000169a:	466b      	mov	r3, sp
1000169c:	3307      	adds	r3, #7
1000169e:	781b      	ldrb	r3, [r3, #0]
100016a0:	18ff      	adds	r7, r7, r3
100016a2:	b2bf      	uxth	r7, r7
100016a4:	0231      	lsls	r1, r6, #8
100016a6:	0a36      	lsrs	r6, r6, #8
100016a8:	4073      	eors	r3, r6
100016aa:	4a3c      	ldr	r2, [pc, #240]	; (1000179c <p2pPollMaster+0xaa8>)
100016ac:	005b      	lsls	r3, r3, #1
100016ae:	5a9e      	ldrh	r6, [r3, r2]
100016b0:	404e      	eors	r6, r1
100016b2:	b2b6      	uxth	r6, r6
100016b4:	e7d3      	b.n	1000165e <p2pPollMaster+0x96a>
100016b6:	466b      	mov	r3, sp
100016b8:	79dc      	ldrb	r4, [r3, #7]
100016ba:	0224      	lsls	r4, r4, #8
100016bc:	466b      	mov	r3, sp
100016be:	1dd8      	adds	r0, r3, #7
100016c0:	f7ff facc 	bl	10000c5c <p2pRxByteMaster>
100016c4:	2801      	cmp	r0, #1
100016c6:	d004      	beq.n	100016d2 <p2pPollMaster+0x9de>
100016c8:	4b33      	ldr	r3, [pc, #204]	; (10001798 <p2pPollMaster+0xaa4>)
100016ca:	881b      	ldrh	r3, [r3, #0]
100016cc:	b29b      	uxth	r3, r3
100016ce:	2b00      	cmp	r3, #0
100016d0:	d1f4      	bne.n	100016bc <p2pPollMaster+0x9c8>
100016d2:	4b33      	ldr	r3, [pc, #204]	; (100017a0 <p2pPollMaster+0xaac>)
100016d4:	781b      	ldrb	r3, [r3, #0]
100016d6:	4b30      	ldr	r3, [pc, #192]	; (10001798 <p2pPollMaster+0xaa4>)
100016d8:	881b      	ldrh	r3, [r3, #0]
100016da:	b29b      	uxth	r3, r3
100016dc:	2b00      	cmp	r3, #0
100016de:	d03c      	beq.n	1000175a <p2pPollMaster+0xa66>
100016e0:	466b      	mov	r3, sp
100016e2:	3307      	adds	r3, #7
100016e4:	781b      	ldrb	r3, [r3, #0]
100016e6:	18e3      	adds	r3, r4, r3
100016e8:	b29b      	uxth	r3, r3
100016ea:	42bb      	cmp	r3, r7
100016ec:	d001      	beq.n	100016f2 <p2pPollMaster+0x9fe>
100016ee:	42b3      	cmp	r3, r6
100016f0:	d112      	bne.n	10001718 <p2pPollMaster+0xa24>
100016f2:	200a      	movs	r0, #10
100016f4:	f003 faba 	bl	10004c6c <sleep_ms>
100016f8:	4b2a      	ldr	r3, [pc, #168]	; (100017a4 <p2pPollMaster+0xab0>)
100016fa:	781b      	ldrb	r3, [r3, #0]
100016fc:	2b00      	cmp	r3, #0
100016fe:	d115      	bne.n	1000172c <p2pPollMaster+0xa38>
10001700:	2010      	movs	r0, #16
10001702:	f7ff fa3f 	bl	10000b84 <p2pTxByteMaster>
10001706:	2016      	movs	r0, #22
10001708:	f7ff fa3c 	bl	10000b84 <p2pTxByteMaster>
1000170c:	4b26      	ldr	r3, [pc, #152]	; (100017a8 <p2pPollMaster+0xab4>)
1000170e:	2202      	movs	r2, #2
10001710:	801a      	strh	r2, [r3, #0]
10001712:	2500      	movs	r5, #0
10001714:	f7ff fb01 	bl	10000d1a <p2pPollMaster+0x26>
10001718:	2010      	movs	r0, #16
1000171a:	f7ff fa33 	bl	10000b84 <p2pTxByteMaster>
1000171e:	2019      	movs	r0, #25
10001720:	f7ff fa30 	bl	10000b84 <p2pTxByteMaster>
10001724:	2006      	movs	r0, #6
10001726:	f7ff fa2d 	bl	10000b84 <p2pTxByteMaster>
1000172a:	e7e2      	b.n	100016f2 <p2pPollMaster+0x9fe>
1000172c:	2010      	movs	r0, #16
1000172e:	f7ff fa29 	bl	10000b84 <p2pTxByteMaster>
10001732:	2021      	movs	r0, #33	; 0x21
10001734:	f7ff fa26 	bl	10000b84 <p2pTxByteMaster>
10001738:	4b1c      	ldr	r3, [pc, #112]	; (100017ac <p2pPollMaster+0xab8>)
1000173a:	7818      	ldrb	r0, [r3, #0]
1000173c:	f7ff fa22 	bl	10000b84 <p2pTxByteMaster>
10001740:	e7de      	b.n	10001700 <p2pPollMaster+0xa0c>
10001742:	2500      	movs	r5, #0
10001744:	f7ff fae9 	bl	10000d1a <p2pPollMaster+0x26>
10001748:	2500      	movs	r5, #0
1000174a:	f7ff fae6 	bl	10000d1a <p2pPollMaster+0x26>
1000174e:	2500      	movs	r5, #0
10001750:	f7ff fae3 	bl	10000d1a <p2pPollMaster+0x26>
10001754:	2500      	movs	r5, #0
10001756:	f7ff fae0 	bl	10000d1a <p2pPollMaster+0x26>
1000175a:	2500      	movs	r5, #0
1000175c:	f7ff fadd 	bl	10000d1a <p2pPollMaster+0x26>
10001760:	4b0d      	ldr	r3, [pc, #52]	; (10001798 <p2pPollMaster+0xaa4>)
10001762:	881b      	ldrh	r3, [r3, #0]
10001764:	b29b      	uxth	r3, r3
10001766:	2b00      	cmp	r3, #0
10001768:	d103      	bne.n	10001772 <p2pPollMaster+0xa7e>
1000176a:	4b0e      	ldr	r3, [pc, #56]	; (100017a4 <p2pPollMaster+0xab0>)
1000176c:	781b      	ldrb	r3, [r3, #0]
1000176e:	2b00      	cmp	r3, #0
10001770:	d107      	bne.n	10001782 <p2pPollMaster+0xa8e>
10001772:	4b09      	ldr	r3, [pc, #36]	; (10001798 <p2pPollMaster+0xaa4>)
10001774:	8818      	ldrh	r0, [r3, #0]
10001776:	b280      	uxth	r0, r0
10001778:	b003      	add	sp, #12
1000177a:	bcc0      	pop	{r6, r7}
1000177c:	46b9      	mov	r9, r7
1000177e:	46b0      	mov	r8, r6
10001780:	bdf0      	pop	{r4, r5, r6, r7, pc}
10001782:	2010      	movs	r0, #16
10001784:	f7ff f9fe 	bl	10000b84 <p2pTxByteMaster>
10001788:	2019      	movs	r0, #25
1000178a:	f7ff f9fb 	bl	10000b84 <p2pTxByteMaster>
1000178e:	2001      	movs	r0, #1
10001790:	f7ff f9f8 	bl	10000b84 <p2pTxByteMaster>
10001794:	e7ed      	b.n	10001772 <p2pPollMaster+0xa7e>
10001796:	46c0      	nop			; (mov r8, r8)
10001798:	20001f44 	.word	0x20001f44
1000179c:	1000abb8 	.word	0x1000abb8
100017a0:	20001f64 	.word	0x20001f64
100017a4:	20001f63 	.word	0x20001f63
100017a8:	20001f42 	.word	0x20001f42
100017ac:	20001f68 	.word	0x20001f68

100017b0 <p2pPollSlaveRead>:
100017b0:	b530      	push	{r4, r5, lr}
100017b2:	b083      	sub	sp, #12
100017b4:	466b      	mov	r3, sp
100017b6:	2200      	movs	r2, #0
100017b8:	71da      	strb	r2, [r3, #7]
100017ba:	e007      	b.n	100017cc <p2pPollSlaveRead+0x1c>
100017bc:	466b      	mov	r3, sp
100017be:	3307      	adds	r3, #7
100017c0:	781b      	ldrb	r3, [r3, #0]
100017c2:	2b1a      	cmp	r3, #26
100017c4:	d01f      	beq.n	10001806 <p2pPollSlaveRead+0x56>
100017c6:	2b19      	cmp	r3, #25
100017c8:	d100      	bne.n	100017cc <p2pPollSlaveRead+0x1c>
100017ca:	e0bb      	b.n	10001944 <p2pPollSlaveRead+0x194>
100017cc:	4b74      	ldr	r3, [pc, #464]	; (100019a0 <p2pPollSlaveRead+0x1f0>)
100017ce:	881b      	ldrh	r3, [r3, #0]
100017d0:	b29b      	uxth	r3, r3
100017d2:	2b00      	cmp	r3, #0
100017d4:	d100      	bne.n	100017d8 <p2pPollSlaveRead+0x28>
100017d6:	e097      	b.n	10001908 <p2pPollSlaveRead+0x158>
100017d8:	466b      	mov	r3, sp
100017da:	1dd8      	adds	r0, r3, #7
100017dc:	f7ff fa64 	bl	10000ca8 <p2pRxByteSlave>
100017e0:	2801      	cmp	r0, #1
100017e2:	d1f3      	bne.n	100017cc <p2pPollSlaveRead+0x1c>
100017e4:	466b      	mov	r3, sp
100017e6:	3307      	adds	r3, #7
100017e8:	781b      	ldrb	r3, [r3, #0]
100017ea:	2b10      	cmp	r3, #16
100017ec:	d1ee      	bne.n	100017cc <p2pPollSlaveRead+0x1c>
100017ee:	466b      	mov	r3, sp
100017f0:	1dd8      	adds	r0, r3, #7
100017f2:	f7ff fa59 	bl	10000ca8 <p2pRxByteSlave>
100017f6:	2801      	cmp	r0, #1
100017f8:	d0e0      	beq.n	100017bc <p2pPollSlaveRead+0xc>
100017fa:	4b69      	ldr	r3, [pc, #420]	; (100019a0 <p2pPollSlaveRead+0x1f0>)
100017fc:	881b      	ldrh	r3, [r3, #0]
100017fe:	b29b      	uxth	r3, r3
10001800:	2b00      	cmp	r3, #0
10001802:	d1f4      	bne.n	100017ee <p2pPollSlaveRead+0x3e>
10001804:	e7da      	b.n	100017bc <p2pPollSlaveRead+0xc>
10001806:	466b      	mov	r3, sp
10001808:	1dd8      	adds	r0, r3, #7
1000180a:	f7ff fa4d 	bl	10000ca8 <p2pRxByteSlave>
1000180e:	2801      	cmp	r0, #1
10001810:	d004      	beq.n	1000181c <p2pPollSlaveRead+0x6c>
10001812:	4b63      	ldr	r3, [pc, #396]	; (100019a0 <p2pPollSlaveRead+0x1f0>)
10001814:	881b      	ldrh	r3, [r3, #0]
10001816:	b29b      	uxth	r3, r3
10001818:	2b00      	cmp	r3, #0
1000181a:	d1f4      	bne.n	10001806 <p2pPollSlaveRead+0x56>
1000181c:	466b      	mov	r3, sp
1000181e:	79dc      	ldrb	r4, [r3, #7]
10001820:	1de5      	adds	r5, r4, #7
10001822:	e006      	b.n	10001832 <p2pPollSlaveRead+0x82>
10001824:	466b      	mov	r3, sp
10001826:	3307      	adds	r3, #7
10001828:	781b      	ldrb	r3, [r3, #0]
1000182a:	2b10      	cmp	r3, #16
1000182c:	d014      	beq.n	10001858 <p2pPollSlaveRead+0xa8>
1000182e:	3c01      	subs	r4, #1
10001830:	b2a4      	uxth	r4, r4
10001832:	2c00      	cmp	r4, #0
10001834:	d020      	beq.n	10001878 <p2pPollSlaveRead+0xc8>
10001836:	4b5a      	ldr	r3, [pc, #360]	; (100019a0 <p2pPollSlaveRead+0x1f0>)
10001838:	881b      	ldrh	r3, [r3, #0]
1000183a:	b29b      	uxth	r3, r3
1000183c:	2b00      	cmp	r3, #0
1000183e:	d01b      	beq.n	10001878 <p2pPollSlaveRead+0xc8>
10001840:	466b      	mov	r3, sp
10001842:	1dd8      	adds	r0, r3, #7
10001844:	f7ff fa30 	bl	10000ca8 <p2pRxByteSlave>
10001848:	2801      	cmp	r0, #1
1000184a:	d0eb      	beq.n	10001824 <p2pPollSlaveRead+0x74>
1000184c:	4b54      	ldr	r3, [pc, #336]	; (100019a0 <p2pPollSlaveRead+0x1f0>)
1000184e:	881b      	ldrh	r3, [r3, #0]
10001850:	b29b      	uxth	r3, r3
10001852:	2b00      	cmp	r3, #0
10001854:	d1f4      	bne.n	10001840 <p2pPollSlaveRead+0x90>
10001856:	e7e5      	b.n	10001824 <p2pPollSlaveRead+0x74>
10001858:	466b      	mov	r3, sp
1000185a:	1dd8      	adds	r0, r3, #7
1000185c:	f7ff fa24 	bl	10000ca8 <p2pRxByteSlave>
10001860:	2801      	cmp	r0, #1
10001862:	d004      	beq.n	1000186e <p2pPollSlaveRead+0xbe>
10001864:	4b4e      	ldr	r3, [pc, #312]	; (100019a0 <p2pPollSlaveRead+0x1f0>)
10001866:	881b      	ldrh	r3, [r3, #0]
10001868:	b29b      	uxth	r3, r3
1000186a:	2b00      	cmp	r3, #0
1000186c:	d1f4      	bne.n	10001858 <p2pPollSlaveRead+0xa8>
1000186e:	3c01      	subs	r4, #1
10001870:	b2a4      	uxth	r4, r4
10001872:	3501      	adds	r5, #1
10001874:	b2ad      	uxth	r5, r5
10001876:	e7dc      	b.n	10001832 <p2pPollSlaveRead+0x82>
10001878:	466b      	mov	r3, sp
1000187a:	1dd8      	adds	r0, r3, #7
1000187c:	f7ff fa14 	bl	10000ca8 <p2pRxByteSlave>
10001880:	2801      	cmp	r0, #1
10001882:	d004      	beq.n	1000188e <p2pPollSlaveRead+0xde>
10001884:	4b46      	ldr	r3, [pc, #280]	; (100019a0 <p2pPollSlaveRead+0x1f0>)
10001886:	881b      	ldrh	r3, [r3, #0]
10001888:	b29b      	uxth	r3, r3
1000188a:	2b00      	cmp	r3, #0
1000188c:	d1f4      	bne.n	10001878 <p2pPollSlaveRead+0xc8>
1000188e:	466b      	mov	r3, sp
10001890:	1dd8      	adds	r0, r3, #7
10001892:	f7ff fa09 	bl	10000ca8 <p2pRxByteSlave>
10001896:	2801      	cmp	r0, #1
10001898:	d004      	beq.n	100018a4 <p2pPollSlaveRead+0xf4>
1000189a:	4b41      	ldr	r3, [pc, #260]	; (100019a0 <p2pPollSlaveRead+0x1f0>)
1000189c:	881b      	ldrh	r3, [r3, #0]
1000189e:	b29b      	uxth	r3, r3
100018a0:	2b00      	cmp	r3, #0
100018a2:	d1f4      	bne.n	1000188e <p2pPollSlaveRead+0xde>
100018a4:	466b      	mov	r3, sp
100018a6:	1dd8      	adds	r0, r3, #7
100018a8:	f7ff f9fe 	bl	10000ca8 <p2pRxByteSlave>
100018ac:	2801      	cmp	r0, #1
100018ae:	d004      	beq.n	100018ba <p2pPollSlaveRead+0x10a>
100018b0:	4b3b      	ldr	r3, [pc, #236]	; (100019a0 <p2pPollSlaveRead+0x1f0>)
100018b2:	881b      	ldrh	r3, [r3, #0]
100018b4:	b29b      	uxth	r3, r3
100018b6:	2b00      	cmp	r3, #0
100018b8:	d1f4      	bne.n	100018a4 <p2pPollSlaveRead+0xf4>
100018ba:	466b      	mov	r3, sp
100018bc:	1dd8      	adds	r0, r3, #7
100018be:	f7ff f9f3 	bl	10000ca8 <p2pRxByteSlave>
100018c2:	2801      	cmp	r0, #1
100018c4:	d004      	beq.n	100018d0 <p2pPollSlaveRead+0x120>
100018c6:	4b36      	ldr	r3, [pc, #216]	; (100019a0 <p2pPollSlaveRead+0x1f0>)
100018c8:	881b      	ldrh	r3, [r3, #0]
100018ca:	b29b      	uxth	r3, r3
100018cc:	2b00      	cmp	r3, #0
100018ce:	d1f4      	bne.n	100018ba <p2pPollSlaveRead+0x10a>
100018d0:	4b34      	ldr	r3, [pc, #208]	; (100019a4 <p2pPollSlaveRead+0x1f4>)
100018d2:	781b      	ldrb	r3, [r3, #0]
100018d4:	2b00      	cmp	r3, #0
100018d6:	d104      	bne.n	100018e2 <p2pPollSlaveRead+0x132>
100018d8:	4b33      	ldr	r3, [pc, #204]	; (100019a8 <p2pPollSlaveRead+0x1f8>)
100018da:	881c      	ldrh	r4, [r3, #0]
100018dc:	1b64      	subs	r4, r4, r5
100018de:	b2a4      	uxth	r4, r4
100018e0:	e010      	b.n	10001904 <p2pPollSlaveRead+0x154>
100018e2:	2010      	movs	r0, #16
100018e4:	f7ff f94e 	bl	10000b84 <p2pTxByteMaster>
100018e8:	2021      	movs	r0, #33	; 0x21
100018ea:	f7ff f94b 	bl	10000b84 <p2pTxByteMaster>
100018ee:	4b2f      	ldr	r3, [pc, #188]	; (100019ac <p2pPollSlaveRead+0x1fc>)
100018f0:	7818      	ldrb	r0, [r3, #0]
100018f2:	f7ff f947 	bl	10000b84 <p2pTxByteMaster>
100018f6:	e7ef      	b.n	100018d8 <p2pPollSlaveRead+0x128>
100018f8:	4b2d      	ldr	r3, [pc, #180]	; (100019b0 <p2pPollSlaveRead+0x200>)
100018fa:	5d18      	ldrb	r0, [r3, r4]
100018fc:	f7ff f942 	bl	10000b84 <p2pTxByteMaster>
10001900:	3401      	adds	r4, #1
10001902:	b2a4      	uxth	r4, r4
10001904:	42a5      	cmp	r5, r4
10001906:	d8f7      	bhi.n	100018f8 <p2pPollSlaveRead+0x148>
10001908:	4b25      	ldr	r3, [pc, #148]	; (100019a0 <p2pPollSlaveRead+0x1f0>)
1000190a:	881b      	ldrh	r3, [r3, #0]
1000190c:	b29b      	uxth	r3, r3
1000190e:	2b00      	cmp	r3, #0
10001910:	d02e      	beq.n	10001970 <p2pPollSlaveRead+0x1c0>
10001912:	4828      	ldr	r0, [pc, #160]	; (100019b4 <p2pPollSlaveRead+0x204>)
10001914:	258c      	movs	r5, #140	; 0x8c
10001916:	00ad      	lsls	r5, r5, #2
10001918:	002a      	movs	r2, r5
1000191a:	2100      	movs	r1, #0
1000191c:	f006 f93a 	bl	10007b94 <__wrap_memset>
10001920:	4b25      	ldr	r3, [pc, #148]	; (100019b8 <p2pPollSlaveRead+0x208>)
10001922:	2400      	movs	r4, #0
10001924:	801c      	strh	r4, [r3, #0]
10001926:	4b25      	ldr	r3, [pc, #148]	; (100019bc <p2pPollSlaveRead+0x20c>)
10001928:	801c      	strh	r4, [r3, #0]
1000192a:	4821      	ldr	r0, [pc, #132]	; (100019b0 <p2pPollSlaveRead+0x200>)
1000192c:	002a      	movs	r2, r5
1000192e:	2100      	movs	r1, #0
10001930:	f006 f930 	bl	10007b94 <__wrap_memset>
10001934:	4b1c      	ldr	r3, [pc, #112]	; (100019a8 <p2pPollSlaveRead+0x1f8>)
10001936:	801c      	strh	r4, [r3, #0]
10001938:	801c      	strh	r4, [r3, #0]
1000193a:	4b19      	ldr	r3, [pc, #100]	; (100019a0 <p2pPollSlaveRead+0x1f0>)
1000193c:	8818      	ldrh	r0, [r3, #0]
1000193e:	b280      	uxth	r0, r0
10001940:	b003      	add	sp, #12
10001942:	bd30      	pop	{r4, r5, pc}
10001944:	466b      	mov	r3, sp
10001946:	1dd8      	adds	r0, r3, #7
10001948:	f7ff f9ae 	bl	10000ca8 <p2pRxByteSlave>
1000194c:	2801      	cmp	r0, #1
1000194e:	d004      	beq.n	1000195a <p2pPollSlaveRead+0x1aa>
10001950:	4b13      	ldr	r3, [pc, #76]	; (100019a0 <p2pPollSlaveRead+0x1f0>)
10001952:	881b      	ldrh	r3, [r3, #0]
10001954:	b29b      	uxth	r3, r3
10001956:	2b00      	cmp	r3, #0
10001958:	d1f4      	bne.n	10001944 <p2pPollSlaveRead+0x194>
1000195a:	2010      	movs	r0, #16
1000195c:	f7ff f912 	bl	10000b84 <p2pTxByteMaster>
10001960:	2019      	movs	r0, #25
10001962:	f7ff f90f 	bl	10000b84 <p2pTxByteMaster>
10001966:	466b      	mov	r3, sp
10001968:	79d8      	ldrb	r0, [r3, #7]
1000196a:	f7ff f90b 	bl	10000b84 <p2pTxByteMaster>
1000196e:	e7cb      	b.n	10001908 <p2pPollSlaveRead+0x158>
10001970:	4a13      	ldr	r2, [pc, #76]	; (100019c0 <p2pPollSlaveRead+0x210>)
10001972:	7813      	ldrb	r3, [r2, #0]
10001974:	3301      	adds	r3, #1
10001976:	7013      	strb	r3, [r2, #0]
10001978:	2010      	movs	r0, #16
1000197a:	f7ff f903 	bl	10000b84 <p2pTxByteMaster>
1000197e:	2021      	movs	r0, #33	; 0x21
10001980:	f7ff f900 	bl	10000b84 <p2pTxByteMaster>
10001984:	4b09      	ldr	r3, [pc, #36]	; (100019ac <p2pPollSlaveRead+0x1fc>)
10001986:	7818      	ldrb	r0, [r3, #0]
10001988:	f7ff f8fc 	bl	10000b84 <p2pTxByteMaster>
1000198c:	2010      	movs	r0, #16
1000198e:	f7ff f8f9 	bl	10000b84 <p2pTxByteMaster>
10001992:	2019      	movs	r0, #25
10001994:	f7ff f8f6 	bl	10000b84 <p2pTxByteMaster>
10001998:	2082      	movs	r0, #130	; 0x82
1000199a:	f7ff f8f3 	bl	10000b84 <p2pTxByteMaster>
1000199e:	e7b8      	b.n	10001912 <p2pPollSlaveRead+0x162>
100019a0:	20001f44 	.word	0x20001f44
100019a4:	20001f63 	.word	0x20001f63
100019a8:	20001f4c 	.word	0x20001f4c
100019ac:	20001f68 	.word	0x20001f68
100019b0:	20000ed0 	.word	0x20000ed0
100019b4:	20000ca0 	.word	0x20000ca0
100019b8:	20001f46 	.word	0x20001f46
100019bc:	20001f48 	.word	0x20001f48
100019c0:	20001f6f 	.word	0x20001f6f

100019c4 <p2pPollSlaveWrite>:
100019c4:	b5f0      	push	{r4, r5, r6, r7, lr}
100019c6:	46de      	mov	lr, fp
100019c8:	4657      	mov	r7, sl
100019ca:	464e      	mov	r6, r9
100019cc:	4645      	mov	r5, r8
100019ce:	b5e0      	push	{r5, r6, r7, lr}
100019d0:	b087      	sub	sp, #28
100019d2:	ab04      	add	r3, sp, #16
100019d4:	2200      	movs	r2, #0
100019d6:	71da      	strb	r2, [r3, #7]
100019d8:	2600      	movs	r6, #0
100019da:	2500      	movs	r5, #0
100019dc:	2300      	movs	r3, #0
100019de:	4698      	mov	r8, r3
100019e0:	2401      	movs	r4, #1
100019e2:	2c00      	cmp	r4, #0
100019e4:	d101      	bne.n	100019ea <p2pPollSlaveWrite+0x26>
100019e6:	f000 fbe4 	bl	100021b2 <p2pPollSlaveWrite+0x7ee>
100019ea:	4bc1      	ldr	r3, [pc, #772]	; (10001cf0 <p2pPollSlaveWrite+0x32c>)
100019ec:	881b      	ldrh	r3, [r3, #0]
100019ee:	b29b      	uxth	r3, r3
100019f0:	2b00      	cmp	r3, #0
100019f2:	d101      	bne.n	100019f8 <p2pPollSlaveWrite+0x34>
100019f4:	f000 fbdd 	bl	100021b2 <p2pPollSlaveWrite+0x7ee>
100019f8:	ab04      	add	r3, sp, #16
100019fa:	1dd8      	adds	r0, r3, #7
100019fc:	f7ff f92e 	bl	10000c5c <p2pRxByteMaster>
10001a00:	0007      	movs	r7, r0
10001a02:	2801      	cmp	r0, #1
10001a04:	d1ed      	bne.n	100019e2 <p2pPollSlaveWrite+0x1e>
10001a06:	4bba      	ldr	r3, [pc, #744]	; (10001cf0 <p2pPollSlaveWrite+0x32c>)
10001a08:	22fa      	movs	r2, #250	; 0xfa
10001a0a:	0052      	lsls	r2, r2, #1
10001a0c:	801a      	strh	r2, [r3, #0]
10001a0e:	ab04      	add	r3, sp, #16
10001a10:	3307      	adds	r3, #7
10001a12:	781b      	ldrb	r3, [r3, #0]
10001a14:	2b10      	cmp	r3, #16
10001a16:	d1e4      	bne.n	100019e2 <p2pPollSlaveWrite+0x1e>
10001a18:	4ab6      	ldr	r2, [pc, #728]	; (10001cf4 <p2pPollSlaveWrite+0x330>)
10001a1a:	8812      	ldrh	r2, [r2, #0]
10001a1c:	18ed      	adds	r5, r5, r3
10001a1e:	b2ad      	uxth	r5, r5
10001a20:	0231      	lsls	r1, r6, #8
10001a22:	0a36      	lsrs	r6, r6, #8
10001a24:	4073      	eors	r3, r6
10001a26:	4ab4      	ldr	r2, [pc, #720]	; (10001cf8 <p2pPollSlaveWrite+0x334>)
10001a28:	005b      	lsls	r3, r3, #1
10001a2a:	5a9e      	ldrh	r6, [r3, r2]
10001a2c:	404e      	eors	r6, r1
10001a2e:	b2b6      	uxth	r6, r6
10001a30:	ab04      	add	r3, sp, #16
10001a32:	1dd8      	adds	r0, r3, #7
10001a34:	f7ff f912 	bl	10000c5c <p2pRxByteMaster>
10001a38:	2801      	cmp	r0, #1
10001a3a:	d004      	beq.n	10001a46 <p2pPollSlaveWrite+0x82>
10001a3c:	4bac      	ldr	r3, [pc, #688]	; (10001cf0 <p2pPollSlaveWrite+0x32c>)
10001a3e:	881b      	ldrh	r3, [r3, #0]
10001a40:	b29b      	uxth	r3, r3
10001a42:	2b00      	cmp	r3, #0
10001a44:	d1f4      	bne.n	10001a30 <p2pPollSlaveWrite+0x6c>
10001a46:	ab04      	add	r3, sp, #16
10001a48:	3307      	adds	r3, #7
10001a4a:	781b      	ldrb	r3, [r3, #0]
10001a4c:	2b1a      	cmp	r3, #26
10001a4e:	d1c8      	bne.n	100019e2 <p2pPollSlaveWrite+0x1e>
10001a50:	4aa7      	ldr	r2, [pc, #668]	; (10001cf0 <p2pPollSlaveWrite+0x32c>)
10001a52:	8812      	ldrh	r2, [r2, #0]
10001a54:	b292      	uxth	r2, r2
10001a56:	2a00      	cmp	r2, #0
10001a58:	d0c3      	beq.n	100019e2 <p2pPollSlaveWrite+0x1e>
10001a5a:	18ed      	adds	r5, r5, r3
10001a5c:	b2ad      	uxth	r5, r5
10001a5e:	0231      	lsls	r1, r6, #8
10001a60:	0a36      	lsrs	r6, r6, #8
10001a62:	4073      	eors	r3, r6
10001a64:	4aa4      	ldr	r2, [pc, #656]	; (10001cf8 <p2pPollSlaveWrite+0x334>)
10001a66:	005b      	lsls	r3, r3, #1
10001a68:	5a9e      	ldrh	r6, [r3, r2]
10001a6a:	404e      	eors	r6, r1
10001a6c:	b2b6      	uxth	r6, r6
10001a6e:	ab04      	add	r3, sp, #16
10001a70:	1dd8      	adds	r0, r3, #7
10001a72:	f7ff f8f3 	bl	10000c5c <p2pRxByteMaster>
10001a76:	2801      	cmp	r0, #1
10001a78:	d004      	beq.n	10001a84 <p2pPollSlaveWrite+0xc0>
10001a7a:	4b9d      	ldr	r3, [pc, #628]	; (10001cf0 <p2pPollSlaveWrite+0x32c>)
10001a7c:	881b      	ldrh	r3, [r3, #0]
10001a7e:	b29b      	uxth	r3, r3
10001a80:	2b00      	cmp	r3, #0
10001a82:	d1f4      	bne.n	10001a6e <p2pPollSlaveWrite+0xaa>
10001a84:	ab04      	add	r3, sp, #16
10001a86:	3307      	adds	r3, #7
10001a88:	781b      	ldrb	r3, [r3, #0]
10001a8a:	4699      	mov	r9, r3
10001a8c:	444d      	add	r5, r9
10001a8e:	b2ad      	uxth	r5, r5
10001a90:	0231      	lsls	r1, r6, #8
10001a92:	0a33      	lsrs	r3, r6, #8
10001a94:	464a      	mov	r2, r9
10001a96:	4053      	eors	r3, r2
10001a98:	4a97      	ldr	r2, [pc, #604]	; (10001cf8 <p2pPollSlaveWrite+0x334>)
10001a9a:	005b      	lsls	r3, r3, #1
10001a9c:	5a9e      	ldrh	r6, [r3, r2]
10001a9e:	404e      	eors	r6, r1
10001aa0:	b2b6      	uxth	r6, r6
10001aa2:	464b      	mov	r3, r9
10001aa4:	3307      	adds	r3, #7
10001aa6:	b2db      	uxtb	r3, r3
10001aa8:	469a      	mov	sl, r3
10001aaa:	0023      	movs	r3, r4
10001aac:	464c      	mov	r4, r9
10001aae:	4699      	mov	r9, r3
10001ab0:	e00f      	b.n	10001ad2 <p2pPollSlaveWrite+0x10e>
10001ab2:	ab04      	add	r3, sp, #16
10001ab4:	79da      	ldrb	r2, [r3, #7]
10001ab6:	18ad      	adds	r5, r5, r2
10001ab8:	b2ad      	uxth	r5, r5
10001aba:	0230      	lsls	r0, r6, #8
10001abc:	0a33      	lsrs	r3, r6, #8
10001abe:	4053      	eors	r3, r2
10001ac0:	498d      	ldr	r1, [pc, #564]	; (10001cf8 <p2pPollSlaveWrite+0x334>)
10001ac2:	005b      	lsls	r3, r3, #1
10001ac4:	5a5e      	ldrh	r6, [r3, r1]
10001ac6:	4046      	eors	r6, r0
10001ac8:	b2b6      	uxth	r6, r6
10001aca:	2a10      	cmp	r2, #16
10001acc:	d014      	beq.n	10001af8 <p2pPollSlaveWrite+0x134>
10001ace:	3c01      	subs	r4, #1
10001ad0:	b2e4      	uxtb	r4, r4
10001ad2:	2c00      	cmp	r4, #0
10001ad4:	d031      	beq.n	10001b3a <p2pPollSlaveWrite+0x176>
10001ad6:	4b86      	ldr	r3, [pc, #536]	; (10001cf0 <p2pPollSlaveWrite+0x32c>)
10001ad8:	881b      	ldrh	r3, [r3, #0]
10001ada:	b29b      	uxth	r3, r3
10001adc:	2b00      	cmp	r3, #0
10001ade:	d02a      	beq.n	10001b36 <p2pPollSlaveWrite+0x172>
10001ae0:	ab04      	add	r3, sp, #16
10001ae2:	1dd8      	adds	r0, r3, #7
10001ae4:	f7ff f8ba 	bl	10000c5c <p2pRxByteMaster>
10001ae8:	2801      	cmp	r0, #1
10001aea:	d0e2      	beq.n	10001ab2 <p2pPollSlaveWrite+0xee>
10001aec:	4b80      	ldr	r3, [pc, #512]	; (10001cf0 <p2pPollSlaveWrite+0x32c>)
10001aee:	881b      	ldrh	r3, [r3, #0]
10001af0:	b29b      	uxth	r3, r3
10001af2:	2b00      	cmp	r3, #0
10001af4:	d1f4      	bne.n	10001ae0 <p2pPollSlaveWrite+0x11c>
10001af6:	e7dc      	b.n	10001ab2 <p2pPollSlaveWrite+0xee>
10001af8:	ab04      	add	r3, sp, #16
10001afa:	1dd8      	adds	r0, r3, #7
10001afc:	f7ff f8ae 	bl	10000c5c <p2pRxByteMaster>
10001b00:	2801      	cmp	r0, #1
10001b02:	d004      	beq.n	10001b0e <p2pPollSlaveWrite+0x14a>
10001b04:	4b7a      	ldr	r3, [pc, #488]	; (10001cf0 <p2pPollSlaveWrite+0x32c>)
10001b06:	881b      	ldrh	r3, [r3, #0]
10001b08:	b29b      	uxth	r3, r3
10001b0a:	2b00      	cmp	r3, #0
10001b0c:	d1f4      	bne.n	10001af8 <p2pPollSlaveWrite+0x134>
10001b0e:	ab04      	add	r3, sp, #16
10001b10:	3307      	adds	r3, #7
10001b12:	781b      	ldrb	r3, [r3, #0]
10001b14:	18ed      	adds	r5, r5, r3
10001b16:	b2ad      	uxth	r5, r5
10001b18:	0231      	lsls	r1, r6, #8
10001b1a:	0a36      	lsrs	r6, r6, #8
10001b1c:	4073      	eors	r3, r6
10001b1e:	4a76      	ldr	r2, [pc, #472]	; (10001cf8 <p2pPollSlaveWrite+0x334>)
10001b20:	005b      	lsls	r3, r3, #1
10001b22:	5a9e      	ldrh	r6, [r3, r2]
10001b24:	404e      	eors	r6, r1
10001b26:	b2b6      	uxth	r6, r6
10001b28:	3c01      	subs	r4, #1
10001b2a:	b2e4      	uxtb	r4, r4
10001b2c:	4653      	mov	r3, sl
10001b2e:	3301      	adds	r3, #1
10001b30:	b2db      	uxtb	r3, r3
10001b32:	469a      	mov	sl, r3
10001b34:	e7cd      	b.n	10001ad2 <p2pPollSlaveWrite+0x10e>
10001b36:	464c      	mov	r4, r9
10001b38:	e000      	b.n	10001b3c <p2pPollSlaveWrite+0x178>
10001b3a:	464c      	mov	r4, r9
10001b3c:	ab04      	add	r3, sp, #16
10001b3e:	1dd8      	adds	r0, r3, #7
10001b40:	f7ff f88c 	bl	10000c5c <p2pRxByteMaster>
10001b44:	2801      	cmp	r0, #1
10001b46:	d004      	beq.n	10001b52 <p2pPollSlaveWrite+0x18e>
10001b48:	4b69      	ldr	r3, [pc, #420]	; (10001cf0 <p2pPollSlaveWrite+0x32c>)
10001b4a:	881b      	ldrh	r3, [r3, #0]
10001b4c:	b29b      	uxth	r3, r3
10001b4e:	2b00      	cmp	r3, #0
10001b50:	d1f4      	bne.n	10001b3c <p2pPollSlaveWrite+0x178>
10001b52:	ab04      	add	r3, sp, #16
10001b54:	3307      	adds	r3, #7
10001b56:	781b      	ldrb	r3, [r3, #0]
10001b58:	18ed      	adds	r5, r5, r3
10001b5a:	b2ad      	uxth	r5, r5
10001b5c:	0231      	lsls	r1, r6, #8
10001b5e:	0a36      	lsrs	r6, r6, #8
10001b60:	4073      	eors	r3, r6
10001b62:	4a65      	ldr	r2, [pc, #404]	; (10001cf8 <p2pPollSlaveWrite+0x334>)
10001b64:	005b      	lsls	r3, r3, #1
10001b66:	5a9e      	ldrh	r6, [r3, r2]
10001b68:	404e      	eors	r6, r1
10001b6a:	b2b6      	uxth	r6, r6
10001b6c:	ab04      	add	r3, sp, #16
10001b6e:	1dd8      	adds	r0, r3, #7
10001b70:	f7ff f874 	bl	10000c5c <p2pRxByteMaster>
10001b74:	2801      	cmp	r0, #1
10001b76:	d004      	beq.n	10001b82 <p2pPollSlaveWrite+0x1be>
10001b78:	4b5d      	ldr	r3, [pc, #372]	; (10001cf0 <p2pPollSlaveWrite+0x32c>)
10001b7a:	881b      	ldrh	r3, [r3, #0]
10001b7c:	b29b      	uxth	r3, r3
10001b7e:	2b00      	cmp	r3, #0
10001b80:	d1f4      	bne.n	10001b6c <p2pPollSlaveWrite+0x1a8>
10001b82:	ab04      	add	r3, sp, #16
10001b84:	3307      	adds	r3, #7
10001b86:	781b      	ldrb	r3, [r3, #0]
10001b88:	18ed      	adds	r5, r5, r3
10001b8a:	b2ad      	uxth	r5, r5
10001b8c:	0231      	lsls	r1, r6, #8
10001b8e:	0a36      	lsrs	r6, r6, #8
10001b90:	4073      	eors	r3, r6
10001b92:	4a59      	ldr	r2, [pc, #356]	; (10001cf8 <p2pPollSlaveWrite+0x334>)
10001b94:	005b      	lsls	r3, r3, #1
10001b96:	5a9e      	ldrh	r6, [r3, r2]
10001b98:	404e      	eors	r6, r1
10001b9a:	b2b6      	uxth	r6, r6
10001b9c:	ab04      	add	r3, sp, #16
10001b9e:	1dd8      	adds	r0, r3, #7
10001ba0:	f7ff f85c 	bl	10000c5c <p2pRxByteMaster>
10001ba4:	2801      	cmp	r0, #1
10001ba6:	d004      	beq.n	10001bb2 <p2pPollSlaveWrite+0x1ee>
10001ba8:	4b51      	ldr	r3, [pc, #324]	; (10001cf0 <p2pPollSlaveWrite+0x32c>)
10001baa:	881b      	ldrh	r3, [r3, #0]
10001bac:	b29b      	uxth	r3, r3
10001bae:	2b00      	cmp	r3, #0
10001bb0:	d1f4      	bne.n	10001b9c <p2pPollSlaveWrite+0x1d8>
10001bb2:	4b4f      	ldr	r3, [pc, #316]	; (10001cf0 <p2pPollSlaveWrite+0x32c>)
10001bb4:	881b      	ldrh	r3, [r3, #0]
10001bb6:	b29b      	uxth	r3, r3
10001bb8:	2b00      	cmp	r3, #0
10001bba:	d100      	bne.n	10001bbe <p2pPollSlaveWrite+0x1fa>
10001bbc:	e711      	b.n	100019e2 <p2pPollSlaveWrite+0x1e>
10001bbe:	ab04      	add	r3, sp, #16
10001bc0:	3307      	adds	r3, #7
10001bc2:	781b      	ldrb	r3, [r3, #0]
10001bc4:	021b      	lsls	r3, r3, #8
10001bc6:	4699      	mov	r9, r3
10001bc8:	ab04      	add	r3, sp, #16
10001bca:	1dd8      	adds	r0, r3, #7
10001bcc:	f7ff f846 	bl	10000c5c <p2pRxByteMaster>
10001bd0:	2801      	cmp	r0, #1
10001bd2:	d004      	beq.n	10001bde <p2pPollSlaveWrite+0x21a>
10001bd4:	4b46      	ldr	r3, [pc, #280]	; (10001cf0 <p2pPollSlaveWrite+0x32c>)
10001bd6:	881b      	ldrh	r3, [r3, #0]
10001bd8:	b29b      	uxth	r3, r3
10001bda:	2b00      	cmp	r3, #0
10001bdc:	d1f4      	bne.n	10001bc8 <p2pPollSlaveWrite+0x204>
10001bde:	4b44      	ldr	r3, [pc, #272]	; (10001cf0 <p2pPollSlaveWrite+0x32c>)
10001be0:	881b      	ldrh	r3, [r3, #0]
10001be2:	b29b      	uxth	r3, r3
10001be4:	2b00      	cmp	r3, #0
10001be6:	d024      	beq.n	10001c32 <p2pPollSlaveWrite+0x26e>
10001be8:	ab04      	add	r3, sp, #16
10001bea:	3307      	adds	r3, #7
10001bec:	781b      	ldrb	r3, [r3, #0]
10001bee:	444b      	add	r3, r9
10001bf0:	b29b      	uxth	r3, r3
10001bf2:	429d      	cmp	r5, r3
10001bf4:	d04a      	beq.n	10001c8c <p2pPollSlaveWrite+0x2c8>
10001bf6:	429e      	cmp	r6, r3
10001bf8:	d04a      	beq.n	10001c90 <p2pPollSlaveWrite+0x2cc>
10001bfa:	4b40      	ldr	r3, [pc, #256]	; (10001cfc <p2pPollSlaveWrite+0x338>)
10001bfc:	781b      	ldrb	r3, [r3, #0]
10001bfe:	2b00      	cmp	r3, #0
10001c00:	d10c      	bne.n	10001c1c <p2pPollSlaveWrite+0x258>
10001c02:	2010      	movs	r0, #16
10001c04:	f7fe ffbe 	bl	10000b84 <p2pTxByteMaster>
10001c08:	2019      	movs	r0, #25
10001c0a:	f7fe ffbb 	bl	10000b84 <p2pTxByteMaster>
10001c0e:	2006      	movs	r0, #6
10001c10:	f7fe ffb8 	bl	10000b84 <p2pTxByteMaster>
10001c14:	2300      	movs	r3, #0
10001c16:	4698      	mov	r8, r3
10001c18:	001c      	movs	r4, r3
10001c1a:	e6e2      	b.n	100019e2 <p2pPollSlaveWrite+0x1e>
10001c1c:	2010      	movs	r0, #16
10001c1e:	f7fe ffb1 	bl	10000b84 <p2pTxByteMaster>
10001c22:	2021      	movs	r0, #33	; 0x21
10001c24:	f7fe ffae 	bl	10000b84 <p2pTxByteMaster>
10001c28:	4b35      	ldr	r3, [pc, #212]	; (10001d00 <p2pPollSlaveWrite+0x33c>)
10001c2a:	7818      	ldrb	r0, [r3, #0]
10001c2c:	f7fe ffaa 	bl	10000b84 <p2pTxByteMaster>
10001c30:	e7e7      	b.n	10001c02 <p2pPollSlaveWrite+0x23e>
10001c32:	4643      	mov	r3, r8
10001c34:	2b00      	cmp	r3, #0
10001c36:	d100      	bne.n	10001c3a <p2pPollSlaveWrite+0x276>
10001c38:	e2b8      	b.n	100021ac <p2pPollSlaveWrite+0x7e8>
10001c3a:	4b30      	ldr	r3, [pc, #192]	; (10001cfc <p2pPollSlaveWrite+0x338>)
10001c3c:	781b      	ldrb	r3, [r3, #0]
10001c3e:	2b00      	cmp	r3, #0
10001c40:	d029      	beq.n	10001c96 <p2pPollSlaveWrite+0x2d2>
10001c42:	2303      	movs	r3, #3
10001c44:	9302      	str	r3, [sp, #8]
10001c46:	270c      	movs	r7, #12
10001c48:	4b2e      	ldr	r3, [pc, #184]	; (10001d04 <p2pPollSlaveWrite+0x340>)
10001c4a:	781b      	ldrb	r3, [r3, #0]
10001c4c:	2bff      	cmp	r3, #255	; 0xff
10001c4e:	d026      	beq.n	10001c9e <p2pPollSlaveWrite+0x2da>
10001c50:	4b2d      	ldr	r3, [pc, #180]	; (10001d08 <p2pPollSlaveWrite+0x344>)
10001c52:	2200      	movs	r2, #0
10001c54:	801a      	strh	r2, [r3, #0]
10001c56:	4b2d      	ldr	r3, [pc, #180]	; (10001d0c <p2pPollSlaveWrite+0x348>)
10001c58:	781b      	ldrb	r3, [r3, #0]
10001c5a:	b2da      	uxtb	r2, r3
10001c5c:	9201      	str	r2, [sp, #4]
10001c5e:	2b00      	cmp	r3, #0
10001c60:	d024      	beq.n	10001cac <p2pPollSlaveWrite+0x2e8>
10001c62:	2010      	movs	r0, #16
10001c64:	f7fe ff8e 	bl	10000b84 <p2pTxByteMaster>
10001c68:	2016      	movs	r0, #22
10001c6a:	f7fe ff8b 	bl	10000b84 <p2pTxByteMaster>
10001c6e:	4b28      	ldr	r3, [pc, #160]	; (10001d10 <p2pPollSlaveWrite+0x34c>)
10001c70:	781b      	ldrb	r3, [r3, #0]
10001c72:	2bfb      	cmp	r3, #251	; 0xfb
10001c74:	d100      	bne.n	10001c78 <p2pPollSlaveWrite+0x2b4>
10001c76:	e25f      	b.n	10002138 <p2pPollSlaveWrite+0x774>
10001c78:	4b25      	ldr	r3, [pc, #148]	; (10001d10 <p2pPollSlaveWrite+0x34c>)
10001c7a:	781a      	ldrb	r2, [r3, #0]
10001c7c:	2afc      	cmp	r2, #252	; 0xfc
10001c7e:	d100      	bne.n	10001c82 <p2pPollSlaveWrite+0x2be>
10001c80:	e270      	b.n	10002164 <p2pPollSlaveWrite+0x7a0>
10001c82:	2afd      	cmp	r2, #253	; 0xfd
10001c84:	d100      	bne.n	10001c88 <p2pPollSlaveWrite+0x2c4>
10001c86:	e285      	b.n	10002194 <p2pPollSlaveWrite+0x7d0>
10001c88:	2400      	movs	r4, #0
10001c8a:	e6aa      	b.n	100019e2 <p2pPollSlaveWrite+0x1e>
10001c8c:	46b8      	mov	r8, r7
10001c8e:	e7d4      	b.n	10001c3a <p2pPollSlaveWrite+0x276>
10001c90:	2302      	movs	r3, #2
10001c92:	4698      	mov	r8, r3
10001c94:	e7d1      	b.n	10001c3a <p2pPollSlaveWrite+0x276>
10001c96:	2300      	movs	r3, #0
10001c98:	9302      	str	r3, [sp, #8]
10001c9a:	2709      	movs	r7, #9
10001c9c:	e7d4      	b.n	10001c48 <p2pPollSlaveWrite+0x284>
10001c9e:	3701      	adds	r7, #1
10001ca0:	b2bf      	uxth	r7, r7
10001ca2:	9b02      	ldr	r3, [sp, #8]
10001ca4:	3301      	adds	r3, #1
10001ca6:	b29b      	uxth	r3, r3
10001ca8:	9302      	str	r3, [sp, #8]
10001caa:	e7d1      	b.n	10001c50 <p2pPollSlaveWrite+0x28c>
10001cac:	9b02      	ldr	r3, [sp, #8]
10001cae:	46b3      	mov	fp, r6
10001cb0:	9403      	str	r4, [sp, #12]
10001cb2:	46d1      	mov	r9, sl
10001cb4:	46aa      	mov	sl, r5
10001cb6:	001d      	movs	r5, r3
10001cb8:	e041      	b.n	10001d3e <p2pPollSlaveWrite+0x37a>
10001cba:	1dd9      	adds	r1, r3, #7
10001cbc:	4e11      	ldr	r6, [pc, #68]	; (10001d04 <p2pPollSlaveWrite+0x340>)
10001cbe:	5c71      	ldrb	r1, [r6, r1]
10001cc0:	2910      	cmp	r1, #16
10001cc2:	d14e      	bne.n	10001d62 <p2pPollSlaveWrite+0x39e>
10001cc4:	3702      	adds	r7, #2
10001cc6:	b2bf      	uxth	r7, r7
10001cc8:	e037      	b.n	10001d3a <p2pPollSlaveWrite+0x376>
10001cca:	3307      	adds	r3, #7
10001ccc:	490d      	ldr	r1, [pc, #52]	; (10001d04 <p2pPollSlaveWrite+0x340>)
10001cce:	5ccb      	ldrb	r3, [r1, r3]
10001cd0:	2b10      	cmp	r3, #16
10001cd2:	d048      	beq.n	10001d66 <p2pPollSlaveWrite+0x3a2>
10001cd4:	3701      	adds	r7, #1
10001cd6:	b2bf      	uxth	r7, r7
10001cd8:	e02f      	b.n	10001d3a <p2pPollSlaveWrite+0x376>
10001cda:	3701      	adds	r7, #1
10001cdc:	b2bf      	uxth	r7, r7
10001cde:	e048      	b.n	10001d72 <p2pPollSlaveWrite+0x3ae>
10001ce0:	4b08      	ldr	r3, [pc, #32]	; (10001d04 <p2pPollSlaveWrite+0x340>)
10001ce2:	5d1b      	ldrb	r3, [r3, r4]
10001ce4:	4a08      	ldr	r2, [pc, #32]	; (10001d08 <p2pPollSlaveWrite+0x344>)
10001ce6:	8811      	ldrh	r1, [r2, #0]
10001ce8:	185b      	adds	r3, r3, r1
10001cea:	8013      	strh	r3, [r2, #0]
10001cec:	e025      	b.n	10001d3a <p2pPollSlaveWrite+0x376>
10001cee:	46c0      	nop			; (mov r8, r8)
10001cf0:	20001f44 	.word	0x20001f44
10001cf4:	20001f48 	.word	0x20001f48
10001cf8:	1000abb8 	.word	0x1000abb8
10001cfc:	20001f63 	.word	0x20001f63
10001d00:	20001f68 	.word	0x20001f68
10001d04:	20000ca0 	.word	0x20000ca0
10001d08:	20001f40 	.word	0x20001f40
10001d0c:	20001f61 	.word	0x20001f61
10001d10:	20001f67 	.word	0x20001f67
10001d14:	4bc4      	ldr	r3, [pc, #784]	; (10002028 <p2pPollSlaveWrite+0x664>)
10001d16:	5d58      	ldrb	r0, [r3, r5]
10001d18:	f7fe ff6a 	bl	10000bf0 <p2pTxByteSlave>
10001d1c:	4643      	mov	r3, r8
10001d1e:	2b01      	cmp	r3, #1
10001d20:	d03b      	beq.n	10001d9a <p2pPollSlaveWrite+0x3d6>
10001d22:	49c2      	ldr	r1, [pc, #776]	; (1000202c <p2pPollSlaveWrite+0x668>)
10001d24:	880b      	ldrh	r3, [r1, #0]
10001d26:	0218      	lsls	r0, r3, #8
10001d28:	0a1b      	lsrs	r3, r3, #8
10001d2a:	4abf      	ldr	r2, [pc, #764]	; (10002028 <p2pPollSlaveWrite+0x664>)
10001d2c:	5d52      	ldrb	r2, [r2, r5]
10001d2e:	4053      	eors	r3, r2
10001d30:	4abf      	ldr	r2, [pc, #764]	; (10002030 <p2pPollSlaveWrite+0x66c>)
10001d32:	005b      	lsls	r3, r3, #1
10001d34:	5a9b      	ldrh	r3, [r3, r2]
10001d36:	4043      	eors	r3, r0
10001d38:	800b      	strh	r3, [r1, #0]
10001d3a:	3501      	adds	r5, #1
10001d3c:	b2ad      	uxth	r5, r5
10001d3e:	42af      	cmp	r7, r5
10001d40:	d932      	bls.n	10001da8 <p2pPollSlaveWrite+0x3e4>
10001d42:	9902      	ldr	r1, [sp, #8]
10001d44:	000b      	movs	r3, r1
10001d46:	1d0a      	adds	r2, r1, #4
10001d48:	002c      	movs	r4, r5
10001d4a:	42aa      	cmp	r2, r5
10001d4c:	d0f5      	beq.n	10001d3a <p2pPollSlaveWrite+0x376>
10001d4e:	1d4a      	adds	r2, r1, #5
10001d50:	4295      	cmp	r5, r2
10001d52:	d0f2      	beq.n	10001d3a <p2pPollSlaveWrite+0x376>
10001d54:	1d88      	adds	r0, r1, #6
10001d56:	4285      	cmp	r5, r0
10001d58:	d1dc      	bne.n	10001d14 <p2pPollSlaveWrite+0x350>
10001d5a:	49b3      	ldr	r1, [pc, #716]	; (10002028 <p2pPollSlaveWrite+0x664>)
10001d5c:	5c8a      	ldrb	r2, [r1, r2]
10001d5e:	2a10      	cmp	r2, #16
10001d60:	d0ab      	beq.n	10001cba <p2pPollSlaveWrite+0x2f6>
10001d62:	2a10      	cmp	r2, #16
10001d64:	d0b1      	beq.n	10001cca <p2pPollSlaveWrite+0x306>
10001d66:	2a10      	cmp	r2, #16
10001d68:	d003      	beq.n	10001d72 <p2pPollSlaveWrite+0x3ae>
10001d6a:	4baf      	ldr	r3, [pc, #700]	; (10002028 <p2pPollSlaveWrite+0x664>)
10001d6c:	5c1b      	ldrb	r3, [r3, r0]
10001d6e:	2b10      	cmp	r3, #16
10001d70:	d0b3      	beq.n	10001cda <p2pPollSlaveWrite+0x316>
10001d72:	4bad      	ldr	r3, [pc, #692]	; (10002028 <p2pPollSlaveWrite+0x664>)
10001d74:	5d18      	ldrb	r0, [r3, r4]
10001d76:	f7fe ff3b 	bl	10000bf0 <p2pTxByteSlave>
10001d7a:	4643      	mov	r3, r8
10001d7c:	2b01      	cmp	r3, #1
10001d7e:	d0af      	beq.n	10001ce0 <p2pPollSlaveWrite+0x31c>
10001d80:	49aa      	ldr	r1, [pc, #680]	; (1000202c <p2pPollSlaveWrite+0x668>)
10001d82:	880b      	ldrh	r3, [r1, #0]
10001d84:	0218      	lsls	r0, r3, #8
10001d86:	0a1b      	lsrs	r3, r3, #8
10001d88:	4aa7      	ldr	r2, [pc, #668]	; (10002028 <p2pPollSlaveWrite+0x664>)
10001d8a:	5d12      	ldrb	r2, [r2, r4]
10001d8c:	4053      	eors	r3, r2
10001d8e:	4aa8      	ldr	r2, [pc, #672]	; (10002030 <p2pPollSlaveWrite+0x66c>)
10001d90:	005b      	lsls	r3, r3, #1
10001d92:	5a9b      	ldrh	r3, [r3, r2]
10001d94:	4043      	eors	r3, r0
10001d96:	800b      	strh	r3, [r1, #0]
10001d98:	e7cf      	b.n	10001d3a <p2pPollSlaveWrite+0x376>
10001d9a:	4ba3      	ldr	r3, [pc, #652]	; (10002028 <p2pPollSlaveWrite+0x664>)
10001d9c:	5d5b      	ldrb	r3, [r3, r5]
10001d9e:	4aa3      	ldr	r2, [pc, #652]	; (1000202c <p2pPollSlaveWrite+0x668>)
10001da0:	8811      	ldrh	r1, [r2, #0]
10001da2:	185b      	adds	r3, r3, r1
10001da4:	8013      	strh	r3, [r2, #0]
10001da6:	e7c8      	b.n	10001d3a <p2pPollSlaveWrite+0x376>
10001da8:	9c03      	ldr	r4, [sp, #12]
10001daa:	465e      	mov	r6, fp
10001dac:	002b      	movs	r3, r5
10001dae:	4655      	mov	r5, sl
10001db0:	46ca      	mov	sl, r9
10001db2:	4699      	mov	r9, r3
10001db4:	4b9f      	ldr	r3, [pc, #636]	; (10002034 <p2pPollSlaveWrite+0x670>)
10001db6:	2200      	movs	r2, #0
10001db8:	801a      	strh	r2, [r3, #0]
10001dba:	4b9f      	ldr	r3, [pc, #636]	; (10002038 <p2pPollSlaveWrite+0x674>)
10001dbc:	801a      	strh	r2, [r3, #0]
10001dbe:	4f9b      	ldr	r7, [pc, #620]	; (1000202c <p2pPollSlaveWrite+0x668>)
10001dc0:	8838      	ldrh	r0, [r7, #0]
10001dc2:	0a00      	lsrs	r0, r0, #8
10001dc4:	f7fe ff14 	bl	10000bf0 <p2pTxByteSlave>
10001dc8:	7838      	ldrb	r0, [r7, #0]
10001dca:	f7fe ff11 	bl	10000bf0 <p2pTxByteSlave>
10001dce:	4657      	mov	r7, sl
10001dd0:	ab04      	add	r3, sp, #16
10001dd2:	1dd8      	adds	r0, r3, #7
10001dd4:	f7fe ff68 	bl	10000ca8 <p2pRxByteSlave>
10001dd8:	2801      	cmp	r0, #1
10001dda:	d004      	beq.n	10001de6 <p2pPollSlaveWrite+0x422>
10001ddc:	4b97      	ldr	r3, [pc, #604]	; (1000203c <p2pPollSlaveWrite+0x678>)
10001dde:	881b      	ldrh	r3, [r3, #0]
10001de0:	b29b      	uxth	r3, r3
10001de2:	2b00      	cmp	r3, #0
10001de4:	d1f4      	bne.n	10001dd0 <p2pPollSlaveWrite+0x40c>
10001de6:	4b95      	ldr	r3, [pc, #596]	; (1000203c <p2pPollSlaveWrite+0x678>)
10001de8:	881b      	ldrh	r3, [r3, #0]
10001dea:	b29b      	uxth	r3, r3
10001dec:	2b00      	cmp	r3, #0
10001dee:	d118      	bne.n	10001e22 <p2pPollSlaveWrite+0x45e>
10001df0:	4b93      	ldr	r3, [pc, #588]	; (10002040 <p2pPollSlaveWrite+0x67c>)
10001df2:	781b      	ldrb	r3, [r3, #0]
10001df4:	2b00      	cmp	r3, #0
10001df6:	d109      	bne.n	10001e0c <p2pPollSlaveWrite+0x448>
10001df8:	2010      	movs	r0, #16
10001dfa:	f7fe fec3 	bl	10000b84 <p2pTxByteMaster>
10001dfe:	2019      	movs	r0, #25
10001e00:	f7fe fec0 	bl	10000b84 <p2pTxByteMaster>
10001e04:	200c      	movs	r0, #12
10001e06:	f7fe febd 	bl	10000b84 <p2pTxByteMaster>
10001e0a:	e5ea      	b.n	100019e2 <p2pPollSlaveWrite+0x1e>
10001e0c:	2010      	movs	r0, #16
10001e0e:	f7fe feb9 	bl	10000b84 <p2pTxByteMaster>
10001e12:	2021      	movs	r0, #33	; 0x21
10001e14:	f7fe feb6 	bl	10000b84 <p2pTxByteMaster>
10001e18:	4b8a      	ldr	r3, [pc, #552]	; (10002044 <p2pPollSlaveWrite+0x680>)
10001e1a:	7818      	ldrb	r0, [r3, #0]
10001e1c:	f7fe feb2 	bl	10000b84 <p2pTxByteMaster>
10001e20:	e7ea      	b.n	10001df8 <p2pPollSlaveWrite+0x434>
10001e22:	ab04      	add	r3, sp, #16
10001e24:	3307      	adds	r3, #7
10001e26:	781b      	ldrb	r3, [r3, #0]
10001e28:	2b10      	cmp	r3, #16
10001e2a:	d00f      	beq.n	10001e4c <p2pPollSlaveWrite+0x488>
10001e2c:	4b84      	ldr	r3, [pc, #528]	; (10002040 <p2pPollSlaveWrite+0x67c>)
10001e2e:	781b      	ldrb	r3, [r3, #0]
10001e30:	2b00      	cmp	r3, #0
10001e32:	d000      	beq.n	10001e36 <p2pPollSlaveWrite+0x472>
10001e34:	e175      	b.n	10002122 <p2pPollSlaveWrite+0x75e>
10001e36:	2010      	movs	r0, #16
10001e38:	f7fe fea4 	bl	10000b84 <p2pTxByteMaster>
10001e3c:	2019      	movs	r0, #25
10001e3e:	f7fe fea1 	bl	10000b84 <p2pTxByteMaster>
10001e42:	2082      	movs	r0, #130	; 0x82
10001e44:	f7fe fe9e 	bl	10000b84 <p2pTxByteMaster>
10001e48:	9c01      	ldr	r4, [sp, #4]
10001e4a:	e5ca      	b.n	100019e2 <p2pPollSlaveWrite+0x1e>
10001e4c:	003c      	movs	r4, r7
10001e4e:	ab04      	add	r3, sp, #16
10001e50:	1dd8      	adds	r0, r3, #7
10001e52:	f7fe ff29 	bl	10000ca8 <p2pRxByteSlave>
10001e56:	2801      	cmp	r0, #1
10001e58:	d004      	beq.n	10001e64 <p2pPollSlaveWrite+0x4a0>
10001e5a:	4b78      	ldr	r3, [pc, #480]	; (1000203c <p2pPollSlaveWrite+0x678>)
10001e5c:	881b      	ldrh	r3, [r3, #0]
10001e5e:	b29b      	uxth	r3, r3
10001e60:	2b00      	cmp	r3, #0
10001e62:	d1f4      	bne.n	10001e4e <p2pPollSlaveWrite+0x48a>
10001e64:	46a2      	mov	sl, r4
10001e66:	4b75      	ldr	r3, [pc, #468]	; (1000203c <p2pPollSlaveWrite+0x678>)
10001e68:	881b      	ldrh	r3, [r3, #0]
10001e6a:	b29b      	uxth	r3, r3
10001e6c:	2b00      	cmp	r3, #0
10001e6e:	d119      	bne.n	10001ea4 <p2pPollSlaveWrite+0x4e0>
10001e70:	4b73      	ldr	r3, [pc, #460]	; (10002040 <p2pPollSlaveWrite+0x67c>)
10001e72:	781b      	ldrb	r3, [r3, #0]
10001e74:	2b00      	cmp	r3, #0
10001e76:	d10a      	bne.n	10001e8e <p2pPollSlaveWrite+0x4ca>
10001e78:	2010      	movs	r0, #16
10001e7a:	f7fe fe83 	bl	10000b84 <p2pTxByteMaster>
10001e7e:	2019      	movs	r0, #25
10001e80:	f7fe fe80 	bl	10000b84 <p2pTxByteMaster>
10001e84:	200c      	movs	r0, #12
10001e86:	f7fe fe7d 	bl	10000b84 <p2pTxByteMaster>
10001e8a:	9c01      	ldr	r4, [sp, #4]
10001e8c:	e5a9      	b.n	100019e2 <p2pPollSlaveWrite+0x1e>
10001e8e:	2010      	movs	r0, #16
10001e90:	f7fe fe78 	bl	10000b84 <p2pTxByteMaster>
10001e94:	2021      	movs	r0, #33	; 0x21
10001e96:	f7fe fe75 	bl	10000b84 <p2pTxByteMaster>
10001e9a:	4b6a      	ldr	r3, [pc, #424]	; (10002044 <p2pPollSlaveWrite+0x680>)
10001e9c:	7818      	ldrb	r0, [r3, #0]
10001e9e:	f7fe fe71 	bl	10000b84 <p2pTxByteMaster>
10001ea2:	e7e9      	b.n	10001e78 <p2pPollSlaveWrite+0x4b4>
10001ea4:	ab04      	add	r3, sp, #16
10001ea6:	3307      	adds	r3, #7
10001ea8:	781b      	ldrb	r3, [r3, #0]
10001eaa:	2b16      	cmp	r3, #22
10001eac:	d012      	beq.n	10001ed4 <p2pPollSlaveWrite+0x510>
10001eae:	2b19      	cmp	r3, #25
10001eb0:	d100      	bne.n	10001eb4 <p2pPollSlaveWrite+0x4f0>
10001eb2:	e105      	b.n	100020c0 <p2pPollSlaveWrite+0x6fc>
10001eb4:	4b62      	ldr	r3, [pc, #392]	; (10002040 <p2pPollSlaveWrite+0x67c>)
10001eb6:	781b      	ldrb	r3, [r3, #0]
10001eb8:	2b00      	cmp	r3, #0
10001eba:	d000      	beq.n	10001ebe <p2pPollSlaveWrite+0x4fa>
10001ebc:	e126      	b.n	1000210c <p2pPollSlaveWrite+0x748>
10001ebe:	2010      	movs	r0, #16
10001ec0:	f7fe fe60 	bl	10000b84 <p2pTxByteMaster>
10001ec4:	2019      	movs	r0, #25
10001ec6:	f7fe fe5d 	bl	10000b84 <p2pTxByteMaster>
10001eca:	2009      	movs	r0, #9
10001ecc:	f7fe fe5a 	bl	10000b84 <p2pTxByteMaster>
10001ed0:	9c01      	ldr	r4, [sp, #4]
10001ed2:	e586      	b.n	100019e2 <p2pPollSlaveWrite+0x1e>
10001ed4:	464c      	mov	r4, r9
10001ed6:	3402      	adds	r4, #2
10001ed8:	b2a4      	uxth	r4, r4
10001eda:	0027      	movs	r7, r4
10001edc:	46d1      	mov	r9, sl
10001ede:	e005      	b.n	10001eec <p2pPollSlaveWrite+0x528>
10001ee0:	4b51      	ldr	r3, [pc, #324]	; (10002028 <p2pPollSlaveWrite+0x664>)
10001ee2:	5dd8      	ldrb	r0, [r3, r7]
10001ee4:	f7fe fe84 	bl	10000bf0 <p2pTxByteSlave>
10001ee8:	3701      	adds	r7, #1
10001eea:	b2bf      	uxth	r7, r7
10001eec:	464b      	mov	r3, r9
10001eee:	18e3      	adds	r3, r4, r3
10001ef0:	429f      	cmp	r7, r3
10001ef2:	dbf5      	blt.n	10001ee0 <p2pPollSlaveWrite+0x51c>
10001ef4:	4b51      	ldr	r3, [pc, #324]	; (1000203c <p2pPollSlaveWrite+0x678>)
10001ef6:	22fa      	movs	r2, #250	; 0xfa
10001ef8:	0092      	lsls	r2, r2, #2
10001efa:	801a      	strh	r2, [r3, #0]
10001efc:	ab04      	add	r3, sp, #16
10001efe:	1dd8      	adds	r0, r3, #7
10001f00:	f7fe fed2 	bl	10000ca8 <p2pRxByteSlave>
10001f04:	2801      	cmp	r0, #1
10001f06:	d004      	beq.n	10001f12 <p2pPollSlaveWrite+0x54e>
10001f08:	4b4c      	ldr	r3, [pc, #304]	; (1000203c <p2pPollSlaveWrite+0x678>)
10001f0a:	881b      	ldrh	r3, [r3, #0]
10001f0c:	b29b      	uxth	r3, r3
10001f0e:	2b00      	cmp	r3, #0
10001f10:	d1f4      	bne.n	10001efc <p2pPollSlaveWrite+0x538>
10001f12:	4b4a      	ldr	r3, [pc, #296]	; (1000203c <p2pPollSlaveWrite+0x678>)
10001f14:	881b      	ldrh	r3, [r3, #0]
10001f16:	b29b      	uxth	r3, r3
10001f18:	2b00      	cmp	r3, #0
10001f1a:	d119      	bne.n	10001f50 <p2pPollSlaveWrite+0x58c>
10001f1c:	4b48      	ldr	r3, [pc, #288]	; (10002040 <p2pPollSlaveWrite+0x67c>)
10001f1e:	781b      	ldrb	r3, [r3, #0]
10001f20:	2b00      	cmp	r3, #0
10001f22:	d10a      	bne.n	10001f3a <p2pPollSlaveWrite+0x576>
10001f24:	2010      	movs	r0, #16
10001f26:	f7fe fe2d 	bl	10000b84 <p2pTxByteMaster>
10001f2a:	2019      	movs	r0, #25
10001f2c:	f7fe fe2a 	bl	10000b84 <p2pTxByteMaster>
10001f30:	200c      	movs	r0, #12
10001f32:	f7fe fe27 	bl	10000b84 <p2pTxByteMaster>
10001f36:	9c01      	ldr	r4, [sp, #4]
10001f38:	e553      	b.n	100019e2 <p2pPollSlaveWrite+0x1e>
10001f3a:	2010      	movs	r0, #16
10001f3c:	f7fe fe22 	bl	10000b84 <p2pTxByteMaster>
10001f40:	2021      	movs	r0, #33	; 0x21
10001f42:	f7fe fe1f 	bl	10000b84 <p2pTxByteMaster>
10001f46:	4b3f      	ldr	r3, [pc, #252]	; (10002044 <p2pPollSlaveWrite+0x680>)
10001f48:	7818      	ldrb	r0, [r3, #0]
10001f4a:	f7fe fe1b 	bl	10000b84 <p2pTxByteMaster>
10001f4e:	e7e9      	b.n	10001f24 <p2pPollSlaveWrite+0x560>
10001f50:	ab04      	add	r3, sp, #16
10001f52:	3307      	adds	r3, #7
10001f54:	781b      	ldrb	r3, [r3, #0]
10001f56:	2b10      	cmp	r3, #16
10001f58:	d00f      	beq.n	10001f7a <p2pPollSlaveWrite+0x5b6>
10001f5a:	4b39      	ldr	r3, [pc, #228]	; (10002040 <p2pPollSlaveWrite+0x67c>)
10001f5c:	781b      	ldrb	r3, [r3, #0]
10001f5e:	2b00      	cmp	r3, #0
10001f60:	d000      	beq.n	10001f64 <p2pPollSlaveWrite+0x5a0>
10001f62:	e0a2      	b.n	100020aa <p2pPollSlaveWrite+0x6e6>
10001f64:	2010      	movs	r0, #16
10001f66:	f7fe fe0d 	bl	10000b84 <p2pTxByteMaster>
10001f6a:	2019      	movs	r0, #25
10001f6c:	f7fe fe0a 	bl	10000b84 <p2pTxByteMaster>
10001f70:	2009      	movs	r0, #9
10001f72:	f7fe fe07 	bl	10000b84 <p2pTxByteMaster>
10001f76:	9c01      	ldr	r4, [sp, #4]
10001f78:	e533      	b.n	100019e2 <p2pPollSlaveWrite+0x1e>
10001f7a:	ab04      	add	r3, sp, #16
10001f7c:	1dd8      	adds	r0, r3, #7
10001f7e:	f7fe fe93 	bl	10000ca8 <p2pRxByteSlave>
10001f82:	2801      	cmp	r0, #1
10001f84:	d004      	beq.n	10001f90 <p2pPollSlaveWrite+0x5cc>
10001f86:	4b2d      	ldr	r3, [pc, #180]	; (1000203c <p2pPollSlaveWrite+0x678>)
10001f88:	881b      	ldrh	r3, [r3, #0]
10001f8a:	b29b      	uxth	r3, r3
10001f8c:	2b00      	cmp	r3, #0
10001f8e:	d1f4      	bne.n	10001f7a <p2pPollSlaveWrite+0x5b6>
10001f90:	4b2a      	ldr	r3, [pc, #168]	; (1000203c <p2pPollSlaveWrite+0x678>)
10001f92:	881b      	ldrh	r3, [r3, #0]
10001f94:	b29b      	uxth	r3, r3
10001f96:	2b00      	cmp	r3, #0
10001f98:	d119      	bne.n	10001fce <p2pPollSlaveWrite+0x60a>
10001f9a:	4b29      	ldr	r3, [pc, #164]	; (10002040 <p2pPollSlaveWrite+0x67c>)
10001f9c:	781b      	ldrb	r3, [r3, #0]
10001f9e:	2b00      	cmp	r3, #0
10001fa0:	d10a      	bne.n	10001fb8 <p2pPollSlaveWrite+0x5f4>
10001fa2:	2010      	movs	r0, #16
10001fa4:	f7fe fdee 	bl	10000b84 <p2pTxByteMaster>
10001fa8:	2019      	movs	r0, #25
10001faa:	f7fe fdeb 	bl	10000b84 <p2pTxByteMaster>
10001fae:	200c      	movs	r0, #12
10001fb0:	f7fe fde8 	bl	10000b84 <p2pTxByteMaster>
10001fb4:	9c01      	ldr	r4, [sp, #4]
10001fb6:	e514      	b.n	100019e2 <p2pPollSlaveWrite+0x1e>
10001fb8:	2010      	movs	r0, #16
10001fba:	f7fe fde3 	bl	10000b84 <p2pTxByteMaster>
10001fbe:	2021      	movs	r0, #33	; 0x21
10001fc0:	f7fe fde0 	bl	10000b84 <p2pTxByteMaster>
10001fc4:	4b1f      	ldr	r3, [pc, #124]	; (10002044 <p2pPollSlaveWrite+0x680>)
10001fc6:	7818      	ldrb	r0, [r3, #0]
10001fc8:	f7fe fddc 	bl	10000b84 <p2pTxByteMaster>
10001fcc:	e7e9      	b.n	10001fa2 <p2pPollSlaveWrite+0x5de>
10001fce:	ab04      	add	r3, sp, #16
10001fd0:	3307      	adds	r3, #7
10001fd2:	781b      	ldrb	r3, [r3, #0]
10001fd4:	2b16      	cmp	r3, #22
10001fd6:	d010      	beq.n	10001ffa <p2pPollSlaveWrite+0x636>
10001fd8:	2b19      	cmp	r3, #25
10001fda:	d035      	beq.n	10002048 <p2pPollSlaveWrite+0x684>
10001fdc:	4b18      	ldr	r3, [pc, #96]	; (10002040 <p2pPollSlaveWrite+0x67c>)
10001fde:	781b      	ldrb	r3, [r3, #0]
10001fe0:	2b00      	cmp	r3, #0
10001fe2:	d157      	bne.n	10002094 <p2pPollSlaveWrite+0x6d0>
10001fe4:	2010      	movs	r0, #16
10001fe6:	f7fe fdcd 	bl	10000b84 <p2pTxByteMaster>
10001fea:	2019      	movs	r0, #25
10001fec:	f7fe fdca 	bl	10000b84 <p2pTxByteMaster>
10001ff0:	2009      	movs	r0, #9
10001ff2:	f7fe fdc7 	bl	10000b84 <p2pTxByteMaster>
10001ff6:	9c01      	ldr	r4, [sp, #4]
10001ff8:	e4f3      	b.n	100019e2 <p2pPollSlaveWrite+0x1e>
10001ffa:	4b11      	ldr	r3, [pc, #68]	; (10002040 <p2pPollSlaveWrite+0x67c>)
10001ffc:	781b      	ldrb	r3, [r3, #0]
10001ffe:	2b00      	cmp	r3, #0
10002000:	d107      	bne.n	10002012 <p2pPollSlaveWrite+0x64e>
10002002:	2010      	movs	r0, #16
10002004:	f7fe fdbe 	bl	10000b84 <p2pTxByteMaster>
10002008:	2016      	movs	r0, #22
1000200a:	f7fe fdbb 	bl	10000b84 <p2pTxByteMaster>
1000200e:	9c01      	ldr	r4, [sp, #4]
10002010:	e4e7      	b.n	100019e2 <p2pPollSlaveWrite+0x1e>
10002012:	2010      	movs	r0, #16
10002014:	f7fe fdb6 	bl	10000b84 <p2pTxByteMaster>
10002018:	2021      	movs	r0, #33	; 0x21
1000201a:	f7fe fdb3 	bl	10000b84 <p2pTxByteMaster>
1000201e:	4b09      	ldr	r3, [pc, #36]	; (10002044 <p2pPollSlaveWrite+0x680>)
10002020:	7818      	ldrb	r0, [r3, #0]
10002022:	f7fe fdaf 	bl	10000b84 <p2pTxByteMaster>
10002026:	e7ec      	b.n	10002002 <p2pPollSlaveWrite+0x63e>
10002028:	20000ca0 	.word	0x20000ca0
1000202c:	20001f40 	.word	0x20001f40
10002030:	1000abb8 	.word	0x1000abb8
10002034:	20001f4a 	.word	0x20001f4a
10002038:	20001f4c 	.word	0x20001f4c
1000203c:	20001f44 	.word	0x20001f44
10002040:	20001f63 	.word	0x20001f63
10002044:	20001f68 	.word	0x20001f68
10002048:	ab04      	add	r3, sp, #16
1000204a:	1dd8      	adds	r0, r3, #7
1000204c:	f7fe fe2c 	bl	10000ca8 <p2pRxByteSlave>
10002050:	2801      	cmp	r0, #1
10002052:	d004      	beq.n	1000205e <p2pPollSlaveWrite+0x69a>
10002054:	4b6b      	ldr	r3, [pc, #428]	; (10002204 <p2pPollSlaveWrite+0x840>)
10002056:	881b      	ldrh	r3, [r3, #0]
10002058:	b29b      	uxth	r3, r3
1000205a:	2b00      	cmp	r3, #0
1000205c:	d1f4      	bne.n	10002048 <p2pPollSlaveWrite+0x684>
1000205e:	4b6a      	ldr	r3, [pc, #424]	; (10002208 <p2pPollSlaveWrite+0x844>)
10002060:	781b      	ldrb	r3, [r3, #0]
10002062:	2b00      	cmp	r3, #0
10002064:	d10b      	bne.n	1000207e <p2pPollSlaveWrite+0x6ba>
10002066:	2010      	movs	r0, #16
10002068:	f7fe fd8c 	bl	10000b84 <p2pTxByteMaster>
1000206c:	2019      	movs	r0, #25
1000206e:	f7fe fd89 	bl	10000b84 <p2pTxByteMaster>
10002072:	ab04      	add	r3, sp, #16
10002074:	79d8      	ldrb	r0, [r3, #7]
10002076:	f7fe fd85 	bl	10000b84 <p2pTxByteMaster>
1000207a:	9c01      	ldr	r4, [sp, #4]
1000207c:	e4b1      	b.n	100019e2 <p2pPollSlaveWrite+0x1e>
1000207e:	2010      	movs	r0, #16
10002080:	f7fe fd80 	bl	10000b84 <p2pTxByteMaster>
10002084:	2021      	movs	r0, #33	; 0x21
10002086:	f7fe fd7d 	bl	10000b84 <p2pTxByteMaster>
1000208a:	4b60      	ldr	r3, [pc, #384]	; (1000220c <p2pPollSlaveWrite+0x848>)
1000208c:	7818      	ldrb	r0, [r3, #0]
1000208e:	f7fe fd79 	bl	10000b84 <p2pTxByteMaster>
10002092:	e7e8      	b.n	10002066 <p2pPollSlaveWrite+0x6a2>
10002094:	2010      	movs	r0, #16
10002096:	f7fe fd75 	bl	10000b84 <p2pTxByteMaster>
1000209a:	2021      	movs	r0, #33	; 0x21
1000209c:	f7fe fd72 	bl	10000b84 <p2pTxByteMaster>
100020a0:	4b5a      	ldr	r3, [pc, #360]	; (1000220c <p2pPollSlaveWrite+0x848>)
100020a2:	7818      	ldrb	r0, [r3, #0]
100020a4:	f7fe fd6e 	bl	10000b84 <p2pTxByteMaster>
100020a8:	e79c      	b.n	10001fe4 <p2pPollSlaveWrite+0x620>
100020aa:	2010      	movs	r0, #16
100020ac:	f7fe fd6a 	bl	10000b84 <p2pTxByteMaster>
100020b0:	2021      	movs	r0, #33	; 0x21
100020b2:	f7fe fd67 	bl	10000b84 <p2pTxByteMaster>
100020b6:	4b55      	ldr	r3, [pc, #340]	; (1000220c <p2pPollSlaveWrite+0x848>)
100020b8:	7818      	ldrb	r0, [r3, #0]
100020ba:	f7fe fd63 	bl	10000b84 <p2pTxByteMaster>
100020be:	e751      	b.n	10001f64 <p2pPollSlaveWrite+0x5a0>
100020c0:	ab04      	add	r3, sp, #16
100020c2:	1dd8      	adds	r0, r3, #7
100020c4:	f7fe fdf0 	bl	10000ca8 <p2pRxByteSlave>
100020c8:	2801      	cmp	r0, #1
100020ca:	d004      	beq.n	100020d6 <p2pPollSlaveWrite+0x712>
100020cc:	4b4d      	ldr	r3, [pc, #308]	; (10002204 <p2pPollSlaveWrite+0x840>)
100020ce:	881b      	ldrh	r3, [r3, #0]
100020d0:	b29b      	uxth	r3, r3
100020d2:	2b00      	cmp	r3, #0
100020d4:	d1f4      	bne.n	100020c0 <p2pPollSlaveWrite+0x6fc>
100020d6:	4b4c      	ldr	r3, [pc, #304]	; (10002208 <p2pPollSlaveWrite+0x844>)
100020d8:	781b      	ldrb	r3, [r3, #0]
100020da:	2b00      	cmp	r3, #0
100020dc:	d10b      	bne.n	100020f6 <p2pPollSlaveWrite+0x732>
100020de:	2010      	movs	r0, #16
100020e0:	f7fe fd50 	bl	10000b84 <p2pTxByteMaster>
100020e4:	2019      	movs	r0, #25
100020e6:	f7fe fd4d 	bl	10000b84 <p2pTxByteMaster>
100020ea:	ab04      	add	r3, sp, #16
100020ec:	79d8      	ldrb	r0, [r3, #7]
100020ee:	f7fe fd49 	bl	10000b84 <p2pTxByteMaster>
100020f2:	9c01      	ldr	r4, [sp, #4]
100020f4:	e475      	b.n	100019e2 <p2pPollSlaveWrite+0x1e>
100020f6:	2010      	movs	r0, #16
100020f8:	f7fe fd44 	bl	10000b84 <p2pTxByteMaster>
100020fc:	2021      	movs	r0, #33	; 0x21
100020fe:	f7fe fd41 	bl	10000b84 <p2pTxByteMaster>
10002102:	4b42      	ldr	r3, [pc, #264]	; (1000220c <p2pPollSlaveWrite+0x848>)
10002104:	7818      	ldrb	r0, [r3, #0]
10002106:	f7fe fd3d 	bl	10000b84 <p2pTxByteMaster>
1000210a:	e7e8      	b.n	100020de <p2pPollSlaveWrite+0x71a>
1000210c:	2010      	movs	r0, #16
1000210e:	f7fe fd39 	bl	10000b84 <p2pTxByteMaster>
10002112:	2021      	movs	r0, #33	; 0x21
10002114:	f7fe fd36 	bl	10000b84 <p2pTxByteMaster>
10002118:	4b3c      	ldr	r3, [pc, #240]	; (1000220c <p2pPollSlaveWrite+0x848>)
1000211a:	7818      	ldrb	r0, [r3, #0]
1000211c:	f7fe fd32 	bl	10000b84 <p2pTxByteMaster>
10002120:	e6cd      	b.n	10001ebe <p2pPollSlaveWrite+0x4fa>
10002122:	2010      	movs	r0, #16
10002124:	f7fe fd2e 	bl	10000b84 <p2pTxByteMaster>
10002128:	2021      	movs	r0, #33	; 0x21
1000212a:	f7fe fd2b 	bl	10000b84 <p2pTxByteMaster>
1000212e:	4b37      	ldr	r3, [pc, #220]	; (1000220c <p2pPollSlaveWrite+0x848>)
10002130:	7818      	ldrb	r0, [r3, #0]
10002132:	f7fe fd27 	bl	10000b84 <p2pTxByteMaster>
10002136:	e67e      	b.n	10001e36 <p2pPollSlaveWrite+0x472>
10002138:	4b35      	ldr	r3, [pc, #212]	; (10002210 <p2pPollSlaveWrite+0x84c>)
1000213a:	7b9b      	ldrb	r3, [r3, #14]
1000213c:	2b01      	cmp	r3, #1
1000213e:	d00b      	beq.n	10002158 <p2pPollSlaveWrite+0x794>
10002140:	2b02      	cmp	r3, #2
10002142:	d00c      	beq.n	1000215e <p2pPollSlaveWrite+0x79a>
10002144:	2b00      	cmp	r3, #0
10002146:	d004      	beq.n	10002152 <p2pPollSlaveWrite+0x78e>
10002148:	2096      	movs	r0, #150	; 0x96
1000214a:	0200      	lsls	r0, r0, #8
1000214c:	f7fe fb48 	bl	100007e0 <BaudRate_Update>
10002150:	e592      	b.n	10001c78 <p2pPollSlaveWrite+0x2b4>
10002152:	2096      	movs	r0, #150	; 0x96
10002154:	0140      	lsls	r0, r0, #5
10002156:	e7f9      	b.n	1000214c <p2pPollSlaveWrite+0x788>
10002158:	2096      	movs	r0, #150	; 0x96
1000215a:	0180      	lsls	r0, r0, #6
1000215c:	e7f6      	b.n	1000214c <p2pPollSlaveWrite+0x788>
1000215e:	2096      	movs	r0, #150	; 0x96
10002160:	01c0      	lsls	r0, r0, #7
10002162:	e7f3      	b.n	1000214c <p2pPollSlaveWrite+0x788>
10002164:	4b2a      	ldr	r3, [pc, #168]	; (10002210 <p2pPollSlaveWrite+0x84c>)
10002166:	7b9b      	ldrb	r3, [r3, #14]
10002168:	2b50      	cmp	r3, #80	; 0x50
1000216a:	d00d      	beq.n	10002188 <p2pPollSlaveWrite+0x7c4>
1000216c:	23d0      	movs	r3, #208	; 0xd0
1000216e:	061b      	lsls	r3, r3, #24
10002170:	2180      	movs	r1, #128	; 0x80
10002172:	03c9      	lsls	r1, r1, #15
10002174:	6159      	str	r1, [r3, #20]
10002176:	4b23      	ldr	r3, [pc, #140]	; (10002204 <p2pPollSlaveWrite+0x840>)
10002178:	21c8      	movs	r1, #200	; 0xc8
1000217a:	8019      	strh	r1, [r3, #0]
1000217c:	4b21      	ldr	r3, [pc, #132]	; (10002204 <p2pPollSlaveWrite+0x840>)
1000217e:	881b      	ldrh	r3, [r3, #0]
10002180:	b29b      	uxth	r3, r3
10002182:	2b00      	cmp	r3, #0
10002184:	d1fa      	bne.n	1000217c <p2pPollSlaveWrite+0x7b8>
10002186:	e57c      	b.n	10001c82 <p2pPollSlaveWrite+0x2be>
10002188:	23d0      	movs	r3, #208	; 0xd0
1000218a:	061b      	lsls	r3, r3, #24
1000218c:	2180      	movs	r1, #128	; 0x80
1000218e:	03c9      	lsls	r1, r1, #15
10002190:	6199      	str	r1, [r3, #24]
10002192:	e7f0      	b.n	10002176 <p2pPollSlaveWrite+0x7b2>
10002194:	491e      	ldr	r1, [pc, #120]	; (10002210 <p2pPollSlaveWrite+0x84c>)
10002196:	7bcb      	ldrb	r3, [r1, #15]
10002198:	4a1e      	ldr	r2, [pc, #120]	; (10002214 <p2pPollSlaveWrite+0x850>)
1000219a:	8013      	strh	r3, [r2, #0]
1000219c:	021b      	lsls	r3, r3, #8
1000219e:	8013      	strh	r3, [r2, #0]
100021a0:	7b89      	ldrb	r1, [r1, #14]
100021a2:	430b      	orrs	r3, r1
100021a4:	8013      	strh	r3, [r2, #0]
100021a6:	2400      	movs	r4, #0
100021a8:	f7ff fc1b 	bl	100019e2 <p2pPollSlaveWrite+0x1e>
100021ac:	2400      	movs	r4, #0
100021ae:	f7ff fc18 	bl	100019e2 <p2pPollSlaveWrite+0x1e>
100021b2:	4817      	ldr	r0, [pc, #92]	; (10002210 <p2pPollSlaveWrite+0x84c>)
100021b4:	258c      	movs	r5, #140	; 0x8c
100021b6:	00ad      	lsls	r5, r5, #2
100021b8:	002a      	movs	r2, r5
100021ba:	2100      	movs	r1, #0
100021bc:	f005 fcea 	bl	10007b94 <__wrap_memset>
100021c0:	4b15      	ldr	r3, [pc, #84]	; (10002218 <p2pPollSlaveWrite+0x854>)
100021c2:	2400      	movs	r4, #0
100021c4:	801c      	strh	r4, [r3, #0]
100021c6:	4b15      	ldr	r3, [pc, #84]	; (1000221c <p2pPollSlaveWrite+0x858>)
100021c8:	801c      	strh	r4, [r3, #0]
100021ca:	4815      	ldr	r0, [pc, #84]	; (10002220 <p2pPollSlaveWrite+0x85c>)
100021cc:	002a      	movs	r2, r5
100021ce:	2100      	movs	r1, #0
100021d0:	f005 fce0 	bl	10007b94 <__wrap_memset>
100021d4:	4b13      	ldr	r3, [pc, #76]	; (10002224 <p2pPollSlaveWrite+0x860>)
100021d6:	801c      	strh	r4, [r3, #0]
100021d8:	4b13      	ldr	r3, [pc, #76]	; (10002228 <p2pPollSlaveWrite+0x864>)
100021da:	801c      	strh	r4, [r3, #0]
100021dc:	4b09      	ldr	r3, [pc, #36]	; (10002204 <p2pPollSlaveWrite+0x840>)
100021de:	881b      	ldrh	r3, [r3, #0]
100021e0:	b29b      	uxth	r3, r3
100021e2:	2b00      	cmp	r3, #0
100021e4:	d009      	beq.n	100021fa <p2pPollSlaveWrite+0x836>
100021e6:	4b07      	ldr	r3, [pc, #28]	; (10002204 <p2pPollSlaveWrite+0x840>)
100021e8:	8818      	ldrh	r0, [r3, #0]
100021ea:	b280      	uxth	r0, r0
100021ec:	b007      	add	sp, #28
100021ee:	bcf0      	pop	{r4, r5, r6, r7}
100021f0:	46bb      	mov	fp, r7
100021f2:	46b2      	mov	sl, r6
100021f4:	46a9      	mov	r9, r5
100021f6:	46a0      	mov	r8, r4
100021f8:	bdf0      	pop	{r4, r5, r6, r7, pc}
100021fa:	4b02      	ldr	r3, [pc, #8]	; (10002204 <p2pPollSlaveWrite+0x840>)
100021fc:	8818      	ldrh	r0, [r3, #0]
100021fe:	b280      	uxth	r0, r0
10002200:	e7f4      	b.n	100021ec <p2pPollSlaveWrite+0x828>
10002202:	46c0      	nop			; (mov r8, r8)
10002204:	20001f44 	.word	0x20001f44
10002208:	20001f63 	.word	0x20001f63
1000220c:	20001f68 	.word	0x20001f68
10002210:	20000ca0 	.word	0x20000ca0
10002214:	20001f4e 	.word	0x20001f4e
10002218:	20001f46 	.word	0x20001f46
1000221c:	20001f48 	.word	0x20001f48
10002220:	20000ed0 	.word	0x20000ed0
10002224:	20001f4a 	.word	0x20001f4a
10002228:	20001f4c 	.word	0x20001f4c

1000222c <p2pPollSlaveWritePassThrough>:
1000222c:	b510      	push	{r4, lr}
1000222e:	b082      	sub	sp, #8
10002230:	466b      	mov	r3, sp
10002232:	2200      	movs	r2, #0
10002234:	71da      	strb	r2, [r3, #7]
10002236:	4b68      	ldr	r3, [pc, #416]	; (100023d8 <p2pPollSlaveWritePassThrough+0x1ac>)
10002238:	7a1b      	ldrb	r3, [r3, #8]
1000223a:	2b10      	cmp	r3, #16
1000223c:	d060      	beq.n	10002300 <p2pPollSlaveWritePassThrough+0xd4>
1000223e:	2414      	movs	r4, #20
10002240:	4b66      	ldr	r3, [pc, #408]	; (100023dc <p2pPollSlaveWritePassThrough+0x1b0>)
10002242:	881b      	ldrh	r3, [r3, #0]
10002244:	b29b      	uxth	r3, r3
10002246:	2b00      	cmp	r3, #0
10002248:	d100      	bne.n	1000224c <p2pPollSlaveWritePassThrough+0x20>
1000224a:	e09d      	b.n	10002388 <p2pPollSlaveWritePassThrough+0x15c>
1000224c:	2010      	movs	r0, #16
1000224e:	f7fe fc99 	bl	10000b84 <p2pTxByteMaster>
10002252:	2021      	movs	r0, #33	; 0x21
10002254:	f7fe fc96 	bl	10000b84 <p2pTxByteMaster>
10002258:	4b61      	ldr	r3, [pc, #388]	; (100023e0 <p2pPollSlaveWritePassThrough+0x1b4>)
1000225a:	7818      	ldrb	r0, [r3, #0]
1000225c:	f7fe fc92 	bl	10000b84 <p2pTxByteMaster>
10002260:	2010      	movs	r0, #16
10002262:	f7fe fc8f 	bl	10000b84 <p2pTxByteMaster>
10002266:	2016      	movs	r0, #22
10002268:	f7fe fc8c 	bl	10000b84 <p2pTxByteMaster>
1000226c:	4b5d      	ldr	r3, [pc, #372]	; (100023e4 <p2pPollSlaveWritePassThrough+0x1b8>)
1000226e:	881b      	ldrh	r3, [r3, #0]
10002270:	b29b      	uxth	r3, r3
10002272:	42a3      	cmp	r3, r4
10002274:	d004      	beq.n	10002280 <p2pPollSlaveWritePassThrough+0x54>
10002276:	4b59      	ldr	r3, [pc, #356]	; (100023dc <p2pPollSlaveWritePassThrough+0x1b0>)
10002278:	881b      	ldrh	r3, [r3, #0]
1000227a:	b29b      	uxth	r3, r3
1000227c:	2b00      	cmp	r3, #0
1000227e:	d1f5      	bne.n	1000226c <p2pPollSlaveWritePassThrough+0x40>
10002280:	4b59      	ldr	r3, [pc, #356]	; (100023e8 <p2pPollSlaveWritePassThrough+0x1bc>)
10002282:	2200      	movs	r2, #0
10002284:	801a      	strh	r2, [r3, #0]
10002286:	4b57      	ldr	r3, [pc, #348]	; (100023e4 <p2pPollSlaveWritePassThrough+0x1b8>)
10002288:	801a      	strh	r2, [r3, #0]
1000228a:	4b54      	ldr	r3, [pc, #336]	; (100023dc <p2pPollSlaveWritePassThrough+0x1b0>)
1000228c:	32f5      	adds	r2, #245	; 0xf5
1000228e:	32ff      	adds	r2, #255	; 0xff
10002290:	801a      	strh	r2, [r3, #0]
10002292:	466b      	mov	r3, sp
10002294:	1dd8      	adds	r0, r3, #7
10002296:	f7fe fce1 	bl	10000c5c <p2pRxByteMaster>
1000229a:	2801      	cmp	r0, #1
1000229c:	d004      	beq.n	100022a8 <p2pPollSlaveWritePassThrough+0x7c>
1000229e:	4b4f      	ldr	r3, [pc, #316]	; (100023dc <p2pPollSlaveWritePassThrough+0x1b0>)
100022a0:	881b      	ldrh	r3, [r3, #0]
100022a2:	b29b      	uxth	r3, r3
100022a4:	2b00      	cmp	r3, #0
100022a6:	d1f4      	bne.n	10002292 <p2pPollSlaveWritePassThrough+0x66>
100022a8:	466b      	mov	r3, sp
100022aa:	3307      	adds	r3, #7
100022ac:	781b      	ldrb	r3, [r3, #0]
100022ae:	2b50      	cmp	r3, #80	; 0x50
100022b0:	d000      	beq.n	100022b4 <p2pPollSlaveWritePassThrough+0x88>
100022b2:	e07c      	b.n	100023ae <p2pPollSlaveWritePassThrough+0x182>
100022b4:	4848      	ldr	r0, [pc, #288]	; (100023d8 <p2pPollSlaveWritePassThrough+0x1ac>)
100022b6:	228c      	movs	r2, #140	; 0x8c
100022b8:	0092      	lsls	r2, r2, #2
100022ba:	2100      	movs	r1, #0
100022bc:	f005 fc6a 	bl	10007b94 <__wrap_memset>
100022c0:	4a49      	ldr	r2, [pc, #292]	; (100023e8 <p2pPollSlaveWritePassThrough+0x1bc>)
100022c2:	2300      	movs	r3, #0
100022c4:	8013      	strh	r3, [r2, #0]
100022c6:	4a47      	ldr	r2, [pc, #284]	; (100023e4 <p2pPollSlaveWritePassThrough+0x1b8>)
100022c8:	8013      	strh	r3, [r2, #0]
100022ca:	4a48      	ldr	r2, [pc, #288]	; (100023ec <p2pPollSlaveWritePassThrough+0x1c0>)
100022cc:	8013      	strh	r3, [r2, #0]
100022ce:	4a48      	ldr	r2, [pc, #288]	; (100023f0 <p2pPollSlaveWritePassThrough+0x1c4>)
100022d0:	8013      	strh	r3, [r2, #0]
100022d2:	2050      	movs	r0, #80	; 0x50
100022d4:	f7fe fc8c 	bl	10000bf0 <p2pTxByteSlave>
100022d8:	4b45      	ldr	r3, [pc, #276]	; (100023f0 <p2pPollSlaveWritePassThrough+0x1c4>)
100022da:	881b      	ldrh	r3, [r3, #0]
100022dc:	b29b      	uxth	r3, r3
100022de:	2b00      	cmp	r3, #0
100022e0:	d104      	bne.n	100022ec <p2pPollSlaveWritePassThrough+0xc0>
100022e2:	4b3e      	ldr	r3, [pc, #248]	; (100023dc <p2pPollSlaveWritePassThrough+0x1b0>)
100022e4:	881b      	ldrh	r3, [r3, #0]
100022e6:	b29b      	uxth	r3, r3
100022e8:	2b00      	cmp	r3, #0
100022ea:	d1f5      	bne.n	100022d8 <p2pPollSlaveWritePassThrough+0xac>
100022ec:	4b3b      	ldr	r3, [pc, #236]	; (100023dc <p2pPollSlaveWritePassThrough+0x1b0>)
100022ee:	881b      	ldrh	r3, [r3, #0]
100022f0:	b29b      	uxth	r3, r3
100022f2:	2b00      	cmp	r3, #0
100022f4:	d106      	bne.n	10002304 <p2pPollSlaveWritePassThrough+0xd8>
100022f6:	4b3f      	ldr	r3, [pc, #252]	; (100023f4 <p2pPollSlaveWritePassThrough+0x1c8>)
100022f8:	781b      	ldrb	r3, [r3, #0]
100022fa:	2b42      	cmp	r3, #66	; 0x42
100022fc:	d157      	bne.n	100023ae <p2pPollSlaveWritePassThrough+0x182>
100022fe:	e00b      	b.n	10002318 <p2pPollSlaveWritePassThrough+0xec>
10002300:	2415      	movs	r4, #21
10002302:	e79d      	b.n	10002240 <p2pPollSlaveWritePassThrough+0x14>
10002304:	4b3b      	ldr	r3, [pc, #236]	; (100023f4 <p2pPollSlaveWritePassThrough+0x1c8>)
10002306:	7818      	ldrb	r0, [r3, #0]
10002308:	f7fe fc3c 	bl	10000b84 <p2pTxByteMaster>
1000230c:	e7f3      	b.n	100022f6 <p2pPollSlaveWritePassThrough+0xca>
1000230e:	4b33      	ldr	r3, [pc, #204]	; (100023dc <p2pPollSlaveWritePassThrough+0x1b0>)
10002310:	881b      	ldrh	r3, [r3, #0]
10002312:	b29b      	uxth	r3, r3
10002314:	2b00      	cmp	r3, #0
10002316:	d113      	bne.n	10002340 <p2pPollSlaveWritePassThrough+0x114>
10002318:	4b30      	ldr	r3, [pc, #192]	; (100023dc <p2pPollSlaveWritePassThrough+0x1b0>)
1000231a:	881b      	ldrh	r3, [r3, #0]
1000231c:	b29b      	uxth	r3, r3
1000231e:	2b00      	cmp	r3, #0
10002320:	d045      	beq.n	100023ae <p2pPollSlaveWritePassThrough+0x182>
10002322:	4b33      	ldr	r3, [pc, #204]	; (100023f0 <p2pPollSlaveWritePassThrough+0x1c4>)
10002324:	2200      	movs	r2, #0
10002326:	801a      	strh	r2, [r3, #0]
10002328:	466b      	mov	r3, sp
1000232a:	1dd8      	adds	r0, r3, #7
1000232c:	f7fe fc96 	bl	10000c5c <p2pRxByteMaster>
10002330:	2801      	cmp	r0, #1
10002332:	d0ec      	beq.n	1000230e <p2pPollSlaveWritePassThrough+0xe2>
10002334:	4b29      	ldr	r3, [pc, #164]	; (100023dc <p2pPollSlaveWritePassThrough+0x1b0>)
10002336:	881b      	ldrh	r3, [r3, #0]
10002338:	b29b      	uxth	r3, r3
1000233a:	2b00      	cmp	r3, #0
1000233c:	d1f4      	bne.n	10002328 <p2pPollSlaveWritePassThrough+0xfc>
1000233e:	e7e6      	b.n	1000230e <p2pPollSlaveWritePassThrough+0xe2>
10002340:	466b      	mov	r3, sp
10002342:	79d8      	ldrb	r0, [r3, #7]
10002344:	28ff      	cmp	r0, #255	; 0xff
10002346:	d032      	beq.n	100023ae <p2pPollSlaveWritePassThrough+0x182>
10002348:	f7fe fc52 	bl	10000bf0 <p2pTxByteSlave>
1000234c:	466b      	mov	r3, sp
1000234e:	3307      	adds	r3, #7
10002350:	781b      	ldrb	r3, [r3, #0]
10002352:	2b0a      	cmp	r3, #10
10002354:	d1e0      	bne.n	10002318 <p2pPollSlaveWritePassThrough+0xec>
10002356:	4b26      	ldr	r3, [pc, #152]	; (100023f0 <p2pPollSlaveWritePassThrough+0x1c4>)
10002358:	881b      	ldrh	r3, [r3, #0]
1000235a:	b29b      	uxth	r3, r3
1000235c:	2b00      	cmp	r3, #0
1000235e:	d104      	bne.n	1000236a <p2pPollSlaveWritePassThrough+0x13e>
10002360:	4b1e      	ldr	r3, [pc, #120]	; (100023dc <p2pPollSlaveWritePassThrough+0x1b0>)
10002362:	881b      	ldrh	r3, [r3, #0]
10002364:	b29b      	uxth	r3, r3
10002366:	2b00      	cmp	r3, #0
10002368:	d1f5      	bne.n	10002356 <p2pPollSlaveWritePassThrough+0x12a>
1000236a:	4b1c      	ldr	r3, [pc, #112]	; (100023dc <p2pPollSlaveWritePassThrough+0x1b0>)
1000236c:	881b      	ldrh	r3, [r3, #0]
1000236e:	b29b      	uxth	r3, r3
10002370:	2b00      	cmp	r3, #0
10002372:	d01c      	beq.n	100023ae <p2pPollSlaveWritePassThrough+0x182>
10002374:	4b1f      	ldr	r3, [pc, #124]	; (100023f4 <p2pPollSlaveWritePassThrough+0x1c8>)
10002376:	7818      	ldrb	r0, [r3, #0]
10002378:	f7fe fc04 	bl	10000b84 <p2pTxByteMaster>
1000237c:	4b17      	ldr	r3, [pc, #92]	; (100023dc <p2pPollSlaveWritePassThrough+0x1b0>)
1000237e:	22c8      	movs	r2, #200	; 0xc8
10002380:	801a      	strh	r2, [r3, #0]
10002382:	f7fe fa3d 	bl	10000800 <Watchdog>
10002386:	e7c7      	b.n	10002318 <p2pPollSlaveWritePassThrough+0xec>
10002388:	2010      	movs	r0, #16
1000238a:	f7fe fbfb 	bl	10000b84 <p2pTxByteMaster>
1000238e:	2021      	movs	r0, #33	; 0x21
10002390:	f7fe fbf8 	bl	10000b84 <p2pTxByteMaster>
10002394:	4b12      	ldr	r3, [pc, #72]	; (100023e0 <p2pPollSlaveWritePassThrough+0x1b4>)
10002396:	7818      	ldrb	r0, [r3, #0]
10002398:	f7fe fbf4 	bl	10000b84 <p2pTxByteMaster>
1000239c:	2010      	movs	r0, #16
1000239e:	f7fe fbf1 	bl	10000b84 <p2pTxByteMaster>
100023a2:	2019      	movs	r0, #25
100023a4:	f7fe fbee 	bl	10000b84 <p2pTxByteMaster>
100023a8:	2082      	movs	r0, #130	; 0x82
100023aa:	f7fe fbeb 	bl	10000b84 <p2pTxByteMaster>
100023ae:	480a      	ldr	r0, [pc, #40]	; (100023d8 <p2pPollSlaveWritePassThrough+0x1ac>)
100023b0:	228c      	movs	r2, #140	; 0x8c
100023b2:	0092      	lsls	r2, r2, #2
100023b4:	2100      	movs	r1, #0
100023b6:	f005 fbed 	bl	10007b94 <__wrap_memset>
100023ba:	4a0b      	ldr	r2, [pc, #44]	; (100023e8 <p2pPollSlaveWritePassThrough+0x1bc>)
100023bc:	2300      	movs	r3, #0
100023be:	8013      	strh	r3, [r2, #0]
100023c0:	4a08      	ldr	r2, [pc, #32]	; (100023e4 <p2pPollSlaveWritePassThrough+0x1b8>)
100023c2:	8013      	strh	r3, [r2, #0]
100023c4:	4a09      	ldr	r2, [pc, #36]	; (100023ec <p2pPollSlaveWritePassThrough+0x1c0>)
100023c6:	8013      	strh	r3, [r2, #0]
100023c8:	4a09      	ldr	r2, [pc, #36]	; (100023f0 <p2pPollSlaveWritePassThrough+0x1c4>)
100023ca:	8013      	strh	r3, [r2, #0]
100023cc:	4b03      	ldr	r3, [pc, #12]	; (100023dc <p2pPollSlaveWritePassThrough+0x1b0>)
100023ce:	8818      	ldrh	r0, [r3, #0]
100023d0:	b280      	uxth	r0, r0
100023d2:	b002      	add	sp, #8
100023d4:	bd10      	pop	{r4, pc}
100023d6:	46c0      	nop			; (mov r8, r8)
100023d8:	20000ca0 	.word	0x20000ca0
100023dc:	20001f44 	.word	0x20001f44
100023e0:	20001f68 	.word	0x20001f68
100023e4:	20001f48 	.word	0x20001f48
100023e8:	20001f46 	.word	0x20001f46
100023ec:	20001f4a 	.word	0x20001f4a
100023f0:	20001f4c 	.word	0x20001f4c
100023f4:	20000ed0 	.word	0x20000ed0

100023f8 <UART_CheckResponse>:
100023f8:	b510      	push	{r4, lr}
100023fa:	4b20      	ldr	r3, [pc, #128]	; (1000247c <UART_CheckResponse+0x84>)
100023fc:	2200      	movs	r2, #0
100023fe:	801a      	strh	r2, [r3, #0]
10002400:	e004      	b.n	1000240c <UART_CheckResponse+0x14>
10002402:	4a1e      	ldr	r2, [pc, #120]	; (1000247c <UART_CheckResponse+0x84>)
10002404:	8813      	ldrh	r3, [r2, #0]
10002406:	3301      	adds	r3, #1
10002408:	b29b      	uxth	r3, r3
1000240a:	8013      	strh	r3, [r2, #0]
1000240c:	4b1b      	ldr	r3, [pc, #108]	; (1000247c <UART_CheckResponse+0x84>)
1000240e:	881a      	ldrh	r2, [r3, #0]
10002410:	b292      	uxth	r2, r2
10002412:	4b1b      	ldr	r3, [pc, #108]	; (10002480 <UART_CheckResponse+0x88>)
10002414:	881b      	ldrh	r3, [r3, #0]
10002416:	b29b      	uxth	r3, r3
10002418:	429a      	cmp	r2, r3
1000241a:	d206      	bcs.n	1000242a <UART_CheckResponse+0x32>
1000241c:	4b17      	ldr	r3, [pc, #92]	; (1000247c <UART_CheckResponse+0x84>)
1000241e:	881b      	ldrh	r3, [r3, #0]
10002420:	b29b      	uxth	r3, r3
10002422:	4a18      	ldr	r2, [pc, #96]	; (10002484 <UART_CheckResponse+0x8c>)
10002424:	5cd3      	ldrb	r3, [r2, r3]
10002426:	2b10      	cmp	r3, #16
10002428:	d1eb      	bne.n	10002402 <UART_CheckResponse+0xa>
1000242a:	4b14      	ldr	r3, [pc, #80]	; (1000247c <UART_CheckResponse+0x84>)
1000242c:	881b      	ldrh	r3, [r3, #0]
1000242e:	4916      	ldr	r1, [pc, #88]	; (10002488 <UART_CheckResponse+0x90>)
10002430:	4814      	ldr	r0, [pc, #80]	; (10002484 <UART_CheckResponse+0x8c>)
10002432:	18c0      	adds	r0, r0, r3
10002434:	2202      	movs	r2, #2
10002436:	f008 fa8f 	bl	1000a958 <memcmp>
1000243a:	2800      	cmp	r0, #0
1000243c:	d10a      	bne.n	10002454 <UART_CheckResponse+0x5c>
1000243e:	4b10      	ldr	r3, [pc, #64]	; (10002480 <UART_CheckResponse+0x88>)
10002440:	881b      	ldrh	r3, [r3, #0]
10002442:	b29b      	uxth	r3, r3
10002444:	4a0d      	ldr	r2, [pc, #52]	; (1000247c <UART_CheckResponse+0x84>)
10002446:	8013      	strh	r3, [r2, #0]
10002448:	3001      	adds	r0, #1
1000244a:	4b0d      	ldr	r3, [pc, #52]	; (10002480 <UART_CheckResponse+0x88>)
1000244c:	881a      	ldrh	r2, [r3, #0]
1000244e:	4b0f      	ldr	r3, [pc, #60]	; (1000248c <UART_CheckResponse+0x94>)
10002450:	801a      	strh	r2, [r3, #0]
10002452:	bd10      	pop	{r4, pc}
10002454:	4b09      	ldr	r3, [pc, #36]	; (1000247c <UART_CheckResponse+0x84>)
10002456:	881b      	ldrh	r3, [r3, #0]
10002458:	490d      	ldr	r1, [pc, #52]	; (10002490 <UART_CheckResponse+0x98>)
1000245a:	480a      	ldr	r0, [pc, #40]	; (10002484 <UART_CheckResponse+0x8c>)
1000245c:	18c0      	adds	r0, r0, r3
1000245e:	2202      	movs	r2, #2
10002460:	f008 fa7a 	bl	1000a958 <memcmp>
10002464:	2800      	cmp	r0, #0
10002466:	d106      	bne.n	10002476 <UART_CheckResponse+0x7e>
10002468:	4b05      	ldr	r3, [pc, #20]	; (10002480 <UART_CheckResponse+0x88>)
1000246a:	881b      	ldrh	r3, [r3, #0]
1000246c:	b29b      	uxth	r3, r3
1000246e:	4a03      	ldr	r2, [pc, #12]	; (1000247c <UART_CheckResponse+0x84>)
10002470:	8013      	strh	r3, [r2, #0]
10002472:	3002      	adds	r0, #2
10002474:	e7e9      	b.n	1000244a <UART_CheckResponse+0x52>
10002476:	2009      	movs	r0, #9
10002478:	e7e7      	b.n	1000244a <UART_CheckResponse+0x52>
1000247a:	46c0      	nop			; (mov r8, r8)
1000247c:	20001f4a 	.word	0x20001f4a
10002480:	20001f4c 	.word	0x20001f4c
10002484:	20000ed0 	.word	0x20000ed0
10002488:	1000ae18 	.word	0x1000ae18
1000248c:	20001f54 	.word	0x20001f54
10002490:	1000ae70 	.word	0x1000ae70

10002494 <MUX_Set>:
10002494:	b500      	push	{lr}
10002496:	2817      	cmp	r0, #23
10002498:	d900      	bls.n	1000249c <MUX_Set+0x8>
1000249a:	e1fd      	b.n	10002898 <MUX_Set+0x404>
1000249c:	0080      	lsls	r0, r0, #2
1000249e:	4be8      	ldr	r3, [pc, #928]	; (10002840 <MUX_Set+0x3ac>)
100024a0:	581b      	ldr	r3, [r3, r0]
100024a2:	469f      	mov	pc, r3
100024a4:	23d0      	movs	r3, #208	; 0xd0
100024a6:	061b      	lsls	r3, r3, #24
100024a8:	2280      	movs	r2, #128	; 0x80
100024aa:	0352      	lsls	r2, r2, #13
100024ac:	619a      	str	r2, [r3, #24]
100024ae:	2280      	movs	r2, #128	; 0x80
100024b0:	0312      	lsls	r2, r2, #12
100024b2:	619a      	str	r2, [r3, #24]
100024b4:	2280      	movs	r2, #128	; 0x80
100024b6:	02d2      	lsls	r2, r2, #11
100024b8:	619a      	str	r2, [r3, #24]
100024ba:	2280      	movs	r2, #128	; 0x80
100024bc:	0392      	lsls	r2, r2, #14
100024be:	615a      	str	r2, [r3, #20]
100024c0:	2280      	movs	r2, #128	; 0x80
100024c2:	04d2      	lsls	r2, r2, #19
100024c4:	619a      	str	r2, [r3, #24]
100024c6:	2280      	movs	r2, #128	; 0x80
100024c8:	0512      	lsls	r2, r2, #20
100024ca:	619a      	str	r2, [r3, #24]
100024cc:	bd00      	pop	{pc}
100024ce:	23d0      	movs	r3, #208	; 0xd0
100024d0:	061b      	lsls	r3, r3, #24
100024d2:	2280      	movs	r2, #128	; 0x80
100024d4:	0352      	lsls	r2, r2, #13
100024d6:	619a      	str	r2, [r3, #24]
100024d8:	2280      	movs	r2, #128	; 0x80
100024da:	0312      	lsls	r2, r2, #12
100024dc:	619a      	str	r2, [r3, #24]
100024de:	2280      	movs	r2, #128	; 0x80
100024e0:	02d2      	lsls	r2, r2, #11
100024e2:	615a      	str	r2, [r3, #20]
100024e4:	2280      	movs	r2, #128	; 0x80
100024e6:	0392      	lsls	r2, r2, #14
100024e8:	615a      	str	r2, [r3, #20]
100024ea:	2280      	movs	r2, #128	; 0x80
100024ec:	04d2      	lsls	r2, r2, #19
100024ee:	619a      	str	r2, [r3, #24]
100024f0:	2280      	movs	r2, #128	; 0x80
100024f2:	0512      	lsls	r2, r2, #20
100024f4:	619a      	str	r2, [r3, #24]
100024f6:	e7e9      	b.n	100024cc <MUX_Set+0x38>
100024f8:	23d0      	movs	r3, #208	; 0xd0
100024fa:	061b      	lsls	r3, r3, #24
100024fc:	2280      	movs	r2, #128	; 0x80
100024fe:	0352      	lsls	r2, r2, #13
10002500:	619a      	str	r2, [r3, #24]
10002502:	2280      	movs	r2, #128	; 0x80
10002504:	0312      	lsls	r2, r2, #12
10002506:	615a      	str	r2, [r3, #20]
10002508:	2280      	movs	r2, #128	; 0x80
1000250a:	02d2      	lsls	r2, r2, #11
1000250c:	619a      	str	r2, [r3, #24]
1000250e:	2280      	movs	r2, #128	; 0x80
10002510:	0392      	lsls	r2, r2, #14
10002512:	615a      	str	r2, [r3, #20]
10002514:	2280      	movs	r2, #128	; 0x80
10002516:	04d2      	lsls	r2, r2, #19
10002518:	619a      	str	r2, [r3, #24]
1000251a:	2280      	movs	r2, #128	; 0x80
1000251c:	0512      	lsls	r2, r2, #20
1000251e:	619a      	str	r2, [r3, #24]
10002520:	e7d4      	b.n	100024cc <MUX_Set+0x38>
10002522:	23d0      	movs	r3, #208	; 0xd0
10002524:	061b      	lsls	r3, r3, #24
10002526:	2280      	movs	r2, #128	; 0x80
10002528:	0352      	lsls	r2, r2, #13
1000252a:	619a      	str	r2, [r3, #24]
1000252c:	2280      	movs	r2, #128	; 0x80
1000252e:	0312      	lsls	r2, r2, #12
10002530:	615a      	str	r2, [r3, #20]
10002532:	2280      	movs	r2, #128	; 0x80
10002534:	02d2      	lsls	r2, r2, #11
10002536:	615a      	str	r2, [r3, #20]
10002538:	2280      	movs	r2, #128	; 0x80
1000253a:	0392      	lsls	r2, r2, #14
1000253c:	615a      	str	r2, [r3, #20]
1000253e:	2280      	movs	r2, #128	; 0x80
10002540:	04d2      	lsls	r2, r2, #19
10002542:	619a      	str	r2, [r3, #24]
10002544:	2280      	movs	r2, #128	; 0x80
10002546:	0512      	lsls	r2, r2, #20
10002548:	619a      	str	r2, [r3, #24]
1000254a:	e7bf      	b.n	100024cc <MUX_Set+0x38>
1000254c:	23d0      	movs	r3, #208	; 0xd0
1000254e:	061b      	lsls	r3, r3, #24
10002550:	2280      	movs	r2, #128	; 0x80
10002552:	0352      	lsls	r2, r2, #13
10002554:	615a      	str	r2, [r3, #20]
10002556:	2280      	movs	r2, #128	; 0x80
10002558:	0312      	lsls	r2, r2, #12
1000255a:	619a      	str	r2, [r3, #24]
1000255c:	2280      	movs	r2, #128	; 0x80
1000255e:	02d2      	lsls	r2, r2, #11
10002560:	619a      	str	r2, [r3, #24]
10002562:	2280      	movs	r2, #128	; 0x80
10002564:	0392      	lsls	r2, r2, #14
10002566:	619a      	str	r2, [r3, #24]
10002568:	2280      	movs	r2, #128	; 0x80
1000256a:	04d2      	lsls	r2, r2, #19
1000256c:	619a      	str	r2, [r3, #24]
1000256e:	2280      	movs	r2, #128	; 0x80
10002570:	0512      	lsls	r2, r2, #20
10002572:	615a      	str	r2, [r3, #20]
10002574:	e7aa      	b.n	100024cc <MUX_Set+0x38>
10002576:	23d0      	movs	r3, #208	; 0xd0
10002578:	061b      	lsls	r3, r3, #24
1000257a:	2280      	movs	r2, #128	; 0x80
1000257c:	0352      	lsls	r2, r2, #13
1000257e:	619a      	str	r2, [r3, #24]
10002580:	2280      	movs	r2, #128	; 0x80
10002582:	0312      	lsls	r2, r2, #12
10002584:	619a      	str	r2, [r3, #24]
10002586:	2280      	movs	r2, #128	; 0x80
10002588:	02d2      	lsls	r2, r2, #11
1000258a:	619a      	str	r2, [r3, #24]
1000258c:	2280      	movs	r2, #128	; 0x80
1000258e:	0392      	lsls	r2, r2, #14
10002590:	619a      	str	r2, [r3, #24]
10002592:	2280      	movs	r2, #128	; 0x80
10002594:	04d2      	lsls	r2, r2, #19
10002596:	619a      	str	r2, [r3, #24]
10002598:	2280      	movs	r2, #128	; 0x80
1000259a:	0512      	lsls	r2, r2, #20
1000259c:	615a      	str	r2, [r3, #20]
1000259e:	e795      	b.n	100024cc <MUX_Set+0x38>
100025a0:	23d0      	movs	r3, #208	; 0xd0
100025a2:	061b      	lsls	r3, r3, #24
100025a4:	2280      	movs	r2, #128	; 0x80
100025a6:	0352      	lsls	r2, r2, #13
100025a8:	615a      	str	r2, [r3, #20]
100025aa:	2280      	movs	r2, #128	; 0x80
100025ac:	0312      	lsls	r2, r2, #12
100025ae:	619a      	str	r2, [r3, #24]
100025b0:	2280      	movs	r2, #128	; 0x80
100025b2:	02d2      	lsls	r2, r2, #11
100025b4:	619a      	str	r2, [r3, #24]
100025b6:	2280      	movs	r2, #128	; 0x80
100025b8:	0392      	lsls	r2, r2, #14
100025ba:	615a      	str	r2, [r3, #20]
100025bc:	2280      	movs	r2, #128	; 0x80
100025be:	04d2      	lsls	r2, r2, #19
100025c0:	619a      	str	r2, [r3, #24]
100025c2:	2280      	movs	r2, #128	; 0x80
100025c4:	0512      	lsls	r2, r2, #20
100025c6:	619a      	str	r2, [r3, #24]
100025c8:	e780      	b.n	100024cc <MUX_Set+0x38>
100025ca:	23d0      	movs	r3, #208	; 0xd0
100025cc:	061b      	lsls	r3, r3, #24
100025ce:	2280      	movs	r2, #128	; 0x80
100025d0:	0352      	lsls	r2, r2, #13
100025d2:	615a      	str	r2, [r3, #20]
100025d4:	2280      	movs	r2, #128	; 0x80
100025d6:	0312      	lsls	r2, r2, #12
100025d8:	619a      	str	r2, [r3, #24]
100025da:	2280      	movs	r2, #128	; 0x80
100025dc:	02d2      	lsls	r2, r2, #11
100025de:	615a      	str	r2, [r3, #20]
100025e0:	2280      	movs	r2, #128	; 0x80
100025e2:	0392      	lsls	r2, r2, #14
100025e4:	615a      	str	r2, [r3, #20]
100025e6:	2280      	movs	r2, #128	; 0x80
100025e8:	04d2      	lsls	r2, r2, #19
100025ea:	619a      	str	r2, [r3, #24]
100025ec:	2280      	movs	r2, #128	; 0x80
100025ee:	0512      	lsls	r2, r2, #20
100025f0:	619a      	str	r2, [r3, #24]
100025f2:	e76b      	b.n	100024cc <MUX_Set+0x38>
100025f4:	23d0      	movs	r3, #208	; 0xd0
100025f6:	061b      	lsls	r3, r3, #24
100025f8:	2280      	movs	r2, #128	; 0x80
100025fa:	0352      	lsls	r2, r2, #13
100025fc:	615a      	str	r2, [r3, #20]
100025fe:	2280      	movs	r2, #128	; 0x80
10002600:	0312      	lsls	r2, r2, #12
10002602:	615a      	str	r2, [r3, #20]
10002604:	2280      	movs	r2, #128	; 0x80
10002606:	02d2      	lsls	r2, r2, #11
10002608:	619a      	str	r2, [r3, #24]
1000260a:	2280      	movs	r2, #128	; 0x80
1000260c:	0392      	lsls	r2, r2, #14
1000260e:	615a      	str	r2, [r3, #20]
10002610:	2280      	movs	r2, #128	; 0x80
10002612:	04d2      	lsls	r2, r2, #19
10002614:	619a      	str	r2, [r3, #24]
10002616:	2280      	movs	r2, #128	; 0x80
10002618:	0512      	lsls	r2, r2, #20
1000261a:	619a      	str	r2, [r3, #24]
1000261c:	e756      	b.n	100024cc <MUX_Set+0x38>
1000261e:	23d0      	movs	r3, #208	; 0xd0
10002620:	061b      	lsls	r3, r3, #24
10002622:	2280      	movs	r2, #128	; 0x80
10002624:	0352      	lsls	r2, r2, #13
10002626:	615a      	str	r2, [r3, #20]
10002628:	2280      	movs	r2, #128	; 0x80
1000262a:	0312      	lsls	r2, r2, #12
1000262c:	615a      	str	r2, [r3, #20]
1000262e:	2280      	movs	r2, #128	; 0x80
10002630:	02d2      	lsls	r2, r2, #11
10002632:	615a      	str	r2, [r3, #20]
10002634:	2280      	movs	r2, #128	; 0x80
10002636:	0392      	lsls	r2, r2, #14
10002638:	615a      	str	r2, [r3, #20]
1000263a:	2280      	movs	r2, #128	; 0x80
1000263c:	04d2      	lsls	r2, r2, #19
1000263e:	619a      	str	r2, [r3, #24]
10002640:	2280      	movs	r2, #128	; 0x80
10002642:	0512      	lsls	r2, r2, #20
10002644:	619a      	str	r2, [r3, #24]
10002646:	e741      	b.n	100024cc <MUX_Set+0x38>
10002648:	23d0      	movs	r3, #208	; 0xd0
1000264a:	061b      	lsls	r3, r3, #24
1000264c:	2280      	movs	r2, #128	; 0x80
1000264e:	0352      	lsls	r2, r2, #13
10002650:	615a      	str	r2, [r3, #20]
10002652:	2280      	movs	r2, #128	; 0x80
10002654:	0312      	lsls	r2, r2, #12
10002656:	619a      	str	r2, [r3, #24]
10002658:	2280      	movs	r2, #128	; 0x80
1000265a:	02d2      	lsls	r2, r2, #11
1000265c:	615a      	str	r2, [r3, #20]
1000265e:	2280      	movs	r2, #128	; 0x80
10002660:	0392      	lsls	r2, r2, #14
10002662:	619a      	str	r2, [r3, #24]
10002664:	2280      	movs	r2, #128	; 0x80
10002666:	04d2      	lsls	r2, r2, #19
10002668:	619a      	str	r2, [r3, #24]
1000266a:	2280      	movs	r2, #128	; 0x80
1000266c:	0512      	lsls	r2, r2, #20
1000266e:	615a      	str	r2, [r3, #20]
10002670:	e72c      	b.n	100024cc <MUX_Set+0x38>
10002672:	23d0      	movs	r3, #208	; 0xd0
10002674:	061b      	lsls	r3, r3, #24
10002676:	2280      	movs	r2, #128	; 0x80
10002678:	0352      	lsls	r2, r2, #13
1000267a:	619a      	str	r2, [r3, #24]
1000267c:	2280      	movs	r2, #128	; 0x80
1000267e:	0312      	lsls	r2, r2, #12
10002680:	619a      	str	r2, [r3, #24]
10002682:	2280      	movs	r2, #128	; 0x80
10002684:	02d2      	lsls	r2, r2, #11
10002686:	615a      	str	r2, [r3, #20]
10002688:	2280      	movs	r2, #128	; 0x80
1000268a:	0392      	lsls	r2, r2, #14
1000268c:	619a      	str	r2, [r3, #24]
1000268e:	2280      	movs	r2, #128	; 0x80
10002690:	04d2      	lsls	r2, r2, #19
10002692:	619a      	str	r2, [r3, #24]
10002694:	2280      	movs	r2, #128	; 0x80
10002696:	0512      	lsls	r2, r2, #20
10002698:	615a      	str	r2, [r3, #20]
1000269a:	e717      	b.n	100024cc <MUX_Set+0x38>
1000269c:	23d0      	movs	r3, #208	; 0xd0
1000269e:	061b      	lsls	r3, r3, #24
100026a0:	2280      	movs	r2, #128	; 0x80
100026a2:	0352      	lsls	r2, r2, #13
100026a4:	619a      	str	r2, [r3, #24]
100026a6:	2280      	movs	r2, #128	; 0x80
100026a8:	0312      	lsls	r2, r2, #12
100026aa:	619a      	str	r2, [r3, #24]
100026ac:	2280      	movs	r2, #128	; 0x80
100026ae:	02d2      	lsls	r2, r2, #11
100026b0:	619a      	str	r2, [r3, #24]
100026b2:	2280      	movs	r2, #128	; 0x80
100026b4:	0392      	lsls	r2, r2, #14
100026b6:	619a      	str	r2, [r3, #24]
100026b8:	2280      	movs	r2, #128	; 0x80
100026ba:	04d2      	lsls	r2, r2, #19
100026bc:	615a      	str	r2, [r3, #20]
100026be:	2280      	movs	r2, #128	; 0x80
100026c0:	0512      	lsls	r2, r2, #20
100026c2:	619a      	str	r2, [r3, #24]
100026c4:	e702      	b.n	100024cc <MUX_Set+0x38>
100026c6:	23d0      	movs	r3, #208	; 0xd0
100026c8:	061b      	lsls	r3, r3, #24
100026ca:	2280      	movs	r2, #128	; 0x80
100026cc:	0352      	lsls	r2, r2, #13
100026ce:	619a      	str	r2, [r3, #24]
100026d0:	2280      	movs	r2, #128	; 0x80
100026d2:	0312      	lsls	r2, r2, #12
100026d4:	619a      	str	r2, [r3, #24]
100026d6:	2280      	movs	r2, #128	; 0x80
100026d8:	02d2      	lsls	r2, r2, #11
100026da:	615a      	str	r2, [r3, #20]
100026dc:	2280      	movs	r2, #128	; 0x80
100026de:	0392      	lsls	r2, r2, #14
100026e0:	619a      	str	r2, [r3, #24]
100026e2:	2280      	movs	r2, #128	; 0x80
100026e4:	04d2      	lsls	r2, r2, #19
100026e6:	615a      	str	r2, [r3, #20]
100026e8:	2280      	movs	r2, #128	; 0x80
100026ea:	0512      	lsls	r2, r2, #20
100026ec:	619a      	str	r2, [r3, #24]
100026ee:	e6ed      	b.n	100024cc <MUX_Set+0x38>
100026f0:	23d0      	movs	r3, #208	; 0xd0
100026f2:	061b      	lsls	r3, r3, #24
100026f4:	2280      	movs	r2, #128	; 0x80
100026f6:	0352      	lsls	r2, r2, #13
100026f8:	619a      	str	r2, [r3, #24]
100026fa:	2280      	movs	r2, #128	; 0x80
100026fc:	0312      	lsls	r2, r2, #12
100026fe:	615a      	str	r2, [r3, #20]
10002700:	2280      	movs	r2, #128	; 0x80
10002702:	02d2      	lsls	r2, r2, #11
10002704:	619a      	str	r2, [r3, #24]
10002706:	2280      	movs	r2, #128	; 0x80
10002708:	0392      	lsls	r2, r2, #14
1000270a:	619a      	str	r2, [r3, #24]
1000270c:	2280      	movs	r2, #128	; 0x80
1000270e:	04d2      	lsls	r2, r2, #19
10002710:	615a      	str	r2, [r3, #20]
10002712:	2280      	movs	r2, #128	; 0x80
10002714:	0512      	lsls	r2, r2, #20
10002716:	619a      	str	r2, [r3, #24]
10002718:	e6d8      	b.n	100024cc <MUX_Set+0x38>
1000271a:	23d0      	movs	r3, #208	; 0xd0
1000271c:	061b      	lsls	r3, r3, #24
1000271e:	2280      	movs	r2, #128	; 0x80
10002720:	0352      	lsls	r2, r2, #13
10002722:	619a      	str	r2, [r3, #24]
10002724:	2280      	movs	r2, #128	; 0x80
10002726:	0312      	lsls	r2, r2, #12
10002728:	615a      	str	r2, [r3, #20]
1000272a:	2280      	movs	r2, #128	; 0x80
1000272c:	02d2      	lsls	r2, r2, #11
1000272e:	615a      	str	r2, [r3, #20]
10002730:	2280      	movs	r2, #128	; 0x80
10002732:	0392      	lsls	r2, r2, #14
10002734:	619a      	str	r2, [r3, #24]
10002736:	2280      	movs	r2, #128	; 0x80
10002738:	04d2      	lsls	r2, r2, #19
1000273a:	615a      	str	r2, [r3, #20]
1000273c:	2280      	movs	r2, #128	; 0x80
1000273e:	0512      	lsls	r2, r2, #20
10002740:	619a      	str	r2, [r3, #24]
10002742:	e6c3      	b.n	100024cc <MUX_Set+0x38>
10002744:	23d0      	movs	r3, #208	; 0xd0
10002746:	061b      	lsls	r3, r3, #24
10002748:	2280      	movs	r2, #128	; 0x80
1000274a:	0352      	lsls	r2, r2, #13
1000274c:	615a      	str	r2, [r3, #20]
1000274e:	2280      	movs	r2, #128	; 0x80
10002750:	0312      	lsls	r2, r2, #12
10002752:	615a      	str	r2, [r3, #20]
10002754:	2280      	movs	r2, #128	; 0x80
10002756:	02d2      	lsls	r2, r2, #11
10002758:	619a      	str	r2, [r3, #24]
1000275a:	2280      	movs	r2, #128	; 0x80
1000275c:	0392      	lsls	r2, r2, #14
1000275e:	619a      	str	r2, [r3, #24]
10002760:	2280      	movs	r2, #128	; 0x80
10002762:	04d2      	lsls	r2, r2, #19
10002764:	619a      	str	r2, [r3, #24]
10002766:	2280      	movs	r2, #128	; 0x80
10002768:	0512      	lsls	r2, r2, #20
1000276a:	615a      	str	r2, [r3, #20]
1000276c:	e6ae      	b.n	100024cc <MUX_Set+0x38>
1000276e:	23d0      	movs	r3, #208	; 0xd0
10002770:	061b      	lsls	r3, r3, #24
10002772:	2280      	movs	r2, #128	; 0x80
10002774:	0352      	lsls	r2, r2, #13
10002776:	619a      	str	r2, [r3, #24]
10002778:	2280      	movs	r2, #128	; 0x80
1000277a:	0312      	lsls	r2, r2, #12
1000277c:	615a      	str	r2, [r3, #20]
1000277e:	2280      	movs	r2, #128	; 0x80
10002780:	02d2      	lsls	r2, r2, #11
10002782:	619a      	str	r2, [r3, #24]
10002784:	2280      	movs	r2, #128	; 0x80
10002786:	0392      	lsls	r2, r2, #14
10002788:	619a      	str	r2, [r3, #24]
1000278a:	2280      	movs	r2, #128	; 0x80
1000278c:	04d2      	lsls	r2, r2, #19
1000278e:	619a      	str	r2, [r3, #24]
10002790:	2280      	movs	r2, #128	; 0x80
10002792:	0512      	lsls	r2, r2, #20
10002794:	615a      	str	r2, [r3, #20]
10002796:	e699      	b.n	100024cc <MUX_Set+0x38>
10002798:	23d0      	movs	r3, #208	; 0xd0
1000279a:	061b      	lsls	r3, r3, #24
1000279c:	2280      	movs	r2, #128	; 0x80
1000279e:	0352      	lsls	r2, r2, #13
100027a0:	615a      	str	r2, [r3, #20]
100027a2:	2280      	movs	r2, #128	; 0x80
100027a4:	0312      	lsls	r2, r2, #12
100027a6:	619a      	str	r2, [r3, #24]
100027a8:	2280      	movs	r2, #128	; 0x80
100027aa:	02d2      	lsls	r2, r2, #11
100027ac:	619a      	str	r2, [r3, #24]
100027ae:	2280      	movs	r2, #128	; 0x80
100027b0:	0392      	lsls	r2, r2, #14
100027b2:	619a      	str	r2, [r3, #24]
100027b4:	2280      	movs	r2, #128	; 0x80
100027b6:	04d2      	lsls	r2, r2, #19
100027b8:	615a      	str	r2, [r3, #20]
100027ba:	2280      	movs	r2, #128	; 0x80
100027bc:	0512      	lsls	r2, r2, #20
100027be:	619a      	str	r2, [r3, #24]
100027c0:	e684      	b.n	100024cc <MUX_Set+0x38>
100027c2:	23d0      	movs	r3, #208	; 0xd0
100027c4:	061b      	lsls	r3, r3, #24
100027c6:	2280      	movs	r2, #128	; 0x80
100027c8:	0352      	lsls	r2, r2, #13
100027ca:	615a      	str	r2, [r3, #20]
100027cc:	2280      	movs	r2, #128	; 0x80
100027ce:	0312      	lsls	r2, r2, #12
100027d0:	619a      	str	r2, [r3, #24]
100027d2:	2280      	movs	r2, #128	; 0x80
100027d4:	02d2      	lsls	r2, r2, #11
100027d6:	615a      	str	r2, [r3, #20]
100027d8:	2280      	movs	r2, #128	; 0x80
100027da:	0392      	lsls	r2, r2, #14
100027dc:	619a      	str	r2, [r3, #24]
100027de:	2280      	movs	r2, #128	; 0x80
100027e0:	04d2      	lsls	r2, r2, #19
100027e2:	615a      	str	r2, [r3, #20]
100027e4:	2280      	movs	r2, #128	; 0x80
100027e6:	0512      	lsls	r2, r2, #20
100027e8:	619a      	str	r2, [r3, #24]
100027ea:	e66f      	b.n	100024cc <MUX_Set+0x38>
100027ec:	23d0      	movs	r3, #208	; 0xd0
100027ee:	061b      	lsls	r3, r3, #24
100027f0:	2280      	movs	r2, #128	; 0x80
100027f2:	0352      	lsls	r2, r2, #13
100027f4:	615a      	str	r2, [r3, #20]
100027f6:	2280      	movs	r2, #128	; 0x80
100027f8:	0312      	lsls	r2, r2, #12
100027fa:	615a      	str	r2, [r3, #20]
100027fc:	2280      	movs	r2, #128	; 0x80
100027fe:	02d2      	lsls	r2, r2, #11
10002800:	619a      	str	r2, [r3, #24]
10002802:	2280      	movs	r2, #128	; 0x80
10002804:	0392      	lsls	r2, r2, #14
10002806:	619a      	str	r2, [r3, #24]
10002808:	2280      	movs	r2, #128	; 0x80
1000280a:	04d2      	lsls	r2, r2, #19
1000280c:	615a      	str	r2, [r3, #20]
1000280e:	2280      	movs	r2, #128	; 0x80
10002810:	0512      	lsls	r2, r2, #20
10002812:	619a      	str	r2, [r3, #24]
10002814:	e65a      	b.n	100024cc <MUX_Set+0x38>
10002816:	23d0      	movs	r3, #208	; 0xd0
10002818:	061b      	lsls	r3, r3, #24
1000281a:	2280      	movs	r2, #128	; 0x80
1000281c:	0352      	lsls	r2, r2, #13
1000281e:	615a      	str	r2, [r3, #20]
10002820:	2280      	movs	r2, #128	; 0x80
10002822:	0312      	lsls	r2, r2, #12
10002824:	615a      	str	r2, [r3, #20]
10002826:	2280      	movs	r2, #128	; 0x80
10002828:	02d2      	lsls	r2, r2, #11
1000282a:	615a      	str	r2, [r3, #20]
1000282c:	2280      	movs	r2, #128	; 0x80
1000282e:	0392      	lsls	r2, r2, #14
10002830:	619a      	str	r2, [r3, #24]
10002832:	2280      	movs	r2, #128	; 0x80
10002834:	04d2      	lsls	r2, r2, #19
10002836:	615a      	str	r2, [r3, #20]
10002838:	2280      	movs	r2, #128	; 0x80
1000283a:	0512      	lsls	r2, r2, #20
1000283c:	619a      	str	r2, [r3, #24]
1000283e:	e645      	b.n	100024cc <MUX_Set+0x38>
10002840:	1000adb8 	.word	0x1000adb8
10002844:	23d0      	movs	r3, #208	; 0xd0
10002846:	061b      	lsls	r3, r3, #24
10002848:	2280      	movs	r2, #128	; 0x80
1000284a:	0352      	lsls	r2, r2, #13
1000284c:	615a      	str	r2, [r3, #20]
1000284e:	2280      	movs	r2, #128	; 0x80
10002850:	0312      	lsls	r2, r2, #12
10002852:	615a      	str	r2, [r3, #20]
10002854:	2280      	movs	r2, #128	; 0x80
10002856:	02d2      	lsls	r2, r2, #11
10002858:	615a      	str	r2, [r3, #20]
1000285a:	2280      	movs	r2, #128	; 0x80
1000285c:	0392      	lsls	r2, r2, #14
1000285e:	619a      	str	r2, [r3, #24]
10002860:	2280      	movs	r2, #128	; 0x80
10002862:	04d2      	lsls	r2, r2, #19
10002864:	619a      	str	r2, [r3, #24]
10002866:	2280      	movs	r2, #128	; 0x80
10002868:	0512      	lsls	r2, r2, #20
1000286a:	615a      	str	r2, [r3, #20]
1000286c:	e62e      	b.n	100024cc <MUX_Set+0x38>
1000286e:	23d0      	movs	r3, #208	; 0xd0
10002870:	061b      	lsls	r3, r3, #24
10002872:	2280      	movs	r2, #128	; 0x80
10002874:	0352      	lsls	r2, r2, #13
10002876:	619a      	str	r2, [r3, #24]
10002878:	2280      	movs	r2, #128	; 0x80
1000287a:	0312      	lsls	r2, r2, #12
1000287c:	615a      	str	r2, [r3, #20]
1000287e:	2280      	movs	r2, #128	; 0x80
10002880:	02d2      	lsls	r2, r2, #11
10002882:	615a      	str	r2, [r3, #20]
10002884:	2280      	movs	r2, #128	; 0x80
10002886:	0392      	lsls	r2, r2, #14
10002888:	619a      	str	r2, [r3, #24]
1000288a:	2280      	movs	r2, #128	; 0x80
1000288c:	04d2      	lsls	r2, r2, #19
1000288e:	619a      	str	r2, [r3, #24]
10002890:	2280      	movs	r2, #128	; 0x80
10002892:	0512      	lsls	r2, r2, #20
10002894:	615a      	str	r2, [r3, #20]
10002896:	e619      	b.n	100024cc <MUX_Set+0x38>
10002898:	23d0      	movs	r3, #208	; 0xd0
1000289a:	061b      	lsls	r3, r3, #24
1000289c:	2280      	movs	r2, #128	; 0x80
1000289e:	0352      	lsls	r2, r2, #13
100028a0:	619a      	str	r2, [r3, #24]
100028a2:	2280      	movs	r2, #128	; 0x80
100028a4:	0312      	lsls	r2, r2, #12
100028a6:	619a      	str	r2, [r3, #24]
100028a8:	2280      	movs	r2, #128	; 0x80
100028aa:	02d2      	lsls	r2, r2, #11
100028ac:	619a      	str	r2, [r3, #24]
100028ae:	2280      	movs	r2, #128	; 0x80
100028b0:	0392      	lsls	r2, r2, #14
100028b2:	619a      	str	r2, [r3, #24]
100028b4:	2280      	movs	r2, #128	; 0x80
100028b6:	04d2      	lsls	r2, r2, #19
100028b8:	619a      	str	r2, [r3, #24]
100028ba:	2280      	movs	r2, #128	; 0x80
100028bc:	0512      	lsls	r2, r2, #20
100028be:	619a      	str	r2, [r3, #24]
100028c0:	e604      	b.n	100024cc <MUX_Set+0x38>
100028c2:	46c0      	nop			; (mov r8, r8)

100028c4 <DAC_Check>:
100028c4:	b5f0      	push	{r4, r5, r6, r7, lr}
100028c6:	46de      	mov	lr, fp
100028c8:	4657      	mov	r7, sl
100028ca:	464e      	mov	r6, r9
100028cc:	4645      	mov	r5, r8
100028ce:	b5e0      	push	{r5, r6, r7, lr}
100028d0:	4cb6      	ldr	r4, [pc, #728]	; (10002bac <DAC_Check+0x2e8>)
100028d2:	44a5      	add	sp, r4
100028d4:	2300      	movs	r3, #0
100028d6:	aaff      	add	r2, sp, #1020	; 0x3fc
100028d8:	3290      	adds	r2, #144	; 0x90
100028da:	6013      	str	r3, [r2, #0]
100028dc:	aaff      	add	r2, sp, #1020	; 0x3fc
100028de:	328c      	adds	r2, #140	; 0x8c
100028e0:	6013      	str	r3, [r2, #0]
100028e2:	aaff      	add	r2, sp, #1020	; 0x3fc
100028e4:	3288      	adds	r2, #136	; 0x88
100028e6:	6013      	str	r3, [r2, #0]
100028e8:	aaff      	add	r2, sp, #1020	; 0x3fc
100028ea:	3284      	adds	r2, #132	; 0x84
100028ec:	6013      	str	r3, [r2, #0]
100028ee:	2214      	movs	r2, #20
100028f0:	2100      	movs	r1, #0
100028f2:	a803      	add	r0, sp, #12
100028f4:	f005 f94e 	bl	10007b94 <__wrap_memset>
100028f8:	4bad      	ldr	r3, [pc, #692]	; (10002bb0 <DAC_Check+0x2ec>)
100028fa:	781b      	ldrb	r3, [r3, #0]
100028fc:	2b01      	cmp	r3, #1
100028fe:	d018      	beq.n	10002932 <DAC_Check+0x6e>
10002900:	2b02      	cmp	r3, #2
10002902:	d059      	beq.n	100029b8 <DAC_Check+0xf4>
10002904:	2b04      	cmp	r3, #4
10002906:	d100      	bne.n	1000290a <DAC_Check+0x46>
10002908:	e226      	b.n	10002d58 <DAC_Check+0x494>
1000290a:	2b08      	cmp	r3, #8
1000290c:	d101      	bne.n	10002912 <DAC_Check+0x4e>
1000290e:	f000 ff8c 	bl	1000382a <DAC_Check+0xf66>
10002912:	4ba8      	ldr	r3, [pc, #672]	; (10002bb4 <DAC_Check+0x2f0>)
10002914:	2201      	movs	r2, #1
10002916:	701a      	strb	r2, [r3, #0]
10002918:	4ba5      	ldr	r3, [pc, #660]	; (10002bb0 <DAC_Check+0x2ec>)
1000291a:	2200      	movs	r2, #0
1000291c:	701a      	strb	r2, [r3, #0]
1000291e:	f7fd ff6f 	bl	10000800 <Watchdog>
10002922:	4ba5      	ldr	r3, [pc, #660]	; (10002bb8 <DAC_Check+0x2f4>)
10002924:	449d      	add	sp, r3
10002926:	bcf0      	pop	{r4, r5, r6, r7}
10002928:	46bb      	mov	fp, r7
1000292a:	46b2      	mov	sl, r6
1000292c:	46a9      	mov	r9, r5
1000292e:	46a0      	mov	r8, r4
10002930:	bdf0      	pop	{r4, r5, r6, r7, pc}
10002932:	4aa0      	ldr	r2, [pc, #640]	; (10002bb4 <DAC_Check+0x2f0>)
10002934:	2300      	movs	r3, #0
10002936:	7013      	strb	r3, [r2, #0]
10002938:	4aa0      	ldr	r2, [pc, #640]	; (10002bbc <DAC_Check+0x2f8>)
1000293a:	8013      	strh	r3, [r2, #0]
1000293c:	4aa0      	ldr	r2, [pc, #640]	; (10002bc0 <DAC_Check+0x2fc>)
1000293e:	6013      	str	r3, [r2, #0]
10002940:	2600      	movs	r6, #0
10002942:	2500      	movs	r5, #0
10002944:	e027      	b.n	10002996 <DAC_Check+0xd2>
10002946:	2064      	movs	r0, #100	; 0x64
10002948:	f002 f990 	bl	10004c6c <sleep_ms>
1000294c:	3401      	adds	r4, #1
1000294e:	b2e4      	uxtb	r4, r4
10002950:	4b9a      	ldr	r3, [pc, #616]	; (10002bbc <DAC_Check+0x2f8>)
10002952:	881b      	ldrh	r3, [r3, #0]
10002954:	2b00      	cmp	r3, #0
10002956:	d10c      	bne.n	10002972 <DAC_Check+0xae>
10002958:	2c04      	cmp	r4, #4
1000295a:	d80a      	bhi.n	10002972 <DAC_Check+0xae>
1000295c:	2001      	movs	r0, #1
1000295e:	f7fd fe9b 	bl	10000698 <ADC_Read>
10002962:	4b96      	ldr	r3, [pc, #600]	; (10002bbc <DAC_Check+0x2f8>)
10002964:	8018      	strh	r0, [r3, #0]
10002966:	b200      	sxth	r0, r0
10002968:	2800      	cmp	r0, #0
1000296a:	daec      	bge.n	10002946 <DAC_Check+0x82>
1000296c:	2200      	movs	r2, #0
1000296e:	801a      	strh	r2, [r3, #0]
10002970:	e7e9      	b.n	10002946 <DAC_Check+0x82>
10002972:	2c05      	cmp	r4, #5
10002974:	d019      	beq.n	100029aa <DAC_Check+0xe6>
10002976:	4b91      	ldr	r3, [pc, #580]	; (10002bbc <DAC_Check+0x2f8>)
10002978:	881b      	ldrh	r3, [r3, #0]
1000297a:	2b64      	cmp	r3, #100	; 0x64
1000297c:	d918      	bls.n	100029b0 <DAC_Check+0xec>
1000297e:	2301      	movs	r3, #1
10002980:	40ab      	lsls	r3, r5
10002982:	431e      	orrs	r6, r3
10002984:	0c32      	lsrs	r2, r6, #16
10002986:	4b8e      	ldr	r3, [pc, #568]	; (10002bc0 <DAC_Check+0x2fc>)
10002988:	701a      	strb	r2, [r3, #0]
1000298a:	0a32      	lsrs	r2, r6, #8
1000298c:	705a      	strb	r2, [r3, #1]
1000298e:	709e      	strb	r6, [r3, #2]
10002990:	3501      	adds	r5, #1
10002992:	b2ed      	uxtb	r5, r5
10002994:	70dd      	strb	r5, [r3, #3]
10002996:	2d17      	cmp	r5, #23
10002998:	d8bb      	bhi.n	10002912 <DAC_Check+0x4e>
1000299a:	0028      	movs	r0, r5
1000299c:	f7ff fd7a 	bl	10002494 <MUX_Set>
100029a0:	200a      	movs	r0, #10
100029a2:	f002 f963 	bl	10004c6c <sleep_ms>
100029a6:	2400      	movs	r4, #0
100029a8:	e7d8      	b.n	1000295c <DAC_Check+0x98>
100029aa:	f7fd ff29 	bl	10000800 <Watchdog>
100029ae:	e7e2      	b.n	10002976 <DAC_Check+0xb2>
100029b0:	2301      	movs	r3, #1
100029b2:	40ab      	lsls	r3, r5
100029b4:	439e      	bics	r6, r3
100029b6:	e7e5      	b.n	10002984 <DAC_Check+0xc0>
100029b8:	4b7e      	ldr	r3, [pc, #504]	; (10002bb4 <DAC_Check+0x2f0>)
100029ba:	2400      	movs	r4, #0
100029bc:	701c      	strb	r4, [r3, #0]
100029be:	abff      	add	r3, sp, #1020	; 0x3fc
100029c0:	3388      	adds	r3, #136	; 0x88
100029c2:	601c      	str	r4, [r3, #0]
100029c4:	abff      	add	r3, sp, #1020	; 0x3fc
100029c6:	3384      	adds	r3, #132	; 0x84
100029c8:	601c      	str	r4, [r3, #0]
100029ca:	4b7d      	ldr	r3, [pc, #500]	; (10002bc0 <DAC_Check+0x2fc>)
100029cc:	601c      	str	r4, [r3, #0]
100029ce:	228c      	movs	r2, #140	; 0x8c
100029d0:	0092      	lsls	r2, r2, #2
100029d2:	2100      	movs	r1, #0
100029d4:	a894      	add	r0, sp, #592	; 0x250
100029d6:	f005 f8dd 	bl	10007b94 <__wrap_memset>
100029da:	4b78      	ldr	r3, [pc, #480]	; (10002bbc <DAC_Check+0x2f8>)
100029dc:	80dc      	strh	r4, [r3, #6]
100029de:	805c      	strh	r4, [r3, #2]
100029e0:	811c      	strh	r4, [r3, #8]
100029e2:	809c      	strh	r4, [r3, #4]
100029e4:	2500      	movs	r5, #0
100029e6:	e14c      	b.n	10002c82 <DAC_Check+0x3be>
100029e8:	4b76      	ldr	r3, [pc, #472]	; (10002bc4 <DAC_Check+0x300>)
100029ea:	699b      	ldr	r3, [r3, #24]
100029ec:	069b      	lsls	r3, r3, #26
100029ee:	d4fb      	bmi.n	100029e8 <DAC_Check+0x124>
100029f0:	7808      	ldrb	r0, [r1, #0]
100029f2:	4b74      	ldr	r3, [pc, #464]	; (10002bc4 <DAC_Check+0x300>)
100029f4:	6018      	str	r0, [r3, #0]
100029f6:	3201      	adds	r2, #1
100029f8:	3101      	adds	r1, #1
100029fa:	2a06      	cmp	r2, #6
100029fc:	d9f4      	bls.n	100029e8 <DAC_Check+0x124>
100029fe:	4b72      	ldr	r3, [pc, #456]	; (10002bc8 <DAC_Check+0x304>)
10002a00:	2264      	movs	r2, #100	; 0x64
10002a02:	801a      	strh	r2, [r3, #0]
10002a04:	4b70      	ldr	r3, [pc, #448]	; (10002bc8 <DAC_Check+0x304>)
10002a06:	881b      	ldrh	r3, [r3, #0]
10002a08:	b29b      	uxth	r3, r3
10002a0a:	2b00      	cmp	r3, #0
10002a0c:	d1fa      	bne.n	10002a04 <DAC_Check+0x140>
10002a0e:	4a6f      	ldr	r2, [pc, #444]	; (10002bcc <DAC_Check+0x308>)
10002a10:	8812      	ldrh	r2, [r2, #0]
10002a12:	b292      	uxth	r2, r2
10002a14:	4694      	mov	ip, r2
10002a16:	001a      	movs	r2, r3
10002a18:	2700      	movs	r7, #0
10002a1a:	e006      	b.n	10002a2a <DAC_Check+0x166>
10002a1c:	1878      	adds	r0, r7, r1
10002a1e:	4e6c      	ldr	r6, [pc, #432]	; (10002bd0 <DAC_Check+0x30c>)
10002a20:	5c36      	ldrb	r6, [r6, r0]
10002a22:	a894      	add	r0, sp, #592	; 0x250
10002a24:	5446      	strb	r6, [r0, r1]
10002a26:	3201      	adds	r2, #1
10002a28:	b292      	uxth	r2, r2
10002a2a:	4562      	cmp	r2, ip
10002a2c:	d212      	bcs.n	10002a54 <DAC_Check+0x190>
10002a2e:	0011      	movs	r1, r2
10002a30:	4867      	ldr	r0, [pc, #412]	; (10002bd0 <DAC_Check+0x30c>)
10002a32:	5c80      	ldrb	r0, [r0, r2]
10002a34:	2810      	cmp	r0, #16
10002a36:	d1f1      	bne.n	10002a1c <DAC_Check+0x158>
10002a38:	1c50      	adds	r0, r2, #1
10002a3a:	4e65      	ldr	r6, [pc, #404]	; (10002bd0 <DAC_Check+0x30c>)
10002a3c:	5c30      	ldrb	r0, [r6, r0]
10002a3e:	2810      	cmp	r0, #16
10002a40:	d1ec      	bne.n	10002a1c <DAC_Check+0x158>
10002a42:	18b8      	adds	r0, r7, r2
10002a44:	5c36      	ldrb	r6, [r6, r0]
10002a46:	a894      	add	r0, sp, #592	; 0x250
10002a48:	5486      	strb	r6, [r0, r2]
10002a4a:	3701      	adds	r7, #1
10002a4c:	b2ff      	uxtb	r7, r7
10002a4e:	3201      	adds	r2, #1
10002a50:	b292      	uxth	r2, r2
10002a52:	e7e8      	b.n	10002a26 <DAC_Check+0x162>
10002a54:	2b03      	cmp	r3, #3
10002a56:	d814      	bhi.n	10002a82 <DAC_Check+0x1be>
10002a58:	001a      	movs	r2, r3
10002a5a:	32a7      	adds	r2, #167	; 0xa7
10002a5c:	a902      	add	r1, sp, #8
10002a5e:	2092      	movs	r0, #146	; 0x92
10002a60:	0080      	lsls	r0, r0, #2
10002a62:	1809      	adds	r1, r1, r0
10002a64:	5c89      	ldrb	r1, [r1, r2]
10002a66:	aaff      	add	r2, sp, #1020	; 0x3fc
10002a68:	3284      	adds	r2, #132	; 0x84
10002a6a:	54d1      	strb	r1, [r2, r3]
10002a6c:	001a      	movs	r2, r3
10002a6e:	32ab      	adds	r2, #171	; 0xab
10002a70:	a902      	add	r1, sp, #8
10002a72:	1809      	adds	r1, r1, r0
10002a74:	5c89      	ldrb	r1, [r1, r2]
10002a76:	aaff      	add	r2, sp, #1020	; 0x3fc
10002a78:	3288      	adds	r2, #136	; 0x88
10002a7a:	54d1      	strb	r1, [r2, r3]
10002a7c:	3301      	adds	r3, #1
10002a7e:	b29b      	uxth	r3, r3
10002a80:	e7e8      	b.n	10002a54 <DAC_Check+0x190>
10002a82:	abff      	add	r3, sp, #1020	; 0x3fc
10002a84:	3384      	adds	r3, #132	; 0x84
10002a86:	6818      	ldr	r0, [r3, #0]
10002a88:	abff      	add	r3, sp, #1020	; 0x3fc
10002a8a:	3388      	adds	r3, #136	; 0x88
10002a8c:	681f      	ldr	r7, [r3, #0]
10002a8e:	4951      	ldr	r1, [pc, #324]	; (10002bd4 <DAC_Check+0x310>)
10002a90:	f004 ffa7 	bl	100079e2 <__wrap___aeabi_fmul>
10002a94:	f004 ffd6 	bl	10007a44 <__wrap___aeabi_f2uiz>
10002a98:	b286      	uxth	r6, r0
10002a9a:	494e      	ldr	r1, [pc, #312]	; (10002bd4 <DAC_Check+0x310>)
10002a9c:	1c38      	adds	r0, r7, #0
10002a9e:	f004 ffa0 	bl	100079e2 <__wrap___aeabi_fmul>
10002aa2:	f004 ffcf 	bl	10007a44 <__wrap___aeabi_f2uiz>
10002aa6:	b283      	uxth	r3, r0
10002aa8:	4699      	mov	r9, r3
10002aaa:	4b47      	ldr	r3, [pc, #284]	; (10002bc8 <DAC_Check+0x304>)
10002aac:	2264      	movs	r2, #100	; 0x64
10002aae:	801a      	strh	r2, [r3, #0]
10002ab0:	4b49      	ldr	r3, [pc, #292]	; (10002bd8 <DAC_Check+0x314>)
10002ab2:	2200      	movs	r2, #0
10002ab4:	801a      	strh	r2, [r3, #0]
10002ab6:	4b45      	ldr	r3, [pc, #276]	; (10002bcc <DAC_Check+0x308>)
10002ab8:	801a      	strh	r2, [r3, #0]
10002aba:	4948      	ldr	r1, [pc, #288]	; (10002bdc <DAC_Check+0x318>)
10002abc:	e008      	b.n	10002ad0 <DAC_Check+0x20c>
10002abe:	4b41      	ldr	r3, [pc, #260]	; (10002bc4 <DAC_Check+0x300>)
10002ac0:	699b      	ldr	r3, [r3, #24]
10002ac2:	069b      	lsls	r3, r3, #26
10002ac4:	d4fb      	bmi.n	10002abe <DAC_Check+0x1fa>
10002ac6:	7808      	ldrb	r0, [r1, #0]
10002ac8:	4b3e      	ldr	r3, [pc, #248]	; (10002bc4 <DAC_Check+0x300>)
10002aca:	6018      	str	r0, [r3, #0]
10002acc:	3201      	adds	r2, #1
10002ace:	3101      	adds	r1, #1
10002ad0:	2a08      	cmp	r2, #8
10002ad2:	d9f4      	bls.n	10002abe <DAC_Check+0x1fa>
10002ad4:	4b40      	ldr	r3, [pc, #256]	; (10002bd8 <DAC_Check+0x314>)
10002ad6:	881a      	ldrh	r2, [r3, #0]
10002ad8:	3201      	adds	r2, #1
10002ada:	4b3c      	ldr	r3, [pc, #240]	; (10002bcc <DAC_Check+0x308>)
10002adc:	881b      	ldrh	r3, [r3, #0]
10002ade:	b29b      	uxth	r3, r3
10002ae0:	429a      	cmp	r2, r3
10002ae2:	db04      	blt.n	10002aee <DAC_Check+0x22a>
10002ae4:	4b38      	ldr	r3, [pc, #224]	; (10002bc8 <DAC_Check+0x304>)
10002ae6:	881b      	ldrh	r3, [r3, #0]
10002ae8:	b29b      	uxth	r3, r3
10002aea:	2b00      	cmp	r3, #0
10002aec:	d1f2      	bne.n	10002ad4 <DAC_Check+0x210>
10002aee:	f7ff fc83 	bl	100023f8 <UART_CheckResponse>
10002af2:	2801      	cmp	r0, #1
10002af4:	d006      	beq.n	10002b04 <DAC_Check+0x240>
10002af6:	4b38      	ldr	r3, [pc, #224]	; (10002bd8 <DAC_Check+0x314>)
10002af8:	2200      	movs	r2, #0
10002afa:	801a      	strh	r2, [r3, #0]
10002afc:	4b33      	ldr	r3, [pc, #204]	; (10002bcc <DAC_Check+0x308>)
10002afe:	801a      	strh	r2, [r3, #0]
10002b00:	4936      	ldr	r1, [pc, #216]	; (10002bdc <DAC_Check+0x318>)
10002b02:	e078      	b.n	10002bf6 <DAC_Check+0x332>
10002b04:	4b30      	ldr	r3, [pc, #192]	; (10002bc8 <DAC_Check+0x304>)
10002b06:	881b      	ldrh	r3, [r3, #0]
10002b08:	b29b      	uxth	r3, r3
10002b0a:	2b00      	cmp	r3, #0
10002b0c:	d0f3      	beq.n	10002af6 <DAC_Check+0x232>
10002b0e:	4b32      	ldr	r3, [pc, #200]	; (10002bd8 <DAC_Check+0x314>)
10002b10:	2200      	movs	r2, #0
10002b12:	801a      	strh	r2, [r3, #0]
10002b14:	4b2d      	ldr	r3, [pc, #180]	; (10002bcc <DAC_Check+0x308>)
10002b16:	801a      	strh	r2, [r3, #0]
10002b18:	2100      	movs	r1, #0
10002b1a:	4a31      	ldr	r2, [pc, #196]	; (10002be0 <DAC_Check+0x31c>)
10002b1c:	e008      	b.n	10002b30 <DAC_Check+0x26c>
10002b1e:	4b29      	ldr	r3, [pc, #164]	; (10002bc4 <DAC_Check+0x300>)
10002b20:	699b      	ldr	r3, [r3, #24]
10002b22:	069b      	lsls	r3, r3, #26
10002b24:	d4fb      	bmi.n	10002b1e <DAC_Check+0x25a>
10002b26:	7810      	ldrb	r0, [r2, #0]
10002b28:	4b26      	ldr	r3, [pc, #152]	; (10002bc4 <DAC_Check+0x300>)
10002b2a:	6018      	str	r0, [r3, #0]
10002b2c:	3101      	adds	r1, #1
10002b2e:	3201      	adds	r2, #1
10002b30:	2907      	cmp	r1, #7
10002b32:	d9f4      	bls.n	10002b1e <DAC_Check+0x25a>
10002b34:	4b28      	ldr	r3, [pc, #160]	; (10002bd8 <DAC_Check+0x314>)
10002b36:	881a      	ldrh	r2, [r3, #0]
10002b38:	3201      	adds	r2, #1
10002b3a:	4b24      	ldr	r3, [pc, #144]	; (10002bcc <DAC_Check+0x308>)
10002b3c:	881b      	ldrh	r3, [r3, #0]
10002b3e:	b29b      	uxth	r3, r3
10002b40:	429a      	cmp	r2, r3
10002b42:	db04      	blt.n	10002b4e <DAC_Check+0x28a>
10002b44:	4b20      	ldr	r3, [pc, #128]	; (10002bc8 <DAC_Check+0x304>)
10002b46:	881b      	ldrh	r3, [r3, #0]
10002b48:	b29b      	uxth	r3, r3
10002b4a:	2b00      	cmp	r3, #0
10002b4c:	d1f2      	bne.n	10002b34 <DAC_Check+0x270>
10002b4e:	f7ff fc53 	bl	100023f8 <UART_CheckResponse>
10002b52:	2801      	cmp	r0, #1
10002b54:	d00b      	beq.n	10002b6e <DAC_Check+0x2aa>
10002b56:	ab03      	add	r3, sp, #12
10002b58:	8898      	ldrh	r0, [r3, #4]
10002b5a:	88da      	ldrh	r2, [r3, #6]
10002b5c:	1880      	adds	r0, r0, r2
10002b5e:	891b      	ldrh	r3, [r3, #8]
10002b60:	18c0      	adds	r0, r0, r3
10002b62:	2103      	movs	r1, #3
10002b64:	f004 f89c 	bl	10006ca0 <__wrap___aeabi_idiv>
10002b68:	4b14      	ldr	r3, [pc, #80]	; (10002bbc <DAC_Check+0x2f8>)
10002b6a:	8058      	strh	r0, [r3, #2]
10002b6c:	e7c3      	b.n	10002af6 <DAC_Check+0x232>
10002b6e:	4b16      	ldr	r3, [pc, #88]	; (10002bc8 <DAC_Check+0x304>)
10002b70:	881b      	ldrh	r3, [r3, #0]
10002b72:	b29b      	uxth	r3, r3
10002b74:	2b00      	cmp	r3, #0
10002b76:	d0ee      	beq.n	10002b56 <DAC_Check+0x292>
10002b78:	2214      	movs	r2, #20
10002b7a:	2100      	movs	r1, #0
10002b7c:	a803      	add	r0, sp, #12
10002b7e:	f005 f809 	bl	10007b94 <__wrap_memset>
10002b82:	2700      	movs	r7, #0
10002b84:	e006      	b.n	10002b94 <DAC_Check+0x2d0>
10002b86:	200a      	movs	r0, #10
10002b88:	f002 f870 	bl	10004c6c <sleep_ms>
10002b8c:	3701      	adds	r7, #1
10002b8e:	b2ff      	uxtb	r7, r7
10002b90:	2f04      	cmp	r7, #4
10002b92:	d8e0      	bhi.n	10002b56 <DAC_Check+0x292>
10002b94:	2001      	movs	r0, #1
10002b96:	f7fd fd7f 	bl	10000698 <ADC_Read>
10002b9a:	007b      	lsls	r3, r7, #1
10002b9c:	aa03      	add	r2, sp, #12
10002b9e:	5298      	strh	r0, [r3, r2]
10002ba0:	b200      	sxth	r0, r0
10002ba2:	2800      	cmp	r0, #0
10002ba4:	daef      	bge.n	10002b86 <DAC_Check+0x2c2>
10002ba6:	2100      	movs	r1, #0
10002ba8:	5299      	strh	r1, [r3, r2]
10002baa:	e7ec      	b.n	10002b86 <DAC_Check+0x2c2>
10002bac:	fffffb6c 	.word	0xfffffb6c
10002bb0:	20001f5f 	.word	0x20001f5f
10002bb4:	20000b98 	.word	0x20000b98
10002bb8:	00000494 	.word	0x00000494
10002bbc:	20001250 	.word	0x20001250
10002bc0:	200012c8 	.word	0x200012c8
10002bc4:	40034000 	.word	0x40034000
10002bc8:	20001f44 	.word	0x20001f44
10002bcc:	20001f4c 	.word	0x20001f4c
10002bd0:	20000ed0 	.word	0x20000ed0
10002bd4:	447a0000 	.word	0x447a0000
10002bd8:	20001f4a 	.word	0x20001f4a
10002bdc:	1000ae30 	.word	0x1000ae30
10002be0:	1000ae68 	.word	0x1000ae68
10002be4:	4bb7      	ldr	r3, [pc, #732]	; (10002ec4 <DAC_Check+0x600>)
10002be6:	699b      	ldr	r3, [r3, #24]
10002be8:	069b      	lsls	r3, r3, #26
10002bea:	d4fb      	bmi.n	10002be4 <DAC_Check+0x320>
10002bec:	7808      	ldrb	r0, [r1, #0]
10002bee:	4bb5      	ldr	r3, [pc, #724]	; (10002ec4 <DAC_Check+0x600>)
10002bf0:	6018      	str	r0, [r3, #0]
10002bf2:	3201      	adds	r2, #1
10002bf4:	3101      	adds	r1, #1
10002bf6:	2a08      	cmp	r2, #8
10002bf8:	d9f4      	bls.n	10002be4 <DAC_Check+0x320>
10002bfa:	4bb3      	ldr	r3, [pc, #716]	; (10002ec8 <DAC_Check+0x604>)
10002bfc:	881a      	ldrh	r2, [r3, #0]
10002bfe:	3201      	adds	r2, #1
10002c00:	4bb2      	ldr	r3, [pc, #712]	; (10002ecc <DAC_Check+0x608>)
10002c02:	881b      	ldrh	r3, [r3, #0]
10002c04:	b29b      	uxth	r3, r3
10002c06:	429a      	cmp	r2, r3
10002c08:	db04      	blt.n	10002c14 <DAC_Check+0x350>
10002c0a:	4bb1      	ldr	r3, [pc, #708]	; (10002ed0 <DAC_Check+0x60c>)
10002c0c:	881b      	ldrh	r3, [r3, #0]
10002c0e:	b29b      	uxth	r3, r3
10002c10:	2b00      	cmp	r3, #0
10002c12:	d1f2      	bne.n	10002bfa <DAC_Check+0x336>
10002c14:	f7ff fbf0 	bl	100023f8 <UART_CheckResponse>
10002c18:	2801      	cmp	r0, #1
10002c1a:	d045      	beq.n	10002ca8 <DAC_Check+0x3e4>
10002c1c:	4fad      	ldr	r7, [pc, #692]	; (10002ed4 <DAC_Check+0x610>)
10002c1e:	8878      	ldrh	r0, [r7, #2]
10002c20:	f004 fb42 	bl	100072a8 <__wrap___aeabi_i2d>
10002c24:	4aac      	ldr	r2, [pc, #688]	; (10002ed8 <DAC_Check+0x614>)
10002c26:	4bad      	ldr	r3, [pc, #692]	; (10002edc <DAC_Check+0x618>)
10002c28:	f004 faaf 	bl	1000718a <__wrap___aeabi_ddiv>
10002c2c:	f004 fb78 	bl	10007320 <__wrap___aeabi_d2uiz>
10002c30:	b283      	uxth	r3, r0
10002c32:	4698      	mov	r8, r3
10002c34:	80bb      	strh	r3, [r7, #4]
10002c36:	88f8      	ldrh	r0, [r7, #6]
10002c38:	f004 fb36 	bl	100072a8 <__wrap___aeabi_i2d>
10002c3c:	4aa8      	ldr	r2, [pc, #672]	; (10002ee0 <DAC_Check+0x61c>)
10002c3e:	4ba9      	ldr	r3, [pc, #676]	; (10002ee4 <DAC_Check+0x620>)
10002c40:	f004 faa3 	bl	1000718a <__wrap___aeabi_ddiv>
10002c44:	f004 fb6c 	bl	10007320 <__wrap___aeabi_d2uiz>
10002c48:	b280      	uxth	r0, r0
10002c4a:	8138      	strh	r0, [r7, #8]
10002c4c:	4643      	mov	r3, r8
10002c4e:	0032      	movs	r2, r6
10002c50:	3a0a      	subs	r2, #10
10002c52:	4542      	cmp	r2, r8
10002c54:	dc09      	bgt.n	10002c6a <DAC_Check+0x3a6>
10002c56:	360a      	adds	r6, #10
10002c58:	42b3      	cmp	r3, r6
10002c5a:	dc06      	bgt.n	10002c6a <DAC_Check+0x3a6>
10002c5c:	464b      	mov	r3, r9
10002c5e:	3b0a      	subs	r3, #10
10002c60:	4283      	cmp	r3, r0
10002c62:	dc02      	bgt.n	10002c6a <DAC_Check+0x3a6>
10002c64:	3314      	adds	r3, #20
10002c66:	4298      	cmp	r0, r3
10002c68:	dd72      	ble.n	10002d50 <DAC_Check+0x48c>
10002c6a:	2301      	movs	r3, #1
10002c6c:	40a3      	lsls	r3, r4
10002c6e:	439d      	bics	r5, r3
10002c70:	0c2a      	lsrs	r2, r5, #16
10002c72:	4b9d      	ldr	r3, [pc, #628]	; (10002ee8 <DAC_Check+0x624>)
10002c74:	701a      	strb	r2, [r3, #0]
10002c76:	0a2a      	lsrs	r2, r5, #8
10002c78:	705a      	strb	r2, [r3, #1]
10002c7a:	709d      	strb	r5, [r3, #2]
10002c7c:	3401      	adds	r4, #1
10002c7e:	b2e4      	uxtb	r4, r4
10002c80:	70dc      	strb	r4, [r3, #3]
10002c82:	2c17      	cmp	r4, #23
10002c84:	d900      	bls.n	10002c88 <DAC_Check+0x3c4>
10002c86:	e644      	b.n	10002912 <DAC_Check+0x4e>
10002c88:	4b8f      	ldr	r3, [pc, #572]	; (10002ec8 <DAC_Check+0x604>)
10002c8a:	2200      	movs	r2, #0
10002c8c:	801a      	strh	r2, [r3, #0]
10002c8e:	4b8f      	ldr	r3, [pc, #572]	; (10002ecc <DAC_Check+0x608>)
10002c90:	801a      	strh	r2, [r3, #0]
10002c92:	f7fd fdb5 	bl	10000800 <Watchdog>
10002c96:	0020      	movs	r0, r4
10002c98:	f7ff fbfc 	bl	10002494 <MUX_Set>
10002c9c:	200a      	movs	r0, #10
10002c9e:	f001 ffe5 	bl	10004c6c <sleep_ms>
10002ca2:	2200      	movs	r2, #0
10002ca4:	4991      	ldr	r1, [pc, #580]	; (10002eec <DAC_Check+0x628>)
10002ca6:	e6a8      	b.n	100029fa <DAC_Check+0x136>
10002ca8:	4b89      	ldr	r3, [pc, #548]	; (10002ed0 <DAC_Check+0x60c>)
10002caa:	881b      	ldrh	r3, [r3, #0]
10002cac:	b29b      	uxth	r3, r3
10002cae:	2b00      	cmp	r3, #0
10002cb0:	d0b4      	beq.n	10002c1c <DAC_Check+0x358>
10002cb2:	4b85      	ldr	r3, [pc, #532]	; (10002ec8 <DAC_Check+0x604>)
10002cb4:	2200      	movs	r2, #0
10002cb6:	801a      	strh	r2, [r3, #0]
10002cb8:	4b84      	ldr	r3, [pc, #528]	; (10002ecc <DAC_Check+0x608>)
10002cba:	801a      	strh	r2, [r3, #0]
10002cbc:	2100      	movs	r1, #0
10002cbe:	4a8c      	ldr	r2, [pc, #560]	; (10002ef0 <DAC_Check+0x62c>)
10002cc0:	e008      	b.n	10002cd4 <DAC_Check+0x410>
10002cc2:	4b80      	ldr	r3, [pc, #512]	; (10002ec4 <DAC_Check+0x600>)
10002cc4:	699b      	ldr	r3, [r3, #24]
10002cc6:	069b      	lsls	r3, r3, #26
10002cc8:	d4fb      	bmi.n	10002cc2 <DAC_Check+0x3fe>
10002cca:	7810      	ldrb	r0, [r2, #0]
10002ccc:	4b7d      	ldr	r3, [pc, #500]	; (10002ec4 <DAC_Check+0x600>)
10002cce:	6018      	str	r0, [r3, #0]
10002cd0:	3101      	adds	r1, #1
10002cd2:	3201      	adds	r2, #1
10002cd4:	2907      	cmp	r1, #7
10002cd6:	d9f4      	bls.n	10002cc2 <DAC_Check+0x3fe>
10002cd8:	4b7b      	ldr	r3, [pc, #492]	; (10002ec8 <DAC_Check+0x604>)
10002cda:	881a      	ldrh	r2, [r3, #0]
10002cdc:	3201      	adds	r2, #1
10002cde:	4b7b      	ldr	r3, [pc, #492]	; (10002ecc <DAC_Check+0x608>)
10002ce0:	881b      	ldrh	r3, [r3, #0]
10002ce2:	b29b      	uxth	r3, r3
10002ce4:	429a      	cmp	r2, r3
10002ce6:	db04      	blt.n	10002cf2 <DAC_Check+0x42e>
10002ce8:	4b79      	ldr	r3, [pc, #484]	; (10002ed0 <DAC_Check+0x60c>)
10002cea:	881b      	ldrh	r3, [r3, #0]
10002cec:	b29b      	uxth	r3, r3
10002cee:	2b00      	cmp	r3, #0
10002cf0:	d1f2      	bne.n	10002cd8 <DAC_Check+0x414>
10002cf2:	f7ff fb81 	bl	100023f8 <UART_CheckResponse>
10002cf6:	2801      	cmp	r0, #1
10002cf8:	d00b      	beq.n	10002d12 <DAC_Check+0x44e>
10002cfa:	ab03      	add	r3, sp, #12
10002cfc:	8898      	ldrh	r0, [r3, #4]
10002cfe:	88da      	ldrh	r2, [r3, #6]
10002d00:	1880      	adds	r0, r0, r2
10002d02:	891b      	ldrh	r3, [r3, #8]
10002d04:	18c0      	adds	r0, r0, r3
10002d06:	2103      	movs	r1, #3
10002d08:	f003 ffca 	bl	10006ca0 <__wrap___aeabi_idiv>
10002d0c:	4b71      	ldr	r3, [pc, #452]	; (10002ed4 <DAC_Check+0x610>)
10002d0e:	80d8      	strh	r0, [r3, #6]
10002d10:	e784      	b.n	10002c1c <DAC_Check+0x358>
10002d12:	4b6f      	ldr	r3, [pc, #444]	; (10002ed0 <DAC_Check+0x60c>)
10002d14:	881b      	ldrh	r3, [r3, #0]
10002d16:	b29b      	uxth	r3, r3
10002d18:	2b00      	cmp	r3, #0
10002d1a:	d0ee      	beq.n	10002cfa <DAC_Check+0x436>
10002d1c:	2214      	movs	r2, #20
10002d1e:	2100      	movs	r1, #0
10002d20:	a803      	add	r0, sp, #12
10002d22:	f004 ff37 	bl	10007b94 <__wrap_memset>
10002d26:	2700      	movs	r7, #0
10002d28:	e006      	b.n	10002d38 <DAC_Check+0x474>
10002d2a:	200a      	movs	r0, #10
10002d2c:	f001 ff9e 	bl	10004c6c <sleep_ms>
10002d30:	3701      	adds	r7, #1
10002d32:	b2ff      	uxtb	r7, r7
10002d34:	2f04      	cmp	r7, #4
10002d36:	d8e0      	bhi.n	10002cfa <DAC_Check+0x436>
10002d38:	2001      	movs	r0, #1
10002d3a:	f7fd fcad 	bl	10000698 <ADC_Read>
10002d3e:	007b      	lsls	r3, r7, #1
10002d40:	aa03      	add	r2, sp, #12
10002d42:	5298      	strh	r0, [r3, r2]
10002d44:	b200      	sxth	r0, r0
10002d46:	2800      	cmp	r0, #0
10002d48:	daef      	bge.n	10002d2a <DAC_Check+0x466>
10002d4a:	2100      	movs	r1, #0
10002d4c:	5299      	strh	r1, [r3, r2]
10002d4e:	e7ec      	b.n	10002d2a <DAC_Check+0x466>
10002d50:	2301      	movs	r3, #1
10002d52:	40a3      	lsls	r3, r4
10002d54:	431d      	orrs	r5, r3
10002d56:	e78b      	b.n	10002c70 <DAC_Check+0x3ac>
10002d58:	4a66      	ldr	r2, [pc, #408]	; (10002ef4 <DAC_Check+0x630>)
10002d5a:	2300      	movs	r3, #0
10002d5c:	7013      	strb	r3, [r2, #0]
10002d5e:	aaff      	add	r2, sp, #1020	; 0x3fc
10002d60:	3288      	adds	r2, #136	; 0x88
10002d62:	6013      	str	r3, [r2, #0]
10002d64:	aaff      	add	r2, sp, #1020	; 0x3fc
10002d66:	3284      	adds	r2, #132	; 0x84
10002d68:	6013      	str	r3, [r2, #0]
10002d6a:	4a5f      	ldr	r2, [pc, #380]	; (10002ee8 <DAC_Check+0x624>)
10002d6c:	6013      	str	r3, [r2, #0]
10002d6e:	248c      	movs	r4, #140	; 0x8c
10002d70:	00a4      	lsls	r4, r4, #2
10002d72:	0022      	movs	r2, r4
10002d74:	2100      	movs	r1, #0
10002d76:	a894      	add	r0, sp, #592	; 0x250
10002d78:	f004 ff0c 	bl	10007b94 <__wrap_memset>
10002d7c:	0022      	movs	r2, r4
10002d7e:	2100      	movs	r1, #0
10002d80:	a808      	add	r0, sp, #32
10002d82:	f004 ff07 	bl	10007b94 <__wrap_memset>
10002d86:	2300      	movs	r3, #0
10002d88:	9301      	str	r3, [sp, #4]
10002d8a:	469a      	mov	sl, r3
10002d8c:	f000 fd3f 	bl	1000380e <DAC_Check+0xf4a>
10002d90:	4b4c      	ldr	r3, [pc, #304]	; (10002ec4 <DAC_Check+0x600>)
10002d92:	699b      	ldr	r3, [r3, #24]
10002d94:	069b      	lsls	r3, r3, #26
10002d96:	d4fb      	bmi.n	10002d90 <DAC_Check+0x4cc>
10002d98:	7808      	ldrb	r0, [r1, #0]
10002d9a:	4b4a      	ldr	r3, [pc, #296]	; (10002ec4 <DAC_Check+0x600>)
10002d9c:	6018      	str	r0, [r3, #0]
10002d9e:	3201      	adds	r2, #1
10002da0:	3101      	adds	r1, #1
10002da2:	2a06      	cmp	r2, #6
10002da4:	d9f4      	bls.n	10002d90 <DAC_Check+0x4cc>
10002da6:	4b4a      	ldr	r3, [pc, #296]	; (10002ed0 <DAC_Check+0x60c>)
10002da8:	2264      	movs	r2, #100	; 0x64
10002daa:	801a      	strh	r2, [r3, #0]
10002dac:	4b48      	ldr	r3, [pc, #288]	; (10002ed0 <DAC_Check+0x60c>)
10002dae:	881b      	ldrh	r3, [r3, #0]
10002db0:	b29b      	uxth	r3, r3
10002db2:	2b00      	cmp	r3, #0
10002db4:	d1fa      	bne.n	10002dac <DAC_Check+0x4e8>
10002db6:	4a45      	ldr	r2, [pc, #276]	; (10002ecc <DAC_Check+0x608>)
10002db8:	8817      	ldrh	r7, [r2, #0]
10002dba:	b2bf      	uxth	r7, r7
10002dbc:	001a      	movs	r2, r3
10002dbe:	2600      	movs	r6, #0
10002dc0:	e006      	b.n	10002dd0 <DAC_Check+0x50c>
10002dc2:	1870      	adds	r0, r6, r1
10002dc4:	4c4c      	ldr	r4, [pc, #304]	; (10002ef8 <DAC_Check+0x634>)
10002dc6:	5c24      	ldrb	r4, [r4, r0]
10002dc8:	a894      	add	r0, sp, #592	; 0x250
10002dca:	5444      	strb	r4, [r0, r1]
10002dcc:	3201      	adds	r2, #1
10002dce:	b292      	uxth	r2, r2
10002dd0:	42ba      	cmp	r2, r7
10002dd2:	d226      	bcs.n	10002e22 <DAC_Check+0x55e>
10002dd4:	0011      	movs	r1, r2
10002dd6:	4848      	ldr	r0, [pc, #288]	; (10002ef8 <DAC_Check+0x634>)
10002dd8:	5c80      	ldrb	r0, [r0, r2]
10002dda:	2810      	cmp	r0, #16
10002ddc:	d1f1      	bne.n	10002dc2 <DAC_Check+0x4fe>
10002dde:	1c50      	adds	r0, r2, #1
10002de0:	4c45      	ldr	r4, [pc, #276]	; (10002ef8 <DAC_Check+0x634>)
10002de2:	5c20      	ldrb	r0, [r4, r0]
10002de4:	2810      	cmp	r0, #16
10002de6:	d1ec      	bne.n	10002dc2 <DAC_Check+0x4fe>
10002de8:	18b0      	adds	r0, r6, r2
10002dea:	5c24      	ldrb	r4, [r4, r0]
10002dec:	a894      	add	r0, sp, #592	; 0x250
10002dee:	5484      	strb	r4, [r0, r2]
10002df0:	3601      	adds	r6, #1
10002df2:	b2f6      	uxtb	r6, r6
10002df4:	3201      	adds	r2, #1
10002df6:	b292      	uxth	r2, r2
10002df8:	e7e8      	b.n	10002dcc <DAC_Check+0x508>
10002dfa:	001a      	movs	r2, r3
10002dfc:	32a7      	adds	r2, #167	; 0xa7
10002dfe:	a902      	add	r1, sp, #8
10002e00:	2092      	movs	r0, #146	; 0x92
10002e02:	0080      	lsls	r0, r0, #2
10002e04:	1809      	adds	r1, r1, r0
10002e06:	5c89      	ldrb	r1, [r1, r2]
10002e08:	aaff      	add	r2, sp, #1020	; 0x3fc
10002e0a:	3284      	adds	r2, #132	; 0x84
10002e0c:	54d1      	strb	r1, [r2, r3]
10002e0e:	001a      	movs	r2, r3
10002e10:	32ab      	adds	r2, #171	; 0xab
10002e12:	a902      	add	r1, sp, #8
10002e14:	1809      	adds	r1, r1, r0
10002e16:	5c89      	ldrb	r1, [r1, r2]
10002e18:	aaff      	add	r2, sp, #1020	; 0x3fc
10002e1a:	3288      	adds	r2, #136	; 0x88
10002e1c:	54d1      	strb	r1, [r2, r3]
10002e1e:	3301      	adds	r3, #1
10002e20:	b29b      	uxth	r3, r3
10002e22:	2b03      	cmp	r3, #3
10002e24:	d9e9      	bls.n	10002dfa <DAC_Check+0x536>
10002e26:	abff      	add	r3, sp, #1020	; 0x3fc
10002e28:	3384      	adds	r3, #132	; 0x84
10002e2a:	6818      	ldr	r0, [r3, #0]
10002e2c:	abff      	add	r3, sp, #1020	; 0x3fc
10002e2e:	3388      	adds	r3, #136	; 0x88
10002e30:	681c      	ldr	r4, [r3, #0]
10002e32:	4932      	ldr	r1, [pc, #200]	; (10002efc <DAC_Check+0x638>)
10002e34:	f004 fdd5 	bl	100079e2 <__wrap___aeabi_fmul>
10002e38:	f004 fe04 	bl	10007a44 <__wrap___aeabi_f2uiz>
10002e3c:	b283      	uxth	r3, r0
10002e3e:	4699      	mov	r9, r3
10002e40:	492e      	ldr	r1, [pc, #184]	; (10002efc <DAC_Check+0x638>)
10002e42:	1c20      	adds	r0, r4, #0
10002e44:	f004 fdcd 	bl	100079e2 <__wrap___aeabi_fmul>
10002e48:	f004 fdfc 	bl	10007a44 <__wrap___aeabi_f2uiz>
10002e4c:	b283      	uxth	r3, r0
10002e4e:	9300      	str	r3, [sp, #0]
10002e50:	4b1f      	ldr	r3, [pc, #124]	; (10002ed0 <DAC_Check+0x60c>)
10002e52:	2264      	movs	r2, #100	; 0x64
10002e54:	801a      	strh	r2, [r3, #0]
10002e56:	4b1c      	ldr	r3, [pc, #112]	; (10002ec8 <DAC_Check+0x604>)
10002e58:	2200      	movs	r2, #0
10002e5a:	801a      	strh	r2, [r3, #0]
10002e5c:	4b1b      	ldr	r3, [pc, #108]	; (10002ecc <DAC_Check+0x608>)
10002e5e:	801a      	strh	r2, [r3, #0]
10002e60:	4927      	ldr	r1, [pc, #156]	; (10002f00 <DAC_Check+0x63c>)
10002e62:	e008      	b.n	10002e76 <DAC_Check+0x5b2>
10002e64:	4b17      	ldr	r3, [pc, #92]	; (10002ec4 <DAC_Check+0x600>)
10002e66:	699b      	ldr	r3, [r3, #24]
10002e68:	069b      	lsls	r3, r3, #26
10002e6a:	d4fb      	bmi.n	10002e64 <DAC_Check+0x5a0>
10002e6c:	7808      	ldrb	r0, [r1, #0]
10002e6e:	4b15      	ldr	r3, [pc, #84]	; (10002ec4 <DAC_Check+0x600>)
10002e70:	6018      	str	r0, [r3, #0]
10002e72:	3201      	adds	r2, #1
10002e74:	3101      	adds	r1, #1
10002e76:	2a08      	cmp	r2, #8
10002e78:	d9f4      	bls.n	10002e64 <DAC_Check+0x5a0>
10002e7a:	4b13      	ldr	r3, [pc, #76]	; (10002ec8 <DAC_Check+0x604>)
10002e7c:	881a      	ldrh	r2, [r3, #0]
10002e7e:	3201      	adds	r2, #1
10002e80:	4b12      	ldr	r3, [pc, #72]	; (10002ecc <DAC_Check+0x608>)
10002e82:	881b      	ldrh	r3, [r3, #0]
10002e84:	b29b      	uxth	r3, r3
10002e86:	429a      	cmp	r2, r3
10002e88:	db04      	blt.n	10002e94 <DAC_Check+0x5d0>
10002e8a:	4b11      	ldr	r3, [pc, #68]	; (10002ed0 <DAC_Check+0x60c>)
10002e8c:	881b      	ldrh	r3, [r3, #0]
10002e8e:	b29b      	uxth	r3, r3
10002e90:	2b00      	cmp	r3, #0
10002e92:	d1f2      	bne.n	10002e7a <DAC_Check+0x5b6>
10002e94:	f7ff fab0 	bl	100023f8 <UART_CheckResponse>
10002e98:	2801      	cmp	r0, #1
10002e9a:	d006      	beq.n	10002eaa <DAC_Check+0x5e6>
10002e9c:	4b0a      	ldr	r3, [pc, #40]	; (10002ec8 <DAC_Check+0x604>)
10002e9e:	2200      	movs	r2, #0
10002ea0:	801a      	strh	r2, [r3, #0]
10002ea2:	4b0a      	ldr	r3, [pc, #40]	; (10002ecc <DAC_Check+0x608>)
10002ea4:	801a      	strh	r2, [r3, #0]
10002ea6:	4916      	ldr	r1, [pc, #88]	; (10002f00 <DAC_Check+0x63c>)
10002ea8:	e07e      	b.n	10002fa8 <DAC_Check+0x6e4>
10002eaa:	4b09      	ldr	r3, [pc, #36]	; (10002ed0 <DAC_Check+0x60c>)
10002eac:	881b      	ldrh	r3, [r3, #0]
10002eae:	b29b      	uxth	r3, r3
10002eb0:	2b00      	cmp	r3, #0
10002eb2:	d0f3      	beq.n	10002e9c <DAC_Check+0x5d8>
10002eb4:	4b04      	ldr	r3, [pc, #16]	; (10002ec8 <DAC_Check+0x604>)
10002eb6:	2200      	movs	r2, #0
10002eb8:	801a      	strh	r2, [r3, #0]
10002eba:	4b04      	ldr	r3, [pc, #16]	; (10002ecc <DAC_Check+0x608>)
10002ebc:	801a      	strh	r2, [r3, #0]
10002ebe:	4911      	ldr	r1, [pc, #68]	; (10002f04 <DAC_Check+0x640>)
10002ec0:	e02b      	b.n	10002f1a <DAC_Check+0x656>
10002ec2:	46c0      	nop			; (mov r8, r8)
10002ec4:	40034000 	.word	0x40034000
10002ec8:	20001f4a 	.word	0x20001f4a
10002ecc:	20001f4c 	.word	0x20001f4c
10002ed0:	20001f44 	.word	0x20001f44
10002ed4:	20001250 	.word	0x20001250
10002ed8:	22d0e560 	.word	0x22d0e560
10002edc:	402379db 	.word	0x402379db
10002ee0:	53f7ced9 	.word	0x53f7ced9
10002ee4:	4022a5e3 	.word	0x4022a5e3
10002ee8:	200012c8 	.word	0x200012c8
10002eec:	1000ae50 	.word	0x1000ae50
10002ef0:	1000ae48 	.word	0x1000ae48
10002ef4:	20000b98 	.word	0x20000b98
10002ef8:	20000ed0 	.word	0x20000ed0
10002efc:	447a0000 	.word	0x447a0000
10002f00:	1000ae30 	.word	0x1000ae30
10002f04:	1000ae68 	.word	0x1000ae68
10002f08:	4bbd      	ldr	r3, [pc, #756]	; (10003200 <DAC_Check+0x93c>)
10002f0a:	699b      	ldr	r3, [r3, #24]
10002f0c:	069b      	lsls	r3, r3, #26
10002f0e:	d4fb      	bmi.n	10002f08 <DAC_Check+0x644>
10002f10:	7808      	ldrb	r0, [r1, #0]
10002f12:	4bbb      	ldr	r3, [pc, #748]	; (10003200 <DAC_Check+0x93c>)
10002f14:	6018      	str	r0, [r3, #0]
10002f16:	3201      	adds	r2, #1
10002f18:	3101      	adds	r1, #1
10002f1a:	2a07      	cmp	r2, #7
10002f1c:	d9f4      	bls.n	10002f08 <DAC_Check+0x644>
10002f1e:	4bb9      	ldr	r3, [pc, #740]	; (10003204 <DAC_Check+0x940>)
10002f20:	881a      	ldrh	r2, [r3, #0]
10002f22:	3201      	adds	r2, #1
10002f24:	4bb8      	ldr	r3, [pc, #736]	; (10003208 <DAC_Check+0x944>)
10002f26:	881b      	ldrh	r3, [r3, #0]
10002f28:	b29b      	uxth	r3, r3
10002f2a:	429a      	cmp	r2, r3
10002f2c:	db04      	blt.n	10002f38 <DAC_Check+0x674>
10002f2e:	4bb7      	ldr	r3, [pc, #732]	; (1000320c <DAC_Check+0x948>)
10002f30:	881b      	ldrh	r3, [r3, #0]
10002f32:	b29b      	uxth	r3, r3
10002f34:	2b00      	cmp	r3, #0
10002f36:	d1f2      	bne.n	10002f1e <DAC_Check+0x65a>
10002f38:	f7ff fa5e 	bl	100023f8 <UART_CheckResponse>
10002f3c:	2801      	cmp	r0, #1
10002f3e:	d00b      	beq.n	10002f58 <DAC_Check+0x694>
10002f40:	ab03      	add	r3, sp, #12
10002f42:	8898      	ldrh	r0, [r3, #4]
10002f44:	88da      	ldrh	r2, [r3, #6]
10002f46:	1880      	adds	r0, r0, r2
10002f48:	891b      	ldrh	r3, [r3, #8]
10002f4a:	18c0      	adds	r0, r0, r3
10002f4c:	2103      	movs	r1, #3
10002f4e:	f003 fea7 	bl	10006ca0 <__wrap___aeabi_idiv>
10002f52:	4baf      	ldr	r3, [pc, #700]	; (10003210 <DAC_Check+0x94c>)
10002f54:	8058      	strh	r0, [r3, #2]
10002f56:	e7a1      	b.n	10002e9c <DAC_Check+0x5d8>
10002f58:	4bac      	ldr	r3, [pc, #688]	; (1000320c <DAC_Check+0x948>)
10002f5a:	881b      	ldrh	r3, [r3, #0]
10002f5c:	b29b      	uxth	r3, r3
10002f5e:	2b00      	cmp	r3, #0
10002f60:	d0ee      	beq.n	10002f40 <DAC_Check+0x67c>
10002f62:	2214      	movs	r2, #20
10002f64:	2100      	movs	r1, #0
10002f66:	a803      	add	r0, sp, #12
10002f68:	f004 fe14 	bl	10007b94 <__wrap_memset>
10002f6c:	2400      	movs	r4, #0
10002f6e:	e006      	b.n	10002f7e <DAC_Check+0x6ba>
10002f70:	200a      	movs	r0, #10
10002f72:	f001 fe7b 	bl	10004c6c <sleep_ms>
10002f76:	3401      	adds	r4, #1
10002f78:	b2e4      	uxtb	r4, r4
10002f7a:	2c04      	cmp	r4, #4
10002f7c:	d8e0      	bhi.n	10002f40 <DAC_Check+0x67c>
10002f7e:	2001      	movs	r0, #1
10002f80:	f7fd fb8a 	bl	10000698 <ADC_Read>
10002f84:	0063      	lsls	r3, r4, #1
10002f86:	aa03      	add	r2, sp, #12
10002f88:	5298      	strh	r0, [r3, r2]
10002f8a:	b200      	sxth	r0, r0
10002f8c:	2800      	cmp	r0, #0
10002f8e:	daef      	bge.n	10002f70 <DAC_Check+0x6ac>
10002f90:	2100      	movs	r1, #0
10002f92:	5299      	strh	r1, [r3, r2]
10002f94:	e7ec      	b.n	10002f70 <DAC_Check+0x6ac>
10002f96:	4b9a      	ldr	r3, [pc, #616]	; (10003200 <DAC_Check+0x93c>)
10002f98:	699b      	ldr	r3, [r3, #24]
10002f9a:	069b      	lsls	r3, r3, #26
10002f9c:	d4fb      	bmi.n	10002f96 <DAC_Check+0x6d2>
10002f9e:	7808      	ldrb	r0, [r1, #0]
10002fa0:	4b97      	ldr	r3, [pc, #604]	; (10003200 <DAC_Check+0x93c>)
10002fa2:	6018      	str	r0, [r3, #0]
10002fa4:	3201      	adds	r2, #1
10002fa6:	3101      	adds	r1, #1
10002fa8:	2a08      	cmp	r2, #8
10002faa:	d9f4      	bls.n	10002f96 <DAC_Check+0x6d2>
10002fac:	4b95      	ldr	r3, [pc, #596]	; (10003204 <DAC_Check+0x940>)
10002fae:	881a      	ldrh	r2, [r3, #0]
10002fb0:	3201      	adds	r2, #1
10002fb2:	4b95      	ldr	r3, [pc, #596]	; (10003208 <DAC_Check+0x944>)
10002fb4:	881b      	ldrh	r3, [r3, #0]
10002fb6:	b29b      	uxth	r3, r3
10002fb8:	429a      	cmp	r2, r3
10002fba:	db04      	blt.n	10002fc6 <DAC_Check+0x702>
10002fbc:	4b93      	ldr	r3, [pc, #588]	; (1000320c <DAC_Check+0x948>)
10002fbe:	881b      	ldrh	r3, [r3, #0]
10002fc0:	b29b      	uxth	r3, r3
10002fc2:	2b00      	cmp	r3, #0
10002fc4:	d1f2      	bne.n	10002fac <DAC_Check+0x6e8>
10002fc6:	f7ff fa17 	bl	100023f8 <UART_CheckResponse>
10002fca:	2801      	cmp	r0, #1
10002fcc:	d03d      	beq.n	1000304a <DAC_Check+0x786>
10002fce:	4e90      	ldr	r6, [pc, #576]	; (10003210 <DAC_Check+0x94c>)
10002fd0:	8870      	ldrh	r0, [r6, #2]
10002fd2:	f004 f969 	bl	100072a8 <__wrap___aeabi_i2d>
10002fd6:	4a8f      	ldr	r2, [pc, #572]	; (10003214 <DAC_Check+0x950>)
10002fd8:	4b8f      	ldr	r3, [pc, #572]	; (10003218 <DAC_Check+0x954>)
10002fda:	f004 f8d6 	bl	1000718a <__wrap___aeabi_ddiv>
10002fde:	f004 f99f 	bl	10007320 <__wrap___aeabi_d2uiz>
10002fe2:	b284      	uxth	r4, r0
10002fe4:	80b4      	strh	r4, [r6, #4]
10002fe6:	88f0      	ldrh	r0, [r6, #6]
10002fe8:	f004 f95e 	bl	100072a8 <__wrap___aeabi_i2d>
10002fec:	4a8b      	ldr	r2, [pc, #556]	; (1000321c <DAC_Check+0x958>)
10002fee:	4b8c      	ldr	r3, [pc, #560]	; (10003220 <DAC_Check+0x95c>)
10002ff0:	f004 f8cb 	bl	1000718a <__wrap___aeabi_ddiv>
10002ff4:	f004 f994 	bl	10007320 <__wrap___aeabi_d2uiz>
10002ff8:	b280      	uxth	r0, r0
10002ffa:	8130      	strh	r0, [r6, #8]
10002ffc:	230a      	movs	r3, #10
10002ffe:	425b      	negs	r3, r3
10003000:	444b      	add	r3, r9
10003002:	469b      	mov	fp, r3
10003004:	42a3      	cmp	r3, r4
10003006:	dc0d      	bgt.n	10003024 <DAC_Check+0x760>
10003008:	464b      	mov	r3, r9
1000300a:	330a      	adds	r3, #10
1000300c:	429c      	cmp	r4, r3
1000300e:	dc09      	bgt.n	10003024 <DAC_Check+0x760>
10003010:	9a00      	ldr	r2, [sp, #0]
10003012:	0013      	movs	r3, r2
10003014:	3b0a      	subs	r3, #10
10003016:	4283      	cmp	r3, r0
10003018:	dc04      	bgt.n	10003024 <DAC_Check+0x760>
1000301a:	3314      	adds	r3, #20
1000301c:	4298      	cmp	r0, r3
1000301e:	dc01      	bgt.n	10003024 <DAC_Check+0x760>
10003020:	f000 fbd1 	bl	100037c6 <DAC_Check+0xf02>
10003024:	248c      	movs	r4, #140	; 0x8c
10003026:	00a4      	lsls	r4, r4, #2
10003028:	0022      	movs	r2, r4
1000302a:	2100      	movs	r1, #0
1000302c:	a894      	add	r0, sp, #592	; 0x250
1000302e:	f004 fdb1 	bl	10007b94 <__wrap_memset>
10003032:	0022      	movs	r2, r4
10003034:	2100      	movs	r1, #0
10003036:	a808      	add	r0, sp, #32
10003038:	f004 fdac 	bl	10007b94 <__wrap_memset>
1000303c:	4b71      	ldr	r3, [pc, #452]	; (10003204 <DAC_Check+0x940>)
1000303e:	2200      	movs	r2, #0
10003040:	801a      	strh	r2, [r3, #0]
10003042:	4b71      	ldr	r3, [pc, #452]	; (10003208 <DAC_Check+0x944>)
10003044:	801a      	strh	r2, [r3, #0]
10003046:	4977      	ldr	r1, [pc, #476]	; (10003224 <DAC_Check+0x960>)
10003048:	e05b      	b.n	10003102 <DAC_Check+0x83e>
1000304a:	4b70      	ldr	r3, [pc, #448]	; (1000320c <DAC_Check+0x948>)
1000304c:	881b      	ldrh	r3, [r3, #0]
1000304e:	b29b      	uxth	r3, r3
10003050:	2b00      	cmp	r3, #0
10003052:	d0bc      	beq.n	10002fce <DAC_Check+0x70a>
10003054:	4b6b      	ldr	r3, [pc, #428]	; (10003204 <DAC_Check+0x940>)
10003056:	2200      	movs	r2, #0
10003058:	801a      	strh	r2, [r3, #0]
1000305a:	4b6b      	ldr	r3, [pc, #428]	; (10003208 <DAC_Check+0x944>)
1000305c:	801a      	strh	r2, [r3, #0]
1000305e:	4972      	ldr	r1, [pc, #456]	; (10003228 <DAC_Check+0x964>)
10003060:	e008      	b.n	10003074 <DAC_Check+0x7b0>
10003062:	4b67      	ldr	r3, [pc, #412]	; (10003200 <DAC_Check+0x93c>)
10003064:	699b      	ldr	r3, [r3, #24]
10003066:	069b      	lsls	r3, r3, #26
10003068:	d4fb      	bmi.n	10003062 <DAC_Check+0x79e>
1000306a:	7808      	ldrb	r0, [r1, #0]
1000306c:	4b64      	ldr	r3, [pc, #400]	; (10003200 <DAC_Check+0x93c>)
1000306e:	6018      	str	r0, [r3, #0]
10003070:	3201      	adds	r2, #1
10003072:	3101      	adds	r1, #1
10003074:	2a07      	cmp	r2, #7
10003076:	d9f4      	bls.n	10003062 <DAC_Check+0x79e>
10003078:	4b62      	ldr	r3, [pc, #392]	; (10003204 <DAC_Check+0x940>)
1000307a:	881a      	ldrh	r2, [r3, #0]
1000307c:	3201      	adds	r2, #1
1000307e:	4b62      	ldr	r3, [pc, #392]	; (10003208 <DAC_Check+0x944>)
10003080:	881b      	ldrh	r3, [r3, #0]
10003082:	b29b      	uxth	r3, r3
10003084:	429a      	cmp	r2, r3
10003086:	db04      	blt.n	10003092 <DAC_Check+0x7ce>
10003088:	4b60      	ldr	r3, [pc, #384]	; (1000320c <DAC_Check+0x948>)
1000308a:	881b      	ldrh	r3, [r3, #0]
1000308c:	b29b      	uxth	r3, r3
1000308e:	2b00      	cmp	r3, #0
10003090:	d1f2      	bne.n	10003078 <DAC_Check+0x7b4>
10003092:	f7ff f9b1 	bl	100023f8 <UART_CheckResponse>
10003096:	2801      	cmp	r0, #1
10003098:	d00b      	beq.n	100030b2 <DAC_Check+0x7ee>
1000309a:	ab03      	add	r3, sp, #12
1000309c:	8898      	ldrh	r0, [r3, #4]
1000309e:	88da      	ldrh	r2, [r3, #6]
100030a0:	1880      	adds	r0, r0, r2
100030a2:	891b      	ldrh	r3, [r3, #8]
100030a4:	18c0      	adds	r0, r0, r3
100030a6:	2103      	movs	r1, #3
100030a8:	f003 fdfa 	bl	10006ca0 <__wrap___aeabi_idiv>
100030ac:	4b58      	ldr	r3, [pc, #352]	; (10003210 <DAC_Check+0x94c>)
100030ae:	80d8      	strh	r0, [r3, #6]
100030b0:	e78d      	b.n	10002fce <DAC_Check+0x70a>
100030b2:	4b56      	ldr	r3, [pc, #344]	; (1000320c <DAC_Check+0x948>)
100030b4:	881b      	ldrh	r3, [r3, #0]
100030b6:	b29b      	uxth	r3, r3
100030b8:	2b00      	cmp	r3, #0
100030ba:	d0ee      	beq.n	1000309a <DAC_Check+0x7d6>
100030bc:	2214      	movs	r2, #20
100030be:	2100      	movs	r1, #0
100030c0:	a803      	add	r0, sp, #12
100030c2:	f004 fd67 	bl	10007b94 <__wrap_memset>
100030c6:	2400      	movs	r4, #0
100030c8:	e006      	b.n	100030d8 <DAC_Check+0x814>
100030ca:	200a      	movs	r0, #10
100030cc:	f001 fdce 	bl	10004c6c <sleep_ms>
100030d0:	3401      	adds	r4, #1
100030d2:	b2e4      	uxtb	r4, r4
100030d4:	2c04      	cmp	r4, #4
100030d6:	d8e0      	bhi.n	1000309a <DAC_Check+0x7d6>
100030d8:	2001      	movs	r0, #1
100030da:	f7fd fadd 	bl	10000698 <ADC_Read>
100030de:	0063      	lsls	r3, r4, #1
100030e0:	aa03      	add	r2, sp, #12
100030e2:	5298      	strh	r0, [r3, r2]
100030e4:	b200      	sxth	r0, r0
100030e6:	2800      	cmp	r0, #0
100030e8:	daef      	bge.n	100030ca <DAC_Check+0x806>
100030ea:	2100      	movs	r1, #0
100030ec:	5299      	strh	r1, [r3, r2]
100030ee:	e7ec      	b.n	100030ca <DAC_Check+0x806>
100030f0:	4b43      	ldr	r3, [pc, #268]	; (10003200 <DAC_Check+0x93c>)
100030f2:	699b      	ldr	r3, [r3, #24]
100030f4:	069b      	lsls	r3, r3, #26
100030f6:	d4fb      	bmi.n	100030f0 <DAC_Check+0x82c>
100030f8:	7808      	ldrb	r0, [r1, #0]
100030fa:	4b41      	ldr	r3, [pc, #260]	; (10003200 <DAC_Check+0x93c>)
100030fc:	6018      	str	r0, [r3, #0]
100030fe:	3201      	adds	r2, #1
10003100:	3101      	adds	r1, #1
10003102:	2a06      	cmp	r2, #6
10003104:	d9f4      	bls.n	100030f0 <DAC_Check+0x82c>
10003106:	4b41      	ldr	r3, [pc, #260]	; (1000320c <DAC_Check+0x948>)
10003108:	2264      	movs	r2, #100	; 0x64
1000310a:	801a      	strh	r2, [r3, #0]
1000310c:	4b3f      	ldr	r3, [pc, #252]	; (1000320c <DAC_Check+0x948>)
1000310e:	881c      	ldrh	r4, [r3, #0]
10003110:	b2a4      	uxth	r4, r4
10003112:	2c00      	cmp	r4, #0
10003114:	d1fa      	bne.n	1000310c <DAC_Check+0x848>
10003116:	4b3c      	ldr	r3, [pc, #240]	; (10003208 <DAC_Check+0x944>)
10003118:	881e      	ldrh	r6, [r3, #0]
1000311a:	b2b6      	uxth	r6, r6
1000311c:	0023      	movs	r3, r4
1000311e:	2000      	movs	r0, #0
10003120:	e006      	b.n	10003130 <DAC_Check+0x86c>
10003122:	1881      	adds	r1, r0, r2
10003124:	4f41      	ldr	r7, [pc, #260]	; (1000322c <DAC_Check+0x968>)
10003126:	5c7f      	ldrb	r7, [r7, r1]
10003128:	a994      	add	r1, sp, #592	; 0x250
1000312a:	548f      	strb	r7, [r1, r2]
1000312c:	3301      	adds	r3, #1
1000312e:	b29b      	uxth	r3, r3
10003130:	42b3      	cmp	r3, r6
10003132:	d212      	bcs.n	1000315a <DAC_Check+0x896>
10003134:	001a      	movs	r2, r3
10003136:	493d      	ldr	r1, [pc, #244]	; (1000322c <DAC_Check+0x968>)
10003138:	5cc9      	ldrb	r1, [r1, r3]
1000313a:	2910      	cmp	r1, #16
1000313c:	d1f1      	bne.n	10003122 <DAC_Check+0x85e>
1000313e:	1c59      	adds	r1, r3, #1
10003140:	4f3a      	ldr	r7, [pc, #232]	; (1000322c <DAC_Check+0x968>)
10003142:	5c79      	ldrb	r1, [r7, r1]
10003144:	2910      	cmp	r1, #16
10003146:	d1ec      	bne.n	10003122 <DAC_Check+0x85e>
10003148:	18c1      	adds	r1, r0, r3
1000314a:	5c7f      	ldrb	r7, [r7, r1]
1000314c:	a994      	add	r1, sp, #592	; 0x250
1000314e:	54cf      	strb	r7, [r1, r3]
10003150:	3001      	adds	r0, #1
10003152:	b2c0      	uxtb	r0, r0
10003154:	3301      	adds	r3, #1
10003156:	b29b      	uxth	r3, r3
10003158:	e7e8      	b.n	1000312c <DAC_Check+0x868>
1000315a:	0023      	movs	r3, r4
1000315c:	2b03      	cmp	r3, #3
1000315e:	d812      	bhi.n	10003186 <DAC_Check+0x8c2>
10003160:	1cda      	adds	r2, r3, #3
10003162:	a902      	add	r1, sp, #8
10003164:	2092      	movs	r0, #146	; 0x92
10003166:	0080      	lsls	r0, r0, #2
10003168:	1809      	adds	r1, r1, r0
1000316a:	5c89      	ldrb	r1, [r1, r2]
1000316c:	aaff      	add	r2, sp, #1020	; 0x3fc
1000316e:	3290      	adds	r2, #144	; 0x90
10003170:	54d1      	strb	r1, [r2, r3]
10003172:	1dda      	adds	r2, r3, #7
10003174:	a902      	add	r1, sp, #8
10003176:	1809      	adds	r1, r1, r0
10003178:	5c89      	ldrb	r1, [r1, r2]
1000317a:	aaff      	add	r2, sp, #1020	; 0x3fc
1000317c:	328c      	adds	r2, #140	; 0x8c
1000317e:	54d1      	strb	r1, [r2, r3]
10003180:	3301      	adds	r3, #1
10003182:	b29b      	uxth	r3, r3
10003184:	e7ea      	b.n	1000315c <DAC_Check+0x898>
10003186:	4b21      	ldr	r3, [pc, #132]	; (1000320c <DAC_Check+0x948>)
10003188:	2264      	movs	r2, #100	; 0x64
1000318a:	801a      	strh	r2, [r3, #0]
1000318c:	4b1d      	ldr	r3, [pc, #116]	; (10003204 <DAC_Check+0x940>)
1000318e:	2200      	movs	r2, #0
10003190:	801a      	strh	r2, [r3, #0]
10003192:	4b1d      	ldr	r3, [pc, #116]	; (10003208 <DAC_Check+0x944>)
10003194:	801a      	strh	r2, [r3, #0]
10003196:	4926      	ldr	r1, [pc, #152]	; (10003230 <DAC_Check+0x96c>)
10003198:	2a08      	cmp	r2, #8
1000319a:	d809      	bhi.n	100031b0 <DAC_Check+0x8ec>
1000319c:	4b18      	ldr	r3, [pc, #96]	; (10003200 <DAC_Check+0x93c>)
1000319e:	699b      	ldr	r3, [r3, #24]
100031a0:	069b      	lsls	r3, r3, #26
100031a2:	d4fb      	bmi.n	1000319c <DAC_Check+0x8d8>
100031a4:	7808      	ldrb	r0, [r1, #0]
100031a6:	4b16      	ldr	r3, [pc, #88]	; (10003200 <DAC_Check+0x93c>)
100031a8:	6018      	str	r0, [r3, #0]
100031aa:	3201      	adds	r2, #1
100031ac:	3101      	adds	r1, #1
100031ae:	e7f3      	b.n	10003198 <DAC_Check+0x8d4>
100031b0:	4b14      	ldr	r3, [pc, #80]	; (10003204 <DAC_Check+0x940>)
100031b2:	881a      	ldrh	r2, [r3, #0]
100031b4:	3201      	adds	r2, #1
100031b6:	4b14      	ldr	r3, [pc, #80]	; (10003208 <DAC_Check+0x944>)
100031b8:	881b      	ldrh	r3, [r3, #0]
100031ba:	b29b      	uxth	r3, r3
100031bc:	429a      	cmp	r2, r3
100031be:	db04      	blt.n	100031ca <DAC_Check+0x906>
100031c0:	4b12      	ldr	r3, [pc, #72]	; (1000320c <DAC_Check+0x948>)
100031c2:	881b      	ldrh	r3, [r3, #0]
100031c4:	b29b      	uxth	r3, r3
100031c6:	2b00      	cmp	r3, #0
100031c8:	d1f2      	bne.n	100031b0 <DAC_Check+0x8ec>
100031ca:	f7ff f915 	bl	100023f8 <UART_CheckResponse>
100031ce:	2801      	cmp	r0, #1
100031d0:	d009      	beq.n	100031e6 <DAC_Check+0x922>
100031d2:	4b0e      	ldr	r3, [pc, #56]	; (1000320c <DAC_Check+0x948>)
100031d4:	2264      	movs	r2, #100	; 0x64
100031d6:	801a      	strh	r2, [r3, #0]
100031d8:	4b0a      	ldr	r3, [pc, #40]	; (10003204 <DAC_Check+0x940>)
100031da:	2200      	movs	r2, #0
100031dc:	801a      	strh	r2, [r3, #0]
100031de:	4b0a      	ldr	r3, [pc, #40]	; (10003208 <DAC_Check+0x944>)
100031e0:	801a      	strh	r2, [r3, #0]
100031e2:	4913      	ldr	r1, [pc, #76]	; (10003230 <DAC_Check+0x96c>)
100031e4:	e078      	b.n	100032d8 <DAC_Check+0xa14>
100031e6:	4b09      	ldr	r3, [pc, #36]	; (1000320c <DAC_Check+0x948>)
100031e8:	881b      	ldrh	r3, [r3, #0]
100031ea:	b29b      	uxth	r3, r3
100031ec:	2b00      	cmp	r3, #0
100031ee:	d0f0      	beq.n	100031d2 <DAC_Check+0x90e>
100031f0:	4b04      	ldr	r3, [pc, #16]	; (10003204 <DAC_Check+0x940>)
100031f2:	2200      	movs	r2, #0
100031f4:	801a      	strh	r2, [r3, #0]
100031f6:	4b04      	ldr	r3, [pc, #16]	; (10003208 <DAC_Check+0x944>)
100031f8:	801a      	strh	r2, [r3, #0]
100031fa:	490e      	ldr	r1, [pc, #56]	; (10003234 <DAC_Check+0x970>)
100031fc:	e025      	b.n	1000324a <DAC_Check+0x986>
100031fe:	46c0      	nop			; (mov r8, r8)
10003200:	40034000 	.word	0x40034000
10003204:	20001f4a 	.word	0x20001f4a
10003208:	20001f4c 	.word	0x20001f4c
1000320c:	20001f44 	.word	0x20001f44
10003210:	20001250 	.word	0x20001250
10003214:	22d0e560 	.word	0x22d0e560
10003218:	402379db 	.word	0x402379db
1000321c:	53f7ced9 	.word	0x53f7ced9
10003220:	4022a5e3 	.word	0x4022a5e3
10003224:	1000ae58 	.word	0x1000ae58
10003228:	1000ae48 	.word	0x1000ae48
1000322c:	20000ed0 	.word	0x20000ed0
10003230:	1000ae30 	.word	0x1000ae30
10003234:	1000ae1c 	.word	0x1000ae1c
10003238:	4bc6      	ldr	r3, [pc, #792]	; (10003554 <DAC_Check+0xc90>)
1000323a:	699b      	ldr	r3, [r3, #24]
1000323c:	069b      	lsls	r3, r3, #26
1000323e:	d4fb      	bmi.n	10003238 <DAC_Check+0x974>
10003240:	7808      	ldrb	r0, [r1, #0]
10003242:	4bc4      	ldr	r3, [pc, #784]	; (10003554 <DAC_Check+0xc90>)
10003244:	6018      	str	r0, [r3, #0]
10003246:	3201      	adds	r2, #1
10003248:	3101      	adds	r1, #1
1000324a:	2a07      	cmp	r2, #7
1000324c:	d9f4      	bls.n	10003238 <DAC_Check+0x974>
1000324e:	4bc2      	ldr	r3, [pc, #776]	; (10003558 <DAC_Check+0xc94>)
10003250:	881a      	ldrh	r2, [r3, #0]
10003252:	3201      	adds	r2, #1
10003254:	4bc1      	ldr	r3, [pc, #772]	; (1000355c <DAC_Check+0xc98>)
10003256:	881b      	ldrh	r3, [r3, #0]
10003258:	b29b      	uxth	r3, r3
1000325a:	429a      	cmp	r2, r3
1000325c:	db04      	blt.n	10003268 <DAC_Check+0x9a4>
1000325e:	4bc0      	ldr	r3, [pc, #768]	; (10003560 <DAC_Check+0xc9c>)
10003260:	881b      	ldrh	r3, [r3, #0]
10003262:	b29b      	uxth	r3, r3
10003264:	2b00      	cmp	r3, #0
10003266:	d1f2      	bne.n	1000324e <DAC_Check+0x98a>
10003268:	f7ff f8c6 	bl	100023f8 <UART_CheckResponse>
1000326c:	2801      	cmp	r0, #1
1000326e:	d00b      	beq.n	10003288 <DAC_Check+0x9c4>
10003270:	ab03      	add	r3, sp, #12
10003272:	8898      	ldrh	r0, [r3, #4]
10003274:	88da      	ldrh	r2, [r3, #6]
10003276:	1880      	adds	r0, r0, r2
10003278:	891b      	ldrh	r3, [r3, #8]
1000327a:	18c0      	adds	r0, r0, r3
1000327c:	2103      	movs	r1, #3
1000327e:	f003 fd0f 	bl	10006ca0 <__wrap___aeabi_idiv>
10003282:	4bb8      	ldr	r3, [pc, #736]	; (10003564 <DAC_Check+0xca0>)
10003284:	8158      	strh	r0, [r3, #10]
10003286:	e7a4      	b.n	100031d2 <DAC_Check+0x90e>
10003288:	4bb5      	ldr	r3, [pc, #724]	; (10003560 <DAC_Check+0xc9c>)
1000328a:	881b      	ldrh	r3, [r3, #0]
1000328c:	b29b      	uxth	r3, r3
1000328e:	2b00      	cmp	r3, #0
10003290:	d0ee      	beq.n	10003270 <DAC_Check+0x9ac>
10003292:	2214      	movs	r2, #20
10003294:	2100      	movs	r1, #0
10003296:	a803      	add	r0, sp, #12
10003298:	f004 fc7c 	bl	10007b94 <__wrap_memset>
1000329c:	2600      	movs	r6, #0
1000329e:	e006      	b.n	100032ae <DAC_Check+0x9ea>
100032a0:	200a      	movs	r0, #10
100032a2:	f001 fce3 	bl	10004c6c <sleep_ms>
100032a6:	3601      	adds	r6, #1
100032a8:	b2f6      	uxtb	r6, r6
100032aa:	2e04      	cmp	r6, #4
100032ac:	d8e0      	bhi.n	10003270 <DAC_Check+0x9ac>
100032ae:	2001      	movs	r0, #1
100032b0:	f7fd f9f2 	bl	10000698 <ADC_Read>
100032b4:	0073      	lsls	r3, r6, #1
100032b6:	aa03      	add	r2, sp, #12
100032b8:	5298      	strh	r0, [r3, r2]
100032ba:	b200      	sxth	r0, r0
100032bc:	2800      	cmp	r0, #0
100032be:	daef      	bge.n	100032a0 <DAC_Check+0x9dc>
100032c0:	2100      	movs	r1, #0
100032c2:	5299      	strh	r1, [r3, r2]
100032c4:	e7ec      	b.n	100032a0 <DAC_Check+0x9dc>
100032c6:	4ba3      	ldr	r3, [pc, #652]	; (10003554 <DAC_Check+0xc90>)
100032c8:	699b      	ldr	r3, [r3, #24]
100032ca:	069b      	lsls	r3, r3, #26
100032cc:	d4fb      	bmi.n	100032c6 <DAC_Check+0xa02>
100032ce:	7808      	ldrb	r0, [r1, #0]
100032d0:	4ba0      	ldr	r3, [pc, #640]	; (10003554 <DAC_Check+0xc90>)
100032d2:	6018      	str	r0, [r3, #0]
100032d4:	3201      	adds	r2, #1
100032d6:	3101      	adds	r1, #1
100032d8:	2a08      	cmp	r2, #8
100032da:	d9f4      	bls.n	100032c6 <DAC_Check+0xa02>
100032dc:	4b9e      	ldr	r3, [pc, #632]	; (10003558 <DAC_Check+0xc94>)
100032de:	881a      	ldrh	r2, [r3, #0]
100032e0:	3201      	adds	r2, #1
100032e2:	4b9e      	ldr	r3, [pc, #632]	; (1000355c <DAC_Check+0xc98>)
100032e4:	881b      	ldrh	r3, [r3, #0]
100032e6:	b29b      	uxth	r3, r3
100032e8:	429a      	cmp	r2, r3
100032ea:	db04      	blt.n	100032f6 <DAC_Check+0xa32>
100032ec:	4b9c      	ldr	r3, [pc, #624]	; (10003560 <DAC_Check+0xc9c>)
100032ee:	881b      	ldrh	r3, [r3, #0]
100032f0:	b29b      	uxth	r3, r3
100032f2:	2b00      	cmp	r3, #0
100032f4:	d1f2      	bne.n	100032dc <DAC_Check+0xa18>
100032f6:	f7ff f87f 	bl	100023f8 <UART_CheckResponse>
100032fa:	2801      	cmp	r0, #1
100032fc:	d043      	beq.n	10003386 <DAC_Check+0xac2>
100032fe:	4b99      	ldr	r3, [pc, #612]	; (10003564 <DAC_Check+0xca0>)
10003300:	4698      	mov	r8, r3
10003302:	8958      	ldrh	r0, [r3, #10]
10003304:	f003 ffd0 	bl	100072a8 <__wrap___aeabi_i2d>
10003308:	4a97      	ldr	r2, [pc, #604]	; (10003568 <DAC_Check+0xca4>)
1000330a:	4b98      	ldr	r3, [pc, #608]	; (1000356c <DAC_Check+0xca8>)
1000330c:	f003 ff3d 	bl	1000718a <__wrap___aeabi_ddiv>
10003310:	f004 f806 	bl	10007320 <__wrap___aeabi_d2uiz>
10003314:	b287      	uxth	r7, r0
10003316:	4643      	mov	r3, r8
10003318:	819f      	strh	r7, [r3, #12]
1000331a:	89d8      	ldrh	r0, [r3, #14]
1000331c:	f003 ffc4 	bl	100072a8 <__wrap___aeabi_i2d>
10003320:	4a93      	ldr	r2, [pc, #588]	; (10003570 <DAC_Check+0xcac>)
10003322:	4b94      	ldr	r3, [pc, #592]	; (10003574 <DAC_Check+0xcb0>)
10003324:	f003 ff31 	bl	1000718a <__wrap___aeabi_ddiv>
10003328:	f003 fffa 	bl	10007320 <__wrap___aeabi_d2uiz>
1000332c:	b286      	uxth	r6, r0
1000332e:	4643      	mov	r3, r8
10003330:	821e      	strh	r6, [r3, #16]
10003332:	0038      	movs	r0, r7
10003334:	f004 fb5e 	bl	100079f4 <__wrap___aeabi_ui2f>
10003338:	498f      	ldr	r1, [pc, #572]	; (10003578 <DAC_Check+0xcb4>)
1000333a:	f004 fb3c 	bl	100079b6 <__wrap___aeabi_fdiv>
1000333e:	1c07      	adds	r7, r0, #0
10003340:	0030      	movs	r0, r6
10003342:	f004 fb57 	bl	100079f4 <__wrap___aeabi_ui2f>
10003346:	498c      	ldr	r1, [pc, #560]	; (10003578 <DAC_Check+0xcb4>)
10003348:	f004 fb35 	bl	100079b6 <__wrap___aeabi_fdiv>
1000334c:	0002      	movs	r2, r0
1000334e:	0e01      	lsrs	r1, r0, #24
10003350:	ab94      	add	r3, sp, #592	; 0x250
10003352:	7299      	strb	r1, [r3, #10]
10003354:	0c01      	lsrs	r1, r0, #16
10003356:	7259      	strb	r1, [r3, #9]
10003358:	0a00      	lsrs	r0, r0, #8
1000335a:	7218      	strb	r0, [r3, #8]
1000335c:	71da      	strb	r2, [r3, #7]
1000335e:	003a      	movs	r2, r7
10003360:	0e39      	lsrs	r1, r7, #24
10003362:	7199      	strb	r1, [r3, #6]
10003364:	0c39      	lsrs	r1, r7, #16
10003366:	7159      	strb	r1, [r3, #5]
10003368:	0a3f      	lsrs	r7, r7, #8
1000336a:	711f      	strb	r7, [r3, #4]
1000336c:	70da      	strb	r2, [r3, #3]
1000336e:	789a      	ldrb	r2, [r3, #2]
10003370:	4690      	mov	r8, r2
10003372:	0016      	movs	r6, r2
10003374:	2203      	movs	r2, #3
10003376:	0019      	movs	r1, r3
10003378:	a808      	add	r0, sp, #32
1000337a:	f004 fc11 	bl	10007ba0 <__wrap___aeabi_memcpy>
1000337e:	0023      	movs	r3, r4
10003380:	2100      	movs	r1, #0
10003382:	46a4      	mov	ip, r4
10003384:	e061      	b.n	1000344a <DAC_Check+0xb86>
10003386:	4b76      	ldr	r3, [pc, #472]	; (10003560 <DAC_Check+0xc9c>)
10003388:	881b      	ldrh	r3, [r3, #0]
1000338a:	b29b      	uxth	r3, r3
1000338c:	2b00      	cmp	r3, #0
1000338e:	d0b6      	beq.n	100032fe <DAC_Check+0xa3a>
10003390:	4b71      	ldr	r3, [pc, #452]	; (10003558 <DAC_Check+0xc94>)
10003392:	2200      	movs	r2, #0
10003394:	801a      	strh	r2, [r3, #0]
10003396:	4b71      	ldr	r3, [pc, #452]	; (1000355c <DAC_Check+0xc98>)
10003398:	801a      	strh	r2, [r3, #0]
1000339a:	4978      	ldr	r1, [pc, #480]	; (1000357c <DAC_Check+0xcb8>)
1000339c:	e008      	b.n	100033b0 <DAC_Check+0xaec>
1000339e:	4b6d      	ldr	r3, [pc, #436]	; (10003554 <DAC_Check+0xc90>)
100033a0:	699b      	ldr	r3, [r3, #24]
100033a2:	069b      	lsls	r3, r3, #26
100033a4:	d4fb      	bmi.n	1000339e <DAC_Check+0xada>
100033a6:	7808      	ldrb	r0, [r1, #0]
100033a8:	4b6a      	ldr	r3, [pc, #424]	; (10003554 <DAC_Check+0xc90>)
100033aa:	6018      	str	r0, [r3, #0]
100033ac:	3201      	adds	r2, #1
100033ae:	3101      	adds	r1, #1
100033b0:	2a07      	cmp	r2, #7
100033b2:	d9f4      	bls.n	1000339e <DAC_Check+0xada>
100033b4:	4b68      	ldr	r3, [pc, #416]	; (10003558 <DAC_Check+0xc94>)
100033b6:	881a      	ldrh	r2, [r3, #0]
100033b8:	3201      	adds	r2, #1
100033ba:	4b68      	ldr	r3, [pc, #416]	; (1000355c <DAC_Check+0xc98>)
100033bc:	881b      	ldrh	r3, [r3, #0]
100033be:	b29b      	uxth	r3, r3
100033c0:	429a      	cmp	r2, r3
100033c2:	db04      	blt.n	100033ce <DAC_Check+0xb0a>
100033c4:	4b66      	ldr	r3, [pc, #408]	; (10003560 <DAC_Check+0xc9c>)
100033c6:	881b      	ldrh	r3, [r3, #0]
100033c8:	b29b      	uxth	r3, r3
100033ca:	2b00      	cmp	r3, #0
100033cc:	d1f2      	bne.n	100033b4 <DAC_Check+0xaf0>
100033ce:	f7ff f813 	bl	100023f8 <UART_CheckResponse>
100033d2:	2801      	cmp	r0, #1
100033d4:	d00b      	beq.n	100033ee <DAC_Check+0xb2a>
100033d6:	ab03      	add	r3, sp, #12
100033d8:	8898      	ldrh	r0, [r3, #4]
100033da:	88da      	ldrh	r2, [r3, #6]
100033dc:	1880      	adds	r0, r0, r2
100033de:	891b      	ldrh	r3, [r3, #8]
100033e0:	18c0      	adds	r0, r0, r3
100033e2:	2103      	movs	r1, #3
100033e4:	f003 fc5c 	bl	10006ca0 <__wrap___aeabi_idiv>
100033e8:	4b5e      	ldr	r3, [pc, #376]	; (10003564 <DAC_Check+0xca0>)
100033ea:	81d8      	strh	r0, [r3, #14]
100033ec:	e787      	b.n	100032fe <DAC_Check+0xa3a>
100033ee:	4b5c      	ldr	r3, [pc, #368]	; (10003560 <DAC_Check+0xc9c>)
100033f0:	881b      	ldrh	r3, [r3, #0]
100033f2:	b29b      	uxth	r3, r3
100033f4:	2b00      	cmp	r3, #0
100033f6:	d0ee      	beq.n	100033d6 <DAC_Check+0xb12>
100033f8:	2214      	movs	r2, #20
100033fa:	2100      	movs	r1, #0
100033fc:	a803      	add	r0, sp, #12
100033fe:	f004 fbc9 	bl	10007b94 <__wrap_memset>
10003402:	2600      	movs	r6, #0
10003404:	e006      	b.n	10003414 <DAC_Check+0xb50>
10003406:	200a      	movs	r0, #10
10003408:	f001 fc30 	bl	10004c6c <sleep_ms>
1000340c:	3601      	adds	r6, #1
1000340e:	b2f6      	uxtb	r6, r6
10003410:	2e04      	cmp	r6, #4
10003412:	d8e0      	bhi.n	100033d6 <DAC_Check+0xb12>
10003414:	2001      	movs	r0, #1
10003416:	f7fd f93f 	bl	10000698 <ADC_Read>
1000341a:	0073      	lsls	r3, r6, #1
1000341c:	aa03      	add	r2, sp, #12
1000341e:	5298      	strh	r0, [r3, r2]
10003420:	b200      	sxth	r0, r0
10003422:	2800      	cmp	r0, #0
10003424:	daef      	bge.n	10003406 <DAC_Check+0xb42>
10003426:	2100      	movs	r1, #0
10003428:	5299      	strh	r1, [r3, r2]
1000342a:	e7ec      	b.n	10003406 <DAC_Check+0xb42>
1000342c:	2710      	movs	r7, #16
1000342e:	ac02      	add	r4, sp, #8
10003430:	3208      	adds	r2, #8
10003432:	18a4      	adds	r4, r4, r2
10003434:	5427      	strb	r7, [r4, r0]
10003436:	3101      	adds	r1, #1
10003438:	b2c9      	uxtb	r1, r1
1000343a:	18ca      	adds	r2, r1, r3
1000343c:	3203      	adds	r2, #3
1000343e:	ac02      	add	r4, sp, #8
10003440:	2018      	movs	r0, #24
10003442:	1820      	adds	r0, r4, r0
10003444:	5487      	strb	r7, [r0, r2]
10003446:	3301      	adds	r3, #1
10003448:	b29b      	uxth	r3, r3
1000344a:	42b3      	cmp	r3, r6
1000344c:	d20b      	bcs.n	10003466 <DAC_Check+0xba2>
1000344e:	18c8      	adds	r0, r1, r3
10003450:	3003      	adds	r0, #3
10003452:	aa94      	add	r2, sp, #592	; 0x250
10003454:	5c12      	ldrb	r2, [r2, r0]
10003456:	2a10      	cmp	r2, #16
10003458:	d0e8      	beq.n	1000342c <DAC_Check+0xb68>
1000345a:	1cda      	adds	r2, r3, #3
1000345c:	af94      	add	r7, sp, #592	; 0x250
1000345e:	5cbf      	ldrb	r7, [r7, r2]
10003460:	aa08      	add	r2, sp, #32
10003462:	5417      	strb	r7, [r2, r0]
10003464:	e7ef      	b.n	10003446 <DAC_Check+0xb82>
10003466:	4664      	mov	r4, ip
10003468:	4647      	mov	r7, r8
1000346a:	3703      	adds	r7, #3
1000346c:	19cf      	adds	r7, r1, r7
1000346e:	2310      	movs	r3, #16
10003470:	a802      	add	r0, sp, #8
10003472:	2218      	movs	r2, #24
10003474:	1880      	adds	r0, r0, r2
10003476:	55c3      	strb	r3, [r0, r7]
10003478:	3701      	adds	r7, #1
1000347a:	330f      	adds	r3, #15
1000347c:	a802      	add	r0, sp, #8
1000347e:	1882      	adds	r2, r0, r2
10003480:	55d3      	strb	r3, [r2, r7]
10003482:	1876      	adds	r6, r6, r1
10003484:	3605      	adds	r6, #5
10003486:	b2b6      	uxth	r6, r6
10003488:	4663      	mov	r3, ip
1000348a:	e005      	b.n	10003498 <DAC_Check+0xbd4>
1000348c:	aa08      	add	r2, sp, #32
1000348e:	5cd2      	ldrb	r2, [r2, r3]
10003490:	1914      	adds	r4, r2, r4
10003492:	b2a4      	uxth	r4, r4
10003494:	3301      	adds	r3, #1
10003496:	b29b      	uxth	r3, r3
10003498:	42b3      	cmp	r3, r6
1000349a:	d3f7      	bcc.n	1000348c <DAC_Check+0xbc8>
1000349c:	0a23      	lsrs	r3, r4, #8
1000349e:	a902      	add	r1, sp, #8
100034a0:	2218      	movs	r2, #24
100034a2:	1889      	adds	r1, r1, r2
100034a4:	558b      	strb	r3, [r1, r6]
100034a6:	1c73      	adds	r3, r6, #1
100034a8:	a902      	add	r1, sp, #8
100034aa:	188a      	adds	r2, r1, r2
100034ac:	54d4      	strb	r4, [r2, r3]
100034ae:	4b2c      	ldr	r3, [pc, #176]	; (10003560 <DAC_Check+0xc9c>)
100034b0:	2264      	movs	r2, #100	; 0x64
100034b2:	801a      	strh	r2, [r3, #0]
100034b4:	4b28      	ldr	r3, [pc, #160]	; (10003558 <DAC_Check+0xc94>)
100034b6:	2200      	movs	r2, #0
100034b8:	801a      	strh	r2, [r3, #0]
100034ba:	4b28      	ldr	r3, [pc, #160]	; (1000355c <DAC_Check+0xc98>)
100034bc:	801a      	strh	r2, [r3, #0]
100034be:	4930      	ldr	r1, [pc, #192]	; (10003580 <DAC_Check+0xcbc>)
100034c0:	e008      	b.n	100034d4 <DAC_Check+0xc10>
100034c2:	4b24      	ldr	r3, [pc, #144]	; (10003554 <DAC_Check+0xc90>)
100034c4:	699b      	ldr	r3, [r3, #24]
100034c6:	069b      	lsls	r3, r3, #26
100034c8:	d4fb      	bmi.n	100034c2 <DAC_Check+0xbfe>
100034ca:	7808      	ldrb	r0, [r1, #0]
100034cc:	4b21      	ldr	r3, [pc, #132]	; (10003554 <DAC_Check+0xc90>)
100034ce:	6018      	str	r0, [r3, #0]
100034d0:	3201      	adds	r2, #1
100034d2:	3101      	adds	r1, #1
100034d4:	2a08      	cmp	r2, #8
100034d6:	d9f4      	bls.n	100034c2 <DAC_Check+0xbfe>
100034d8:	4b1f      	ldr	r3, [pc, #124]	; (10003558 <DAC_Check+0xc94>)
100034da:	881a      	ldrh	r2, [r3, #0]
100034dc:	3201      	adds	r2, #1
100034de:	4b1f      	ldr	r3, [pc, #124]	; (1000355c <DAC_Check+0xc98>)
100034e0:	881b      	ldrh	r3, [r3, #0]
100034e2:	b29b      	uxth	r3, r3
100034e4:	429a      	cmp	r2, r3
100034e6:	db04      	blt.n	100034f2 <DAC_Check+0xc2e>
100034e8:	4b1d      	ldr	r3, [pc, #116]	; (10003560 <DAC_Check+0xc9c>)
100034ea:	881b      	ldrh	r3, [r3, #0]
100034ec:	b29b      	uxth	r3, r3
100034ee:	2b00      	cmp	r3, #0
100034f0:	d1f2      	bne.n	100034d8 <DAC_Check+0xc14>
100034f2:	f7fe ff81 	bl	100023f8 <UART_CheckResponse>
100034f6:	2801      	cmp	r0, #1
100034f8:	d01e      	beq.n	10003538 <DAC_Check+0xc74>
100034fa:	3501      	adds	r5, #1
100034fc:	b2ed      	uxtb	r5, r5
100034fe:	2d04      	cmp	r5, #4
10003500:	d900      	bls.n	10003504 <DAC_Check+0xc40>
10003502:	e160      	b.n	100037c6 <DAC_Check+0xf02>
10003504:	4a14      	ldr	r2, [pc, #80]	; (10003558 <DAC_Check+0xc94>)
10003506:	2300      	movs	r3, #0
10003508:	8013      	strh	r3, [r2, #0]
1000350a:	4a14      	ldr	r2, [pc, #80]	; (1000355c <DAC_Check+0xc98>)
1000350c:	8013      	strh	r3, [r2, #0]
1000350e:	4a15      	ldr	r2, [pc, #84]	; (10003564 <DAC_Check+0xca0>)
10003510:	8153      	strh	r3, [r2, #10]
10003512:	81d3      	strh	r3, [r2, #14]
10003514:	80d3      	strh	r3, [r2, #6]
10003516:	8053      	strh	r3, [r2, #2]
10003518:	8193      	strh	r3, [r2, #12]
1000351a:	8213      	strh	r3, [r2, #16]
1000351c:	8113      	strh	r3, [r2, #8]
1000351e:	8093      	strh	r3, [r2, #4]
10003520:	f7fd f96e 	bl	10000800 <Watchdog>
10003524:	4650      	mov	r0, sl
10003526:	f7fe ffb5 	bl	10002494 <MUX_Set>
1000352a:	200a      	movs	r0, #10
1000352c:	f001 fb9e 	bl	10004c6c <sleep_ms>
10003530:	2200      	movs	r2, #0
10003532:	4914      	ldr	r1, [pc, #80]	; (10003584 <DAC_Check+0xcc0>)
10003534:	f7ff fc35 	bl	10002da2 <DAC_Check+0x4de>
10003538:	4b09      	ldr	r3, [pc, #36]	; (10003560 <DAC_Check+0xc9c>)
1000353a:	881b      	ldrh	r3, [r3, #0]
1000353c:	b29b      	uxth	r3, r3
1000353e:	2b00      	cmp	r3, #0
10003540:	d0db      	beq.n	100034fa <DAC_Check+0xc36>
10003542:	4b05      	ldr	r3, [pc, #20]	; (10003558 <DAC_Check+0xc94>)
10003544:	2200      	movs	r2, #0
10003546:	801a      	strh	r2, [r3, #0]
10003548:	4b04      	ldr	r3, [pc, #16]	; (1000355c <DAC_Check+0xc98>)
1000354a:	801a      	strh	r2, [r3, #0]
1000354c:	3602      	adds	r6, #2
1000354e:	a908      	add	r1, sp, #32
10003550:	e023      	b.n	1000359a <DAC_Check+0xcd6>
10003552:	46c0      	nop			; (mov r8, r8)
10003554:	40034000 	.word	0x40034000
10003558:	20001f4a 	.word	0x20001f4a
1000355c:	20001f4c 	.word	0x20001f4c
10003560:	20001f44 	.word	0x20001f44
10003564:	20001250 	.word	0x20001250
10003568:	0c49ba5e 	.word	0x0c49ba5e
1000356c:	40242b02 	.word	0x40242b02
10003570:	f1a9fbe7 	.word	0xf1a9fbe7
10003574:	40228dd2 	.word	0x40228dd2
10003578:	447a0000 	.word	0x447a0000
1000357c:	1000ae24 	.word	0x1000ae24
10003580:	1000ae3c 	.word	0x1000ae3c
10003584:	1000ae50 	.word	0x1000ae50
10003588:	4baa      	ldr	r3, [pc, #680]	; (10003834 <DAC_Check+0xf70>)
1000358a:	699b      	ldr	r3, [r3, #24]
1000358c:	069b      	lsls	r3, r3, #26
1000358e:	d4fb      	bmi.n	10003588 <DAC_Check+0xcc4>
10003590:	7808      	ldrb	r0, [r1, #0]
10003592:	4ba8      	ldr	r3, [pc, #672]	; (10003834 <DAC_Check+0xf70>)
10003594:	6018      	str	r0, [r3, #0]
10003596:	3201      	adds	r2, #1
10003598:	3101      	adds	r1, #1
1000359a:	4296      	cmp	r6, r2
1000359c:	d8f4      	bhi.n	10003588 <DAC_Check+0xcc4>
1000359e:	4ba6      	ldr	r3, [pc, #664]	; (10003838 <DAC_Check+0xf74>)
100035a0:	881a      	ldrh	r2, [r3, #0]
100035a2:	3201      	adds	r2, #1
100035a4:	4ba5      	ldr	r3, [pc, #660]	; (1000383c <DAC_Check+0xf78>)
100035a6:	881b      	ldrh	r3, [r3, #0]
100035a8:	b29b      	uxth	r3, r3
100035aa:	429a      	cmp	r2, r3
100035ac:	db04      	blt.n	100035b8 <DAC_Check+0xcf4>
100035ae:	4ba4      	ldr	r3, [pc, #656]	; (10003840 <DAC_Check+0xf7c>)
100035b0:	881b      	ldrh	r3, [r3, #0]
100035b2:	b29b      	uxth	r3, r3
100035b4:	2b00      	cmp	r3, #0
100035b6:	d1f2      	bne.n	1000359e <DAC_Check+0xcda>
100035b8:	f7fe ff1e 	bl	100023f8 <UART_CheckResponse>
100035bc:	2801      	cmp	r0, #1
100035be:	d19c      	bne.n	100034fa <DAC_Check+0xc36>
100035c0:	4b9f      	ldr	r3, [pc, #636]	; (10003840 <DAC_Check+0xf7c>)
100035c2:	881b      	ldrh	r3, [r3, #0]
100035c4:	b29b      	uxth	r3, r3
100035c6:	2b00      	cmp	r3, #0
100035c8:	d097      	beq.n	100034fa <DAC_Check+0xc36>
100035ca:	4b9d      	ldr	r3, [pc, #628]	; (10003840 <DAC_Check+0xf7c>)
100035cc:	2264      	movs	r2, #100	; 0x64
100035ce:	801a      	strh	r2, [r3, #0]
100035d0:	4b99      	ldr	r3, [pc, #612]	; (10003838 <DAC_Check+0xf74>)
100035d2:	2200      	movs	r2, #0
100035d4:	801a      	strh	r2, [r3, #0]
100035d6:	4b99      	ldr	r3, [pc, #612]	; (1000383c <DAC_Check+0xf78>)
100035d8:	801a      	strh	r2, [r3, #0]
100035da:	2100      	movs	r1, #0
100035dc:	4a99      	ldr	r2, [pc, #612]	; (10003844 <DAC_Check+0xf80>)
100035de:	e008      	b.n	100035f2 <DAC_Check+0xd2e>
100035e0:	4b94      	ldr	r3, [pc, #592]	; (10003834 <DAC_Check+0xf70>)
100035e2:	699b      	ldr	r3, [r3, #24]
100035e4:	069b      	lsls	r3, r3, #26
100035e6:	d4fb      	bmi.n	100035e0 <DAC_Check+0xd1c>
100035e8:	7810      	ldrb	r0, [r2, #0]
100035ea:	4b92      	ldr	r3, [pc, #584]	; (10003834 <DAC_Check+0xf70>)
100035ec:	6018      	str	r0, [r3, #0]
100035ee:	3101      	adds	r1, #1
100035f0:	3201      	adds	r2, #1
100035f2:	2908      	cmp	r1, #8
100035f4:	d9f4      	bls.n	100035e0 <DAC_Check+0xd1c>
100035f6:	4b90      	ldr	r3, [pc, #576]	; (10003838 <DAC_Check+0xf74>)
100035f8:	881a      	ldrh	r2, [r3, #0]
100035fa:	3201      	adds	r2, #1
100035fc:	4b8f      	ldr	r3, [pc, #572]	; (1000383c <DAC_Check+0xf78>)
100035fe:	881b      	ldrh	r3, [r3, #0]
10003600:	b29b      	uxth	r3, r3
10003602:	429a      	cmp	r2, r3
10003604:	db04      	blt.n	10003610 <DAC_Check+0xd4c>
10003606:	4b8e      	ldr	r3, [pc, #568]	; (10003840 <DAC_Check+0xf7c>)
10003608:	881b      	ldrh	r3, [r3, #0]
1000360a:	b29b      	uxth	r3, r3
1000360c:	2b00      	cmp	r3, #0
1000360e:	d1f2      	bne.n	100035f6 <DAC_Check+0xd32>
10003610:	f7fe fef2 	bl	100023f8 <UART_CheckResponse>
10003614:	2801      	cmp	r0, #1
10003616:	d000      	beq.n	1000361a <DAC_Check+0xd56>
10003618:	e76f      	b.n	100034fa <DAC_Check+0xc36>
1000361a:	4b89      	ldr	r3, [pc, #548]	; (10003840 <DAC_Check+0xf7c>)
1000361c:	881b      	ldrh	r3, [r3, #0]
1000361e:	b29b      	uxth	r3, r3
10003620:	2b00      	cmp	r3, #0
10003622:	d100      	bne.n	10003626 <DAC_Check+0xd62>
10003624:	e769      	b.n	100034fa <DAC_Check+0xc36>
10003626:	4b84      	ldr	r3, [pc, #528]	; (10003838 <DAC_Check+0xf74>)
10003628:	2200      	movs	r2, #0
1000362a:	801a      	strh	r2, [r3, #0]
1000362c:	4b83      	ldr	r3, [pc, #524]	; (1000383c <DAC_Check+0xf78>)
1000362e:	801a      	strh	r2, [r3, #0]
10003630:	4b85      	ldr	r3, [pc, #532]	; (10003848 <DAC_Check+0xf84>)
10003632:	e008      	b.n	10003646 <DAC_Check+0xd82>
10003634:	497f      	ldr	r1, [pc, #508]	; (10003834 <DAC_Check+0xf70>)
10003636:	6989      	ldr	r1, [r1, #24]
10003638:	0689      	lsls	r1, r1, #26
1000363a:	d4fb      	bmi.n	10003634 <DAC_Check+0xd70>
1000363c:	7818      	ldrb	r0, [r3, #0]
1000363e:	497d      	ldr	r1, [pc, #500]	; (10003834 <DAC_Check+0xf70>)
10003640:	6008      	str	r0, [r1, #0]
10003642:	3201      	adds	r2, #1
10003644:	3301      	adds	r3, #1
10003646:	2a07      	cmp	r2, #7
10003648:	d9f4      	bls.n	10003634 <DAC_Check+0xd70>
1000364a:	4b7b      	ldr	r3, [pc, #492]	; (10003838 <DAC_Check+0xf74>)
1000364c:	881a      	ldrh	r2, [r3, #0]
1000364e:	3201      	adds	r2, #1
10003650:	4b7a      	ldr	r3, [pc, #488]	; (1000383c <DAC_Check+0xf78>)
10003652:	881b      	ldrh	r3, [r3, #0]
10003654:	b29b      	uxth	r3, r3
10003656:	429a      	cmp	r2, r3
10003658:	db04      	blt.n	10003664 <DAC_Check+0xda0>
1000365a:	4b79      	ldr	r3, [pc, #484]	; (10003840 <DAC_Check+0xf7c>)
1000365c:	881b      	ldrh	r3, [r3, #0]
1000365e:	b29b      	uxth	r3, r3
10003660:	2b00      	cmp	r3, #0
10003662:	d1f2      	bne.n	1000364a <DAC_Check+0xd86>
10003664:	f7fe fec8 	bl	100023f8 <UART_CheckResponse>
10003668:	2801      	cmp	r0, #1
1000366a:	d000      	beq.n	1000366e <DAC_Check+0xdaa>
1000366c:	e745      	b.n	100034fa <DAC_Check+0xc36>
1000366e:	4b74      	ldr	r3, [pc, #464]	; (10003840 <DAC_Check+0xf7c>)
10003670:	881b      	ldrh	r3, [r3, #0]
10003672:	b29b      	uxth	r3, r3
10003674:	2b00      	cmp	r3, #0
10003676:	d100      	bne.n	1000367a <DAC_Check+0xdb6>
10003678:	e73f      	b.n	100034fa <DAC_Check+0xc36>
1000367a:	4b71      	ldr	r3, [pc, #452]	; (10003840 <DAC_Check+0xf7c>)
1000367c:	2264      	movs	r2, #100	; 0x64
1000367e:	801a      	strh	r2, [r3, #0]
10003680:	4b6d      	ldr	r3, [pc, #436]	; (10003838 <DAC_Check+0xf74>)
10003682:	2200      	movs	r2, #0
10003684:	801a      	strh	r2, [r3, #0]
10003686:	4b6d      	ldr	r3, [pc, #436]	; (1000383c <DAC_Check+0xf78>)
10003688:	801a      	strh	r2, [r3, #0]
1000368a:	4b6e      	ldr	r3, [pc, #440]	; (10003844 <DAC_Check+0xf80>)
1000368c:	e008      	b.n	100036a0 <DAC_Check+0xddc>
1000368e:	4969      	ldr	r1, [pc, #420]	; (10003834 <DAC_Check+0xf70>)
10003690:	6989      	ldr	r1, [r1, #24]
10003692:	0689      	lsls	r1, r1, #26
10003694:	d4fb      	bmi.n	1000368e <DAC_Check+0xdca>
10003696:	7818      	ldrb	r0, [r3, #0]
10003698:	4966      	ldr	r1, [pc, #408]	; (10003834 <DAC_Check+0xf70>)
1000369a:	6008      	str	r0, [r1, #0]
1000369c:	3201      	adds	r2, #1
1000369e:	3301      	adds	r3, #1
100036a0:	2a08      	cmp	r2, #8
100036a2:	d9f4      	bls.n	1000368e <DAC_Check+0xdca>
100036a4:	4b64      	ldr	r3, [pc, #400]	; (10003838 <DAC_Check+0xf74>)
100036a6:	881a      	ldrh	r2, [r3, #0]
100036a8:	3201      	adds	r2, #1
100036aa:	4b64      	ldr	r3, [pc, #400]	; (1000383c <DAC_Check+0xf78>)
100036ac:	881b      	ldrh	r3, [r3, #0]
100036ae:	b29b      	uxth	r3, r3
100036b0:	429a      	cmp	r2, r3
100036b2:	db04      	blt.n	100036be <DAC_Check+0xdfa>
100036b4:	4b62      	ldr	r3, [pc, #392]	; (10003840 <DAC_Check+0xf7c>)
100036b6:	881b      	ldrh	r3, [r3, #0]
100036b8:	b29b      	uxth	r3, r3
100036ba:	2b00      	cmp	r3, #0
100036bc:	d1f2      	bne.n	100036a4 <DAC_Check+0xde0>
100036be:	f7fe fe9b 	bl	100023f8 <UART_CheckResponse>
100036c2:	2801      	cmp	r0, #1
100036c4:	d000      	beq.n	100036c8 <DAC_Check+0xe04>
100036c6:	e718      	b.n	100034fa <DAC_Check+0xc36>
100036c8:	4b5d      	ldr	r3, [pc, #372]	; (10003840 <DAC_Check+0xf7c>)
100036ca:	881b      	ldrh	r3, [r3, #0]
100036cc:	b29b      	uxth	r3, r3
100036ce:	2b00      	cmp	r3, #0
100036d0:	d100      	bne.n	100036d4 <DAC_Check+0xe10>
100036d2:	e712      	b.n	100034fa <DAC_Check+0xc36>
100036d4:	4a58      	ldr	r2, [pc, #352]	; (10003838 <DAC_Check+0xf74>)
100036d6:	2300      	movs	r3, #0
100036d8:	8013      	strh	r3, [r2, #0]
100036da:	4a58      	ldr	r2, [pc, #352]	; (1000383c <DAC_Check+0xf78>)
100036dc:	8013      	strh	r3, [r2, #0]
100036de:	4a5b      	ldr	r2, [pc, #364]	; (1000384c <DAC_Check+0xf88>)
100036e0:	e008      	b.n	100036f4 <DAC_Check+0xe30>
100036e2:	4954      	ldr	r1, [pc, #336]	; (10003834 <DAC_Check+0xf70>)
100036e4:	6989      	ldr	r1, [r1, #24]
100036e6:	0689      	lsls	r1, r1, #26
100036e8:	d4fb      	bmi.n	100036e2 <DAC_Check+0xe1e>
100036ea:	7810      	ldrb	r0, [r2, #0]
100036ec:	4951      	ldr	r1, [pc, #324]	; (10003834 <DAC_Check+0xf70>)
100036ee:	6008      	str	r0, [r1, #0]
100036f0:	3301      	adds	r3, #1
100036f2:	3201      	adds	r2, #1
100036f4:	2b07      	cmp	r3, #7
100036f6:	d9f4      	bls.n	100036e2 <DAC_Check+0xe1e>
100036f8:	4b4f      	ldr	r3, [pc, #316]	; (10003838 <DAC_Check+0xf74>)
100036fa:	881a      	ldrh	r2, [r3, #0]
100036fc:	3201      	adds	r2, #1
100036fe:	4b4f      	ldr	r3, [pc, #316]	; (1000383c <DAC_Check+0xf78>)
10003700:	881b      	ldrh	r3, [r3, #0]
10003702:	b29b      	uxth	r3, r3
10003704:	429a      	cmp	r2, r3
10003706:	db04      	blt.n	10003712 <DAC_Check+0xe4e>
10003708:	4b4d      	ldr	r3, [pc, #308]	; (10003840 <DAC_Check+0xf7c>)
1000370a:	881b      	ldrh	r3, [r3, #0]
1000370c:	b29b      	uxth	r3, r3
1000370e:	2b00      	cmp	r3, #0
10003710:	d1f2      	bne.n	100036f8 <DAC_Check+0xe34>
10003712:	f7fe fe71 	bl	100023f8 <UART_CheckResponse>
10003716:	2801      	cmp	r0, #1
10003718:	d000      	beq.n	1000371c <DAC_Check+0xe58>
1000371a:	e6ee      	b.n	100034fa <DAC_Check+0xc36>
1000371c:	4b48      	ldr	r3, [pc, #288]	; (10003840 <DAC_Check+0xf7c>)
1000371e:	881b      	ldrh	r3, [r3, #0]
10003720:	b29b      	uxth	r3, r3
10003722:	2b00      	cmp	r3, #0
10003724:	d100      	bne.n	10003728 <DAC_Check+0xe64>
10003726:	e6e8      	b.n	100034fa <DAC_Check+0xc36>
10003728:	4b45      	ldr	r3, [pc, #276]	; (10003840 <DAC_Check+0xf7c>)
1000372a:	2264      	movs	r2, #100	; 0x64
1000372c:	801a      	strh	r2, [r3, #0]
1000372e:	4a42      	ldr	r2, [pc, #264]	; (10003838 <DAC_Check+0xf74>)
10003730:	2300      	movs	r3, #0
10003732:	8013      	strh	r3, [r2, #0]
10003734:	4a41      	ldr	r2, [pc, #260]	; (1000383c <DAC_Check+0xf78>)
10003736:	8013      	strh	r3, [r2, #0]
10003738:	4a42      	ldr	r2, [pc, #264]	; (10003844 <DAC_Check+0xf80>)
1000373a:	e008      	b.n	1000374e <DAC_Check+0xe8a>
1000373c:	493d      	ldr	r1, [pc, #244]	; (10003834 <DAC_Check+0xf70>)
1000373e:	6989      	ldr	r1, [r1, #24]
10003740:	0689      	lsls	r1, r1, #26
10003742:	d4fb      	bmi.n	1000373c <DAC_Check+0xe78>
10003744:	7810      	ldrb	r0, [r2, #0]
10003746:	493b      	ldr	r1, [pc, #236]	; (10003834 <DAC_Check+0xf70>)
10003748:	6008      	str	r0, [r1, #0]
1000374a:	3301      	adds	r3, #1
1000374c:	3201      	adds	r2, #1
1000374e:	2b08      	cmp	r3, #8
10003750:	d9f4      	bls.n	1000373c <DAC_Check+0xe78>
10003752:	4b39      	ldr	r3, [pc, #228]	; (10003838 <DAC_Check+0xf74>)
10003754:	881a      	ldrh	r2, [r3, #0]
10003756:	3201      	adds	r2, #1
10003758:	4b38      	ldr	r3, [pc, #224]	; (1000383c <DAC_Check+0xf78>)
1000375a:	881b      	ldrh	r3, [r3, #0]
1000375c:	b29b      	uxth	r3, r3
1000375e:	429a      	cmp	r2, r3
10003760:	db04      	blt.n	1000376c <DAC_Check+0xea8>
10003762:	4b37      	ldr	r3, [pc, #220]	; (10003840 <DAC_Check+0xf7c>)
10003764:	881b      	ldrh	r3, [r3, #0]
10003766:	b29b      	uxth	r3, r3
10003768:	2b00      	cmp	r3, #0
1000376a:	d1f2      	bne.n	10003752 <DAC_Check+0xe8e>
1000376c:	f7fe fe44 	bl	100023f8 <UART_CheckResponse>
10003770:	2801      	cmp	r0, #1
10003772:	d000      	beq.n	10003776 <DAC_Check+0xeb2>
10003774:	e6c1      	b.n	100034fa <DAC_Check+0xc36>
10003776:	4b32      	ldr	r3, [pc, #200]	; (10003840 <DAC_Check+0xf7c>)
10003778:	881b      	ldrh	r3, [r3, #0]
1000377a:	b29b      	uxth	r3, r3
1000377c:	2b00      	cmp	r3, #0
1000377e:	d100      	bne.n	10003782 <DAC_Check+0xebe>
10003780:	e6bb      	b.n	100034fa <DAC_Check+0xc36>
10003782:	4a2d      	ldr	r2, [pc, #180]	; (10003838 <DAC_Check+0xf74>)
10003784:	2300      	movs	r3, #0
10003786:	8013      	strh	r3, [r2, #0]
10003788:	4a2c      	ldr	r2, [pc, #176]	; (1000383c <DAC_Check+0xf78>)
1000378a:	8013      	strh	r3, [r2, #0]
1000378c:	4a30      	ldr	r2, [pc, #192]	; (10003850 <DAC_Check+0xf8c>)
1000378e:	e008      	b.n	100037a2 <DAC_Check+0xede>
10003790:	4928      	ldr	r1, [pc, #160]	; (10003834 <DAC_Check+0xf70>)
10003792:	6989      	ldr	r1, [r1, #24]
10003794:	0689      	lsls	r1, r1, #26
10003796:	d4fb      	bmi.n	10003790 <DAC_Check+0xecc>
10003798:	7810      	ldrb	r0, [r2, #0]
1000379a:	4926      	ldr	r1, [pc, #152]	; (10003834 <DAC_Check+0xf70>)
1000379c:	6008      	str	r0, [r1, #0]
1000379e:	3301      	adds	r3, #1
100037a0:	3201      	adds	r2, #1
100037a2:	2b07      	cmp	r3, #7
100037a4:	d9f4      	bls.n	10003790 <DAC_Check+0xecc>
100037a6:	4b24      	ldr	r3, [pc, #144]	; (10003838 <DAC_Check+0xf74>)
100037a8:	881a      	ldrh	r2, [r3, #0]
100037aa:	3201      	adds	r2, #1
100037ac:	4b23      	ldr	r3, [pc, #140]	; (1000383c <DAC_Check+0xf78>)
100037ae:	881b      	ldrh	r3, [r3, #0]
100037b0:	b29b      	uxth	r3, r3
100037b2:	429a      	cmp	r2, r3
100037b4:	db04      	blt.n	100037c0 <DAC_Check+0xefc>
100037b6:	4b22      	ldr	r3, [pc, #136]	; (10003840 <DAC_Check+0xf7c>)
100037b8:	881b      	ldrh	r3, [r3, #0]
100037ba:	b29b      	uxth	r3, r3
100037bc:	2b00      	cmp	r3, #0
100037be:	d1f2      	bne.n	100037a6 <DAC_Check+0xee2>
100037c0:	f7fe fe1a 	bl	100023f8 <UART_CheckResponse>
100037c4:	e699      	b.n	100034fa <DAC_Check+0xc36>
100037c6:	4b23      	ldr	r3, [pc, #140]	; (10003854 <DAC_Check+0xf90>)
100037c8:	889a      	ldrh	r2, [r3, #4]
100037ca:	4593      	cmp	fp, r2
100037cc:	dc0d      	bgt.n	100037ea <DAC_Check+0xf26>
100037ce:	464b      	mov	r3, r9
100037d0:	330a      	adds	r3, #10
100037d2:	429a      	cmp	r2, r3
100037d4:	dc09      	bgt.n	100037ea <DAC_Check+0xf26>
100037d6:	4b1f      	ldr	r3, [pc, #124]	; (10003854 <DAC_Check+0xf90>)
100037d8:	891a      	ldrh	r2, [r3, #8]
100037da:	9900      	ldr	r1, [sp, #0]
100037dc:	000b      	movs	r3, r1
100037de:	3b0a      	subs	r3, #10
100037e0:	4293      	cmp	r3, r2
100037e2:	dc02      	bgt.n	100037ea <DAC_Check+0xf26>
100037e4:	3314      	adds	r3, #20
100037e6:	429a      	cmp	r2, r3
100037e8:	dd18      	ble.n	1000381c <DAC_Check+0xf58>
100037ea:	2301      	movs	r3, #1
100037ec:	4652      	mov	r2, sl
100037ee:	4093      	lsls	r3, r2
100037f0:	9a01      	ldr	r2, [sp, #4]
100037f2:	439a      	bics	r2, r3
100037f4:	9201      	str	r2, [sp, #4]
100037f6:	9901      	ldr	r1, [sp, #4]
100037f8:	0c0a      	lsrs	r2, r1, #16
100037fa:	4b17      	ldr	r3, [pc, #92]	; (10003858 <DAC_Check+0xf94>)
100037fc:	701a      	strb	r2, [r3, #0]
100037fe:	0a0a      	lsrs	r2, r1, #8
10003800:	705a      	strb	r2, [r3, #1]
10003802:	7099      	strb	r1, [r3, #2]
10003804:	4652      	mov	r2, sl
10003806:	3201      	adds	r2, #1
10003808:	b2d2      	uxtb	r2, r2
1000380a:	4692      	mov	sl, r2
1000380c:	70da      	strb	r2, [r3, #3]
1000380e:	4653      	mov	r3, sl
10003810:	2b17      	cmp	r3, #23
10003812:	d901      	bls.n	10003818 <DAC_Check+0xf54>
10003814:	f7ff f87d 	bl	10002912 <DAC_Check+0x4e>
10003818:	2500      	movs	r5, #0
1000381a:	e673      	b.n	10003504 <DAC_Check+0xc40>
1000381c:	2301      	movs	r3, #1
1000381e:	4652      	mov	r2, sl
10003820:	4093      	lsls	r3, r2
10003822:	9a01      	ldr	r2, [sp, #4]
10003824:	431a      	orrs	r2, r3
10003826:	9201      	str	r2, [sp, #4]
10003828:	e7e5      	b.n	100037f6 <DAC_Check+0xf32>
1000382a:	4b0b      	ldr	r3, [pc, #44]	; (10003858 <DAC_Check+0xf94>)
1000382c:	2200      	movs	r2, #0
1000382e:	601a      	str	r2, [r3, #0]
10003830:	f7ff f86f 	bl	10002912 <DAC_Check+0x4e>
10003834:	40034000 	.word	0x40034000
10003838:	20001f4a 	.word	0x20001f4a
1000383c:	20001f4c 	.word	0x20001f4c
10003840:	20001f44 	.word	0x20001f44
10003844:	1000ae30 	.word	0x1000ae30
10003848:	1000ae60 	.word	0x1000ae60
1000384c:	1000ae1c 	.word	0x1000ae1c
10003850:	1000ae24 	.word	0x1000ae24
10003854:	20001250 	.word	0x20001250
10003858:	200012c8 	.word	0x200012c8

1000385c <gpio_set_function>:
1000385c:	b510      	push	{r4, lr}
1000385e:	0083      	lsls	r3, r0, #2
10003860:	4a08      	ldr	r2, [pc, #32]	; (10003884 <gpio_set_function+0x28>)
10003862:	4694      	mov	ip, r2
10003864:	4463      	add	r3, ip
10003866:	681a      	ldr	r2, [r3, #0]
10003868:	2440      	movs	r4, #64	; 0x40
1000386a:	4062      	eors	r2, r4
1000386c:	3480      	adds	r4, #128	; 0x80
1000386e:	4014      	ands	r4, r2
10003870:	2280      	movs	r2, #128	; 0x80
10003872:	0152      	lsls	r2, r2, #5
10003874:	4313      	orrs	r3, r2
10003876:	601c      	str	r4, [r3, #0]
10003878:	00c0      	lsls	r0, r0, #3
1000387a:	4b03      	ldr	r3, [pc, #12]	; (10003888 <gpio_set_function+0x2c>)
1000387c:	469c      	mov	ip, r3
1000387e:	4460      	add	r0, ip
10003880:	6041      	str	r1, [r0, #4]
10003882:	bd10      	pop	{r4, pc}
10003884:	4001c004 	.word	0x4001c004
10003888:	40014000 	.word	0x40014000

1000388c <gpio_set_pulls>:
1000388c:	0080      	lsls	r0, r0, #2
1000388e:	4b0b      	ldr	r3, [pc, #44]	; (100038bc <gpio_set_pulls+0x30>)
10003890:	469c      	mov	ip, r3
10003892:	4460      	add	r0, ip
10003894:	2900      	cmp	r1, #0
10003896:	d00d      	beq.n	100038b4 <gpio_set_pulls+0x28>
10003898:	2308      	movs	r3, #8
1000389a:	2a00      	cmp	r2, #0
1000389c:	d00c      	beq.n	100038b8 <gpio_set_pulls+0x2c>
1000389e:	2204      	movs	r2, #4
100038a0:	4313      	orrs	r3, r2
100038a2:	6802      	ldr	r2, [r0, #0]
100038a4:	4053      	eors	r3, r2
100038a6:	220c      	movs	r2, #12
100038a8:	401a      	ands	r2, r3
100038aa:	2380      	movs	r3, #128	; 0x80
100038ac:	015b      	lsls	r3, r3, #5
100038ae:	4303      	orrs	r3, r0
100038b0:	601a      	str	r2, [r3, #0]
100038b2:	4770      	bx	lr
100038b4:	2300      	movs	r3, #0
100038b6:	e7f0      	b.n	1000389a <gpio_set_pulls+0xe>
100038b8:	2200      	movs	r2, #0
100038ba:	e7f1      	b.n	100038a0 <gpio_set_pulls+0x14>
100038bc:	4001c004 	.word	0x4001c004

100038c0 <gpio_init>:
100038c0:	b510      	push	{r4, lr}
100038c2:	2301      	movs	r3, #1
100038c4:	4083      	lsls	r3, r0
100038c6:	22d0      	movs	r2, #208	; 0xd0
100038c8:	0612      	lsls	r2, r2, #24
100038ca:	6293      	str	r3, [r2, #40]	; 0x28
100038cc:	6193      	str	r3, [r2, #24]
100038ce:	2105      	movs	r1, #5
100038d0:	f7ff ffc4 	bl	1000385c <gpio_set_function>
100038d4:	bd10      	pop	{r4, pc}
	...

100038d8 <running_on_fpga>:
100038d8:	4b03      	ldr	r3, [pc, #12]	; (100038e8 <running_on_fpga+0x10>)
100038da:	681b      	ldr	r3, [r3, #0]
100038dc:	2002      	movs	r0, #2
100038de:	4018      	ands	r0, r3
100038e0:	1e43      	subs	r3, r0, #1
100038e2:	4198      	sbcs	r0, r3
100038e4:	b2c0      	uxtb	r0, r0
100038e6:	4770      	bx	lr
100038e8:	4006c000 	.word	0x4006c000

100038ec <hw_claim_lock>:
100038ec:	f3ef 8010 	mrs	r0, PRIMASK
100038f0:	b672      	cpsid	i
100038f2:	4b03      	ldr	r3, [pc, #12]	; (10003900 <hw_claim_lock+0x14>)
100038f4:	681b      	ldr	r3, [r3, #0]
100038f6:	2b00      	cmp	r3, #0
100038f8:	d0fb      	beq.n	100038f2 <hw_claim_lock+0x6>
100038fa:	f3bf 8f5f 	dmb	sy
100038fe:	4770      	bx	lr
10003900:	d000012c 	.word	0xd000012c

10003904 <hw_claim_unlock>:
10003904:	f3bf 8f5f 	dmb	sy
10003908:	4b02      	ldr	r3, [pc, #8]	; (10003914 <hw_claim_unlock+0x10>)
1000390a:	2200      	movs	r2, #0
1000390c:	601a      	str	r2, [r3, #0]
1000390e:	f380 8810 	msr	PRIMASK, r0
10003912:	4770      	bx	lr
10003914:	d000012c 	.word	0xd000012c

10003918 <hw_claim_or_assert>:
10003918:	b5f8      	push	{r3, r4, r5, r6, r7, lr}
1000391a:	0006      	movs	r6, r0
1000391c:	000c      	movs	r4, r1
1000391e:	0015      	movs	r5, r2
10003920:	f7ff ffe4 	bl	100038ec <hw_claim_lock>
10003924:	08e3      	lsrs	r3, r4, #3
10003926:	18f7      	adds	r7, r6, r3
10003928:	5cf1      	ldrb	r1, [r6, r3]
1000392a:	2207      	movs	r2, #7
1000392c:	4022      	ands	r2, r4
1000392e:	2301      	movs	r3, #1
10003930:	4093      	lsls	r3, r2
10003932:	420b      	tst	r3, r1
10003934:	d105      	bne.n	10003942 <hw_claim_or_assert+0x2a>
10003936:	b2db      	uxtb	r3, r3
10003938:	430b      	orrs	r3, r1
1000393a:	703b      	strb	r3, [r7, #0]
1000393c:	f7ff ffe2 	bl	10003904 <hw_claim_unlock>
10003940:	bdf8      	pop	{r3, r4, r5, r6, r7, pc}
10003942:	0021      	movs	r1, r4
10003944:	0028      	movs	r0, r5
10003946:	f002 f8a9 	bl	10005a9c <panic>

1000394a <hw_claim_unused_from_range>:
1000394a:	b5f0      	push	{r4, r5, r6, r7, lr}
1000394c:	b083      	sub	sp, #12
1000394e:	0006      	movs	r6, r0
10003950:	9101      	str	r1, [sp, #4]
10003952:	0014      	movs	r4, r2
10003954:	001f      	movs	r7, r3
10003956:	f7ff ffc9 	bl	100038ec <hw_claim_lock>
1000395a:	e000      	b.n	1000395e <hw_claim_unused_from_range+0x14>
1000395c:	3401      	adds	r4, #1
1000395e:	42bc      	cmp	r4, r7
10003960:	d80c      	bhi.n	1000397c <hw_claim_unused_from_range+0x32>
10003962:	08e3      	lsrs	r3, r4, #3
10003964:	18f5      	adds	r5, r6, r3
10003966:	5cf3      	ldrb	r3, [r6, r3]
10003968:	2107      	movs	r1, #7
1000396a:	4021      	ands	r1, r4
1000396c:	2201      	movs	r2, #1
1000396e:	408a      	lsls	r2, r1
10003970:	421a      	tst	r2, r3
10003972:	d1f3      	bne.n	1000395c <hw_claim_unused_from_range+0x12>
10003974:	b2d2      	uxtb	r2, r2
10003976:	431a      	orrs	r2, r3
10003978:	702a      	strb	r2, [r5, #0]
1000397a:	e001      	b.n	10003980 <hw_claim_unused_from_range+0x36>
1000397c:	2401      	movs	r4, #1
1000397e:	4264      	negs	r4, r4
10003980:	f7ff ffc0 	bl	10003904 <hw_claim_unlock>
10003984:	2c00      	cmp	r4, #0
10003986:	db02      	blt.n	1000398e <hw_claim_unused_from_range+0x44>
10003988:	0020      	movs	r0, r4
1000398a:	b003      	add	sp, #12
1000398c:	bdf0      	pop	{r4, r5, r6, r7, pc}
1000398e:	9b01      	ldr	r3, [sp, #4]
10003990:	2b00      	cmp	r3, #0
10003992:	d0f9      	beq.n	10003988 <hw_claim_unused_from_range+0x3e>
10003994:	9808      	ldr	r0, [sp, #32]
10003996:	f002 f881 	bl	10005a9c <panic>
	...

1000399c <spin_locks_reset>:
1000399c:	2300      	movs	r3, #0
1000399e:	e007      	b.n	100039b0 <spin_locks_reset+0x14>
100039a0:	4a05      	ldr	r2, [pc, #20]	; (100039b8 <spin_locks_reset+0x1c>)
100039a2:	189a      	adds	r2, r3, r2
100039a4:	0092      	lsls	r2, r2, #2
100039a6:	f3bf 8f5f 	dmb	sy
100039aa:	2100      	movs	r1, #0
100039ac:	6011      	str	r1, [r2, #0]
100039ae:	3301      	adds	r3, #1
100039b0:	2b1f      	cmp	r3, #31
100039b2:	d9f5      	bls.n	100039a0 <spin_locks_reset+0x4>
100039b4:	4770      	bx	lr
100039b6:	46c0      	nop			; (mov r8, r8)
100039b8:	34000040 	.word	0x34000040

100039bc <next_striped_spin_lock_num>:
100039bc:	4a05      	ldr	r2, [pc, #20]	; (100039d4 <next_striped_spin_lock_num+0x18>)
100039be:	7810      	ldrb	r0, [r2, #0]
100039c0:	1c43      	adds	r3, r0, #1
100039c2:	b2db      	uxtb	r3, r3
100039c4:	7013      	strb	r3, [r2, #0]
100039c6:	2b17      	cmp	r3, #23
100039c8:	d902      	bls.n	100039d0 <next_striped_spin_lock_num+0x14>
100039ca:	0013      	movs	r3, r2
100039cc:	2210      	movs	r2, #16
100039ce:	701a      	strb	r2, [r3, #0]
100039d0:	4770      	bx	lr
100039d2:	46c0      	nop			; (mov r8, r8)
100039d4:	20000b99 	.word	0x20000b99

100039d8 <spin_lock_claim_unused>:
100039d8:	b510      	push	{r4, lr}
100039da:	b082      	sub	sp, #8
100039dc:	0001      	movs	r1, r0
100039de:	4c05      	ldr	r4, [pc, #20]	; (100039f4 <spin_lock_claim_unused+0x1c>)
100039e0:	4b05      	ldr	r3, [pc, #20]	; (100039f8 <spin_lock_claim_unused+0x20>)
100039e2:	9300      	str	r3, [sp, #0]
100039e4:	231f      	movs	r3, #31
100039e6:	2218      	movs	r2, #24
100039e8:	0020      	movs	r0, r4
100039ea:	f7ff ffae 	bl	1000394a <hw_claim_unused_from_range>
100039ee:	b002      	add	sp, #8
100039f0:	bd10      	pop	{r4, pc}
100039f2:	46c0      	nop			; (mov r8, r8)
100039f4:	20001828 	.word	0x20001828
100039f8:	1000ae74 	.word	0x1000ae74

100039fc <set_raw_irq_handler_and_unlock>:
100039fc:	4b07      	ldr	r3, [pc, #28]	; (10003a1c <set_raw_irq_handler_and_unlock+0x20>)
100039fe:	689b      	ldr	r3, [r3, #8]
10003a00:	3010      	adds	r0, #16
10003a02:	0080      	lsls	r0, r0, #2
10003a04:	5019      	str	r1, [r3, r0]
10003a06:	f3bf 8f5f 	dmb	sy
10003a0a:	f3bf 8f5f 	dmb	sy
10003a0e:	4b04      	ldr	r3, [pc, #16]	; (10003a20 <set_raw_irq_handler_and_unlock+0x24>)
10003a10:	2100      	movs	r1, #0
10003a12:	6019      	str	r1, [r3, #0]
10003a14:	f382 8810 	msr	PRIMASK, r2
10003a18:	4770      	bx	lr
10003a1a:	46c0      	nop			; (mov r8, r8)
10003a1c:	e000ed00 	.word	0xe000ed00
10003a20:	d0000124 	.word	0xd0000124

10003a24 <make_branch>:
10003a24:	b510      	push	{r4, lr}
10003a26:	1a09      	subs	r1, r1, r0
10003a28:	1f0b      	subs	r3, r1, #4
10003a2a:	4a0a      	ldr	r2, [pc, #40]	; (10003a54 <make_branch+0x30>)
10003a2c:	4694      	mov	ip, r2
10003a2e:	4461      	add	r1, ip
10003a30:	4a09      	ldr	r2, [pc, #36]	; (10003a58 <make_branch+0x34>)
10003a32:	4291      	cmp	r1, r2
10003a34:	d808      	bhi.n	10003a48 <make_branch+0x24>
10003a36:	07da      	lsls	r2, r3, #31
10003a38:	d406      	bmi.n	10003a48 <make_branch+0x24>
10003a3a:	105b      	asrs	r3, r3, #1
10003a3c:	055b      	lsls	r3, r3, #21
10003a3e:	0d5b      	lsrs	r3, r3, #21
10003a40:	4806      	ldr	r0, [pc, #24]	; (10003a5c <make_branch+0x38>)
10003a42:	4318      	orrs	r0, r3
10003a44:	b280      	uxth	r0, r0
10003a46:	bd10      	pop	{r4, pc}
10003a48:	4b05      	ldr	r3, [pc, #20]	; (10003a60 <make_branch+0x3c>)
10003a4a:	4a06      	ldr	r2, [pc, #24]	; (10003a64 <make_branch+0x40>)
10003a4c:	4806      	ldr	r0, [pc, #24]	; (10003a68 <make_branch+0x44>)
10003a4e:	21a3      	movs	r1, #163	; 0xa3
10003a50:	f001 ff8a 	bl	10005968 <__assert_func>
10003a54:	000007fc 	.word	0x000007fc
10003a58:	00000ffe 	.word	0x00000ffe
10003a5c:	ffffe000 	.word	0xffffe000
10003a60:	1000ae90 	.word	0x1000ae90
10003a64:	1000b100 	.word	0x1000b100
10003a68:	1000aec0 	.word	0x1000aec0

10003a6c <insert_branch_and_link>:
10003a6c:	b510      	push	{r4, lr}
10003a6e:	1a09      	subs	r1, r1, r0
10003a70:	3904      	subs	r1, #4
10003a72:	084a      	lsrs	r2, r1, #1
10003a74:	0b09      	lsrs	r1, r1, #12
10003a76:	d108      	bne.n	10003a8a <insert_branch_and_link+0x1e>
10003a78:	0549      	lsls	r1, r1, #21
10003a7a:	0d49      	lsrs	r1, r1, #21
10003a7c:	4b06      	ldr	r3, [pc, #24]	; (10003a98 <insert_branch_and_link+0x2c>)
10003a7e:	430b      	orrs	r3, r1
10003a80:	8003      	strh	r3, [r0, #0]
10003a82:	4b06      	ldr	r3, [pc, #24]	; (10003a9c <insert_branch_and_link+0x30>)
10003a84:	4313      	orrs	r3, r2
10003a86:	8043      	strh	r3, [r0, #2]
10003a88:	bd10      	pop	{r4, pc}
10003a8a:	4b05      	ldr	r3, [pc, #20]	; (10003aa0 <insert_branch_and_link+0x34>)
10003a8c:	4a05      	ldr	r2, [pc, #20]	; (10003aa4 <insert_branch_and_link+0x38>)
10003a8e:	4806      	ldr	r0, [pc, #24]	; (10003aa8 <insert_branch_and_link+0x3c>)
10003a90:	21ab      	movs	r1, #171	; 0xab
10003a92:	f001 ff69 	bl	10005968 <__assert_func>
10003a96:	46c0      	nop			; (mov r8, r8)
10003a98:	fffff000 	.word	0xfffff000
10003a9c:	fffff800 	.word	0xfffff800
10003aa0:	1000af00 	.word	0x1000af00
10003aa4:	1000b0d4 	.word	0x1000b0d4
10003aa8:	1000aec0 	.word	0x1000aec0

10003aac <irq_is_enabled>:
10003aac:	2301      	movs	r3, #1
10003aae:	4083      	lsls	r3, r0
10003ab0:	4a03      	ldr	r2, [pc, #12]	; (10003ac0 <irq_is_enabled+0x14>)
10003ab2:	6810      	ldr	r0, [r2, #0]
10003ab4:	4018      	ands	r0, r3
10003ab6:	1e43      	subs	r3, r0, #1
10003ab8:	4198      	sbcs	r0, r3
10003aba:	b2c0      	uxtb	r0, r0
10003abc:	4770      	bx	lr
10003abe:	46c0      	nop			; (mov r8, r8)
10003ac0:	e000e100 	.word	0xe000e100

10003ac4 <irq_set_mask_enabled>:
10003ac4:	2900      	cmp	r1, #0
10003ac6:	d004      	beq.n	10003ad2 <irq_set_mask_enabled+0xe>
10003ac8:	4b03      	ldr	r3, [pc, #12]	; (10003ad8 <irq_set_mask_enabled+0x14>)
10003aca:	6018      	str	r0, [r3, #0]
10003acc:	4b03      	ldr	r3, [pc, #12]	; (10003adc <irq_set_mask_enabled+0x18>)
10003ace:	6018      	str	r0, [r3, #0]
10003ad0:	4770      	bx	lr
10003ad2:	4b03      	ldr	r3, [pc, #12]	; (10003ae0 <irq_set_mask_enabled+0x1c>)
10003ad4:	6018      	str	r0, [r3, #0]
10003ad6:	e7fb      	b.n	10003ad0 <irq_set_mask_enabled+0xc>
10003ad8:	e000e280 	.word	0xe000e280
10003adc:	e000e100 	.word	0xe000e100
10003ae0:	e000e180 	.word	0xe000e180

10003ae4 <irq_set_enabled>:
10003ae4:	b510      	push	{r4, lr}
10003ae6:	2301      	movs	r3, #1
10003ae8:	4083      	lsls	r3, r0
10003aea:	0018      	movs	r0, r3
10003aec:	f7ff ffea 	bl	10003ac4 <irq_set_mask_enabled>
10003af0:	bd10      	pop	{r4, pc}
	...

10003af4 <irq_set_pending>:
10003af4:	2301      	movs	r3, #1
10003af6:	4083      	lsls	r3, r0
10003af8:	4a01      	ldr	r2, [pc, #4]	; (10003b00 <irq_set_pending+0xc>)
10003afa:	6013      	str	r3, [r2, #0]
10003afc:	4770      	bx	lr
10003afe:	46c0      	nop			; (mov r8, r8)
10003b00:	e000e200 	.word	0xe000e200

10003b04 <irq_get_vtable_handler>:
10003b04:	4b02      	ldr	r3, [pc, #8]	; (10003b10 <irq_get_vtable_handler+0xc>)
10003b06:	689b      	ldr	r3, [r3, #8]
10003b08:	3010      	adds	r0, #16
10003b0a:	0080      	lsls	r0, r0, #2
10003b0c:	58c0      	ldr	r0, [r0, r3]
10003b0e:	4770      	bx	lr
10003b10:	e000ed00 	.word	0xe000ed00

10003b14 <irq_has_shared_handler>:
10003b14:	b510      	push	{r4, lr}
10003b16:	f7ff fff5 	bl	10003b04 <irq_get_vtable_handler>
10003b1a:	2800      	cmp	r0, #0
10003b1c:	d005      	beq.n	10003b2a <irq_has_shared_handler+0x16>
10003b1e:	4b05      	ldr	r3, [pc, #20]	; (10003b34 <irq_has_shared_handler+0x20>)
10003b20:	1ac0      	subs	r0, r0, r3
10003b22:	282f      	cmp	r0, #47	; 0x2f
10003b24:	d803      	bhi.n	10003b2e <irq_has_shared_handler+0x1a>
10003b26:	2001      	movs	r0, #1
10003b28:	bd10      	pop	{r4, pc}
10003b2a:	2000      	movs	r0, #0
10003b2c:	e7fc      	b.n	10003b28 <irq_has_shared_handler+0x14>
10003b2e:	2000      	movs	r0, #0
10003b30:	e7fa      	b.n	10003b28 <irq_has_shared_handler+0x14>
10003b32:	46c0      	nop			; (mov r8, r8)
10003b34:	20000b9c 	.word	0x20000b9c

10003b38 <irq_set_exclusive_handler>:
10003b38:	b570      	push	{r4, r5, r6, lr}
10003b3a:	0004      	movs	r4, r0
10003b3c:	000d      	movs	r5, r1
10003b3e:	f3ef 8610 	mrs	r6, PRIMASK
10003b42:	b672      	cpsid	i
10003b44:	4b0c      	ldr	r3, [pc, #48]	; (10003b78 <irq_set_exclusive_handler+0x40>)
10003b46:	681b      	ldr	r3, [r3, #0]
10003b48:	2b00      	cmp	r3, #0
10003b4a:	d0fb      	beq.n	10003b44 <irq_set_exclusive_handler+0xc>
10003b4c:	f3bf 8f5f 	dmb	sy
10003b50:	0020      	movs	r0, r4
10003b52:	f7ff ffd7 	bl	10003b04 <irq_get_vtable_handler>
10003b56:	4b09      	ldr	r3, [pc, #36]	; (10003b7c <irq_set_exclusive_handler+0x44>)
10003b58:	4298      	cmp	r0, r3
10003b5a:	d001      	beq.n	10003b60 <irq_set_exclusive_handler+0x28>
10003b5c:	42a8      	cmp	r0, r5
10003b5e:	d105      	bne.n	10003b6c <irq_set_exclusive_handler+0x34>
10003b60:	0032      	movs	r2, r6
10003b62:	0029      	movs	r1, r5
10003b64:	0020      	movs	r0, r4
10003b66:	f7ff ff49 	bl	100039fc <set_raw_irq_handler_and_unlock>
10003b6a:	bd70      	pop	{r4, r5, r6, pc}
10003b6c:	4b04      	ldr	r3, [pc, #16]	; (10003b80 <irq_set_exclusive_handler+0x48>)
10003b6e:	4a05      	ldr	r2, [pc, #20]	; (10003b84 <irq_set_exclusive_handler+0x4c>)
10003b70:	4805      	ldr	r0, [pc, #20]	; (10003b88 <irq_set_exclusive_handler+0x50>)
10003b72:	2186      	movs	r1, #134	; 0x86
10003b74:	f001 fef8 	bl	10005968 <__assert_func>
10003b78:	d0000124 	.word	0xd0000124
10003b7c:	100001cd 	.word	0x100001cd
10003b80:	1000af10 	.word	0x1000af10
10003b84:	1000b134 	.word	0x1000b134
10003b88:	1000aec0 	.word	0x1000aec0

10003b8c <irq_add_shared_handler>:
10003b8c:	b5f0      	push	{r4, r5, r6, r7, lr}
10003b8e:	46de      	mov	lr, fp
10003b90:	4657      	mov	r7, sl
10003b92:	464e      	mov	r6, r9
10003b94:	4645      	mov	r5, r8
10003b96:	b5e0      	push	{r5, r6, r7, lr}
10003b98:	b089      	sub	sp, #36	; 0x24
10003b9a:	4681      	mov	r9, r0
10003b9c:	9101      	str	r1, [sp, #4]
10003b9e:	0015      	movs	r5, r2
10003ba0:	f3ef 8a10 	mrs	sl, PRIMASK
10003ba4:	b672      	cpsid	i
10003ba6:	4b73      	ldr	r3, [pc, #460]	; (10003d74 <irq_add_shared_handler+0x1e8>)
10003ba8:	681b      	ldr	r3, [r3, #0]
10003baa:	2b00      	cmp	r3, #0
10003bac:	d0fb      	beq.n	10003ba6 <irq_add_shared_handler+0x1a>
10003bae:	f3bf 8f5f 	dmb	sy
10003bb2:	4b71      	ldr	r3, [pc, #452]	; (10003d78 <irq_add_shared_handler+0x1ec>)
10003bb4:	2700      	movs	r7, #0
10003bb6:	57df      	ldrsb	r7, [r3, r7]
10003bb8:	2f00      	cmp	r7, #0
10003bba:	db40      	blt.n	10003c3e <irq_add_shared_handler+0xb2>
10003bbc:	007c      	lsls	r4, r7, #1
10003bbe:	19e4      	adds	r4, r4, r7
10003bc0:	00a4      	lsls	r4, r4, #2
10003bc2:	486e      	ldr	r0, [pc, #440]	; (10003d7c <irq_add_shared_handler+0x1f0>)
10003bc4:	1824      	adds	r4, r4, r0
10003bc6:	2206      	movs	r2, #6
10003bc8:	56a2      	ldrsb	r2, [r4, r2]
10003bca:	4b6b      	ldr	r3, [pc, #428]	; (10003d78 <irq_add_shared_handler+0x1ec>)
10003bcc:	701a      	strb	r2, [r3, #0]
10003bce:	4b6c      	ldr	r3, [pc, #432]	; (10003d80 <irq_add_shared_handler+0x1f4>)
10003bd0:	689a      	ldr	r2, [r3, #8]
10003bd2:	464b      	mov	r3, r9
10003bd4:	3310      	adds	r3, #16
10003bd6:	009b      	lsls	r3, r3, #2
10003bd8:	58d3      	ldr	r3, [r2, r3]
10003bda:	4698      	mov	r8, r3
10003bdc:	001e      	movs	r6, r3
10003bde:	1a18      	subs	r0, r3, r0
10003be0:	282f      	cmp	r0, #47	; 0x2f
10003be2:	d938      	bls.n	10003c56 <irq_add_shared_handler+0xca>
10003be4:	4b67      	ldr	r3, [pc, #412]	; (10003d84 <irq_add_shared_handler+0x1f8>)
10003be6:	4598      	cmp	r8, r3
10003be8:	d12f      	bne.n	10003c4a <irq_add_shared_handler+0xbe>
10003bea:	ae05      	add	r6, sp, #20
10003bec:	4b66      	ldr	r3, [pc, #408]	; (10003d88 <irq_add_shared_handler+0x1fc>)
10003bee:	8033      	strh	r3, [r6, #0]
10003bf0:	4966      	ldr	r1, [pc, #408]	; (10003d8c <irq_add_shared_handler+0x200>)
10003bf2:	007b      	lsls	r3, r7, #1
10003bf4:	469b      	mov	fp, r3
10003bf6:	19d8      	adds	r0, r3, r7
10003bf8:	0080      	lsls	r0, r0, #2
10003bfa:	4b60      	ldr	r3, [pc, #384]	; (10003d7c <irq_add_shared_handler+0x1f0>)
10003bfc:	4698      	mov	r8, r3
10003bfe:	4440      	add	r0, r8
10003c00:	3002      	adds	r0, #2
10003c02:	f7ff ff0f 	bl	10003a24 <make_branch>
10003c06:	8070      	strh	r0, [r6, #2]
10003c08:	4b61      	ldr	r3, [pc, #388]	; (10003d90 <irq_add_shared_handler+0x204>)
10003c0a:	80b3      	strh	r3, [r6, #4]
10003c0c:	23ff      	movs	r3, #255	; 0xff
10003c0e:	71b3      	strb	r3, [r6, #6]
10003c10:	71f5      	strb	r5, [r6, #7]
10003c12:	9b01      	ldr	r3, [sp, #4]
10003c14:	9307      	str	r3, [sp, #28]
10003c16:	445f      	add	r7, fp
10003c18:	00bb      	lsls	r3, r7, #2
10003c1a:	4443      	add	r3, r8
10003c1c:	ce07      	ldmia	r6!, {r0, r1, r2}
10003c1e:	c307      	stmia	r3!, {r0, r1, r2}
10003c20:	2301      	movs	r3, #1
10003c22:	431c      	orrs	r4, r3
10003c24:	46a0      	mov	r8, r4
10003c26:	4652      	mov	r2, sl
10003c28:	4641      	mov	r1, r8
10003c2a:	4648      	mov	r0, r9
10003c2c:	f7ff fee6 	bl	100039fc <set_raw_irq_handler_and_unlock>
10003c30:	b009      	add	sp, #36	; 0x24
10003c32:	bcf0      	pop	{r4, r5, r6, r7}
10003c34:	46bb      	mov	fp, r7
10003c36:	46b2      	mov	sl, r6
10003c38:	46a9      	mov	r9, r5
10003c3a:	46a0      	mov	r8, r4
10003c3c:	bdf0      	pop	{r4, r5, r6, r7, pc}
10003c3e:	4b55      	ldr	r3, [pc, #340]	; (10003d94 <irq_add_shared_handler+0x208>)
10003c40:	4a55      	ldr	r2, [pc, #340]	; (10003d98 <irq_add_shared_handler+0x20c>)
10003c42:	4856      	ldr	r0, [pc, #344]	; (10003d9c <irq_add_shared_handler+0x210>)
10003c44:	21d7      	movs	r1, #215	; 0xd7
10003c46:	f001 fe8f 	bl	10005968 <__assert_func>
10003c4a:	4b55      	ldr	r3, [pc, #340]	; (10003da0 <irq_add_shared_handler+0x214>)
10003c4c:	4a52      	ldr	r2, [pc, #328]	; (10003d98 <irq_add_shared_handler+0x20c>)
10003c4e:	4853      	ldr	r0, [pc, #332]	; (10003d9c <irq_add_shared_handler+0x210>)
10003c50:	21de      	movs	r1, #222	; 0xde
10003c52:	f001 fe89 	bl	10005968 <__assert_func>
10003c56:	3801      	subs	r0, #1
10003c58:	210c      	movs	r1, #12
10003c5a:	f003 f849 	bl	10006cf0 <__wrap___aeabi_uidiv>
10003c5e:	2900      	cmp	r1, #0
10003c60:	d112      	bne.n	10003c88 <irq_add_shared_handler+0xfc>
10003c62:	2301      	movs	r3, #1
10003c64:	439e      	bics	r6, r3
10003c66:	46b3      	mov	fp, r6
10003c68:	0033      	movs	r3, r6
10003c6a:	2600      	movs	r6, #0
10003c6c:	79da      	ldrb	r2, [r3, #7]
10003c6e:	42aa      	cmp	r2, r5
10003c70:	d911      	bls.n	10003c96 <irq_add_shared_handler+0x10a>
10003c72:	2106      	movs	r1, #6
10003c74:	5659      	ldrsb	r1, [r3, r1]
10003c76:	2900      	cmp	r1, #0
10003c78:	db0c      	blt.n	10003c94 <irq_add_shared_handler+0x108>
10003c7a:	004a      	lsls	r2, r1, #1
10003c7c:	1852      	adds	r2, r2, r1
10003c7e:	0092      	lsls	r2, r2, #2
10003c80:	493e      	ldr	r1, [pc, #248]	; (10003d7c <irq_add_shared_handler+0x1f0>)
10003c82:	001e      	movs	r6, r3
10003c84:	188b      	adds	r3, r1, r2
10003c86:	e7f1      	b.n	10003c6c <irq_add_shared_handler+0xe0>
10003c88:	4b46      	ldr	r3, [pc, #280]	; (10003da4 <irq_add_shared_handler+0x218>)
10003c8a:	4a43      	ldr	r2, [pc, #268]	; (10003d98 <irq_add_shared_handler+0x20c>)
10003c8c:	4843      	ldr	r0, [pc, #268]	; (10003d9c <irq_add_shared_handler+0x210>)
10003c8e:	21ea      	movs	r1, #234	; 0xea
10003c90:	f001 fe6a 	bl	10005968 <__assert_func>
10003c94:	001e      	movs	r6, r3
10003c96:	2e00      	cmp	r6, #0
10003c98:	d03a      	beq.n	10003d10 <irq_add_shared_handler+0x184>
10003c9a:	ab05      	add	r3, sp, #20
10003c9c:	4a42      	ldr	r2, [pc, #264]	; (10003da8 <irq_add_shared_handler+0x21c>)
10003c9e:	801a      	strh	r2, [r3, #0]
10003ca0:	3a81      	subs	r2, #129	; 0x81
10003ca2:	805a      	strh	r2, [r3, #2]
10003ca4:	2306      	movs	r3, #6
10003ca6:	56f3      	ldrsb	r3, [r6, r3]
10003ca8:	9302      	str	r3, [sp, #8]
10003caa:	2b00      	cmp	r3, #0
10003cac:	da17      	bge.n	10003cde <irq_add_shared_handler+0x152>
10003cae:	483f      	ldr	r0, [pc, #252]	; (10003dac <irq_add_shared_handler+0x220>)
10003cb0:	ab05      	add	r3, sp, #20
10003cb2:	469b      	mov	fp, r3
10003cb4:	8098      	strh	r0, [r3, #4]
10003cb6:	9a02      	ldr	r2, [sp, #8]
10003cb8:	719a      	strb	r2, [r3, #6]
10003cba:	71dd      	strb	r5, [r3, #7]
10003cbc:	9a01      	ldr	r2, [sp, #4]
10003cbe:	9207      	str	r2, [sp, #28]
10003cc0:	1d30      	adds	r0, r6, #4
10003cc2:	0021      	movs	r1, r4
10003cc4:	f7ff feae 	bl	10003a24 <make_branch>
10003cc8:	80b0      	strh	r0, [r6, #4]
10003cca:	71b7      	strb	r7, [r6, #6]
10003ccc:	4b2b      	ldr	r3, [pc, #172]	; (10003d7c <irq_add_shared_handler+0x1f0>)
10003cce:	007a      	lsls	r2, r7, #1
10003cd0:	19d2      	adds	r2, r2, r7
10003cd2:	0092      	lsls	r2, r2, #2
10003cd4:	189b      	adds	r3, r3, r2
10003cd6:	465a      	mov	r2, fp
10003cd8:	ca13      	ldmia	r2!, {r0, r1, r4}
10003cda:	c313      	stmia	r3!, {r0, r1, r4}
10003cdc:	e7a3      	b.n	10003c26 <irq_add_shared_handler+0x9a>
10003cde:	0078      	lsls	r0, r7, #1
10003ce0:	19c0      	adds	r0, r0, r7
10003ce2:	0080      	lsls	r0, r0, #2
10003ce4:	4b25      	ldr	r3, [pc, #148]	; (10003d7c <irq_add_shared_handler+0x1f0>)
10003ce6:	18c0      	adds	r0, r0, r3
10003ce8:	3004      	adds	r0, #4
10003cea:	1d31      	adds	r1, r6, #4
10003cec:	88b3      	ldrh	r3, [r6, #4]
10003cee:	0ada      	lsrs	r2, r3, #11
10003cf0:	2a1c      	cmp	r2, #28
10003cf2:	d107      	bne.n	10003d04 <irq_add_shared_handler+0x178>
10003cf4:	055b      	lsls	r3, r3, #21
10003cf6:	155b      	asrs	r3, r3, #21
10003cf8:	3302      	adds	r3, #2
10003cfa:	005b      	lsls	r3, r3, #1
10003cfc:	18c9      	adds	r1, r1, r3
10003cfe:	f7ff fe91 	bl	10003a24 <make_branch>
10003d02:	e7d5      	b.n	10003cb0 <irq_add_shared_handler+0x124>
10003d04:	4b2a      	ldr	r3, [pc, #168]	; (10003db0 <irq_add_shared_handler+0x224>)
10003d06:	4a2b      	ldr	r2, [pc, #172]	; (10003db4 <irq_add_shared_handler+0x228>)
10003d08:	4824      	ldr	r0, [pc, #144]	; (10003d9c <irq_add_shared_handler+0x210>)
10003d0a:	21b1      	movs	r1, #177	; 0xb1
10003d0c:	f001 fe2c 	bl	10005968 <__assert_func>
10003d10:	ae05      	add	r6, sp, #20
10003d12:	4b1d      	ldr	r3, [pc, #116]	; (10003d88 <irq_add_shared_handler+0x1fc>)
10003d14:	8033      	strh	r3, [r6, #0]
10003d16:	491d      	ldr	r1, [pc, #116]	; (10003d8c <irq_add_shared_handler+0x200>)
10003d18:	007b      	lsls	r3, r7, #1
10003d1a:	9302      	str	r3, [sp, #8]
10003d1c:	19db      	adds	r3, r3, r7
10003d1e:	009b      	lsls	r3, r3, #2
10003d20:	4a16      	ldr	r2, [pc, #88]	; (10003d7c <irq_add_shared_handler+0x1f0>)
10003d22:	4690      	mov	r8, r2
10003d24:	001a      	movs	r2, r3
10003d26:	4442      	add	r2, r8
10003d28:	9203      	str	r2, [sp, #12]
10003d2a:	1c90      	adds	r0, r2, #2
10003d2c:	f7ff fe7a 	bl	10003a24 <make_branch>
10003d30:	8070      	strh	r0, [r6, #2]
10003d32:	9a03      	ldr	r2, [sp, #12]
10003d34:	1d10      	adds	r0, r2, #4
10003d36:	4659      	mov	r1, fp
10003d38:	f7ff fe74 	bl	10003a24 <make_branch>
10003d3c:	80b0      	strh	r0, [r6, #4]
10003d3e:	4b1e      	ldr	r3, [pc, #120]	; (10003db8 <irq_add_shared_handler+0x22c>)
10003d40:	465a      	mov	r2, fp
10003d42:	4641      	mov	r1, r8
10003d44:	1a52      	subs	r2, r2, r1
10003d46:	4152      	adcs	r2, r2
10003d48:	4353      	muls	r3, r2
10003d4a:	0d1b      	lsrs	r3, r3, #20
10003d4c:	71b3      	strb	r3, [r6, #6]
10003d4e:	71f5      	strb	r5, [r6, #7]
10003d50:	9a01      	ldr	r2, [sp, #4]
10003d52:	9207      	str	r2, [sp, #28]
10003d54:	9b02      	ldr	r3, [sp, #8]
10003d56:	469c      	mov	ip, r3
10003d58:	4467      	add	r7, ip
10003d5a:	00bb      	lsls	r3, r7, #2
10003d5c:	4443      	add	r3, r8
10003d5e:	ce07      	ldmia	r6!, {r0, r1, r2}
10003d60:	c307      	stmia	r3!, {r0, r1, r2}
10003d62:	4b11      	ldr	r3, [pc, #68]	; (10003da8 <irq_add_shared_handler+0x21c>)
10003d64:	465a      	mov	r2, fp
10003d66:	8013      	strh	r3, [r2, #0]
10003d68:	3b81      	subs	r3, #129	; 0x81
10003d6a:	8053      	strh	r3, [r2, #2]
10003d6c:	2301      	movs	r3, #1
10003d6e:	431c      	orrs	r4, r3
10003d70:	46a0      	mov	r8, r4
10003d72:	e758      	b.n	10003c26 <irq_add_shared_handler+0x9a>
10003d74:	d0000124 	.word	0xd0000124
10003d78:	20001f69 	.word	0x20001f69
10003d7c:	20000b9c 	.word	0x20000b9c
10003d80:	e000ed00 	.word	0xe000ed00
10003d84:	100001cd 	.word	0x100001cd
10003d88:	ffffa100 	.word	0xffffa100
10003d8c:	20000bcc 	.word	0x20000bcc
10003d90:	ffffbd01 	.word	0xffffbd01
10003d94:	1000af48 	.word	0x1000af48
10003d98:	1000b11c 	.word	0x1000b11c
10003d9c:	1000aec0 	.word	0x1000aec0
10003da0:	1000af70 	.word	0x1000af70
10003da4:	1000af98 	.word	0x1000af98
10003da8:	00004801 	.word	0x00004801
10003dac:	0000bd01 	.word	0x0000bd01
10003db0:	1000b00c 	.word	0x1000b00c
10003db4:	1000b10c 	.word	0x1000b10c
10003db8:	0000aaaa 	.word	0x0000aaaa

10003dbc <irq_remove_handler>:
10003dbc:	b5f0      	push	{r4, r5, r6, r7, lr}
10003dbe:	46ce      	mov	lr, r9
10003dc0:	4647      	mov	r7, r8
10003dc2:	b580      	push	{r7, lr}
10003dc4:	b083      	sub	sp, #12
10003dc6:	0006      	movs	r6, r0
10003dc8:	000d      	movs	r5, r1
10003dca:	f3ef 8810 	mrs	r8, PRIMASK
10003dce:	b672      	cpsid	i
10003dd0:	4b55      	ldr	r3, [pc, #340]	; (10003f28 <irq_remove_handler+0x16c>)
10003dd2:	681b      	ldr	r3, [r3, #0]
10003dd4:	2b00      	cmp	r3, #0
10003dd6:	d0fb      	beq.n	10003dd0 <irq_remove_handler+0x14>
10003dd8:	f3bf 8f5f 	dmb	sy
10003ddc:	4b53      	ldr	r3, [pc, #332]	; (10003f2c <irq_remove_handler+0x170>)
10003dde:	689a      	ldr	r2, [r3, #8]
10003de0:	0034      	movs	r4, r6
10003de2:	3410      	adds	r4, #16
10003de4:	00a3      	lsls	r3, r4, #2
10003de6:	58d7      	ldr	r7, [r2, r3]
10003de8:	4b51      	ldr	r3, [pc, #324]	; (10003f30 <irq_remove_handler+0x174>)
10003dea:	429f      	cmp	r7, r3
10003dec:	d007      	beq.n	10003dfe <irq_remove_handler+0x42>
10003dee:	42af      	cmp	r7, r5
10003df0:	d100      	bne.n	10003df4 <irq_remove_handler+0x38>
10003df2:	e096      	b.n	10003f22 <irq_remove_handler+0x166>
10003df4:	9701      	str	r7, [sp, #4]
10003df6:	4b4f      	ldr	r3, [pc, #316]	; (10003f34 <irq_remove_handler+0x178>)
10003df8:	1afb      	subs	r3, r7, r3
10003dfa:	2b2f      	cmp	r3, #47	; 0x2f
10003dfc:	d909      	bls.n	10003e12 <irq_remove_handler+0x56>
10003dfe:	4642      	mov	r2, r8
10003e00:	0039      	movs	r1, r7
10003e02:	0030      	movs	r0, r6
10003e04:	f7ff fdfa 	bl	100039fc <set_raw_irq_handler_and_unlock>
10003e08:	b003      	add	sp, #12
10003e0a:	bcc0      	pop	{r6, r7}
10003e0c:	46b9      	mov	r9, r7
10003e0e:	46b0      	mov	r8, r6
10003e10:	bdf0      	pop	{r4, r5, r6, r7, pc}
10003e12:	0030      	movs	r0, r6
10003e14:	f7ff fe4a 	bl	10003aac <irq_is_enabled>
10003e18:	4681      	mov	r9, r0
10003e1a:	2100      	movs	r1, #0
10003e1c:	0030      	movs	r0, r6
10003e1e:	f7ff fe61 	bl	10003ae4 <irq_set_enabled>
10003e22:	f3bf 8f5f 	dmb	sy
10003e26:	f3ef 8105 	mrs	r1, IPSR
10003e2a:	2900      	cmp	r1, #0
10003e2c:	d001      	beq.n	10003e32 <irq_remove_handler+0x76>
10003e2e:	428c      	cmp	r4, r1
10003e30:	d111      	bne.n	10003e56 <irq_remove_handler+0x9a>
10003e32:	2301      	movs	r3, #1
10003e34:	9c01      	ldr	r4, [sp, #4]
10003e36:	439c      	bics	r4, r3
10003e38:	2000      	movs	r0, #0
10003e3a:	68a3      	ldr	r3, [r4, #8]
10003e3c:	42ab      	cmp	r3, r5
10003e3e:	d012      	beq.n	10003e66 <irq_remove_handler+0xaa>
10003e40:	2206      	movs	r2, #6
10003e42:	56a2      	ldrsb	r2, [r4, r2]
10003e44:	2a00      	cmp	r2, #0
10003e46:	db0d      	blt.n	10003e64 <irq_remove_handler+0xa8>
10003e48:	0053      	lsls	r3, r2, #1
10003e4a:	189b      	adds	r3, r3, r2
10003e4c:	009b      	lsls	r3, r3, #2
10003e4e:	4a39      	ldr	r2, [pc, #228]	; (10003f34 <irq_remove_handler+0x178>)
10003e50:	0020      	movs	r0, r4
10003e52:	18d4      	adds	r4, r2, r3
10003e54:	e7f1      	b.n	10003e3a <irq_remove_handler+0x7e>
10003e56:	4b38      	ldr	r3, [pc, #224]	; (10003f38 <irq_remove_handler+0x17c>)
10003e58:	4a38      	ldr	r2, [pc, #224]	; (10003f3c <irq_remove_handler+0x180>)
10003e5a:	2136      	movs	r1, #54	; 0x36
10003e5c:	4838      	ldr	r0, [pc, #224]	; (10003f40 <irq_remove_handler+0x184>)
10003e5e:	31ff      	adds	r1, #255	; 0xff
10003e60:	f001 fd82 	bl	10005968 <__assert_func>
10003e64:	0020      	movs	r0, r4
10003e66:	42ab      	cmp	r3, r5
10003e68:	d154      	bne.n	10003f14 <irq_remove_handler+0x158>
10003e6a:	2506      	movs	r5, #6
10003e6c:	5765      	ldrsb	r5, [r4, r5]
10003e6e:	2d00      	cmp	r5, #0
10003e70:	db36      	blt.n	10003ee0 <irq_remove_handler+0x124>
10003e72:	4b30      	ldr	r3, [pc, #192]	; (10003f34 <irq_remove_handler+0x178>)
10003e74:	006a      	lsls	r2, r5, #1
10003e76:	1952      	adds	r2, r2, r5
10003e78:	0092      	lsls	r2, r2, #2
10003e7a:	189b      	adds	r3, r3, r2
10003e7c:	689a      	ldr	r2, [r3, #8]
10003e7e:	60a2      	str	r2, [r4, #8]
10003e80:	79da      	ldrb	r2, [r3, #7]
10003e82:	71e2      	strb	r2, [r4, #7]
10003e84:	799b      	ldrb	r3, [r3, #6]
10003e86:	b25b      	sxtb	r3, r3
10003e88:	71a3      	strb	r3, [r4, #6]
10003e8a:	2b00      	cmp	r3, #0
10003e8c:	da0f      	bge.n	10003eae <irq_remove_handler+0xf2>
10003e8e:	482d      	ldr	r0, [pc, #180]	; (10003f44 <irq_remove_handler+0x188>)
10003e90:	80a0      	strh	r0, [r4, #4]
10003e92:	4b28      	ldr	r3, [pc, #160]	; (10003f34 <irq_remove_handler+0x178>)
10003e94:	006a      	lsls	r2, r5, #1
10003e96:	1952      	adds	r2, r2, r5
10003e98:	0092      	lsls	r2, r2, #2
10003e9a:	189b      	adds	r3, r3, r2
10003e9c:	4a2a      	ldr	r2, [pc, #168]	; (10003f48 <irq_remove_handler+0x18c>)
10003e9e:	7811      	ldrb	r1, [r2, #0]
10003ea0:	7199      	strb	r1, [r3, #6]
10003ea2:	7015      	strb	r5, [r2, #0]
10003ea4:	4649      	mov	r1, r9
10003ea6:	0030      	movs	r0, r6
10003ea8:	f7ff fe1c 	bl	10003ae4 <irq_set_enabled>
10003eac:	e7a7      	b.n	10003dfe <irq_remove_handler+0x42>
10003eae:	1d20      	adds	r0, r4, #4
10003eb0:	006b      	lsls	r3, r5, #1
10003eb2:	195b      	adds	r3, r3, r5
10003eb4:	009b      	lsls	r3, r3, #2
10003eb6:	4a1f      	ldr	r2, [pc, #124]	; (10003f34 <irq_remove_handler+0x178>)
10003eb8:	189b      	adds	r3, r3, r2
10003eba:	1d19      	adds	r1, r3, #4
10003ebc:	889b      	ldrh	r3, [r3, #4]
10003ebe:	0ada      	lsrs	r2, r3, #11
10003ec0:	2a1c      	cmp	r2, #28
10003ec2:	d107      	bne.n	10003ed4 <irq_remove_handler+0x118>
10003ec4:	055b      	lsls	r3, r3, #21
10003ec6:	155b      	asrs	r3, r3, #21
10003ec8:	3302      	adds	r3, #2
10003eca:	005b      	lsls	r3, r3, #1
10003ecc:	18c9      	adds	r1, r1, r3
10003ece:	f7ff fda9 	bl	10003a24 <make_branch>
10003ed2:	e7dd      	b.n	10003e90 <irq_remove_handler+0xd4>
10003ed4:	4b1d      	ldr	r3, [pc, #116]	; (10003f4c <irq_remove_handler+0x190>)
10003ed6:	4a1e      	ldr	r2, [pc, #120]	; (10003f50 <irq_remove_handler+0x194>)
10003ed8:	4819      	ldr	r0, [pc, #100]	; (10003f40 <irq_remove_handler+0x184>)
10003eda:	21b1      	movs	r1, #177	; 0xb1
10003edc:	f001 fd44 	bl	10005968 <__assert_func>
10003ee0:	2900      	cmp	r1, #0
10003ee2:	d112      	bne.n	10003f0a <irq_remove_handler+0x14e>
10003ee4:	2800      	cmp	r0, #0
10003ee6:	d00e      	beq.n	10003f06 <irq_remove_handler+0x14a>
10003ee8:	23ff      	movs	r3, #255	; 0xff
10003eea:	7183      	strb	r3, [r0, #6]
10003eec:	4b19      	ldr	r3, [pc, #100]	; (10003f54 <irq_remove_handler+0x198>)
10003eee:	8083      	strh	r3, [r0, #4]
10003ef0:	4915      	ldr	r1, [pc, #84]	; (10003f48 <irq_remove_handler+0x18c>)
10003ef2:	780b      	ldrb	r3, [r1, #0]
10003ef4:	71a3      	strb	r3, [r4, #6]
10003ef6:	4a0f      	ldr	r2, [pc, #60]	; (10003f34 <irq_remove_handler+0x178>)
10003ef8:	4b17      	ldr	r3, [pc, #92]	; (10003f58 <irq_remove_handler+0x19c>)
10003efa:	1aa4      	subs	r4, r4, r2
10003efc:	4164      	adcs	r4, r4
10003efe:	4363      	muls	r3, r4
10003f00:	0d1b      	lsrs	r3, r3, #20
10003f02:	700b      	strb	r3, [r1, #0]
10003f04:	e7ce      	b.n	10003ea4 <irq_remove_handler+0xe8>
10003f06:	4f0a      	ldr	r7, [pc, #40]	; (10003f30 <irq_remove_handler+0x174>)
10003f08:	e7f2      	b.n	10003ef0 <irq_remove_handler+0x134>
10003f0a:	4914      	ldr	r1, [pc, #80]	; (10003f5c <irq_remove_handler+0x1a0>)
10003f0c:	1d20      	adds	r0, r4, #4
10003f0e:	f7ff fdad 	bl	10003a6c <insert_branch_and_link>
10003f12:	e7c7      	b.n	10003ea4 <irq_remove_handler+0xe8>
10003f14:	4b12      	ldr	r3, [pc, #72]	; (10003f60 <irq_remove_handler+0x1a4>)
10003f16:	4a09      	ldr	r2, [pc, #36]	; (10003f3c <irq_remove_handler+0x180>)
10003f18:	216a      	movs	r1, #106	; 0x6a
10003f1a:	4809      	ldr	r0, [pc, #36]	; (10003f40 <irq_remove_handler+0x184>)
10003f1c:	31ff      	adds	r1, #255	; 0xff
10003f1e:	f001 fd23 	bl	10005968 <__assert_func>
10003f22:	4f03      	ldr	r7, [pc, #12]	; (10003f30 <irq_remove_handler+0x174>)
10003f24:	e76b      	b.n	10003dfe <irq_remove_handler+0x42>
10003f26:	46c0      	nop			; (mov r8, r8)
10003f28:	d0000124 	.word	0xd0000124
10003f2c:	e000ed00 	.word	0xe000ed00
10003f30:	100001cd 	.word	0x100001cd
10003f34:	20000b9c 	.word	0x20000b9c
10003f38:	1000b024 	.word	0x1000b024
10003f3c:	1000b0ec 	.word	0x1000b0ec
10003f40:	1000aec0 	.word	0x1000aec0
10003f44:	0000bd01 	.word	0x0000bd01
10003f48:	20001f69 	.word	0x20001f69
10003f4c:	1000b00c 	.word	0x1000b00c
10003f50:	1000b10c 	.word	0x1000b10c
10003f54:	ffffbd01 	.word	0xffffbd01
10003f58:	0000aaaa 	.word	0x0000aaaa
10003f5c:	20000bd6 	.word	0x20000bd6
10003f60:	1000b058 	.word	0x1000b058

10003f64 <irq_add_tail_to_free_list>:
10003f64:	b570      	push	{r4, r5, r6, lr}
10003f66:	2201      	movs	r2, #1
10003f68:	4302      	orrs	r2, r0
10003f6a:	4b2e      	ldr	r3, [pc, #184]	; (10004024 <irq_add_tail_to_free_list+0xc0>)
10003f6c:	1ad3      	subs	r3, r2, r3
10003f6e:	2b2f      	cmp	r3, #47	; 0x2f
10003f70:	d828      	bhi.n	10003fc4 <irq_add_tail_to_free_list+0x60>
10003f72:	f3ef 8305 	mrs	r3, IPSR
10003f76:	2b00      	cmp	r3, #0
10003f78:	d02b      	beq.n	10003fd2 <irq_add_tail_to_free_list+0x6e>
10003f7a:	f3ef 8c10 	mrs	ip, PRIMASK
10003f7e:	b672      	cpsid	i
10003f80:	4929      	ldr	r1, [pc, #164]	; (10004028 <irq_add_tail_to_free_list+0xc4>)
10003f82:	6809      	ldr	r1, [r1, #0]
10003f84:	2900      	cmp	r1, #0
10003f86:	d0fb      	beq.n	10003f80 <irq_add_tail_to_free_list+0x1c>
10003f88:	f3bf 8f5f 	dmb	sy
10003f8c:	4c25      	ldr	r4, [pc, #148]	; (10004024 <irq_add_tail_to_free_list+0xc0>)
10003f8e:	4927      	ldr	r1, [pc, #156]	; (1000402c <irq_add_tail_to_free_list+0xc8>)
10003f90:	0005      	movs	r5, r0
10003f92:	1b2d      	subs	r5, r5, r4
10003f94:	416d      	adcs	r5, r5
10003f96:	4369      	muls	r1, r5
10003f98:	0d09      	lsrs	r1, r1, #20
10003f9a:	b24c      	sxtb	r4, r1
10003f9c:	4924      	ldr	r1, [pc, #144]	; (10004030 <irq_add_tail_to_free_list+0xcc>)
10003f9e:	6889      	ldr	r1, [r1, #8]
10003fa0:	009b      	lsls	r3, r3, #2
10003fa2:	58c9      	ldr	r1, [r1, r3]
10003fa4:	4291      	cmp	r1, r2
10003fa6:	d01b      	beq.n	10003fe0 <irq_add_tail_to_free_list+0x7c>
10003fa8:	2100      	movs	r1, #0
10003faa:	2903      	cmp	r1, #3
10003fac:	d832      	bhi.n	10004014 <irq_add_tail_to_free_list+0xb0>
10003fae:	4b1d      	ldr	r3, [pc, #116]	; (10004024 <irq_add_tail_to_free_list+0xc0>)
10003fb0:	004a      	lsls	r2, r1, #1
10003fb2:	1852      	adds	r2, r2, r1
10003fb4:	0092      	lsls	r2, r2, #2
10003fb6:	189b      	adds	r3, r3, r2
10003fb8:	799b      	ldrb	r3, [r3, #6]
10003fba:	b25b      	sxtb	r3, r3
10003fbc:	42a3      	cmp	r3, r4
10003fbe:	d01f      	beq.n	10004000 <irq_add_tail_to_free_list+0x9c>
10003fc0:	3101      	adds	r1, #1
10003fc2:	e7f2      	b.n	10003faa <irq_add_tail_to_free_list+0x46>
10003fc4:	4b1b      	ldr	r3, [pc, #108]	; (10004034 <irq_add_tail_to_free_list+0xd0>)
10003fc6:	4a1c      	ldr	r2, [pc, #112]	; (10004038 <irq_add_tail_to_free_list+0xd4>)
10003fc8:	21c7      	movs	r1, #199	; 0xc7
10003fca:	481c      	ldr	r0, [pc, #112]	; (1000403c <irq_add_tail_to_free_list+0xd8>)
10003fcc:	0049      	lsls	r1, r1, #1
10003fce:	f001 fccb 	bl	10005968 <__assert_func>
10003fd2:	4b1b      	ldr	r3, [pc, #108]	; (10004040 <irq_add_tail_to_free_list+0xdc>)
10003fd4:	4a18      	ldr	r2, [pc, #96]	; (10004038 <irq_add_tail_to_free_list+0xd4>)
10003fd6:	2192      	movs	r1, #146	; 0x92
10003fd8:	4818      	ldr	r0, [pc, #96]	; (1000403c <irq_add_tail_to_free_list+0xd8>)
10003fda:	31ff      	adds	r1, #255	; 0xff
10003fdc:	f001 fcc4 	bl	10005968 <__assert_func>
10003fe0:	4a13      	ldr	r2, [pc, #76]	; (10004030 <irq_add_tail_to_free_list+0xcc>)
10003fe2:	6892      	ldr	r2, [r2, #8]
10003fe4:	4917      	ldr	r1, [pc, #92]	; (10004044 <irq_add_tail_to_free_list+0xe0>)
10003fe6:	50d1      	str	r1, [r2, r3]
10003fe8:	4b17      	ldr	r3, [pc, #92]	; (10004048 <irq_add_tail_to_free_list+0xe4>)
10003fea:	781a      	ldrb	r2, [r3, #0]
10003fec:	7182      	strb	r2, [r0, #6]
10003fee:	701c      	strb	r4, [r3, #0]
10003ff0:	f3bf 8f5f 	dmb	sy
10003ff4:	4b0c      	ldr	r3, [pc, #48]	; (10004028 <irq_add_tail_to_free_list+0xc4>)
10003ff6:	2200      	movs	r2, #0
10003ff8:	601a      	str	r2, [r3, #0]
10003ffa:	f38c 8810 	msr	PRIMASK, ip
10003ffe:	bd70      	pop	{r4, r5, r6, pc}
10004000:	4b08      	ldr	r3, [pc, #32]	; (10004024 <irq_add_tail_to_free_list+0xc0>)
10004002:	004a      	lsls	r2, r1, #1
10004004:	1855      	adds	r5, r2, r1
10004006:	00ad      	lsls	r5, r5, #2
10004008:	195d      	adds	r5, r3, r5
1000400a:	26ff      	movs	r6, #255	; 0xff
1000400c:	71ae      	strb	r6, [r5, #6]
1000400e:	4a0f      	ldr	r2, [pc, #60]	; (1000404c <irq_add_tail_to_free_list+0xe8>)
10004010:	80aa      	strh	r2, [r5, #4]
10004012:	e7e9      	b.n	10003fe8 <irq_add_tail_to_free_list+0x84>
10004014:	4b0e      	ldr	r3, [pc, #56]	; (10004050 <irq_add_tail_to_free_list+0xec>)
10004016:	4a08      	ldr	r2, [pc, #32]	; (10004038 <irq_add_tail_to_free_list+0xd4>)
10004018:	21d1      	movs	r1, #209	; 0xd1
1000401a:	4808      	ldr	r0, [pc, #32]	; (1000403c <irq_add_tail_to_free_list+0xd8>)
1000401c:	0049      	lsls	r1, r1, #1
1000401e:	f001 fca3 	bl	10005968 <__assert_func>
10004022:	46c0      	nop			; (mov r8, r8)
10004024:	20000b9c 	.word	0x20000b9c
10004028:	d0000124 	.word	0xd0000124
1000402c:	0000aaaa 	.word	0x0000aaaa
10004030:	e000ed00 	.word	0xe000ed00
10004034:	1000b060 	.word	0x1000b060
10004038:	1000b0b8 	.word	0x1000b0b8
1000403c:	1000aec0 	.word	0x1000aec0
10004040:	1000b088 	.word	0x1000b088
10004044:	100001cd 	.word	0x100001cd
10004048:	20001f69 	.word	0x20001f69
1000404c:	ffffbd01 	.word	0xffffbd01
10004050:	1000b094 	.word	0x1000b094

10004054 <irq_init_priorities>:
10004054:	2200      	movs	r2, #0
10004056:	4b04      	ldr	r3, [pc, #16]	; (10004068 <irq_init_priorities+0x14>)
10004058:	e002      	b.n	10004060 <irq_init_priorities+0xc>
1000405a:	4904      	ldr	r1, [pc, #16]	; (1000406c <irq_init_priorities+0x18>)
1000405c:	c302      	stmia	r3!, {r1}
1000405e:	3201      	adds	r2, #1
10004060:	2a07      	cmp	r2, #7
10004062:	d9fa      	bls.n	1000405a <irq_init_priorities+0x6>
10004064:	4770      	bx	lr
10004066:	46c0      	nop			; (mov r8, r8)
10004068:	e000e400 	.word	0xe000e400
1000406c:	80808080 	.word	0x80808080

10004070 <user_irq_claim_unused>:
10004070:	b510      	push	{r4, lr}
10004072:	b082      	sub	sp, #8
10004074:	0001      	movs	r1, r0
10004076:	4c07      	ldr	r4, [pc, #28]	; (10004094 <user_irq_claim_unused+0x24>)
10004078:	4b07      	ldr	r3, [pc, #28]	; (10004098 <user_irq_claim_unused+0x28>)
1000407a:	9300      	str	r3, [sp, #0]
1000407c:	2305      	movs	r3, #5
1000407e:	2200      	movs	r2, #0
10004080:	0020      	movs	r0, r4
10004082:	f7ff fc62 	bl	1000394a <hw_claim_unused_from_range>
10004086:	2800      	cmp	r0, #0
10004088:	db01      	blt.n	1000408e <user_irq_claim_unused+0x1e>
1000408a:	231f      	movs	r3, #31
1000408c:	1a18      	subs	r0, r3, r0
1000408e:	b002      	add	sp, #8
10004090:	bd10      	pop	{r4, pc}
10004092:	46c0      	nop			; (mov r8, r8)
10004094:	20001f70 	.word	0x20001f70
10004098:	1000b09c 	.word	0x1000b09c

1000409c <lock_init>:
1000409c:	4b02      	ldr	r3, [pc, #8]	; (100040a8 <lock_init+0xc>)
1000409e:	469c      	mov	ip, r3
100040a0:	4461      	add	r1, ip
100040a2:	0089      	lsls	r1, r1, #2
100040a4:	6001      	str	r1, [r0, #0]
100040a6:	4770      	bx	lr
100040a8:	34000040 	.word	0x34000040

100040ac <mutex_init>:
100040ac:	b510      	push	{r4, lr}
100040ae:	0004      	movs	r4, r0
100040b0:	f7ff fc84 	bl	100039bc <next_striped_spin_lock_num>
100040b4:	0001      	movs	r1, r0
100040b6:	0020      	movs	r0, r4
100040b8:	f7ff fff0 	bl	1000409c <lock_init>
100040bc:	23ff      	movs	r3, #255	; 0xff
100040be:	7123      	strb	r3, [r4, #4]
100040c0:	f3bf 8f5f 	dmb	sy
100040c4:	bd10      	pop	{r4, pc}

100040c6 <recursive_mutex_init>:
100040c6:	b510      	push	{r4, lr}
100040c8:	0004      	movs	r4, r0
100040ca:	f7ff fc77 	bl	100039bc <next_striped_spin_lock_num>
100040ce:	0001      	movs	r1, r0
100040d0:	0020      	movs	r0, r4
100040d2:	f7ff ffe3 	bl	1000409c <lock_init>
100040d6:	23ff      	movs	r3, #255	; 0xff
100040d8:	7123      	strb	r3, [r4, #4]
100040da:	2300      	movs	r3, #0
100040dc:	7163      	strb	r3, [r4, #5]
100040de:	f3bf 8f5f 	dmb	sy
100040e2:	bd10      	pop	{r4, pc}

100040e4 <critical_section_init_with_lock_num>:
100040e4:	4b03      	ldr	r3, [pc, #12]	; (100040f4 <critical_section_init_with_lock_num+0x10>)
100040e6:	469c      	mov	ip, r3
100040e8:	4461      	add	r1, ip
100040ea:	0089      	lsls	r1, r1, #2
100040ec:	6001      	str	r1, [r0, #0]
100040ee:	f3bf 8f5f 	dmb	sy
100040f2:	4770      	bx	lr
100040f4:	34000040 	.word	0x34000040

100040f8 <critical_section_init>:
100040f8:	b510      	push	{r4, lr}
100040fa:	0004      	movs	r4, r0
100040fc:	2001      	movs	r0, #1
100040fe:	f7ff fc6b 	bl	100039d8 <spin_lock_claim_unused>
10004102:	0001      	movs	r1, r0
10004104:	0020      	movs	r0, r4
10004106:	f7ff ffed 	bl	100040e4 <critical_section_init_with_lock_num>
1000410a:	bd10      	pop	{r4, pc}

1000410c <repeating_timer_callback>:
1000410c:	b510      	push	{r4, lr}
1000410e:	000c      	movs	r4, r1
10004110:	68cb      	ldr	r3, [r1, #12]
10004112:	4283      	cmp	r3, r0
10004114:	d107      	bne.n	10004126 <repeating_timer_callback+0x1a>
10004116:	690b      	ldr	r3, [r1, #16]
10004118:	0008      	movs	r0, r1
1000411a:	4798      	blx	r3
1000411c:	2800      	cmp	r0, #0
1000411e:	d009      	beq.n	10004134 <repeating_timer_callback+0x28>
10004120:	6820      	ldr	r0, [r4, #0]
10004122:	6861      	ldr	r1, [r4, #4]
10004124:	bd10      	pop	{r4, pc}
10004126:	4b06      	ldr	r3, [pc, #24]	; (10004140 <repeating_timer_callback+0x34>)
10004128:	4a06      	ldr	r2, [pc, #24]	; (10004144 <repeating_timer_callback+0x38>)
1000412a:	21a8      	movs	r1, #168	; 0xa8
1000412c:	4806      	ldr	r0, [pc, #24]	; (10004148 <repeating_timer_callback+0x3c>)
1000412e:	0049      	lsls	r1, r1, #1
10004130:	f001 fc1a 	bl	10005968 <__assert_func>
10004134:	2300      	movs	r3, #0
10004136:	60e3      	str	r3, [r4, #12]
10004138:	2000      	movs	r0, #0
1000413a:	2100      	movs	r1, #0
1000413c:	e7f2      	b.n	10004124 <repeating_timer_callback+0x18>
1000413e:	46c0      	nop			; (mov r8, r8)
10004140:	1000b27c 	.word	0x1000b27c
10004144:	1000b4e0 	.word	0x1000b4e0
10004148:	1000b290 	.word	0x1000b290

1000414c <alarm_pool_post_alloc_init>:
1000414c:	b570      	push	{r4, r5, r6, lr}
1000414e:	0005      	movs	r5, r0
10004150:	000c      	movs	r4, r1
10004152:	0008      	movs	r0, r1
10004154:	f000 ff18 	bl	10004f88 <hardware_alarm_cancel>
10004158:	4909      	ldr	r1, [pc, #36]	; (10004180 <alarm_pool_post_alloc_init+0x34>)
1000415a:	0020      	movs	r0, r4
1000415c:	f000 fe58 	bl	10004e10 <hardware_alarm_set_callback>
10004160:	f7ff fc2c 	bl	100039bc <next_striped_spin_lock_num>
10004164:	4b07      	ldr	r3, [pc, #28]	; (10004184 <alarm_pool_post_alloc_init+0x38>)
10004166:	469c      	mov	ip, r3
10004168:	4460      	add	r0, ip
1000416a:	0080      	lsls	r0, r0, #2
1000416c:	6068      	str	r0, [r5, #4]
1000416e:	752c      	strb	r4, [r5, #20]
10004170:	23d0      	movs	r3, #208	; 0xd0
10004172:	061b      	lsls	r3, r3, #24
10004174:	781b      	ldrb	r3, [r3, #0]
10004176:	756b      	strb	r3, [r5, #21]
10004178:	4b03      	ldr	r3, [pc, #12]	; (10004188 <alarm_pool_post_alloc_init+0x3c>)
1000417a:	00a4      	lsls	r4, r4, #2
1000417c:	50e5      	str	r5, [r4, r3]
1000417e:	bd70      	pop	{r4, r5, r6, pc}
10004180:	10004481 	.word	0x10004481
10004184:	34000040 	.word	0x34000040
10004188:	20001cf0 	.word	0x20001cf0

1000418c <sleep_until_callback>:
1000418c:	4b0a      	ldr	r3, [pc, #40]	; (100041b8 <sleep_until_callback+0x2c>)
1000418e:	681a      	ldr	r2, [r3, #0]
10004190:	f3ef 8110 	mrs	r1, PRIMASK
10004194:	b672      	cpsid	i
10004196:	6813      	ldr	r3, [r2, #0]
10004198:	2b00      	cmp	r3, #0
1000419a:	d0fc      	beq.n	10004196 <sleep_until_callback+0xa>
1000419c:	f3bf 8f5f 	dmb	sy
100041a0:	4b05      	ldr	r3, [pc, #20]	; (100041b8 <sleep_until_callback+0x2c>)
100041a2:	681b      	ldr	r3, [r3, #0]
100041a4:	f3bf 8f5f 	dmb	sy
100041a8:	2200      	movs	r2, #0
100041aa:	601a      	str	r2, [r3, #0]
100041ac:	f381 8810 	msr	PRIMASK, r1
100041b0:	bf40      	sev
100041b2:	2000      	movs	r0, #0
100041b4:	2100      	movs	r1, #0
100041b6:	4770      	bx	lr
100041b8:	20001f0c 	.word	0x20001f0c

100041bc <timer_pool_entry_comparator>:
100041bc:	b510      	push	{r4, lr}
100041be:	2900      	cmp	r1, #0
100041c0:	d020      	beq.n	10004204 <timer_pool_entry_comparator+0x48>
100041c2:	6803      	ldr	r3, [r0, #0]
100041c4:	7b1b      	ldrb	r3, [r3, #12]
100041c6:	4299      	cmp	r1, r3
100041c8:	d81c      	bhi.n	10004204 <timer_pool_entry_comparator+0x48>
100041ca:	6883      	ldr	r3, [r0, #8]
100041cc:	4c15      	ldr	r4, [pc, #84]	; (10004224 <timer_pool_entry_comparator+0x68>)
100041ce:	46a4      	mov	ip, r4
100041d0:	4461      	add	r1, ip
100041d2:	0109      	lsls	r1, r1, #4
100041d4:	185b      	adds	r3, r3, r1
100041d6:	681c      	ldr	r4, [r3, #0]
100041d8:	6859      	ldr	r1, [r3, #4]
100041da:	2a00      	cmp	r2, #0
100041dc:	d018      	beq.n	10004210 <timer_pool_entry_comparator+0x54>
100041de:	6803      	ldr	r3, [r0, #0]
100041e0:	7b1b      	ldrb	r3, [r3, #12]
100041e2:	429a      	cmp	r2, r3
100041e4:	d814      	bhi.n	10004210 <timer_pool_entry_comparator+0x54>
100041e6:	6883      	ldr	r3, [r0, #8]
100041e8:	480e      	ldr	r0, [pc, #56]	; (10004224 <timer_pool_entry_comparator+0x68>)
100041ea:	4684      	mov	ip, r0
100041ec:	4462      	add	r2, ip
100041ee:	0112      	lsls	r2, r2, #4
100041f0:	189b      	adds	r3, r3, r2
100041f2:	681a      	ldr	r2, [r3, #0]
100041f4:	685b      	ldr	r3, [r3, #4]
100041f6:	2001      	movs	r0, #1
100041f8:	428b      	cmp	r3, r1
100041fa:	d801      	bhi.n	10004200 <timer_pool_entry_comparator+0x44>
100041fc:	d00e      	beq.n	1000421c <timer_pool_entry_comparator+0x60>
100041fe:	2000      	movs	r0, #0
10004200:	b2c0      	uxtb	r0, r0
10004202:	bd10      	pop	{r4, pc}
10004204:	4b08      	ldr	r3, [pc, #32]	; (10004228 <timer_pool_entry_comparator+0x6c>)
10004206:	4a09      	ldr	r2, [pc, #36]	; (1000422c <timer_pool_entry_comparator+0x70>)
10004208:	4809      	ldr	r0, [pc, #36]	; (10004230 <timer_pool_entry_comparator+0x74>)
1000420a:	213c      	movs	r1, #60	; 0x3c
1000420c:	f001 fbac 	bl	10005968 <__assert_func>
10004210:	4b05      	ldr	r3, [pc, #20]	; (10004228 <timer_pool_entry_comparator+0x6c>)
10004212:	4a06      	ldr	r2, [pc, #24]	; (1000422c <timer_pool_entry_comparator+0x70>)
10004214:	4806      	ldr	r0, [pc, #24]	; (10004230 <timer_pool_entry_comparator+0x74>)
10004216:	213c      	movs	r1, #60	; 0x3c
10004218:	f001 fba6 	bl	10005968 <__assert_func>
1000421c:	42a2      	cmp	r2, r4
1000421e:	d8ef      	bhi.n	10004200 <timer_pool_entry_comparator+0x44>
10004220:	e7ed      	b.n	100041fe <timer_pool_entry_comparator+0x42>
10004222:	46c0      	nop			; (mov r8, r8)
10004224:	0fffffff 	.word	0x0fffffff
10004228:	1000b2c8 	.word	0x1000b2c8
1000422c:	1000b548 	.word	0x1000b548
10004230:	1000b290 	.word	0x1000b290

10004234 <ph_add_child_node>:
10004234:	b510      	push	{r4, lr}
10004236:	2900      	cmp	r1, #0
10004238:	d01d      	beq.n	10004276 <ph_add_child_node+0x42>
1000423a:	7b03      	ldrb	r3, [r0, #12]
1000423c:	4299      	cmp	r1, r3
1000423e:	d81a      	bhi.n	10004276 <ph_add_child_node+0x42>
10004240:	6804      	ldr	r4, [r0, #0]
10004242:	004b      	lsls	r3, r1, #1
10004244:	185b      	adds	r3, r3, r1
10004246:	3b03      	subs	r3, #3
10004248:	18e4      	adds	r4, r4, r3
1000424a:	2900      	cmp	r1, #0
1000424c:	d019      	beq.n	10004282 <ph_add_child_node+0x4e>
1000424e:	2a00      	cmp	r2, #0
10004250:	d01d      	beq.n	1000428e <ph_add_child_node+0x5a>
10004252:	4291      	cmp	r1, r2
10004254:	d021      	beq.n	1000429a <ph_add_child_node+0x66>
10004256:	2a00      	cmp	r2, #0
10004258:	d025      	beq.n	100042a6 <ph_add_child_node+0x72>
1000425a:	7b03      	ldrb	r3, [r0, #12]
1000425c:	429a      	cmp	r2, r3
1000425e:	d822      	bhi.n	100042a6 <ph_add_child_node+0x72>
10004260:	6800      	ldr	r0, [r0, #0]
10004262:	0053      	lsls	r3, r2, #1
10004264:	189b      	adds	r3, r3, r2
10004266:	3b03      	subs	r3, #3
10004268:	18c3      	adds	r3, r0, r3
1000426a:	7099      	strb	r1, [r3, #2]
1000426c:	7821      	ldrb	r1, [r4, #0]
1000426e:	2900      	cmp	r1, #0
10004270:	d11f      	bne.n	100042b2 <ph_add_child_node+0x7e>
10004272:	7022      	strb	r2, [r4, #0]
10004274:	bd10      	pop	{r4, pc}
10004276:	4b10      	ldr	r3, [pc, #64]	; (100042b8 <ph_add_child_node+0x84>)
10004278:	4a10      	ldr	r2, [pc, #64]	; (100042bc <ph_add_child_node+0x88>)
1000427a:	4811      	ldr	r0, [pc, #68]	; (100042c0 <ph_add_child_node+0x8c>)
1000427c:	2168      	movs	r1, #104	; 0x68
1000427e:	f001 fb73 	bl	10005968 <__assert_func>
10004282:	4b10      	ldr	r3, [pc, #64]	; (100042c4 <ph_add_child_node+0x90>)
10004284:	4a10      	ldr	r2, [pc, #64]	; (100042c8 <ph_add_child_node+0x94>)
10004286:	480e      	ldr	r0, [pc, #56]	; (100042c0 <ph_add_child_node+0x8c>)
10004288:	316f      	adds	r1, #111	; 0x6f
1000428a:	f001 fb6d 	bl	10005968 <__assert_func>
1000428e:	4b0f      	ldr	r3, [pc, #60]	; (100042cc <ph_add_child_node+0x98>)
10004290:	4a0d      	ldr	r2, [pc, #52]	; (100042c8 <ph_add_child_node+0x94>)
10004292:	480b      	ldr	r0, [pc, #44]	; (100042c0 <ph_add_child_node+0x8c>)
10004294:	2170      	movs	r1, #112	; 0x70
10004296:	f001 fb67 	bl	10005968 <__assert_func>
1000429a:	4b0d      	ldr	r3, [pc, #52]	; (100042d0 <ph_add_child_node+0x9c>)
1000429c:	4a0a      	ldr	r2, [pc, #40]	; (100042c8 <ph_add_child_node+0x94>)
1000429e:	4808      	ldr	r0, [pc, #32]	; (100042c0 <ph_add_child_node+0x8c>)
100042a0:	2171      	movs	r1, #113	; 0x71
100042a2:	f001 fb61 	bl	10005968 <__assert_func>
100042a6:	4b04      	ldr	r3, [pc, #16]	; (100042b8 <ph_add_child_node+0x84>)
100042a8:	4a04      	ldr	r2, [pc, #16]	; (100042bc <ph_add_child_node+0x88>)
100042aa:	4805      	ldr	r0, [pc, #20]	; (100042c0 <ph_add_child_node+0x8c>)
100042ac:	2168      	movs	r1, #104	; 0x68
100042ae:	f001 fb5b 	bl	10005968 <__assert_func>
100042b2:	7059      	strb	r1, [r3, #1]
100042b4:	7022      	strb	r2, [r4, #0]
100042b6:	e7dd      	b.n	10004274 <ph_add_child_node+0x40>
100042b8:	1000b2ec 	.word	0x1000b2ec
100042bc:	1000b5b4 	.word	0x1000b5b4
100042c0:	1000b308 	.word	0x1000b308
100042c4:	1000b354 	.word	0x1000b354
100042c8:	1000b590 	.word	0x1000b590
100042cc:	1000b360 	.word	0x1000b360
100042d0:	1000b36c 	.word	0x1000b36c

100042d4 <ph_merge_nodes>:
100042d4:	b570      	push	{r4, r5, r6, lr}
100042d6:	0006      	movs	r6, r0
100042d8:	000d      	movs	r5, r1
100042da:	0014      	movs	r4, r2
100042dc:	2900      	cmp	r1, #0
100042de:	d014      	beq.n	1000430a <ph_merge_nodes+0x36>
100042e0:	2a00      	cmp	r2, #0
100042e2:	d014      	beq.n	1000430e <ph_merge_nodes+0x3a>
100042e4:	6843      	ldr	r3, [r0, #4]
100042e6:	6880      	ldr	r0, [r0, #8]
100042e8:	4798      	blx	r3
100042ea:	2800      	cmp	r0, #0
100042ec:	d006      	beq.n	100042fc <ph_merge_nodes+0x28>
100042ee:	0022      	movs	r2, r4
100042f0:	0029      	movs	r1, r5
100042f2:	0030      	movs	r0, r6
100042f4:	f7ff ff9e 	bl	10004234 <ph_add_child_node>
100042f8:	0028      	movs	r0, r5
100042fa:	e007      	b.n	1000430c <ph_merge_nodes+0x38>
100042fc:	002a      	movs	r2, r5
100042fe:	0021      	movs	r1, r4
10004300:	0030      	movs	r0, r6
10004302:	f7ff ff97 	bl	10004234 <ph_add_child_node>
10004306:	0020      	movs	r0, r4
10004308:	e000      	b.n	1000430c <ph_merge_nodes+0x38>
1000430a:	0010      	movs	r0, r2
1000430c:	bd70      	pop	{r4, r5, r6, pc}
1000430e:	0008      	movs	r0, r1
10004310:	e7fc      	b.n	1000430c <ph_merge_nodes+0x38>
	...

10004314 <add_alarm_under_lock>:
10004314:	b5f0      	push	{r4, r5, r6, r7, lr}
10004316:	b083      	sub	sp, #12
10004318:	0005      	movs	r5, r0
1000431a:	9200      	str	r2, [sp, #0]
1000431c:	9301      	str	r3, [sp, #4]
1000431e:	ab0a      	add	r3, sp, #40	; 0x28
10004320:	781c      	ldrb	r4, [r3, #0]
10004322:	ab0b      	add	r3, sp, #44	; 0x2c
10004324:	781f      	ldrb	r7, [r3, #0]
10004326:	2c00      	cmp	r4, #0
10004328:	d026      	beq.n	10004378 <add_alarm_under_lock+0x64>
1000432a:	6803      	ldr	r3, [r0, #0]
1000432c:	7b5a      	ldrb	r2, [r3, #13]
1000432e:	4294      	cmp	r4, r2
10004330:	d107      	bne.n	10004342 <add_alarm_under_lock+0x2e>
10004332:	2301      	movs	r3, #1
10004334:	2b00      	cmp	r3, #0
10004336:	d119      	bne.n	1000436c <add_alarm_under_lock+0x58>
10004338:	2c00      	cmp	r4, #0
1000433a:	d13a      	bne.n	100043b2 <add_alarm_under_lock+0x9e>
1000433c:	0020      	movs	r0, r4
1000433e:	b003      	add	sp, #12
10004340:	bdf0      	pop	{r4, r5, r6, r7, pc}
10004342:	2c00      	cmp	r4, #0
10004344:	d00c      	beq.n	10004360 <add_alarm_under_lock+0x4c>
10004346:	7b1a      	ldrb	r2, [r3, #12]
10004348:	4294      	cmp	r4, r2
1000434a:	d809      	bhi.n	10004360 <add_alarm_under_lock+0x4c>
1000434c:	681a      	ldr	r2, [r3, #0]
1000434e:	0063      	lsls	r3, r4, #1
10004350:	191b      	adds	r3, r3, r4
10004352:	3b03      	subs	r3, #3
10004354:	18d3      	adds	r3, r2, r3
10004356:	789b      	ldrb	r3, [r3, #2]
10004358:	2b00      	cmp	r3, #0
1000435a:	d0eb      	beq.n	10004334 <add_alarm_under_lock+0x20>
1000435c:	2301      	movs	r3, #1
1000435e:	e7e9      	b.n	10004334 <add_alarm_under_lock+0x20>
10004360:	4b3c      	ldr	r3, [pc, #240]	; (10004454 <add_alarm_under_lock+0x140>)
10004362:	4a3d      	ldr	r2, [pc, #244]	; (10004458 <add_alarm_under_lock+0x144>)
10004364:	483d      	ldr	r0, [pc, #244]	; (1000445c <add_alarm_under_lock+0x148>)
10004366:	2168      	movs	r1, #104	; 0x68
10004368:	f001 fafe 	bl	10005968 <__assert_func>
1000436c:	4b3c      	ldr	r3, [pc, #240]	; (10004460 <add_alarm_under_lock+0x14c>)
1000436e:	4a3d      	ldr	r2, [pc, #244]	; (10004464 <add_alarm_under_lock+0x150>)
10004370:	483d      	ldr	r0, [pc, #244]	; (10004468 <add_alarm_under_lock+0x154>)
10004372:	2167      	movs	r1, #103	; 0x67
10004374:	f001 faf8 	bl	10005968 <__assert_func>
10004378:	6803      	ldr	r3, [r0, #0]
1000437a:	7b9c      	ldrb	r4, [r3, #14]
1000437c:	2c00      	cmp	r4, #0
1000437e:	d0db      	beq.n	10004338 <add_alarm_under_lock+0x24>
10004380:	d011      	beq.n	100043a6 <add_alarm_under_lock+0x92>
10004382:	7b1a      	ldrb	r2, [r3, #12]
10004384:	4294      	cmp	r4, r2
10004386:	d80e      	bhi.n	100043a6 <add_alarm_under_lock+0x92>
10004388:	681a      	ldr	r2, [r3, #0]
1000438a:	0061      	lsls	r1, r4, #1
1000438c:	1909      	adds	r1, r1, r4
1000438e:	3903      	subs	r1, #3
10004390:	1852      	adds	r2, r2, r1
10004392:	7851      	ldrb	r1, [r2, #1]
10004394:	7399      	strb	r1, [r3, #14]
10004396:	2900      	cmp	r1, #0
10004398:	d100      	bne.n	1000439c <add_alarm_under_lock+0x88>
1000439a:	73d9      	strb	r1, [r3, #15]
1000439c:	2300      	movs	r3, #0
1000439e:	7093      	strb	r3, [r2, #2]
100043a0:	7053      	strb	r3, [r2, #1]
100043a2:	7013      	strb	r3, [r2, #0]
100043a4:	e7c8      	b.n	10004338 <add_alarm_under_lock+0x24>
100043a6:	4b2b      	ldr	r3, [pc, #172]	; (10004454 <add_alarm_under_lock+0x140>)
100043a8:	4a2b      	ldr	r2, [pc, #172]	; (10004458 <add_alarm_under_lock+0x144>)
100043aa:	482c      	ldr	r0, [pc, #176]	; (1000445c <add_alarm_under_lock+0x148>)
100043ac:	2168      	movs	r1, #104	; 0x68
100043ae:	f001 fadb 	bl	10005968 <__assert_func>
100043b2:	2c00      	cmp	r4, #0
100043b4:	d037      	beq.n	10004426 <add_alarm_under_lock+0x112>
100043b6:	682b      	ldr	r3, [r5, #0]
100043b8:	7b1b      	ldrb	r3, [r3, #12]
100043ba:	429c      	cmp	r4, r3
100043bc:	d833      	bhi.n	10004426 <add_alarm_under_lock+0x112>
100043be:	68ab      	ldr	r3, [r5, #8]
100043c0:	4a2a      	ldr	r2, [pc, #168]	; (1000446c <add_alarm_under_lock+0x158>)
100043c2:	18a2      	adds	r2, r4, r2
100043c4:	0112      	lsls	r2, r2, #4
100043c6:	189b      	adds	r3, r3, r2
100043c8:	9a00      	ldr	r2, [sp, #0]
100043ca:	601a      	str	r2, [r3, #0]
100043cc:	9a01      	ldr	r2, [sp, #4]
100043ce:	605a      	str	r2, [r3, #4]
100043d0:	9a08      	ldr	r2, [sp, #32]
100043d2:	609a      	str	r2, [r3, #8]
100043d4:	9a09      	ldr	r2, [sp, #36]	; 0x24
100043d6:	60da      	str	r2, [r3, #12]
100043d8:	682e      	ldr	r6, [r5, #0]
100043da:	2c00      	cmp	r4, #0
100043dc:	d029      	beq.n	10004432 <add_alarm_under_lock+0x11e>
100043de:	d02e      	beq.n	1000443e <add_alarm_under_lock+0x12a>
100043e0:	7b33      	ldrb	r3, [r6, #12]
100043e2:	429c      	cmp	r4, r3
100043e4:	d82b      	bhi.n	1000443e <add_alarm_under_lock+0x12a>
100043e6:	6833      	ldr	r3, [r6, #0]
100043e8:	0062      	lsls	r2, r4, #1
100043ea:	1912      	adds	r2, r2, r4
100043ec:	3a03      	subs	r2, #3
100043ee:	189b      	adds	r3, r3, r2
100043f0:	2200      	movs	r2, #0
100043f2:	709a      	strb	r2, [r3, #2]
100043f4:	705a      	strb	r2, [r3, #1]
100043f6:	701a      	strb	r2, [r3, #0]
100043f8:	7b71      	ldrb	r1, [r6, #13]
100043fa:	0022      	movs	r2, r4
100043fc:	0030      	movs	r0, r6
100043fe:	f7ff ff69 	bl	100042d4 <ph_merge_nodes>
10004402:	7370      	strb	r0, [r6, #13]
10004404:	4284      	cmp	r4, r0
10004406:	d199      	bne.n	1000433c <add_alarm_under_lock+0x28>
10004408:	7d28      	ldrb	r0, [r5, #20]
1000440a:	9a00      	ldr	r2, [sp, #0]
1000440c:	9b01      	ldr	r3, [sp, #4]
1000440e:	f000 fd47 	bl	10004ea0 <hardware_alarm_set_target>
10004412:	1e06      	subs	r6, r0, #0
10004414:	d001      	beq.n	1000441a <add_alarm_under_lock+0x106>
10004416:	2f00      	cmp	r7, #0
10004418:	d017      	beq.n	1000444a <add_alarm_under_lock+0x136>
1000441a:	9b0c      	ldr	r3, [sp, #48]	; 0x30
1000441c:	2b00      	cmp	r3, #0
1000441e:	d100      	bne.n	10004422 <add_alarm_under_lock+0x10e>
10004420:	e78c      	b.n	1000433c <add_alarm_under_lock+0x28>
10004422:	701e      	strb	r6, [r3, #0]
10004424:	e78a      	b.n	1000433c <add_alarm_under_lock+0x28>
10004426:	4b12      	ldr	r3, [pc, #72]	; (10004470 <add_alarm_under_lock+0x15c>)
10004428:	4a12      	ldr	r2, [pc, #72]	; (10004474 <add_alarm_under_lock+0x160>)
1000442a:	480f      	ldr	r0, [pc, #60]	; (10004468 <add_alarm_under_lock+0x154>)
1000442c:	213c      	movs	r1, #60	; 0x3c
1000442e:	f001 fa9b 	bl	10005968 <__assert_func>
10004432:	4b11      	ldr	r3, [pc, #68]	; (10004478 <add_alarm_under_lock+0x164>)
10004434:	4a11      	ldr	r2, [pc, #68]	; (1000447c <add_alarm_under_lock+0x168>)
10004436:	4809      	ldr	r0, [pc, #36]	; (1000445c <add_alarm_under_lock+0x148>)
10004438:	21a5      	movs	r1, #165	; 0xa5
1000443a:	f001 fa95 	bl	10005968 <__assert_func>
1000443e:	4b05      	ldr	r3, [pc, #20]	; (10004454 <add_alarm_under_lock+0x140>)
10004440:	4a05      	ldr	r2, [pc, #20]	; (10004458 <add_alarm_under_lock+0x144>)
10004442:	4806      	ldr	r0, [pc, #24]	; (1000445c <add_alarm_under_lock+0x148>)
10004444:	2168      	movs	r1, #104	; 0x68
10004446:	f001 fa8f 	bl	10005968 <__assert_func>
1000444a:	6828      	ldr	r0, [r5, #0]
1000444c:	0021      	movs	r1, r4
1000444e:	f000 ff57 	bl	10005300 <ph_remove_and_free_node>
10004452:	e7e2      	b.n	1000441a <add_alarm_under_lock+0x106>
10004454:	1000b2ec 	.word	0x1000b2ec
10004458:	1000b5b4 	.word	0x1000b5b4
1000445c:	1000b308 	.word	0x1000b308
10004460:	1000b384 	.word	0x1000b384
10004464:	1000b5c0 	.word	0x1000b5c0
10004468:	1000b290 	.word	0x1000b290
1000446c:	0fffffff 	.word	0x0fffffff
10004470:	1000b2c8 	.word	0x1000b2c8
10004474:	1000b548 	.word	0x1000b548
10004478:	1000b28c 	.word	0x1000b28c
1000447c:	1000b5a4 	.word	0x1000b5a4

10004480 <alarm_pool_alarm_callback>:
10004480:	b5f0      	push	{r4, r5, r6, r7, lr}
10004482:	46de      	mov	lr, fp
10004484:	4657      	mov	r7, sl
10004486:	464e      	mov	r6, r9
10004488:	4645      	mov	r5, r8
1000448a:	b5e0      	push	{r5, r6, r7, lr}
1000448c:	b08b      	sub	sp, #44	; 0x2c
1000448e:	9009      	str	r0, [sp, #36]	; 0x24
10004490:	2300      	movs	r3, #0
10004492:	9308      	str	r3, [sp, #32]
10004494:	4bb5      	ldr	r3, [pc, #724]	; (1000476c <alarm_pool_alarm_callback+0x2ec>)
10004496:	0082      	lsls	r2, r0, #2
10004498:	58d5      	ldr	r5, [r2, r3]
1000449a:	e054      	b.n	10004546 <alarm_pool_alarm_callback+0xc6>
1000449c:	4bb4      	ldr	r3, [pc, #720]	; (10004770 <alarm_pool_alarm_callback+0x2f0>)
1000449e:	4ab5      	ldr	r2, [pc, #724]	; (10004774 <alarm_pool_alarm_callback+0x2f4>)
100044a0:	48b5      	ldr	r0, [pc, #724]	; (10004778 <alarm_pool_alarm_callback+0x2f8>)
100044a2:	213f      	movs	r1, #63	; 0x3f
100044a4:	f001 fa60 	bl	10005968 <__assert_func>
100044a8:	4bb4      	ldr	r3, [pc, #720]	; (1000477c <alarm_pool_alarm_callback+0x2fc>)
100044aa:	4ab5      	ldr	r2, [pc, #724]	; (10004780 <alarm_pool_alarm_callback+0x300>)
100044ac:	48b5      	ldr	r0, [pc, #724]	; (10004784 <alarm_pool_alarm_callback+0x304>)
100044ae:	213c      	movs	r1, #60	; 0x3c
100044b0:	f001 fa5a 	bl	10005968 <__assert_func>
100044b4:	2f00      	cmp	r7, #0
100044b6:	d101      	bne.n	100044bc <alarm_pool_alarm_callback+0x3c>
100044b8:	2e00      	cmp	r6, #0
100044ba:	d16b      	bne.n	10004594 <alarm_pool_alarm_callback+0x114>
100044bc:	2100      	movs	r1, #0
100044be:	f000 ff15 	bl	100052ec <ph_remove_head>
100044c2:	42a0      	cmp	r0, r4
100044c4:	d11c      	bne.n	10004500 <alarm_pool_alarm_callback+0x80>
100044c6:	4643      	mov	r3, r8
100044c8:	681a      	ldr	r2, [r3, #0]
100044ca:	685b      	ldr	r3, [r3, #4]
100044cc:	9206      	str	r2, [sp, #24]
100044ce:	9307      	str	r3, [sp, #28]
100044d0:	4643      	mov	r3, r8
100044d2:	689b      	ldr	r3, [r3, #8]
100044d4:	469a      	mov	sl, r3
100044d6:	4643      	mov	r3, r8
100044d8:	68db      	ldr	r3, [r3, #12]
100044da:	469b      	mov	fp, r3
100044dc:	4653      	mov	r3, sl
100044de:	2b00      	cmp	r3, #0
100044e0:	d014      	beq.n	1000450c <alarm_pool_alarm_callback+0x8c>
100044e2:	2c00      	cmp	r4, #0
100044e4:	d018      	beq.n	10004518 <alarm_pool_alarm_callback+0x98>
100044e6:	682b      	ldr	r3, [r5, #0]
100044e8:	7b1b      	ldrb	r3, [r3, #12]
100044ea:	429c      	cmp	r4, r3
100044ec:	d814      	bhi.n	10004518 <alarm_pool_alarm_callback+0x98>
100044ee:	68ea      	ldr	r2, [r5, #12]
100044f0:	1e63      	subs	r3, r4, #1
100044f2:	5cd3      	ldrb	r3, [r2, r3]
100044f4:	9308      	str	r3, [sp, #32]
100044f6:	021b      	lsls	r3, r3, #8
100044f8:	4318      	orrs	r0, r3
100044fa:	6128      	str	r0, [r5, #16]
100044fc:	2000      	movs	r0, #0
100044fe:	e015      	b.n	1000452c <alarm_pool_alarm_callback+0xac>
10004500:	4ba1      	ldr	r3, [pc, #644]	; (10004788 <alarm_pool_alarm_callback+0x308>)
10004502:	4aa2      	ldr	r2, [pc, #648]	; (1000478c <alarm_pool_alarm_callback+0x30c>)
10004504:	489f      	ldr	r0, [pc, #636]	; (10004784 <alarm_pool_alarm_callback+0x304>)
10004506:	218e      	movs	r1, #142	; 0x8e
10004508:	f001 fa2e 	bl	10005968 <__assert_func>
1000450c:	4ba0      	ldr	r3, [pc, #640]	; (10004790 <alarm_pool_alarm_callback+0x310>)
1000450e:	4a9f      	ldr	r2, [pc, #636]	; (1000478c <alarm_pool_alarm_callback+0x30c>)
10004510:	489c      	ldr	r0, [pc, #624]	; (10004784 <alarm_pool_alarm_callback+0x304>)
10004512:	2192      	movs	r1, #146	; 0x92
10004514:	f001 fa28 	bl	10005968 <__assert_func>
10004518:	4b98      	ldr	r3, [pc, #608]	; (1000477c <alarm_pool_alarm_callback+0x2fc>)
1000451a:	4a9e      	ldr	r2, [pc, #632]	; (10004794 <alarm_pool_alarm_callback+0x314>)
1000451c:	4899      	ldr	r0, [pc, #612]	; (10004784 <alarm_pool_alarm_callback+0x304>)
1000451e:	2141      	movs	r1, #65	; 0x41
10004520:	f001 fa22 	bl	10005968 <__assert_func>
10004524:	2300      	movs	r3, #0
10004526:	469b      	mov	fp, r3
10004528:	469a      	mov	sl, r3
1000452a:	2000      	movs	r0, #0
1000452c:	686b      	ldr	r3, [r5, #4]
1000452e:	f3bf 8f5f 	dmb	sy
10004532:	2200      	movs	r2, #0
10004534:	601a      	str	r2, [r3, #0]
10004536:	f389 8810 	msr	PRIMASK, r9
1000453a:	4653      	mov	r3, sl
1000453c:	2b00      	cmp	r3, #0
1000453e:	d133      	bne.n	100045a8 <alarm_pool_alarm_callback+0x128>
10004540:	2800      	cmp	r0, #0
10004542:	d100      	bne.n	10004546 <alarm_pool_alarm_callback+0xc6>
10004544:	e10b      	b.n	1000475e <alarm_pool_alarm_callback+0x2de>
10004546:	f000 fc43 	bl	10004dd0 <time_us_64>
1000454a:	0002      	movs	r2, r0
1000454c:	1e0b      	subs	r3, r1, #0
1000454e:	dba5      	blt.n	1000449c <alarm_pool_alarm_callback+0x1c>
10004550:	2000      	movs	r0, #0
10004552:	2100      	movs	r1, #0
10004554:	9006      	str	r0, [sp, #24]
10004556:	9107      	str	r1, [sp, #28]
10004558:	6868      	ldr	r0, [r5, #4]
1000455a:	f3ef 8910 	mrs	r9, PRIMASK
1000455e:	b672      	cpsid	i
10004560:	6801      	ldr	r1, [r0, #0]
10004562:	2900      	cmp	r1, #0
10004564:	d0fc      	beq.n	10004560 <alarm_pool_alarm_callback+0xe0>
10004566:	f3bf 8f5f 	dmb	sy
1000456a:	6828      	ldr	r0, [r5, #0]
1000456c:	7b44      	ldrb	r4, [r0, #13]
1000456e:	2c00      	cmp	r4, #0
10004570:	d0d8      	beq.n	10004524 <alarm_pool_alarm_callback+0xa4>
10004572:	d099      	beq.n	100044a8 <alarm_pool_alarm_callback+0x28>
10004574:	7b01      	ldrb	r1, [r0, #12]
10004576:	428c      	cmp	r4, r1
10004578:	d896      	bhi.n	100044a8 <alarm_pool_alarm_callback+0x28>
1000457a:	68ae      	ldr	r6, [r5, #8]
1000457c:	4986      	ldr	r1, [pc, #536]	; (10004798 <alarm_pool_alarm_callback+0x318>)
1000457e:	1861      	adds	r1, r4, r1
10004580:	0109      	lsls	r1, r1, #4
10004582:	46b0      	mov	r8, r6
10004584:	4488      	add	r8, r1
10004586:	4641      	mov	r1, r8
10004588:	680e      	ldr	r6, [r1, #0]
1000458a:	684f      	ldr	r7, [r1, #4]
1000458c:	1ab6      	subs	r6, r6, r2
1000458e:	419f      	sbcs	r7, r3
10004590:	2f00      	cmp	r7, #0
10004592:	dd8f      	ble.n	100044b4 <alarm_pool_alarm_callback+0x34>
10004594:	4643      	mov	r3, r8
10004596:	681a      	ldr	r2, [r3, #0]
10004598:	685b      	ldr	r3, [r3, #4]
1000459a:	9809      	ldr	r0, [sp, #36]	; 0x24
1000459c:	f000 fc80 	bl	10004ea0 <hardware_alarm_set_target>
100045a0:	2300      	movs	r3, #0
100045a2:	469b      	mov	fp, r3
100045a4:	469a      	mov	sl, r3
100045a6:	e7c1      	b.n	1000452c <alarm_pool_alarm_callback+0xac>
100045a8:	9b08      	ldr	r3, [sp, #32]
100045aa:	021b      	lsls	r3, r3, #8
100045ac:	4323      	orrs	r3, r4
100045ae:	4698      	mov	r8, r3
100045b0:	4659      	mov	r1, fp
100045b2:	0018      	movs	r0, r3
100045b4:	47d0      	blx	sl
100045b6:	0006      	movs	r6, r0
100045b8:	000f      	movs	r7, r1
100045ba:	686a      	ldr	r2, [r5, #4]
100045bc:	f3ef 8910 	mrs	r9, PRIMASK
100045c0:	b672      	cpsid	i
100045c2:	6813      	ldr	r3, [r2, #0]
100045c4:	4259      	negs	r1, r3
100045c6:	414b      	adcs	r3, r1
100045c8:	b2d9      	uxtb	r1, r3
100045ca:	2b00      	cmp	r3, #0
100045cc:	d1f9      	bne.n	100045c2 <alarm_pool_alarm_callback+0x142>
100045ce:	f3bf 8f5f 	dmb	sy
100045d2:	2f00      	cmp	r7, #0
100045d4:	db1e      	blt.n	10004614 <alarm_pool_alarm_callback+0x194>
100045d6:	2f00      	cmp	r7, #0
100045d8:	dd46      	ble.n	10004668 <alarm_pool_alarm_callback+0x1e8>
100045da:	692b      	ldr	r3, [r5, #16]
100045dc:	2b00      	cmp	r3, #0
100045de:	d047      	beq.n	10004670 <alarm_pool_alarm_callback+0x1f0>
100045e0:	4543      	cmp	r3, r8
100045e2:	d16d      	bne.n	100046c0 <alarm_pool_alarm_callback+0x240>
100045e4:	f000 fbf4 	bl	10004dd0 <time_us_64>
100045e8:	0002      	movs	r2, r0
100045ea:	1e0b      	subs	r3, r1, #0
100045ec:	db6e      	blt.n	100046cc <alarm_pool_alarm_callback+0x24c>
100045ee:	1992      	adds	r2, r2, r6
100045f0:	417b      	adcs	r3, r7
100045f2:	2b00      	cmp	r3, #0
100045f4:	db70      	blt.n	100046d8 <alarm_pool_alarm_callback+0x258>
100045f6:	2b00      	cmp	r3, #0
100045f8:	db72      	blt.n	100046e0 <alarm_pool_alarm_callback+0x260>
100045fa:	2100      	movs	r1, #0
100045fc:	9104      	str	r1, [sp, #16]
100045fe:	3101      	adds	r1, #1
10004600:	9103      	str	r1, [sp, #12]
10004602:	9402      	str	r4, [sp, #8]
10004604:	4659      	mov	r1, fp
10004606:	9101      	str	r1, [sp, #4]
10004608:	4651      	mov	r1, sl
1000460a:	9100      	str	r1, [sp, #0]
1000460c:	0028      	movs	r0, r5
1000460e:	f7ff fe81 	bl	10004314 <add_alarm_under_lock>
10004612:	e04c      	b.n	100046ae <alarm_pool_alarm_callback+0x22e>
10004614:	692b      	ldr	r3, [r5, #16]
10004616:	2b00      	cmp	r3, #0
10004618:	d0dd      	beq.n	100045d6 <alarm_pool_alarm_callback+0x156>
1000461a:	4543      	cmp	r3, r8
1000461c:	d114      	bne.n	10004648 <alarm_pool_alarm_callback+0x1c8>
1000461e:	9a06      	ldr	r2, [sp, #24]
10004620:	9b07      	ldr	r3, [sp, #28]
10004622:	1b92      	subs	r2, r2, r6
10004624:	41bb      	sbcs	r3, r7
10004626:	2b00      	cmp	r3, #0
10004628:	db14      	blt.n	10004654 <alarm_pool_alarm_callback+0x1d4>
1000462a:	2b00      	cmp	r3, #0
1000462c:	db16      	blt.n	1000465c <alarm_pool_alarm_callback+0x1dc>
1000462e:	2100      	movs	r1, #0
10004630:	9104      	str	r1, [sp, #16]
10004632:	3101      	adds	r1, #1
10004634:	9103      	str	r1, [sp, #12]
10004636:	9402      	str	r4, [sp, #8]
10004638:	4659      	mov	r1, fp
1000463a:	9101      	str	r1, [sp, #4]
1000463c:	4651      	mov	r1, sl
1000463e:	9100      	str	r1, [sp, #0]
10004640:	0028      	movs	r0, r5
10004642:	f7ff fe67 	bl	10004314 <add_alarm_under_lock>
10004646:	e032      	b.n	100046ae <alarm_pool_alarm_callback+0x22e>
10004648:	4b54      	ldr	r3, [pc, #336]	; (1000479c <alarm_pool_alarm_callback+0x31c>)
1000464a:	4a50      	ldr	r2, [pc, #320]	; (1000478c <alarm_pool_alarm_callback+0x30c>)
1000464c:	484d      	ldr	r0, [pc, #308]	; (10004784 <alarm_pool_alarm_callback+0x304>)
1000464e:	21a1      	movs	r1, #161	; 0xa1
10004650:	f001 f98a 	bl	10005968 <__assert_func>
10004654:	2201      	movs	r2, #1
10004656:	4252      	negs	r2, r2
10004658:	4b51      	ldr	r3, [pc, #324]	; (100047a0 <alarm_pool_alarm_callback+0x320>)
1000465a:	e7e6      	b.n	1000462a <alarm_pool_alarm_callback+0x1aa>
1000465c:	4b44      	ldr	r3, [pc, #272]	; (10004770 <alarm_pool_alarm_callback+0x2f0>)
1000465e:	4a45      	ldr	r2, [pc, #276]	; (10004774 <alarm_pool_alarm_callback+0x2f4>)
10004660:	4845      	ldr	r0, [pc, #276]	; (10004778 <alarm_pool_alarm_callback+0x2f8>)
10004662:	213f      	movs	r1, #63	; 0x3f
10004664:	f001 f980 	bl	10005968 <__assert_func>
10004668:	2f00      	cmp	r7, #0
1000466a:	d101      	bne.n	10004670 <alarm_pool_alarm_callback+0x1f0>
1000466c:	2e00      	cmp	r6, #0
1000466e:	d1b4      	bne.n	100045da <alarm_pool_alarm_callback+0x15a>
10004670:	682b      	ldr	r3, [r5, #0]
10004672:	2c00      	cmp	r4, #0
10004674:	d04f      	beq.n	10004716 <alarm_pool_alarm_callback+0x296>
10004676:	7b5a      	ldrb	r2, [r3, #13]
10004678:	4294      	cmp	r4, r2
1000467a:	d137      	bne.n	100046ec <alarm_pool_alarm_callback+0x26c>
1000467c:	2101      	movs	r1, #1
1000467e:	2900      	cmp	r1, #0
10004680:	d149      	bne.n	10004716 <alarm_pool_alarm_callback+0x296>
10004682:	7bda      	ldrb	r2, [r3, #15]
10004684:	2a00      	cmp	r2, #0
10004686:	d14c      	bne.n	10004722 <alarm_pool_alarm_callback+0x2a2>
10004688:	7b9a      	ldrb	r2, [r3, #14]
1000468a:	2a00      	cmp	r2, #0
1000468c:	d103      	bne.n	10004696 <alarm_pool_alarm_callback+0x216>
1000468e:	7bda      	ldrb	r2, [r3, #15]
10004690:	2a00      	cmp	r2, #0
10004692:	d158      	bne.n	10004746 <alarm_pool_alarm_callback+0x2c6>
10004694:	739c      	strb	r4, [r3, #14]
10004696:	73dc      	strb	r4, [r3, #15]
10004698:	2c00      	cmp	r4, #0
1000469a:	d05a      	beq.n	10004752 <alarm_pool_alarm_callback+0x2d2>
1000469c:	682b      	ldr	r3, [r5, #0]
1000469e:	7b1b      	ldrb	r3, [r3, #12]
100046a0:	429c      	cmp	r4, r3
100046a2:	d856      	bhi.n	10004752 <alarm_pool_alarm_callback+0x2d2>
100046a4:	68ea      	ldr	r2, [r5, #12]
100046a6:	3c01      	subs	r4, #1
100046a8:	5d13      	ldrb	r3, [r2, r4]
100046aa:	3301      	adds	r3, #1
100046ac:	5513      	strb	r3, [r2, r4]
100046ae:	2300      	movs	r3, #0
100046b0:	612b      	str	r3, [r5, #16]
100046b2:	686a      	ldr	r2, [r5, #4]
100046b4:	f3bf 8f5f 	dmb	sy
100046b8:	6013      	str	r3, [r2, #0]
100046ba:	f389 8810 	msr	PRIMASK, r9
100046be:	e742      	b.n	10004546 <alarm_pool_alarm_callback+0xc6>
100046c0:	4b36      	ldr	r3, [pc, #216]	; (1000479c <alarm_pool_alarm_callback+0x31c>)
100046c2:	4a32      	ldr	r2, [pc, #200]	; (1000478c <alarm_pool_alarm_callback+0x30c>)
100046c4:	482f      	ldr	r0, [pc, #188]	; (10004784 <alarm_pool_alarm_callback+0x304>)
100046c6:	21a4      	movs	r1, #164	; 0xa4
100046c8:	f001 f94e 	bl	10005968 <__assert_func>
100046cc:	4b28      	ldr	r3, [pc, #160]	; (10004770 <alarm_pool_alarm_callback+0x2f0>)
100046ce:	4a29      	ldr	r2, [pc, #164]	; (10004774 <alarm_pool_alarm_callback+0x2f4>)
100046d0:	4829      	ldr	r0, [pc, #164]	; (10004778 <alarm_pool_alarm_callback+0x2f8>)
100046d2:	213f      	movs	r1, #63	; 0x3f
100046d4:	f001 f948 	bl	10005968 <__assert_func>
100046d8:	2201      	movs	r2, #1
100046da:	4252      	negs	r2, r2
100046dc:	4b30      	ldr	r3, [pc, #192]	; (100047a0 <alarm_pool_alarm_callback+0x320>)
100046de:	e78a      	b.n	100045f6 <alarm_pool_alarm_callback+0x176>
100046e0:	4b23      	ldr	r3, [pc, #140]	; (10004770 <alarm_pool_alarm_callback+0x2f0>)
100046e2:	4a24      	ldr	r2, [pc, #144]	; (10004774 <alarm_pool_alarm_callback+0x2f4>)
100046e4:	4824      	ldr	r0, [pc, #144]	; (10004778 <alarm_pool_alarm_callback+0x2f8>)
100046e6:	213f      	movs	r1, #63	; 0x3f
100046e8:	f001 f93e 	bl	10005968 <__assert_func>
100046ec:	2c00      	cmp	r4, #0
100046ee:	d00c      	beq.n	1000470a <alarm_pool_alarm_callback+0x28a>
100046f0:	7b1a      	ldrb	r2, [r3, #12]
100046f2:	4294      	cmp	r4, r2
100046f4:	d809      	bhi.n	1000470a <alarm_pool_alarm_callback+0x28a>
100046f6:	6818      	ldr	r0, [r3, #0]
100046f8:	0062      	lsls	r2, r4, #1
100046fa:	1912      	adds	r2, r2, r4
100046fc:	3a03      	subs	r2, #3
100046fe:	1882      	adds	r2, r0, r2
10004700:	7892      	ldrb	r2, [r2, #2]
10004702:	2a00      	cmp	r2, #0
10004704:	d0bb      	beq.n	1000467e <alarm_pool_alarm_callback+0x1fe>
10004706:	2101      	movs	r1, #1
10004708:	e7b9      	b.n	1000467e <alarm_pool_alarm_callback+0x1fe>
1000470a:	4b26      	ldr	r3, [pc, #152]	; (100047a4 <alarm_pool_alarm_callback+0x324>)
1000470c:	4a26      	ldr	r2, [pc, #152]	; (100047a8 <alarm_pool_alarm_callback+0x328>)
1000470e:	4827      	ldr	r0, [pc, #156]	; (100047ac <alarm_pool_alarm_callback+0x32c>)
10004710:	2168      	movs	r1, #104	; 0x68
10004712:	f001 f929 	bl	10005968 <__assert_func>
10004716:	4b26      	ldr	r3, [pc, #152]	; (100047b0 <alarm_pool_alarm_callback+0x330>)
10004718:	4a26      	ldr	r2, [pc, #152]	; (100047b4 <alarm_pool_alarm_callback+0x334>)
1000471a:	4824      	ldr	r0, [pc, #144]	; (100047ac <alarm_pool_alarm_callback+0x32c>)
1000471c:	21f6      	movs	r1, #246	; 0xf6
1000471e:	f001 f923 	bl	10005968 <__assert_func>
10004722:	2a00      	cmp	r2, #0
10004724:	d009      	beq.n	1000473a <alarm_pool_alarm_callback+0x2ba>
10004726:	7b19      	ldrb	r1, [r3, #12]
10004728:	428a      	cmp	r2, r1
1000472a:	d806      	bhi.n	1000473a <alarm_pool_alarm_callback+0x2ba>
1000472c:	6818      	ldr	r0, [r3, #0]
1000472e:	0051      	lsls	r1, r2, #1
10004730:	188a      	adds	r2, r1, r2
10004732:	3a03      	subs	r2, #3
10004734:	1882      	adds	r2, r0, r2
10004736:	7054      	strb	r4, [r2, #1]
10004738:	e7a6      	b.n	10004688 <alarm_pool_alarm_callback+0x208>
1000473a:	4b1a      	ldr	r3, [pc, #104]	; (100047a4 <alarm_pool_alarm_callback+0x324>)
1000473c:	4a1a      	ldr	r2, [pc, #104]	; (100047a8 <alarm_pool_alarm_callback+0x328>)
1000473e:	481b      	ldr	r0, [pc, #108]	; (100047ac <alarm_pool_alarm_callback+0x32c>)
10004740:	2168      	movs	r1, #104	; 0x68
10004742:	f001 f911 	bl	10005968 <__assert_func>
10004746:	4b1c      	ldr	r3, [pc, #112]	; (100047b8 <alarm_pool_alarm_callback+0x338>)
10004748:	4a1a      	ldr	r2, [pc, #104]	; (100047b4 <alarm_pool_alarm_callback+0x334>)
1000474a:	4818      	ldr	r0, [pc, #96]	; (100047ac <alarm_pool_alarm_callback+0x32c>)
1000474c:	21fb      	movs	r1, #251	; 0xfb
1000474e:	f001 f90b 	bl	10005968 <__assert_func>
10004752:	4b0a      	ldr	r3, [pc, #40]	; (1000477c <alarm_pool_alarm_callback+0x2fc>)
10004754:	4a0f      	ldr	r2, [pc, #60]	; (10004794 <alarm_pool_alarm_callback+0x314>)
10004756:	480b      	ldr	r0, [pc, #44]	; (10004784 <alarm_pool_alarm_callback+0x304>)
10004758:	2141      	movs	r1, #65	; 0x41
1000475a:	f001 f905 	bl	10005968 <__assert_func>
1000475e:	b00b      	add	sp, #44	; 0x2c
10004760:	bcf0      	pop	{r4, r5, r6, r7}
10004762:	46bb      	mov	fp, r7
10004764:	46b2      	mov	sl, r6
10004766:	46a9      	mov	r9, r5
10004768:	46a0      	mov	r8, r4
1000476a:	bdf0      	pop	{r4, r5, r6, r7, pc}
1000476c:	20001cf0 	.word	0x20001cf0
10004770:	1000b1a4 	.word	0x1000b1a4
10004774:	1000b514 	.word	0x1000b514
10004778:	1000b1c0 	.word	0x1000b1c0
1000477c:	1000b2c8 	.word	0x1000b2c8
10004780:	1000b548 	.word	0x1000b548
10004784:	1000b290 	.word	0x1000b290
10004788:	1000b3ac 	.word	0x1000b3ac
1000478c:	1000b52c 	.word	0x1000b52c
10004790:	1000b3c4 	.word	0x1000b3c4
10004794:	1000b56c 	.word	0x1000b56c
10004798:	0fffffff 	.word	0x0fffffff
1000479c:	1000b3d0 	.word	0x1000b3d0
100047a0:	7fffffff 	.word	0x7fffffff
100047a4:	1000b2ec 	.word	0x1000b2ec
100047a8:	1000b5b4 	.word	0x1000b5b4
100047ac:	1000b308 	.word	0x1000b308
100047b0:	1000b40c 	.word	0x1000b40c
100047b4:	1000b580 	.word	0x1000b580
100047b8:	1000b430 	.word	0x1000b430

100047bc <alarm_pool_init_default>:
100047bc:	b510      	push	{r4, lr}
100047be:	4b0c      	ldr	r3, [pc, #48]	; (100047f0 <alarm_pool_init_default+0x34>)
100047c0:	685b      	ldr	r3, [r3, #4]
100047c2:	2b00      	cmp	r3, #0
100047c4:	d004      	beq.n	100047d0 <alarm_pool_init_default+0x14>
100047c6:	480b      	ldr	r0, [pc, #44]	; (100047f4 <alarm_pool_init_default+0x38>)
100047c8:	210a      	movs	r1, #10
100047ca:	f7ff fc67 	bl	1000409c <lock_init>
100047ce:	bd10      	pop	{r4, pc}
100047d0:	4c07      	ldr	r4, [pc, #28]	; (100047f0 <alarm_pool_init_default+0x34>)
100047d2:	4a09      	ldr	r2, [pc, #36]	; (100047f8 <alarm_pool_init_default+0x3c>)
100047d4:	6820      	ldr	r0, [r4, #0]
100047d6:	0023      	movs	r3, r4
100047d8:	2110      	movs	r1, #16
100047da:	f000 fc9d 	bl	10005118 <ph_post_alloc_init>
100047de:	2003      	movs	r0, #3
100047e0:	f000 faea 	bl	10004db8 <hardware_alarm_claim>
100047e4:	2103      	movs	r1, #3
100047e6:	0020      	movs	r0, r4
100047e8:	f7ff fcb0 	bl	1000414c <alarm_pool_post_alloc_init>
100047ec:	e7eb      	b.n	100047c6 <alarm_pool_init_default+0xa>
100047ee:	46c0      	nop			; (mov r8, r8)
100047f0:	20000be4 	.word	0x20000be4
100047f4:	20001f0c 	.word	0x20001f0c
100047f8:	100041bd 	.word	0x100041bd

100047fc <alarm_pool_get_default>:
100047fc:	b510      	push	{r4, lr}
100047fe:	4b06      	ldr	r3, [pc, #24]	; (10004818 <alarm_pool_get_default+0x1c>)
10004800:	685b      	ldr	r3, [r3, #4]
10004802:	2b00      	cmp	r3, #0
10004804:	d001      	beq.n	1000480a <alarm_pool_get_default+0xe>
10004806:	4804      	ldr	r0, [pc, #16]	; (10004818 <alarm_pool_get_default+0x1c>)
10004808:	bd10      	pop	{r4, pc}
1000480a:	4b04      	ldr	r3, [pc, #16]	; (1000481c <alarm_pool_get_default+0x20>)
1000480c:	4a04      	ldr	r2, [pc, #16]	; (10004820 <alarm_pool_get_default+0x24>)
1000480e:	4805      	ldr	r0, [pc, #20]	; (10004824 <alarm_pool_get_default+0x28>)
10004810:	215e      	movs	r1, #94	; 0x5e
10004812:	f001 f8a9 	bl	10005968 <__assert_func>
10004816:	46c0      	nop			; (mov r8, r8)
10004818:	20000be4 	.word	0x20000be4
1000481c:	1000b444 	.word	0x1000b444
10004820:	1000b554 	.word	0x1000b554
10004824:	1000b290 	.word	0x1000b290

10004828 <alarm_pool_add_alarm_at>:
10004828:	b5f0      	push	{r4, r5, r6, r7, lr}
1000482a:	46de      	mov	lr, fp
1000482c:	4657      	mov	r7, sl
1000482e:	464e      	mov	r6, r9
10004830:	4645      	mov	r5, r8
10004832:	b5e0      	push	{r5, r6, r7, lr}
10004834:	b08b      	sub	sp, #44	; 0x2c
10004836:	4680      	mov	r8, r0
10004838:	0016      	movs	r6, r2
1000483a:	001f      	movs	r7, r3
1000483c:	9b14      	ldr	r3, [sp, #80]	; 0x50
1000483e:	469a      	mov	sl, r3
10004840:	9b15      	ldr	r3, [sp, #84]	; 0x54
10004842:	4699      	mov	r9, r3
10004844:	ab16      	add	r3, sp, #88	; 0x58
10004846:	781b      	ldrb	r3, [r3, #0]
10004848:	469b      	mov	fp, r3
1000484a:	231f      	movs	r3, #31
1000484c:	aa02      	add	r2, sp, #8
1000484e:	4694      	mov	ip, r2
10004850:	4463      	add	r3, ip
10004852:	2200      	movs	r2, #0
10004854:	701a      	strb	r2, [r3, #0]
10004856:	e02d      	b.n	100048b4 <alarm_pool_add_alarm_at+0x8c>
10004858:	2800      	cmp	r0, #0
1000485a:	d009      	beq.n	10004870 <alarm_pool_add_alarm_at+0x48>
1000485c:	4642      	mov	r2, r8
1000485e:	6812      	ldr	r2, [r2, #0]
10004860:	7b12      	ldrb	r2, [r2, #12]
10004862:	4290      	cmp	r0, r2
10004864:	d804      	bhi.n	10004870 <alarm_pool_add_alarm_at+0x48>
10004866:	4642      	mov	r2, r8
10004868:	68d1      	ldr	r1, [r2, #12]
1000486a:	1e42      	subs	r2, r0, #1
1000486c:	5c8a      	ldrb	r2, [r1, r2]
1000486e:	e043      	b.n	100048f8 <alarm_pool_add_alarm_at+0xd0>
10004870:	4b41      	ldr	r3, [pc, #260]	; (10004978 <alarm_pool_add_alarm_at+0x150>)
10004872:	4a42      	ldr	r2, [pc, #264]	; (1000497c <alarm_pool_add_alarm_at+0x154>)
10004874:	4842      	ldr	r0, [pc, #264]	; (10004980 <alarm_pool_add_alarm_at+0x158>)
10004876:	2141      	movs	r1, #65	; 0x41
10004878:	f001 f876 	bl	10005968 <__assert_func>
1000487c:	9807      	ldr	r0, [sp, #28]
1000487e:	e04e      	b.n	1000491e <alarm_pool_add_alarm_at+0xf6>
10004880:	1b36      	subs	r6, r6, r4
10004882:	41af      	sbcs	r7, r5
10004884:	2f00      	cmp	r7, #0
10004886:	db07      	blt.n	10004898 <alarm_pool_add_alarm_at+0x70>
10004888:	2f00      	cmp	r7, #0
1000488a:	da13      	bge.n	100048b4 <alarm_pool_add_alarm_at+0x8c>
1000488c:	4b3d      	ldr	r3, [pc, #244]	; (10004984 <alarm_pool_add_alarm_at+0x15c>)
1000488e:	4a3e      	ldr	r2, [pc, #248]	; (10004988 <alarm_pool_add_alarm_at+0x160>)
10004890:	483e      	ldr	r0, [pc, #248]	; (1000498c <alarm_pool_add_alarm_at+0x164>)
10004892:	213f      	movs	r1, #63	; 0x3f
10004894:	f001 f868 	bl	10005968 <__assert_func>
10004898:	2601      	movs	r6, #1
1000489a:	4276      	negs	r6, r6
1000489c:	4f3c      	ldr	r7, [pc, #240]	; (10004990 <alarm_pool_add_alarm_at+0x168>)
1000489e:	e7f3      	b.n	10004888 <alarm_pool_add_alarm_at+0x60>
100048a0:	4b38      	ldr	r3, [pc, #224]	; (10004984 <alarm_pool_add_alarm_at+0x15c>)
100048a2:	4a39      	ldr	r2, [pc, #228]	; (10004988 <alarm_pool_add_alarm_at+0x160>)
100048a4:	4839      	ldr	r0, [pc, #228]	; (1000498c <alarm_pool_add_alarm_at+0x164>)
100048a6:	213f      	movs	r1, #63	; 0x3f
100048a8:	f001 f85e 	bl	10005968 <__assert_func>
100048ac:	2d00      	cmp	r5, #0
100048ae:	db51      	blt.n	10004954 <alarm_pool_add_alarm_at+0x12c>
100048b0:	0026      	movs	r6, r4
100048b2:	002f      	movs	r7, r5
100048b4:	4643      	mov	r3, r8
100048b6:	685a      	ldr	r2, [r3, #4]
100048b8:	f3ef 8410 	mrs	r4, PRIMASK
100048bc:	b672      	cpsid	i
100048be:	6813      	ldr	r3, [r2, #0]
100048c0:	4259      	negs	r1, r3
100048c2:	414b      	adcs	r3, r1
100048c4:	b2d9      	uxtb	r1, r3
100048c6:	9107      	str	r1, [sp, #28]
100048c8:	2b00      	cmp	r3, #0
100048ca:	d1f8      	bne.n	100048be <alarm_pool_add_alarm_at+0x96>
100048cc:	f3bf 8f5f 	dmb	sy
100048d0:	331f      	adds	r3, #31
100048d2:	aa02      	add	r2, sp, #8
100048d4:	4694      	mov	ip, r2
100048d6:	4463      	add	r3, ip
100048d8:	9304      	str	r3, [sp, #16]
100048da:	2300      	movs	r3, #0
100048dc:	9303      	str	r3, [sp, #12]
100048de:	9302      	str	r3, [sp, #8]
100048e0:	464b      	mov	r3, r9
100048e2:	9301      	str	r3, [sp, #4]
100048e4:	4653      	mov	r3, sl
100048e6:	9300      	str	r3, [sp, #0]
100048e8:	0032      	movs	r2, r6
100048ea:	003b      	movs	r3, r7
100048ec:	4640      	mov	r0, r8
100048ee:	f7ff fd11 	bl	10004314 <add_alarm_under_lock>
100048f2:	1e03      	subs	r3, r0, #0
100048f4:	d1b0      	bne.n	10004858 <alarm_pool_add_alarm_at+0x30>
100048f6:	0002      	movs	r2, r0
100048f8:	4641      	mov	r1, r8
100048fa:	6849      	ldr	r1, [r1, #4]
100048fc:	f3bf 8f5f 	dmb	sy
10004900:	2500      	movs	r5, #0
10004902:	600d      	str	r5, [r1, #0]
10004904:	f384 8810 	msr	PRIMASK, r4
10004908:	2b00      	cmp	r3, #0
1000490a:	d029      	beq.n	10004960 <alarm_pool_add_alarm_at+0x138>
1000490c:	231f      	movs	r3, #31
1000490e:	a902      	add	r1, sp, #8
10004910:	468c      	mov	ip, r1
10004912:	4463      	add	r3, ip
10004914:	781b      	ldrb	r3, [r3, #0]
10004916:	2b00      	cmp	r3, #0
10004918:	d1b0      	bne.n	1000487c <alarm_pool_add_alarm_at+0x54>
1000491a:	0212      	lsls	r2, r2, #8
1000491c:	4310      	orrs	r0, r2
1000491e:	2b00      	cmp	r3, #0
10004920:	d020      	beq.n	10004964 <alarm_pool_add_alarm_at+0x13c>
10004922:	465b      	mov	r3, fp
10004924:	2b00      	cmp	r3, #0
10004926:	d01d      	beq.n	10004964 <alarm_pool_add_alarm_at+0x13c>
10004928:	4649      	mov	r1, r9
1000492a:	47d0      	blx	sl
1000492c:	0004      	movs	r4, r0
1000492e:	000d      	movs	r5, r1
10004930:	0003      	movs	r3, r0
10004932:	430b      	orrs	r3, r1
10004934:	d01d      	beq.n	10004972 <alarm_pool_add_alarm_at+0x14a>
10004936:	2900      	cmp	r1, #0
10004938:	dba2      	blt.n	10004880 <alarm_pool_add_alarm_at+0x58>
1000493a:	f000 fa49 	bl	10004dd0 <time_us_64>
1000493e:	0002      	movs	r2, r0
10004940:	1e0b      	subs	r3, r1, #0
10004942:	dbad      	blt.n	100048a0 <alarm_pool_add_alarm_at+0x78>
10004944:	18a4      	adds	r4, r4, r2
10004946:	415d      	adcs	r5, r3
10004948:	2d00      	cmp	r5, #0
1000494a:	daaf      	bge.n	100048ac <alarm_pool_add_alarm_at+0x84>
1000494c:	2401      	movs	r4, #1
1000494e:	4264      	negs	r4, r4
10004950:	4d0f      	ldr	r5, [pc, #60]	; (10004990 <alarm_pool_add_alarm_at+0x168>)
10004952:	e7ab      	b.n	100048ac <alarm_pool_add_alarm_at+0x84>
10004954:	4b0b      	ldr	r3, [pc, #44]	; (10004984 <alarm_pool_add_alarm_at+0x15c>)
10004956:	4a0c      	ldr	r2, [pc, #48]	; (10004988 <alarm_pool_add_alarm_at+0x160>)
10004958:	480c      	ldr	r0, [pc, #48]	; (1000498c <alarm_pool_add_alarm_at+0x164>)
1000495a:	213f      	movs	r1, #63	; 0x3f
1000495c:	f001 f804 	bl	10005968 <__assert_func>
10004960:	2001      	movs	r0, #1
10004962:	4240      	negs	r0, r0
10004964:	b00b      	add	sp, #44	; 0x2c
10004966:	bcf0      	pop	{r4, r5, r6, r7}
10004968:	46bb      	mov	fp, r7
1000496a:	46b2      	mov	sl, r6
1000496c:	46a9      	mov	r9, r5
1000496e:	46a0      	mov	r8, r4
10004970:	bdf0      	pop	{r4, r5, r6, r7, pc}
10004972:	9807      	ldr	r0, [sp, #28]
10004974:	e7f6      	b.n	10004964 <alarm_pool_add_alarm_at+0x13c>
10004976:	46c0      	nop			; (mov r8, r8)
10004978:	1000b2c8 	.word	0x1000b2c8
1000497c:	1000b56c 	.word	0x1000b56c
10004980:	1000b290 	.word	0x1000b290
10004984:	1000b1a4 	.word	0x1000b1a4
10004988:	1000b514 	.word	0x1000b514
1000498c:	1000b1c0 	.word	0x1000b1c0
10004990:	7fffffff 	.word	0x7fffffff

10004994 <alarm_pool_cancel_alarm>:
10004994:	b5f8      	push	{r3, r4, r5, r6, r7, lr}
10004996:	0004      	movs	r4, r0
10004998:	6842      	ldr	r2, [r0, #4]
1000499a:	f3ef 8510 	mrs	r5, PRIMASK
1000499e:	b672      	cpsid	i
100049a0:	6813      	ldr	r3, [r2, #0]
100049a2:	4258      	negs	r0, r3
100049a4:	4143      	adcs	r3, r0
100049a6:	b2d8      	uxtb	r0, r3
100049a8:	2b00      	cmp	r3, #0
100049aa:	d1f9      	bne.n	100049a0 <alarm_pool_cancel_alarm+0xc>
100049ac:	f3bf 8f5f 	dmb	sy
100049b0:	b2cb      	uxtb	r3, r1
100049b2:	6822      	ldr	r2, [r4, #0]
100049b4:	7b56      	ldrb	r6, [r2, #13]
100049b6:	42b3      	cmp	r3, r6
100049b8:	d11b      	bne.n	100049f2 <alarm_pool_cancel_alarm+0x5e>
100049ba:	2001      	movs	r0, #1
100049bc:	2800      	cmp	r0, #0
100049be:	d047      	beq.n	10004a50 <alarm_pool_cancel_alarm+0xbc>
100049c0:	6920      	ldr	r0, [r4, #16]
100049c2:	4288      	cmp	r0, r1
100049c4:	d02a      	beq.n	10004a1c <alarm_pool_cancel_alarm+0x88>
100049c6:	0a09      	lsrs	r1, r1, #8
100049c8:	b2c9      	uxtb	r1, r1
100049ca:	2b00      	cmp	r3, #0
100049cc:	d02d      	beq.n	10004a2a <alarm_pool_cancel_alarm+0x96>
100049ce:	6820      	ldr	r0, [r4, #0]
100049d0:	7b00      	ldrb	r0, [r0, #12]
100049d2:	4283      	cmp	r3, r0
100049d4:	d829      	bhi.n	10004a2a <alarm_pool_cancel_alarm+0x96>
100049d6:	68e6      	ldr	r6, [r4, #12]
100049d8:	1e58      	subs	r0, r3, #1
100049da:	5c30      	ldrb	r0, [r6, r0]
100049dc:	4288      	cmp	r0, r1
100049de:	d02a      	beq.n	10004a36 <alarm_pool_cancel_alarm+0xa2>
100049e0:	2000      	movs	r0, #0
100049e2:	6863      	ldr	r3, [r4, #4]
100049e4:	f3bf 8f5f 	dmb	sy
100049e8:	2200      	movs	r2, #0
100049ea:	601a      	str	r2, [r3, #0]
100049ec:	f385 8810 	msr	PRIMASK, r5
100049f0:	bdf8      	pop	{r3, r4, r5, r6, r7, pc}
100049f2:	2b00      	cmp	r3, #0
100049f4:	d00c      	beq.n	10004a10 <alarm_pool_cancel_alarm+0x7c>
100049f6:	7b16      	ldrb	r6, [r2, #12]
100049f8:	42b3      	cmp	r3, r6
100049fa:	d809      	bhi.n	10004a10 <alarm_pool_cancel_alarm+0x7c>
100049fc:	6817      	ldr	r7, [r2, #0]
100049fe:	005e      	lsls	r6, r3, #1
10004a00:	18f6      	adds	r6, r6, r3
10004a02:	3e03      	subs	r6, #3
10004a04:	19be      	adds	r6, r7, r6
10004a06:	78b6      	ldrb	r6, [r6, #2]
10004a08:	2e00      	cmp	r6, #0
10004a0a:	d0d7      	beq.n	100049bc <alarm_pool_cancel_alarm+0x28>
10004a0c:	2001      	movs	r0, #1
10004a0e:	e7d5      	b.n	100049bc <alarm_pool_cancel_alarm+0x28>
10004a10:	4b12      	ldr	r3, [pc, #72]	; (10004a5c <alarm_pool_cancel_alarm+0xc8>)
10004a12:	4a13      	ldr	r2, [pc, #76]	; (10004a60 <alarm_pool_cancel_alarm+0xcc>)
10004a14:	4813      	ldr	r0, [pc, #76]	; (10004a64 <alarm_pool_cancel_alarm+0xd0>)
10004a16:	2168      	movs	r1, #104	; 0x68
10004a18:	f000 ffa6 	bl	10005968 <__assert_func>
10004a1c:	4b12      	ldr	r3, [pc, #72]	; (10004a68 <alarm_pool_cancel_alarm+0xd4>)
10004a1e:	4a13      	ldr	r2, [pc, #76]	; (10004a6c <alarm_pool_cancel_alarm+0xd8>)
10004a20:	2195      	movs	r1, #149	; 0x95
10004a22:	4813      	ldr	r0, [pc, #76]	; (10004a70 <alarm_pool_cancel_alarm+0xdc>)
10004a24:	0049      	lsls	r1, r1, #1
10004a26:	f000 ff9f 	bl	10005968 <__assert_func>
10004a2a:	4b12      	ldr	r3, [pc, #72]	; (10004a74 <alarm_pool_cancel_alarm+0xe0>)
10004a2c:	4a12      	ldr	r2, [pc, #72]	; (10004a78 <alarm_pool_cancel_alarm+0xe4>)
10004a2e:	4810      	ldr	r0, [pc, #64]	; (10004a70 <alarm_pool_cancel_alarm+0xdc>)
10004a30:	2141      	movs	r1, #65	; 0x41
10004a32:	f000 ff99 	bl	10005968 <__assert_func>
10004a36:	0019      	movs	r1, r3
10004a38:	0010      	movs	r0, r2
10004a3a:	f000 fc61 	bl	10005300 <ph_remove_and_free_node>
10004a3e:	2800      	cmp	r0, #0
10004a40:	d1cf      	bne.n	100049e2 <alarm_pool_cancel_alarm+0x4e>
10004a42:	4b0e      	ldr	r3, [pc, #56]	; (10004a7c <alarm_pool_cancel_alarm+0xe8>)
10004a44:	4a09      	ldr	r2, [pc, #36]	; (10004a6c <alarm_pool_cancel_alarm+0xd8>)
10004a46:	2132      	movs	r1, #50	; 0x32
10004a48:	4809      	ldr	r0, [pc, #36]	; (10004a70 <alarm_pool_cancel_alarm+0xdc>)
10004a4a:	31ff      	adds	r1, #255	; 0xff
10004a4c:	f000 ff8c 	bl	10005968 <__assert_func>
10004a50:	6923      	ldr	r3, [r4, #16]
10004a52:	428b      	cmp	r3, r1
10004a54:	d1c5      	bne.n	100049e2 <alarm_pool_cancel_alarm+0x4e>
10004a56:	2300      	movs	r3, #0
10004a58:	6123      	str	r3, [r4, #16]
10004a5a:	e7c2      	b.n	100049e2 <alarm_pool_cancel_alarm+0x4e>
10004a5c:	1000b2ec 	.word	0x1000b2ec
10004a60:	1000b5b4 	.word	0x1000b5b4
10004a64:	1000b308 	.word	0x1000b308
10004a68:	1000b468 	.word	0x1000b468
10004a6c:	1000b4fc 	.word	0x1000b4fc
10004a70:	1000b290 	.word	0x1000b290
10004a74:	1000b2c8 	.word	0x1000b2c8
10004a78:	1000b56c 	.word	0x1000b56c
10004a7c:	1000b48c 	.word	0x1000b48c

10004a80 <alarm_pool_core_num>:
10004a80:	7d40      	ldrb	r0, [r0, #21]
10004a82:	4770      	bx	lr

10004a84 <alarm_pool_add_repeating_timer_us>:
10004a84:	b5f0      	push	{r4, r5, r6, r7, lr}
10004a86:	b085      	sub	sp, #20
10004a88:	0007      	movs	r7, r0
10004a8a:	9e0c      	ldr	r6, [sp, #48]	; 0x30
10004a8c:	0011      	movs	r1, r2
10004a8e:	4319      	orrs	r1, r3
10004a90:	d101      	bne.n	10004a96 <alarm_pool_add_repeating_timer_us+0x12>
10004a92:	2201      	movs	r2, #1
10004a94:	2300      	movs	r3, #0
10004a96:	60b7      	str	r7, [r6, #8]
10004a98:	990a      	ldr	r1, [sp, #40]	; 0x28
10004a9a:	6131      	str	r1, [r6, #16]
10004a9c:	6032      	str	r2, [r6, #0]
10004a9e:	6073      	str	r3, [r6, #4]
10004aa0:	990b      	ldr	r1, [sp, #44]	; 0x2c
10004aa2:	6171      	str	r1, [r6, #20]
10004aa4:	17d8      	asrs	r0, r3, #31
10004aa6:	0001      	movs	r1, r0
10004aa8:	4042      	eors	r2, r0
10004aaa:	0014      	movs	r4, r2
10004aac:	4043      	eors	r3, r0
10004aae:	001d      	movs	r5, r3
10004ab0:	1a24      	subs	r4, r4, r0
10004ab2:	418d      	sbcs	r5, r1
10004ab4:	f000 f98c 	bl	10004dd0 <time_us_64>
10004ab8:	0002      	movs	r2, r0
10004aba:	1e0b      	subs	r3, r1, #0
10004abc:	db12      	blt.n	10004ae4 <alarm_pool_add_repeating_timer_us+0x60>
10004abe:	1912      	adds	r2, r2, r4
10004ac0:	416b      	adcs	r3, r5
10004ac2:	2b00      	cmp	r3, #0
10004ac4:	db14      	blt.n	10004af0 <alarm_pool_add_repeating_timer_us+0x6c>
10004ac6:	2b00      	cmp	r3, #0
10004ac8:	db16      	blt.n	10004af8 <alarm_pool_add_repeating_timer_us+0x74>
10004aca:	2101      	movs	r1, #1
10004acc:	9102      	str	r1, [sp, #8]
10004ace:	9601      	str	r6, [sp, #4]
10004ad0:	490c      	ldr	r1, [pc, #48]	; (10004b04 <alarm_pool_add_repeating_timer_us+0x80>)
10004ad2:	9100      	str	r1, [sp, #0]
10004ad4:	0038      	movs	r0, r7
10004ad6:	f7ff fea7 	bl	10004828 <alarm_pool_add_alarm_at>
10004ada:	60f0      	str	r0, [r6, #12]
10004adc:	43c0      	mvns	r0, r0
10004ade:	0fc0      	lsrs	r0, r0, #31
10004ae0:	b005      	add	sp, #20
10004ae2:	bdf0      	pop	{r4, r5, r6, r7, pc}
10004ae4:	4b08      	ldr	r3, [pc, #32]	; (10004b08 <alarm_pool_add_repeating_timer_us+0x84>)
10004ae6:	4a09      	ldr	r2, [pc, #36]	; (10004b0c <alarm_pool_add_repeating_timer_us+0x88>)
10004ae8:	4809      	ldr	r0, [pc, #36]	; (10004b10 <alarm_pool_add_repeating_timer_us+0x8c>)
10004aea:	213f      	movs	r1, #63	; 0x3f
10004aec:	f000 ff3c 	bl	10005968 <__assert_func>
10004af0:	2201      	movs	r2, #1
10004af2:	4252      	negs	r2, r2
10004af4:	4b07      	ldr	r3, [pc, #28]	; (10004b14 <alarm_pool_add_repeating_timer_us+0x90>)
10004af6:	e7e6      	b.n	10004ac6 <alarm_pool_add_repeating_timer_us+0x42>
10004af8:	4b03      	ldr	r3, [pc, #12]	; (10004b08 <alarm_pool_add_repeating_timer_us+0x84>)
10004afa:	4a04      	ldr	r2, [pc, #16]	; (10004b0c <alarm_pool_add_repeating_timer_us+0x88>)
10004afc:	4804      	ldr	r0, [pc, #16]	; (10004b10 <alarm_pool_add_repeating_timer_us+0x8c>)
10004afe:	213f      	movs	r1, #63	; 0x3f
10004b00:	f000 ff32 	bl	10005968 <__assert_func>
10004b04:	1000410d 	.word	0x1000410d
10004b08:	1000b1a4 	.word	0x1000b1a4
10004b0c:	1000b514 	.word	0x1000b514
10004b10:	1000b1c0 	.word	0x1000b1c0
10004b14:	7fffffff 	.word	0x7fffffff

10004b18 <sleep_until>:
10004b18:	b5f0      	push	{r4, r5, r6, r7, lr}
10004b1a:	b087      	sub	sp, #28
10004b1c:	0006      	movs	r6, r0
10004b1e:	000f      	movs	r7, r1
10004b20:	f3ef 8305 	mrs	r3, IPSR
10004b24:	2b00      	cmp	r3, #0
10004b26:	d11f      	bne.n	10004b68 <sleep_until+0x50>
10004b28:	2406      	movs	r4, #6
10004b2a:	4264      	negs	r4, r4
10004b2c:	17e5      	asrs	r5, r4, #31
10004b2e:	19a4      	adds	r4, r4, r6
10004b30:	417d      	adcs	r5, r7
10004b32:	428d      	cmp	r5, r1
10004b34:	d802      	bhi.n	10004b3c <sleep_until+0x24>
10004b36:	d103      	bne.n	10004b40 <sleep_until+0x28>
10004b38:	4284      	cmp	r4, r0
10004b3a:	d901      	bls.n	10004b40 <sleep_until+0x28>
10004b3c:	2400      	movs	r4, #0
10004b3e:	2500      	movs	r5, #0
10004b40:	2d00      	cmp	r5, #0
10004b42:	db14      	blt.n	10004b6e <sleep_until+0x56>
10004b44:	9404      	str	r4, [sp, #16]
10004b46:	9505      	str	r5, [sp, #20]
10004b48:	f000 f942 	bl	10004dd0 <time_us_64>
10004b4c:	0002      	movs	r2, r0
10004b4e:	1e0b      	subs	r3, r1, #0
10004b50:	db13      	blt.n	10004b7a <sleep_until+0x62>
10004b52:	1aa4      	subs	r4, r4, r2
10004b54:	419d      	sbcs	r5, r3
10004b56:	2d00      	cmp	r5, #0
10004b58:	dc17      	bgt.n	10004b8a <sleep_until+0x72>
10004b5a:	d014      	beq.n	10004b86 <sleep_until+0x6e>
10004b5c:	0030      	movs	r0, r6
10004b5e:	0039      	movs	r1, r7
10004b60:	f000 f942 	bl	10004de8 <busy_wait_until>
10004b64:	b007      	add	sp, #28
10004b66:	bdf0      	pop	{r4, r5, r6, r7, pc}
10004b68:	4823      	ldr	r0, [pc, #140]	; (10004bf8 <sleep_until+0xe0>)
10004b6a:	f000 ff97 	bl	10005a9c <panic>
10004b6e:	4b23      	ldr	r3, [pc, #140]	; (10004bfc <sleep_until+0xe4>)
10004b70:	4a23      	ldr	r2, [pc, #140]	; (10004c00 <sleep_until+0xe8>)
10004b72:	4824      	ldr	r0, [pc, #144]	; (10004c04 <sleep_until+0xec>)
10004b74:	213f      	movs	r1, #63	; 0x3f
10004b76:	f000 fef7 	bl	10005968 <__assert_func>
10004b7a:	4b20      	ldr	r3, [pc, #128]	; (10004bfc <sleep_until+0xe4>)
10004b7c:	4a20      	ldr	r2, [pc, #128]	; (10004c00 <sleep_until+0xe8>)
10004b7e:	4821      	ldr	r0, [pc, #132]	; (10004c04 <sleep_until+0xec>)
10004b80:	213f      	movs	r1, #63	; 0x3f
10004b82:	f000 fef1 	bl	10005968 <__assert_func>
10004b86:	2c00      	cmp	r4, #0
10004b88:	d0e8      	beq.n	10004b5c <sleep_until+0x44>
10004b8a:	f7ff fe37 	bl	100047fc <alarm_pool_get_default>
10004b8e:	2300      	movs	r3, #0
10004b90:	9302      	str	r3, [sp, #8]
10004b92:	9301      	str	r3, [sp, #4]
10004b94:	4b1c      	ldr	r3, [pc, #112]	; (10004c08 <sleep_until+0xf0>)
10004b96:	9300      	str	r3, [sp, #0]
10004b98:	9a04      	ldr	r2, [sp, #16]
10004b9a:	9b05      	ldr	r3, [sp, #20]
10004b9c:	f7ff fe44 	bl	10004828 <alarm_pool_add_alarm_at>
10004ba0:	2800      	cmp	r0, #0
10004ba2:	da18      	bge.n	10004bd6 <sleep_until+0xbe>
10004ba4:	e7da      	b.n	10004b5c <sleep_until+0x44>
10004ba6:	2300      	movs	r3, #0
10004ba8:	e000      	b.n	10004bac <sleep_until+0x94>
10004baa:	2300      	movs	r3, #0
10004bac:	2b00      	cmp	r3, #0
10004bae:	d1d5      	bne.n	10004b5c <sleep_until+0x44>
10004bb0:	4b16      	ldr	r3, [pc, #88]	; (10004c0c <sleep_until+0xf4>)
10004bb2:	681a      	ldr	r2, [r3, #0]
10004bb4:	f3ef 8110 	mrs	r1, PRIMASK
10004bb8:	b672      	cpsid	i
10004bba:	6813      	ldr	r3, [r2, #0]
10004bbc:	2b00      	cmp	r3, #0
10004bbe:	d0fc      	beq.n	10004bba <sleep_until+0xa2>
10004bc0:	f3bf 8f5f 	dmb	sy
10004bc4:	4b11      	ldr	r3, [pc, #68]	; (10004c0c <sleep_until+0xf4>)
10004bc6:	681b      	ldr	r3, [r3, #0]
10004bc8:	f3bf 8f5f 	dmb	sy
10004bcc:	2200      	movs	r2, #0
10004bce:	601a      	str	r2, [r3, #0]
10004bd0:	f381 8810 	msr	PRIMASK, r1
10004bd4:	bf20      	wfe
10004bd6:	9904      	ldr	r1, [sp, #16]
10004bd8:	9a05      	ldr	r2, [sp, #20]
10004bda:	4b0d      	ldr	r3, [pc, #52]	; (10004c10 <sleep_until+0xf8>)
10004bdc:	6a5b      	ldr	r3, [r3, #36]	; 0x24
10004bde:	429a      	cmp	r2, r3
10004be0:	d8e3      	bhi.n	10004baa <sleep_until+0x92>
10004be2:	480b      	ldr	r0, [pc, #44]	; (10004c10 <sleep_until+0xf8>)
10004be4:	6a80      	ldr	r0, [r0, #40]	; 0x28
10004be6:	4288      	cmp	r0, r1
10004be8:	d203      	bcs.n	10004bf2 <sleep_until+0xda>
10004bea:	429a      	cmp	r2, r3
10004bec:	d0db      	beq.n	10004ba6 <sleep_until+0x8e>
10004bee:	2301      	movs	r3, #1
10004bf0:	e7dc      	b.n	10004bac <sleep_until+0x94>
10004bf2:	2301      	movs	r3, #1
10004bf4:	e7da      	b.n	10004bac <sleep_until+0x94>
10004bf6:	46c0      	nop			; (mov r8, r8)
10004bf8:	1000b490 	.word	0x1000b490
10004bfc:	1000b1a4 	.word	0x1000b1a4
10004c00:	1000b514 	.word	0x1000b514
10004c04:	1000b1c0 	.word	0x1000b1c0
10004c08:	1000418d 	.word	0x1000418d
10004c0c:	20001f0c 	.word	0x20001f0c
10004c10:	40054000 	.word	0x40054000

10004c14 <sleep_us>:
10004c14:	b570      	push	{r4, r5, r6, lr}
10004c16:	0004      	movs	r4, r0
10004c18:	000d      	movs	r5, r1
10004c1a:	f000 f8d9 	bl	10004dd0 <time_us_64>
10004c1e:	0002      	movs	r2, r0
10004c20:	1e0b      	subs	r3, r1, #0
10004c22:	db0a      	blt.n	10004c3a <sleep_us+0x26>
10004c24:	0020      	movs	r0, r4
10004c26:	0029      	movs	r1, r5
10004c28:	1880      	adds	r0, r0, r2
10004c2a:	4159      	adcs	r1, r3
10004c2c:	2900      	cmp	r1, #0
10004c2e:	db0a      	blt.n	10004c46 <sleep_us+0x32>
10004c30:	2900      	cmp	r1, #0
10004c32:	db0c      	blt.n	10004c4e <sleep_us+0x3a>
10004c34:	f7ff ff70 	bl	10004b18 <sleep_until>
10004c38:	bd70      	pop	{r4, r5, r6, pc}
10004c3a:	4b08      	ldr	r3, [pc, #32]	; (10004c5c <sleep_us+0x48>)
10004c3c:	4a08      	ldr	r2, [pc, #32]	; (10004c60 <sleep_us+0x4c>)
10004c3e:	4809      	ldr	r0, [pc, #36]	; (10004c64 <sleep_us+0x50>)
10004c40:	213f      	movs	r1, #63	; 0x3f
10004c42:	f000 fe91 	bl	10005968 <__assert_func>
10004c46:	2001      	movs	r0, #1
10004c48:	4240      	negs	r0, r0
10004c4a:	4907      	ldr	r1, [pc, #28]	; (10004c68 <sleep_us+0x54>)
10004c4c:	e7f0      	b.n	10004c30 <sleep_us+0x1c>
10004c4e:	4b03      	ldr	r3, [pc, #12]	; (10004c5c <sleep_us+0x48>)
10004c50:	4a03      	ldr	r2, [pc, #12]	; (10004c60 <sleep_us+0x4c>)
10004c52:	4804      	ldr	r0, [pc, #16]	; (10004c64 <sleep_us+0x50>)
10004c54:	213f      	movs	r1, #63	; 0x3f
10004c56:	f000 fe87 	bl	10005968 <__assert_func>
10004c5a:	46c0      	nop			; (mov r8, r8)
10004c5c:	1000b1a4 	.word	0x1000b1a4
10004c60:	1000b514 	.word	0x1000b514
10004c64:	1000b1c0 	.word	0x1000b1c0
10004c68:	7fffffff 	.word	0x7fffffff

10004c6c <sleep_ms>:
10004c6c:	b510      	push	{r4, lr}
10004c6e:	22fa      	movs	r2, #250	; 0xfa
10004c70:	0092      	lsls	r2, r2, #2
10004c72:	2300      	movs	r3, #0
10004c74:	2100      	movs	r1, #0
10004c76:	f002 fe77 	bl	10007968 <__wrap___aeabi_lmul>
10004c7a:	f7ff ffcb 	bl	10004c14 <sleep_us>
10004c7e:	bd10      	pop	{r4, pc}

10004c80 <best_effort_wfe_or_timeout>:
10004c80:	b570      	push	{r4, r5, r6, lr}
10004c82:	b084      	sub	sp, #16
10004c84:	0005      	movs	r5, r0
10004c86:	000c      	movs	r4, r1
10004c88:	f3ef 8305 	mrs	r3, IPSR
10004c8c:	2b00      	cmp	r3, #0
10004c8e:	d11e      	bne.n	10004cce <best_effort_wfe_or_timeout+0x4e>
10004c90:	f7ff fdb4 	bl	100047fc <alarm_pool_get_default>
10004c94:	2300      	movs	r3, #0
10004c96:	9302      	str	r3, [sp, #8]
10004c98:	9301      	str	r3, [sp, #4]
10004c9a:	4b22      	ldr	r3, [pc, #136]	; (10004d24 <best_effort_wfe_or_timeout+0xa4>)
10004c9c:	9300      	str	r3, [sp, #0]
10004c9e:	002a      	movs	r2, r5
10004ca0:	0023      	movs	r3, r4
10004ca2:	f7ff fdc1 	bl	10004828 <alarm_pool_add_alarm_at>
10004ca6:	1e06      	subs	r6, r0, #0
10004ca8:	dd23      	ble.n	10004cf2 <best_effort_wfe_or_timeout+0x72>
10004caa:	bf20      	wfe
10004cac:	f7ff fda6 	bl	100047fc <alarm_pool_get_default>
10004cb0:	0031      	movs	r1, r6
10004cb2:	f7ff fe6f 	bl	10004994 <alarm_pool_cancel_alarm>
10004cb6:	4b1c      	ldr	r3, [pc, #112]	; (10004d28 <best_effort_wfe_or_timeout+0xa8>)
10004cb8:	6a5b      	ldr	r3, [r3, #36]	; 0x24
10004cba:	429c      	cmp	r4, r3
10004cbc:	d82d      	bhi.n	10004d1a <best_effort_wfe_or_timeout+0x9a>
10004cbe:	4a1a      	ldr	r2, [pc, #104]	; (10004d28 <best_effort_wfe_or_timeout+0xa8>)
10004cc0:	6a92      	ldr	r2, [r2, #40]	; 0x28
10004cc2:	42aa      	cmp	r2, r5
10004cc4:	d22c      	bcs.n	10004d20 <best_effort_wfe_or_timeout+0xa0>
10004cc6:	429c      	cmp	r4, r3
10004cc8:	d025      	beq.n	10004d16 <best_effort_wfe_or_timeout+0x96>
10004cca:	2001      	movs	r0, #1
10004ccc:	e026      	b.n	10004d1c <best_effort_wfe_or_timeout+0x9c>
10004cce:	4b16      	ldr	r3, [pc, #88]	; (10004d28 <best_effort_wfe_or_timeout+0xa8>)
10004cd0:	6a5b      	ldr	r3, [r3, #36]	; 0x24
10004cd2:	4299      	cmp	r1, r3
10004cd4:	d809      	bhi.n	10004cea <best_effort_wfe_or_timeout+0x6a>
10004cd6:	4a14      	ldr	r2, [pc, #80]	; (10004d28 <best_effort_wfe_or_timeout+0xa8>)
10004cd8:	6a92      	ldr	r2, [r2, #40]	; 0x28
10004cda:	4282      	cmp	r2, r0
10004cdc:	d207      	bcs.n	10004cee <best_effort_wfe_or_timeout+0x6e>
10004cde:	4299      	cmp	r1, r3
10004ce0:	d001      	beq.n	10004ce6 <best_effort_wfe_or_timeout+0x66>
10004ce2:	2001      	movs	r0, #1
10004ce4:	e01a      	b.n	10004d1c <best_effort_wfe_or_timeout+0x9c>
10004ce6:	2000      	movs	r0, #0
10004ce8:	e018      	b.n	10004d1c <best_effort_wfe_or_timeout+0x9c>
10004cea:	2000      	movs	r0, #0
10004cec:	e016      	b.n	10004d1c <best_effort_wfe_or_timeout+0x9c>
10004cee:	2001      	movs	r0, #1
10004cf0:	e014      	b.n	10004d1c <best_effort_wfe_or_timeout+0x9c>
10004cf2:	4b0d      	ldr	r3, [pc, #52]	; (10004d28 <best_effort_wfe_or_timeout+0xa8>)
10004cf4:	6a5b      	ldr	r3, [r3, #36]	; 0x24
10004cf6:	429c      	cmp	r4, r3
10004cf8:	d809      	bhi.n	10004d0e <best_effort_wfe_or_timeout+0x8e>
10004cfa:	4a0b      	ldr	r2, [pc, #44]	; (10004d28 <best_effort_wfe_or_timeout+0xa8>)
10004cfc:	6a92      	ldr	r2, [r2, #40]	; 0x28
10004cfe:	42aa      	cmp	r2, r5
10004d00:	d207      	bcs.n	10004d12 <best_effort_wfe_or_timeout+0x92>
10004d02:	429c      	cmp	r4, r3
10004d04:	d001      	beq.n	10004d0a <best_effort_wfe_or_timeout+0x8a>
10004d06:	2001      	movs	r0, #1
10004d08:	e008      	b.n	10004d1c <best_effort_wfe_or_timeout+0x9c>
10004d0a:	2000      	movs	r0, #0
10004d0c:	e006      	b.n	10004d1c <best_effort_wfe_or_timeout+0x9c>
10004d0e:	2000      	movs	r0, #0
10004d10:	e004      	b.n	10004d1c <best_effort_wfe_or_timeout+0x9c>
10004d12:	2001      	movs	r0, #1
10004d14:	e002      	b.n	10004d1c <best_effort_wfe_or_timeout+0x9c>
10004d16:	2000      	movs	r0, #0
10004d18:	e000      	b.n	10004d1c <best_effort_wfe_or_timeout+0x9c>
10004d1a:	2000      	movs	r0, #0
10004d1c:	b004      	add	sp, #16
10004d1e:	bd70      	pop	{r4, r5, r6, pc}
10004d20:	2001      	movs	r0, #1
10004d22:	e7fb      	b.n	10004d1c <best_effort_wfe_or_timeout+0x9c>
10004d24:	1000418d 	.word	0x1000418d
10004d28:	40054000 	.word	0x40054000

10004d2c <hardware_alarm_irq_handler>:
10004d2c:	b570      	push	{r4, r5, r6, lr}
10004d2e:	f3ef 8005 	mrs	r0, IPSR
10004d32:	3810      	subs	r0, #16
10004d34:	f3ef 8c10 	mrs	ip, PRIMASK
10004d38:	b672      	cpsid	i
10004d3a:	4b19      	ldr	r3, [pc, #100]	; (10004da0 <hardware_alarm_irq_handler+0x74>)
10004d3c:	681b      	ldr	r3, [r3, #0]
10004d3e:	2b00      	cmp	r3, #0
10004d40:	d0fb      	beq.n	10004d3a <hardware_alarm_irq_handler+0xe>
10004d42:	f3bf 8f5f 	dmb	sy
10004d46:	2201      	movs	r2, #1
10004d48:	0013      	movs	r3, r2
10004d4a:	4083      	lsls	r3, r0
10004d4c:	4915      	ldr	r1, [pc, #84]	; (10004da4 <hardware_alarm_irq_handler+0x78>)
10004d4e:	634b      	str	r3, [r1, #52]	; 0x34
10004d50:	4915      	ldr	r1, [pc, #84]	; (10004da8 <hardware_alarm_irq_handler+0x7c>)
10004d52:	600b      	str	r3, [r1, #0]
10004d54:	4915      	ldr	r1, [pc, #84]	; (10004dac <hardware_alarm_irq_handler+0x80>)
10004d56:	7809      	ldrb	r1, [r1, #0]
10004d58:	000c      	movs	r4, r1
10004d5a:	40c4      	lsrs	r4, r0
10004d5c:	4222      	tst	r2, r4
10004d5e:	d013      	beq.n	10004d88 <hardware_alarm_irq_handler+0x5c>
10004d60:	4a10      	ldr	r2, [pc, #64]	; (10004da4 <hardware_alarm_irq_handler+0x78>)
10004d62:	6a54      	ldr	r4, [r2, #36]	; 0x24
10004d64:	4a12      	ldr	r2, [pc, #72]	; (10004db0 <hardware_alarm_irq_handler+0x84>)
10004d66:	0085      	lsls	r5, r0, #2
10004d68:	58aa      	ldr	r2, [r5, r2]
10004d6a:	4294      	cmp	r4, r2
10004d6c:	d305      	bcc.n	10004d7a <hardware_alarm_irq_handler+0x4e>
10004d6e:	4a11      	ldr	r2, [pc, #68]	; (10004db4 <hardware_alarm_irq_handler+0x88>)
10004d70:	58aa      	ldr	r2, [r5, r2]
10004d72:	4c0e      	ldr	r4, [pc, #56]	; (10004dac <hardware_alarm_irq_handler+0x80>)
10004d74:	4399      	bics	r1, r3
10004d76:	7021      	strb	r1, [r4, #0]
10004d78:	e007      	b.n	10004d8a <hardware_alarm_irq_handler+0x5e>
10004d7a:	4a0a      	ldr	r2, [pc, #40]	; (10004da4 <hardware_alarm_irq_handler+0x78>)
10004d7c:	1d03      	adds	r3, r0, #4
10004d7e:	009b      	lsls	r3, r3, #2
10004d80:	5899      	ldr	r1, [r3, r2]
10004d82:	5099      	str	r1, [r3, r2]
10004d84:	2200      	movs	r2, #0
10004d86:	e000      	b.n	10004d8a <hardware_alarm_irq_handler+0x5e>
10004d88:	2200      	movs	r2, #0
10004d8a:	f3bf 8f5f 	dmb	sy
10004d8e:	4b04      	ldr	r3, [pc, #16]	; (10004da0 <hardware_alarm_irq_handler+0x74>)
10004d90:	2100      	movs	r1, #0
10004d92:	6019      	str	r1, [r3, #0]
10004d94:	f38c 8810 	msr	PRIMASK, ip
10004d98:	2a00      	cmp	r2, #0
10004d9a:	d000      	beq.n	10004d9e <hardware_alarm_irq_handler+0x72>
10004d9c:	4790      	blx	r2
10004d9e:	bd70      	pop	{r4, r5, r6, pc}
10004da0:	d0000128 	.word	0xd0000128
10004da4:	40054000 	.word	0x40054000
10004da8:	4005703c 	.word	0x4005703c
10004dac:	20001f6e 	.word	0x20001f6e
10004db0:	20001f18 	.word	0x20001f18
10004db4:	20001710 	.word	0x20001710

10004db8 <hardware_alarm_claim>:
10004db8:	b510      	push	{r4, lr}
10004dba:	0001      	movs	r1, r0
10004dbc:	4a02      	ldr	r2, [pc, #8]	; (10004dc8 <hardware_alarm_claim+0x10>)
10004dbe:	4b03      	ldr	r3, [pc, #12]	; (10004dcc <hardware_alarm_claim+0x14>)
10004dc0:	0018      	movs	r0, r3
10004dc2:	f7fe fda9 	bl	10003918 <hw_claim_or_assert>
10004dc6:	bd10      	pop	{r4, pc}
10004dc8:	1000b5d8 	.word	0x1000b5d8
10004dcc:	20001f5c 	.word	0x20001f5c

10004dd0 <time_us_64>:
10004dd0:	4b04      	ldr	r3, [pc, #16]	; (10004de4 <time_us_64+0x14>)
10004dd2:	6a5b      	ldr	r3, [r3, #36]	; 0x24
10004dd4:	4a03      	ldr	r2, [pc, #12]	; (10004de4 <time_us_64+0x14>)
10004dd6:	6a90      	ldr	r0, [r2, #40]	; 0x28
10004dd8:	0019      	movs	r1, r3
10004dda:	6a53      	ldr	r3, [r2, #36]	; 0x24
10004ddc:	4299      	cmp	r1, r3
10004dde:	d1f9      	bne.n	10004dd4 <time_us_64+0x4>
10004de0:	4770      	bx	lr
10004de2:	46c0      	nop			; (mov r8, r8)
10004de4:	40054000 	.word	0x40054000

10004de8 <busy_wait_until>:
10004de8:	4b08      	ldr	r3, [pc, #32]	; (10004e0c <busy_wait_until+0x24>)
10004dea:	6a5b      	ldr	r3, [r3, #36]	; 0x24
10004dec:	e001      	b.n	10004df2 <busy_wait_until+0xa>
10004dee:	4b07      	ldr	r3, [pc, #28]	; (10004e0c <busy_wait_until+0x24>)
10004df0:	6a5b      	ldr	r3, [r3, #36]	; 0x24
10004df2:	428b      	cmp	r3, r1
10004df4:	d3fb      	bcc.n	10004dee <busy_wait_until+0x6>
10004df6:	e001      	b.n	10004dfc <busy_wait_until+0x14>
10004df8:	4b04      	ldr	r3, [pc, #16]	; (10004e0c <busy_wait_until+0x24>)
10004dfa:	6a5b      	ldr	r3, [r3, #36]	; 0x24
10004dfc:	428b      	cmp	r3, r1
10004dfe:	d103      	bne.n	10004e08 <busy_wait_until+0x20>
10004e00:	4b02      	ldr	r3, [pc, #8]	; (10004e0c <busy_wait_until+0x24>)
10004e02:	6a9b      	ldr	r3, [r3, #40]	; 0x28
10004e04:	4283      	cmp	r3, r0
10004e06:	d3f7      	bcc.n	10004df8 <busy_wait_until+0x10>
10004e08:	4770      	bx	lr
10004e0a:	46c0      	nop			; (mov r8, r8)
10004e0c:	40054000 	.word	0x40054000

10004e10 <hardware_alarm_set_callback>:
10004e10:	b570      	push	{r4, r5, r6, lr}
10004e12:	0004      	movs	r4, r0
10004e14:	000e      	movs	r6, r1
10004e16:	f3ef 8510 	mrs	r5, PRIMASK
10004e1a:	b672      	cpsid	i
10004e1c:	4b1b      	ldr	r3, [pc, #108]	; (10004e8c <hardware_alarm_set_callback+0x7c>)
10004e1e:	681b      	ldr	r3, [r3, #0]
10004e20:	2b00      	cmp	r3, #0
10004e22:	d0fb      	beq.n	10004e1c <hardware_alarm_set_callback+0xc>
10004e24:	f3bf 8f5f 	dmb	sy
10004e28:	2e00      	cmp	r6, #0
10004e2a:	d01c      	beq.n	10004e66 <hardware_alarm_set_callback+0x56>
10004e2c:	0020      	movs	r0, r4
10004e2e:	f7fe fe69 	bl	10003b04 <irq_get_vtable_handler>
10004e32:	4b17      	ldr	r3, [pc, #92]	; (10004e90 <hardware_alarm_set_callback+0x80>)
10004e34:	4283      	cmp	r3, r0
10004e36:	d00b      	beq.n	10004e50 <hardware_alarm_set_callback+0x40>
10004e38:	0019      	movs	r1, r3
10004e3a:	0020      	movs	r0, r4
10004e3c:	f7fe fe7c 	bl	10003b38 <irq_set_exclusive_handler>
10004e40:	2101      	movs	r1, #1
10004e42:	0020      	movs	r0, r4
10004e44:	f7fe fe4e 	bl	10003ae4 <irq_set_enabled>
10004e48:	2301      	movs	r3, #1
10004e4a:	40a3      	lsls	r3, r4
10004e4c:	4a11      	ldr	r2, [pc, #68]	; (10004e94 <hardware_alarm_set_callback+0x84>)
10004e4e:	6013      	str	r3, [r2, #0]
10004e50:	4b11      	ldr	r3, [pc, #68]	; (10004e98 <hardware_alarm_set_callback+0x88>)
10004e52:	00a4      	lsls	r4, r4, #2
10004e54:	50e6      	str	r6, [r4, r3]
10004e56:	f3bf 8f5f 	dmb	sy
10004e5a:	4b0c      	ldr	r3, [pc, #48]	; (10004e8c <hardware_alarm_set_callback+0x7c>)
10004e5c:	2200      	movs	r2, #0
10004e5e:	601a      	str	r2, [r3, #0]
10004e60:	f385 8810 	msr	PRIMASK, r5
10004e64:	bd70      	pop	{r4, r5, r6, pc}
10004e66:	4b0c      	ldr	r3, [pc, #48]	; (10004e98 <hardware_alarm_set_callback+0x88>)
10004e68:	00a2      	lsls	r2, r4, #2
10004e6a:	2100      	movs	r1, #0
10004e6c:	50d1      	str	r1, [r2, r3]
10004e6e:	2201      	movs	r2, #1
10004e70:	40a2      	lsls	r2, r4
10004e72:	490a      	ldr	r1, [pc, #40]	; (10004e9c <hardware_alarm_set_callback+0x8c>)
10004e74:	780b      	ldrb	r3, [r1, #0]
10004e76:	4393      	bics	r3, r2
10004e78:	700b      	strb	r3, [r1, #0]
10004e7a:	4905      	ldr	r1, [pc, #20]	; (10004e90 <hardware_alarm_set_callback+0x80>)
10004e7c:	0020      	movs	r0, r4
10004e7e:	f7fe ff9d 	bl	10003dbc <irq_remove_handler>
10004e82:	2100      	movs	r1, #0
10004e84:	0020      	movs	r0, r4
10004e86:	f7fe fe2d 	bl	10003ae4 <irq_set_enabled>
10004e8a:	e7e4      	b.n	10004e56 <hardware_alarm_set_callback+0x46>
10004e8c:	d0000128 	.word	0xd0000128
10004e90:	10004d2d 	.word	0x10004d2d
10004e94:	40056038 	.word	0x40056038
10004e98:	20001710 	.word	0x20001710
10004e9c:	20001f6e 	.word	0x20001f6e

10004ea0 <hardware_alarm_set_target>:
10004ea0:	b5f0      	push	{r4, r5, r6, r7, lr}
10004ea2:	46de      	mov	lr, fp
10004ea4:	b500      	push	{lr}
10004ea6:	b084      	sub	sp, #16
10004ea8:	0004      	movs	r4, r0
10004eaa:	0015      	movs	r5, r2
10004eac:	9201      	str	r2, [sp, #4]
10004eae:	001e      	movs	r6, r3
10004eb0:	9302      	str	r3, [sp, #8]
10004eb2:	f7ff ff8d 	bl	10004dd0 <time_us_64>
10004eb6:	9503      	str	r5, [sp, #12]
10004eb8:	428e      	cmp	r6, r1
10004eba:	d802      	bhi.n	10004ec2 <hardware_alarm_set_target+0x22>
10004ebc:	d14e      	bne.n	10004f5c <hardware_alarm_set_target+0xbc>
10004ebe:	4285      	cmp	r5, r0
10004ec0:	d94c      	bls.n	10004f5c <hardware_alarm_set_target+0xbc>
10004ec2:	f3ef 8b10 	mrs	fp, PRIMASK
10004ec6:	b672      	cpsid	i
10004ec8:	4b27      	ldr	r3, [pc, #156]	; (10004f68 <hardware_alarm_set_target+0xc8>)
10004eca:	681b      	ldr	r3, [r3, #0]
10004ecc:	2b00      	cmp	r3, #0
10004ece:	d0fb      	beq.n	10004ec8 <hardware_alarm_set_target+0x28>
10004ed0:	f3bf 8f5f 	dmb	sy
10004ed4:	4a25      	ldr	r2, [pc, #148]	; (10004f6c <hardware_alarm_set_target+0xcc>)
10004ed6:	7817      	ldrb	r7, [r2, #0]
10004ed8:	2501      	movs	r5, #1
10004eda:	40a5      	lsls	r5, r4
10004edc:	b2eb      	uxtb	r3, r5
10004ede:	433b      	orrs	r3, r7
10004ee0:	7013      	strb	r3, [r2, #0]
10004ee2:	4b23      	ldr	r3, [pc, #140]	; (10004f70 <hardware_alarm_set_target+0xd0>)
10004ee4:	635d      	str	r5, [r3, #52]	; 0x34
10004ee6:	1d22      	adds	r2, r4, #4
10004ee8:	0092      	lsls	r2, r2, #2
10004eea:	9901      	ldr	r1, [sp, #4]
10004eec:	50d1      	str	r1, [r2, r3]
10004eee:	4a21      	ldr	r2, [pc, #132]	; (10004f74 <hardware_alarm_set_target+0xd4>)
10004ef0:	00a1      	lsls	r1, r4, #2
10004ef2:	9802      	ldr	r0, [sp, #8]
10004ef4:	5088      	str	r0, [r1, r2]
10004ef6:	6a1b      	ldr	r3, [r3, #32]
10004ef8:	422b      	tst	r3, r5
10004efa:	d112      	bne.n	10004f22 <hardware_alarm_set_target+0x82>
10004efc:	4b1c      	ldr	r3, [pc, #112]	; (10004f70 <hardware_alarm_set_target+0xd0>)
10004efe:	6c1b      	ldr	r3, [r3, #64]	; 0x40
10004f00:	422b      	tst	r3, r5
10004f02:	d008      	beq.n	10004f16 <hardware_alarm_set_target+0x76>
10004f04:	2000      	movs	r0, #0
10004f06:	f3bf 8f5f 	dmb	sy
10004f0a:	4b17      	ldr	r3, [pc, #92]	; (10004f68 <hardware_alarm_set_target+0xc8>)
10004f0c:	2200      	movs	r2, #0
10004f0e:	601a      	str	r2, [r3, #0]
10004f10:	f38b 8810 	msr	PRIMASK, fp
10004f14:	e023      	b.n	10004f5e <hardware_alarm_set_target+0xbe>
10004f16:	4b18      	ldr	r3, [pc, #96]	; (10004f78 <hardware_alarm_set_target+0xd8>)
10004f18:	4a18      	ldr	r2, [pc, #96]	; (10004f7c <hardware_alarm_set_target+0xdc>)
10004f1a:	4819      	ldr	r0, [pc, #100]	; (10004f80 <hardware_alarm_set_target+0xe0>)
10004f1c:	21c5      	movs	r1, #197	; 0xc5
10004f1e:	f000 fd23 	bl	10005968 <__assert_func>
10004f22:	f7ff ff55 	bl	10004dd0 <time_us_64>
10004f26:	428e      	cmp	r6, r1
10004f28:	d814      	bhi.n	10004f54 <hardware_alarm_set_target+0xb4>
10004f2a:	d102      	bne.n	10004f32 <hardware_alarm_set_target+0x92>
10004f2c:	9b03      	ldr	r3, [sp, #12]
10004f2e:	4283      	cmp	r3, r0
10004f30:	d810      	bhi.n	10004f54 <hardware_alarm_set_target+0xb4>
10004f32:	4b0e      	ldr	r3, [pc, #56]	; (10004f6c <hardware_alarm_set_target+0xcc>)
10004f34:	781b      	ldrb	r3, [r3, #0]
10004f36:	42bb      	cmp	r3, r7
10004f38:	d00e      	beq.n	10004f58 <hardware_alarm_set_target+0xb8>
10004f3a:	4b0d      	ldr	r3, [pc, #52]	; (10004f70 <hardware_alarm_set_target+0xd0>)
10004f3c:	621d      	str	r5, [r3, #32]
10004f3e:	635d      	str	r5, [r3, #52]	; 0x34
10004f40:	221f      	movs	r2, #31
10004f42:	4022      	ands	r2, r4
10004f44:	2301      	movs	r3, #1
10004f46:	4093      	lsls	r3, r2
10004f48:	4a0e      	ldr	r2, [pc, #56]	; (10004f84 <hardware_alarm_set_target+0xe4>)
10004f4a:	6013      	str	r3, [r2, #0]
10004f4c:	4b07      	ldr	r3, [pc, #28]	; (10004f6c <hardware_alarm_set_target+0xcc>)
10004f4e:	701f      	strb	r7, [r3, #0]
10004f50:	2001      	movs	r0, #1
10004f52:	e7d8      	b.n	10004f06 <hardware_alarm_set_target+0x66>
10004f54:	2000      	movs	r0, #0
10004f56:	e7d6      	b.n	10004f06 <hardware_alarm_set_target+0x66>
10004f58:	2001      	movs	r0, #1
10004f5a:	e7d4      	b.n	10004f06 <hardware_alarm_set_target+0x66>
10004f5c:	2001      	movs	r0, #1
10004f5e:	b004      	add	sp, #16
10004f60:	bc80      	pop	{r7}
10004f62:	46bb      	mov	fp, r7
10004f64:	bdf0      	pop	{r4, r5, r6, r7, pc}
10004f66:	46c0      	nop			; (mov r8, r8)
10004f68:	d0000128 	.word	0xd0000128
10004f6c:	20001f6e 	.word	0x20001f6e
10004f70:	40054000 	.word	0x40054000
10004f74:	20001f18 	.word	0x20001f18
10004f78:	1000b5fc 	.word	0x1000b5fc
10004f7c:	1000b664 	.word	0x1000b664
10004f80:	1000b620 	.word	0x1000b620
10004f84:	e000e280 	.word	0xe000e280

10004f88 <hardware_alarm_cancel>:
10004f88:	f3ef 8c10 	mrs	ip, PRIMASK
10004f8c:	b672      	cpsid	i
10004f8e:	4b0b      	ldr	r3, [pc, #44]	; (10004fbc <hardware_alarm_cancel+0x34>)
10004f90:	681b      	ldr	r3, [r3, #0]
10004f92:	2b00      	cmp	r3, #0
10004f94:	d0fb      	beq.n	10004f8e <hardware_alarm_cancel+0x6>
10004f96:	f3bf 8f5f 	dmb	sy
10004f9a:	2301      	movs	r3, #1
10004f9c:	4083      	lsls	r3, r0
10004f9e:	4a08      	ldr	r2, [pc, #32]	; (10004fc0 <hardware_alarm_cancel+0x38>)
10004fa0:	6213      	str	r3, [r2, #32]
10004fa2:	4908      	ldr	r1, [pc, #32]	; (10004fc4 <hardware_alarm_cancel+0x3c>)
10004fa4:	780a      	ldrb	r2, [r1, #0]
10004fa6:	439a      	bics	r2, r3
10004fa8:	700a      	strb	r2, [r1, #0]
10004faa:	f3bf 8f5f 	dmb	sy
10004fae:	4b03      	ldr	r3, [pc, #12]	; (10004fbc <hardware_alarm_cancel+0x34>)
10004fb0:	2200      	movs	r2, #0
10004fb2:	601a      	str	r2, [r3, #0]
10004fb4:	f38c 8810 	msr	PRIMASK, ip
10004fb8:	4770      	bx	lr
10004fba:	46c0      	nop			; (mov r8, r8)
10004fbc:	d0000128 	.word	0xd0000128
10004fc0:	40054000 	.word	0x40054000
10004fc4:	20001f6e 	.word	0x20001f6e

10004fc8 <ph_add_child_node>:
10004fc8:	b510      	push	{r4, lr}
10004fca:	2900      	cmp	r1, #0
10004fcc:	d01d      	beq.n	1000500a <ph_add_child_node+0x42>
10004fce:	7b03      	ldrb	r3, [r0, #12]
10004fd0:	4299      	cmp	r1, r3
10004fd2:	d81a      	bhi.n	1000500a <ph_add_child_node+0x42>
10004fd4:	6804      	ldr	r4, [r0, #0]
10004fd6:	004b      	lsls	r3, r1, #1
10004fd8:	185b      	adds	r3, r3, r1
10004fda:	3b03      	subs	r3, #3
10004fdc:	18e4      	adds	r4, r4, r3
10004fde:	2900      	cmp	r1, #0
10004fe0:	d019      	beq.n	10005016 <ph_add_child_node+0x4e>
10004fe2:	2a00      	cmp	r2, #0
10004fe4:	d01d      	beq.n	10005022 <ph_add_child_node+0x5a>
10004fe6:	4291      	cmp	r1, r2
10004fe8:	d021      	beq.n	1000502e <ph_add_child_node+0x66>
10004fea:	2a00      	cmp	r2, #0
10004fec:	d025      	beq.n	1000503a <ph_add_child_node+0x72>
10004fee:	7b03      	ldrb	r3, [r0, #12]
10004ff0:	429a      	cmp	r2, r3
10004ff2:	d822      	bhi.n	1000503a <ph_add_child_node+0x72>
10004ff4:	6800      	ldr	r0, [r0, #0]
10004ff6:	0053      	lsls	r3, r2, #1
10004ff8:	189b      	adds	r3, r3, r2
10004ffa:	3b03      	subs	r3, #3
10004ffc:	18c3      	adds	r3, r0, r3
10004ffe:	7099      	strb	r1, [r3, #2]
10005000:	7821      	ldrb	r1, [r4, #0]
10005002:	2900      	cmp	r1, #0
10005004:	d11f      	bne.n	10005046 <ph_add_child_node+0x7e>
10005006:	7022      	strb	r2, [r4, #0]
10005008:	bd10      	pop	{r4, pc}
1000500a:	4b10      	ldr	r3, [pc, #64]	; (1000504c <ph_add_child_node+0x84>)
1000500c:	4a10      	ldr	r2, [pc, #64]	; (10005050 <ph_add_child_node+0x88>)
1000500e:	4811      	ldr	r0, [pc, #68]	; (10005054 <ph_add_child_node+0x8c>)
10005010:	2168      	movs	r1, #104	; 0x68
10005012:	f000 fca9 	bl	10005968 <__assert_func>
10005016:	4b10      	ldr	r3, [pc, #64]	; (10005058 <ph_add_child_node+0x90>)
10005018:	4a10      	ldr	r2, [pc, #64]	; (1000505c <ph_add_child_node+0x94>)
1000501a:	480e      	ldr	r0, [pc, #56]	; (10005054 <ph_add_child_node+0x8c>)
1000501c:	316f      	adds	r1, #111	; 0x6f
1000501e:	f000 fca3 	bl	10005968 <__assert_func>
10005022:	4b0f      	ldr	r3, [pc, #60]	; (10005060 <ph_add_child_node+0x98>)
10005024:	4a0d      	ldr	r2, [pc, #52]	; (1000505c <ph_add_child_node+0x94>)
10005026:	480b      	ldr	r0, [pc, #44]	; (10005054 <ph_add_child_node+0x8c>)
10005028:	2170      	movs	r1, #112	; 0x70
1000502a:	f000 fc9d 	bl	10005968 <__assert_func>
1000502e:	4b0d      	ldr	r3, [pc, #52]	; (10005064 <ph_add_child_node+0x9c>)
10005030:	4a0a      	ldr	r2, [pc, #40]	; (1000505c <ph_add_child_node+0x94>)
10005032:	4808      	ldr	r0, [pc, #32]	; (10005054 <ph_add_child_node+0x8c>)
10005034:	2171      	movs	r1, #113	; 0x71
10005036:	f000 fc97 	bl	10005968 <__assert_func>
1000503a:	4b04      	ldr	r3, [pc, #16]	; (1000504c <ph_add_child_node+0x84>)
1000503c:	4a04      	ldr	r2, [pc, #16]	; (10005050 <ph_add_child_node+0x88>)
1000503e:	4805      	ldr	r0, [pc, #20]	; (10005054 <ph_add_child_node+0x8c>)
10005040:	2168      	movs	r1, #104	; 0x68
10005042:	f000 fc91 	bl	10005968 <__assert_func>
10005046:	7059      	strb	r1, [r3, #1]
10005048:	7022      	strb	r2, [r4, #0]
1000504a:	e7dd      	b.n	10005008 <ph_add_child_node+0x40>
1000504c:	1000b2ec 	.word	0x1000b2ec
10005050:	1000b76c 	.word	0x1000b76c
10005054:	1000b308 	.word	0x1000b308
10005058:	1000b354 	.word	0x1000b354
1000505c:	1000b758 	.word	0x1000b758
10005060:	1000b360 	.word	0x1000b360
10005064:	1000b36c 	.word	0x1000b36c

10005068 <ph_merge_nodes>:
10005068:	b570      	push	{r4, r5, r6, lr}
1000506a:	0006      	movs	r6, r0
1000506c:	000d      	movs	r5, r1
1000506e:	0014      	movs	r4, r2
10005070:	2900      	cmp	r1, #0
10005072:	d014      	beq.n	1000509e <ph_merge_nodes+0x36>
10005074:	2a00      	cmp	r2, #0
10005076:	d014      	beq.n	100050a2 <ph_merge_nodes+0x3a>
10005078:	6843      	ldr	r3, [r0, #4]
1000507a:	6880      	ldr	r0, [r0, #8]
1000507c:	4798      	blx	r3
1000507e:	2800      	cmp	r0, #0
10005080:	d006      	beq.n	10005090 <ph_merge_nodes+0x28>
10005082:	0022      	movs	r2, r4
10005084:	0029      	movs	r1, r5
10005086:	0030      	movs	r0, r6
10005088:	f7ff ff9e 	bl	10004fc8 <ph_add_child_node>
1000508c:	0028      	movs	r0, r5
1000508e:	e007      	b.n	100050a0 <ph_merge_nodes+0x38>
10005090:	002a      	movs	r2, r5
10005092:	0021      	movs	r1, r4
10005094:	0030      	movs	r0, r6
10005096:	f7ff ff97 	bl	10004fc8 <ph_add_child_node>
1000509a:	0020      	movs	r0, r4
1000509c:	e000      	b.n	100050a0 <ph_merge_nodes+0x38>
1000509e:	0010      	movs	r0, r2
100050a0:	bd70      	pop	{r4, r5, r6, pc}
100050a2:	0008      	movs	r0, r1
100050a4:	e7fc      	b.n	100050a0 <ph_merge_nodes+0x38>
	...

100050a8 <ph_clear>:
100050a8:	b510      	push	{r4, lr}
100050aa:	2300      	movs	r3, #0
100050ac:	7343      	strb	r3, [r0, #13]
100050ae:	3301      	adds	r3, #1
100050b0:	7383      	strb	r3, [r0, #14]
100050b2:	7b03      	ldrb	r3, [r0, #12]
100050b4:	73c3      	strb	r3, [r0, #15]
100050b6:	2301      	movs	r3, #1
100050b8:	7b02      	ldrb	r2, [r0, #12]
100050ba:	429a      	cmp	r2, r3
100050bc:	d913      	bls.n	100050e6 <ph_clear+0x3e>
100050be:	2b00      	cmp	r3, #0
100050c0:	d00b      	beq.n	100050da <ph_clear+0x32>
100050c2:	7b02      	ldrb	r2, [r0, #12]
100050c4:	4293      	cmp	r3, r2
100050c6:	d808      	bhi.n	100050da <ph_clear+0x32>
100050c8:	6801      	ldr	r1, [r0, #0]
100050ca:	005a      	lsls	r2, r3, #1
100050cc:	18d2      	adds	r2, r2, r3
100050ce:	3a03      	subs	r2, #3
100050d0:	188a      	adds	r2, r1, r2
100050d2:	3301      	adds	r3, #1
100050d4:	b2db      	uxtb	r3, r3
100050d6:	7053      	strb	r3, [r2, #1]
100050d8:	e7ee      	b.n	100050b8 <ph_clear+0x10>
100050da:	4b0c      	ldr	r3, [pc, #48]	; (1000510c <ph_clear+0x64>)
100050dc:	4a0c      	ldr	r2, [pc, #48]	; (10005110 <ph_clear+0x68>)
100050de:	480d      	ldr	r0, [pc, #52]	; (10005114 <ph_clear+0x6c>)
100050e0:	2168      	movs	r1, #104	; 0x68
100050e2:	f000 fc41 	bl	10005968 <__assert_func>
100050e6:	2a00      	cmp	r2, #0
100050e8:	d009      	beq.n	100050fe <ph_clear+0x56>
100050ea:	4292      	cmp	r2, r2
100050ec:	d807      	bhi.n	100050fe <ph_clear+0x56>
100050ee:	6801      	ldr	r1, [r0, #0]
100050f0:	0053      	lsls	r3, r2, #1
100050f2:	189b      	adds	r3, r3, r2
100050f4:	3b03      	subs	r3, #3
100050f6:	18cb      	adds	r3, r1, r3
100050f8:	2200      	movs	r2, #0
100050fa:	705a      	strb	r2, [r3, #1]
100050fc:	bd10      	pop	{r4, pc}
100050fe:	4b03      	ldr	r3, [pc, #12]	; (1000510c <ph_clear+0x64>)
10005100:	4a03      	ldr	r2, [pc, #12]	; (10005110 <ph_clear+0x68>)
10005102:	4804      	ldr	r0, [pc, #16]	; (10005114 <ph_clear+0x6c>)
10005104:	2168      	movs	r1, #104	; 0x68
10005106:	f000 fc2f 	bl	10005968 <__assert_func>
1000510a:	46c0      	nop			; (mov r8, r8)
1000510c:	1000b2ec 	.word	0x1000b2ec
10005110:	1000b76c 	.word	0x1000b76c
10005114:	1000b308 	.word	0x1000b308

10005118 <ph_post_alloc_init>:
10005118:	b510      	push	{r4, lr}
1000511a:	7301      	strb	r1, [r0, #12]
1000511c:	6042      	str	r2, [r0, #4]
1000511e:	6083      	str	r3, [r0, #8]
10005120:	f7ff ffc2 	bl	100050a8 <ph_clear>
10005124:	bd10      	pop	{r4, pc}
	...

10005128 <ph_merge_two_pass>:
10005128:	b570      	push	{r4, r5, r6, lr}
1000512a:	0004      	movs	r4, r0
1000512c:	1e08      	subs	r0, r1, #0
1000512e:	d100      	bne.n	10005132 <ph_merge_two_pass+0xa>
10005130:	bd70      	pop	{r4, r5, r6, pc}
10005132:	2900      	cmp	r1, #0
10005134:	d031      	beq.n	1000519a <ph_merge_two_pass+0x72>
10005136:	7b23      	ldrb	r3, [r4, #12]
10005138:	4299      	cmp	r1, r3
1000513a:	d82e      	bhi.n	1000519a <ph_merge_two_pass+0x72>
1000513c:	6822      	ldr	r2, [r4, #0]
1000513e:	004b      	lsls	r3, r1, #1
10005140:	185b      	adds	r3, r3, r1
10005142:	3b03      	subs	r3, #3
10005144:	18d3      	adds	r3, r2, r3
10005146:	785a      	ldrb	r2, [r3, #1]
10005148:	2a00      	cmp	r2, #0
1000514a:	d0f1      	beq.n	10005130 <ph_merge_two_pass+0x8>
1000514c:	d02b      	beq.n	100051a6 <ph_merge_two_pass+0x7e>
1000514e:	7b23      	ldrb	r3, [r4, #12]
10005150:	429a      	cmp	r2, r3
10005152:	d828      	bhi.n	100051a6 <ph_merge_two_pass+0x7e>
10005154:	6821      	ldr	r1, [r4, #0]
10005156:	0053      	lsls	r3, r2, #1
10005158:	189b      	adds	r3, r3, r2
1000515a:	3b03      	subs	r3, #3
1000515c:	18cb      	adds	r3, r1, r3
1000515e:	785d      	ldrb	r5, [r3, #1]
10005160:	2100      	movs	r1, #0
10005162:	7059      	strb	r1, [r3, #1]
10005164:	2800      	cmp	r0, #0
10005166:	d024      	beq.n	100051b2 <ph_merge_two_pass+0x8a>
10005168:	7b23      	ldrb	r3, [r4, #12]
1000516a:	4298      	cmp	r0, r3
1000516c:	d821      	bhi.n	100051b2 <ph_merge_two_pass+0x8a>
1000516e:	6821      	ldr	r1, [r4, #0]
10005170:	0043      	lsls	r3, r0, #1
10005172:	181b      	adds	r3, r3, r0
10005174:	3b03      	subs	r3, #3
10005176:	18cb      	adds	r3, r1, r3
10005178:	2100      	movs	r1, #0
1000517a:	7059      	strb	r1, [r3, #1]
1000517c:	0001      	movs	r1, r0
1000517e:	0020      	movs	r0, r4
10005180:	f7ff ff72 	bl	10005068 <ph_merge_nodes>
10005184:	0006      	movs	r6, r0
10005186:	0029      	movs	r1, r5
10005188:	0020      	movs	r0, r4
1000518a:	f7ff ffcd 	bl	10005128 <ph_merge_two_pass>
1000518e:	0002      	movs	r2, r0
10005190:	0031      	movs	r1, r6
10005192:	0020      	movs	r0, r4
10005194:	f7ff ff68 	bl	10005068 <ph_merge_nodes>
10005198:	e7ca      	b.n	10005130 <ph_merge_two_pass+0x8>
1000519a:	4b09      	ldr	r3, [pc, #36]	; (100051c0 <ph_merge_two_pass+0x98>)
1000519c:	4a09      	ldr	r2, [pc, #36]	; (100051c4 <ph_merge_two_pass+0x9c>)
1000519e:	480a      	ldr	r0, [pc, #40]	; (100051c8 <ph_merge_two_pass+0xa0>)
100051a0:	2168      	movs	r1, #104	; 0x68
100051a2:	f000 fbe1 	bl	10005968 <__assert_func>
100051a6:	4b06      	ldr	r3, [pc, #24]	; (100051c0 <ph_merge_two_pass+0x98>)
100051a8:	4a06      	ldr	r2, [pc, #24]	; (100051c4 <ph_merge_two_pass+0x9c>)
100051aa:	4807      	ldr	r0, [pc, #28]	; (100051c8 <ph_merge_two_pass+0xa0>)
100051ac:	2168      	movs	r1, #104	; 0x68
100051ae:	f000 fbdb 	bl	10005968 <__assert_func>
100051b2:	4b03      	ldr	r3, [pc, #12]	; (100051c0 <ph_merge_two_pass+0x98>)
100051b4:	4a03      	ldr	r2, [pc, #12]	; (100051c4 <ph_merge_two_pass+0x9c>)
100051b6:	4804      	ldr	r0, [pc, #16]	; (100051c8 <ph_merge_two_pass+0xa0>)
100051b8:	2168      	movs	r1, #104	; 0x68
100051ba:	f000 fbd5 	bl	10005968 <__assert_func>
100051be:	46c0      	nop			; (mov r8, r8)
100051c0:	1000b2ec 	.word	0x1000b2ec
100051c4:	1000b76c 	.word	0x1000b76c
100051c8:	1000b308 	.word	0x1000b308

100051cc <ph_remove_any_head>:
100051cc:	b570      	push	{r4, r5, r6, lr}
100051ce:	0005      	movs	r5, r0
100051d0:	000c      	movs	r4, r1
100051d2:	0016      	movs	r6, r2
100051d4:	2900      	cmp	r1, #0
100051d6:	d02e      	beq.n	10005236 <ph_remove_any_head+0x6a>
100051d8:	d033      	beq.n	10005242 <ph_remove_any_head+0x76>
100051da:	7b03      	ldrb	r3, [r0, #12]
100051dc:	4299      	cmp	r1, r3
100051de:	d830      	bhi.n	10005242 <ph_remove_any_head+0x76>
100051e0:	6803      	ldr	r3, [r0, #0]
100051e2:	0049      	lsls	r1, r1, #1
100051e4:	1909      	adds	r1, r1, r4
100051e6:	3903      	subs	r1, #3
100051e8:	185b      	adds	r3, r3, r1
100051ea:	785a      	ldrb	r2, [r3, #1]
100051ec:	2a00      	cmp	r2, #0
100051ee:	d12e      	bne.n	1000524e <ph_remove_any_head+0x82>
100051f0:	789a      	ldrb	r2, [r3, #2]
100051f2:	2a00      	cmp	r2, #0
100051f4:	d131      	bne.n	1000525a <ph_remove_any_head+0x8e>
100051f6:	7819      	ldrb	r1, [r3, #0]
100051f8:	f7ff ff96 	bl	10005128 <ph_merge_two_pass>
100051fc:	0003      	movs	r3, r0
100051fe:	2e00      	cmp	r6, #0
10005200:	d00a      	beq.n	10005218 <ph_remove_any_head+0x4c>
10005202:	7bea      	ldrb	r2, [r5, #15]
10005204:	2a00      	cmp	r2, #0
10005206:	d12e      	bne.n	10005266 <ph_remove_any_head+0x9a>
10005208:	7baa      	ldrb	r2, [r5, #14]
1000520a:	2a00      	cmp	r2, #0
1000520c:	d103      	bne.n	10005216 <ph_remove_any_head+0x4a>
1000520e:	7bea      	ldrb	r2, [r5, #15]
10005210:	2a00      	cmp	r2, #0
10005212:	d13a      	bne.n	1000528a <ph_remove_any_head+0xbe>
10005214:	73ac      	strb	r4, [r5, #14]
10005216:	73ec      	strb	r4, [r5, #15]
10005218:	2b00      	cmp	r3, #0
1000521a:	d13c      	bne.n	10005296 <ph_remove_any_head+0xca>
1000521c:	2c00      	cmp	r4, #0
1000521e:	d04d      	beq.n	100052bc <ph_remove_any_head+0xf0>
10005220:	7b2b      	ldrb	r3, [r5, #12]
10005222:	429c      	cmp	r4, r3
10005224:	d84a      	bhi.n	100052bc <ph_remove_any_head+0xf0>
10005226:	682a      	ldr	r2, [r5, #0]
10005228:	0063      	lsls	r3, r4, #1
1000522a:	191b      	adds	r3, r3, r4
1000522c:	3b03      	subs	r3, #3
1000522e:	18d3      	adds	r3, r2, r3
10005230:	2200      	movs	r2, #0
10005232:	705a      	strb	r2, [r3, #1]
10005234:	bd70      	pop	{r4, r5, r6, pc}
10005236:	4b24      	ldr	r3, [pc, #144]	; (100052c8 <ph_remove_any_head+0xfc>)
10005238:	4a24      	ldr	r2, [pc, #144]	; (100052cc <ph_remove_any_head+0x100>)
1000523a:	4825      	ldr	r0, [pc, #148]	; (100052d0 <ph_remove_any_head+0x104>)
1000523c:	2138      	movs	r1, #56	; 0x38
1000523e:	f000 fb93 	bl	10005968 <__assert_func>
10005242:	4b24      	ldr	r3, [pc, #144]	; (100052d4 <ph_remove_any_head+0x108>)
10005244:	4a24      	ldr	r2, [pc, #144]	; (100052d8 <ph_remove_any_head+0x10c>)
10005246:	4825      	ldr	r0, [pc, #148]	; (100052dc <ph_remove_any_head+0x110>)
10005248:	2168      	movs	r1, #104	; 0x68
1000524a:	f000 fb8d 	bl	10005968 <__assert_func>
1000524e:	4b24      	ldr	r3, [pc, #144]	; (100052e0 <ph_remove_any_head+0x114>)
10005250:	4a1e      	ldr	r2, [pc, #120]	; (100052cc <ph_remove_any_head+0x100>)
10005252:	481f      	ldr	r0, [pc, #124]	; (100052d0 <ph_remove_any_head+0x104>)
10005254:	213a      	movs	r1, #58	; 0x3a
10005256:	f000 fb87 	bl	10005968 <__assert_func>
1000525a:	4b22      	ldr	r3, [pc, #136]	; (100052e4 <ph_remove_any_head+0x118>)
1000525c:	4a1b      	ldr	r2, [pc, #108]	; (100052cc <ph_remove_any_head+0x100>)
1000525e:	481c      	ldr	r0, [pc, #112]	; (100052d0 <ph_remove_any_head+0x104>)
10005260:	213b      	movs	r1, #59	; 0x3b
10005262:	f000 fb81 	bl	10005968 <__assert_func>
10005266:	2a00      	cmp	r2, #0
10005268:	d009      	beq.n	1000527e <ph_remove_any_head+0xb2>
1000526a:	7b29      	ldrb	r1, [r5, #12]
1000526c:	428a      	cmp	r2, r1
1000526e:	d806      	bhi.n	1000527e <ph_remove_any_head+0xb2>
10005270:	682e      	ldr	r6, [r5, #0]
10005272:	0051      	lsls	r1, r2, #1
10005274:	188a      	adds	r2, r1, r2
10005276:	3a03      	subs	r2, #3
10005278:	18b2      	adds	r2, r6, r2
1000527a:	7054      	strb	r4, [r2, #1]
1000527c:	e7c4      	b.n	10005208 <ph_remove_any_head+0x3c>
1000527e:	4b15      	ldr	r3, [pc, #84]	; (100052d4 <ph_remove_any_head+0x108>)
10005280:	4a15      	ldr	r2, [pc, #84]	; (100052d8 <ph_remove_any_head+0x10c>)
10005282:	4816      	ldr	r0, [pc, #88]	; (100052dc <ph_remove_any_head+0x110>)
10005284:	2168      	movs	r1, #104	; 0x68
10005286:	f000 fb6f 	bl	10005968 <__assert_func>
1000528a:	4b17      	ldr	r3, [pc, #92]	; (100052e8 <ph_remove_any_head+0x11c>)
1000528c:	4a0f      	ldr	r2, [pc, #60]	; (100052cc <ph_remove_any_head+0x100>)
1000528e:	4810      	ldr	r0, [pc, #64]	; (100052d0 <ph_remove_any_head+0x104>)
10005290:	2142      	movs	r1, #66	; 0x42
10005292:	f000 fb69 	bl	10005968 <__assert_func>
10005296:	2b00      	cmp	r3, #0
10005298:	d00a      	beq.n	100052b0 <ph_remove_any_head+0xe4>
1000529a:	7b2a      	ldrb	r2, [r5, #12]
1000529c:	4293      	cmp	r3, r2
1000529e:	d807      	bhi.n	100052b0 <ph_remove_any_head+0xe4>
100052a0:	682a      	ldr	r2, [r5, #0]
100052a2:	0043      	lsls	r3, r0, #1
100052a4:	181b      	adds	r3, r3, r0
100052a6:	3b03      	subs	r3, #3
100052a8:	18d3      	adds	r3, r2, r3
100052aa:	2200      	movs	r2, #0
100052ac:	709a      	strb	r2, [r3, #2]
100052ae:	e7b5      	b.n	1000521c <ph_remove_any_head+0x50>
100052b0:	4b08      	ldr	r3, [pc, #32]	; (100052d4 <ph_remove_any_head+0x108>)
100052b2:	4a09      	ldr	r2, [pc, #36]	; (100052d8 <ph_remove_any_head+0x10c>)
100052b4:	4809      	ldr	r0, [pc, #36]	; (100052dc <ph_remove_any_head+0x110>)
100052b6:	2168      	movs	r1, #104	; 0x68
100052b8:	f000 fb56 	bl	10005968 <__assert_func>
100052bc:	4b05      	ldr	r3, [pc, #20]	; (100052d4 <ph_remove_any_head+0x108>)
100052be:	4a06      	ldr	r2, [pc, #24]	; (100052d8 <ph_remove_any_head+0x10c>)
100052c0:	4806      	ldr	r0, [pc, #24]	; (100052dc <ph_remove_any_head+0x110>)
100052c2:	2168      	movs	r1, #104	; 0x68
100052c4:	f000 fb50 	bl	10005968 <__assert_func>
100052c8:	1000b680 	.word	0x1000b680
100052cc:	1000b744 	.word	0x1000b744
100052d0:	1000b688 	.word	0x1000b688
100052d4:	1000b2ec 	.word	0x1000b2ec
100052d8:	1000b76c 	.word	0x1000b76c
100052dc:	1000b308 	.word	0x1000b308
100052e0:	1000b6c0 	.word	0x1000b6c0
100052e4:	1000b6e8 	.word	0x1000b6e8
100052e8:	1000b430 	.word	0x1000b430

100052ec <ph_remove_head>:
100052ec:	b570      	push	{r4, r5, r6, lr}
100052ee:	0004      	movs	r4, r0
100052f0:	000a      	movs	r2, r1
100052f2:	7b45      	ldrb	r5, [r0, #13]
100052f4:	0029      	movs	r1, r5
100052f6:	f7ff ff69 	bl	100051cc <ph_remove_any_head>
100052fa:	7360      	strb	r0, [r4, #13]
100052fc:	0028      	movs	r0, r5
100052fe:	bd70      	pop	{r4, r5, r6, pc}

10005300 <ph_remove_and_free_node>:
10005300:	b570      	push	{r4, r5, r6, lr}
10005302:	0004      	movs	r4, r0
10005304:	2900      	cmp	r1, #0
10005306:	d066      	beq.n	100053d6 <ph_remove_and_free_node+0xd6>
10005308:	7b43      	ldrb	r3, [r0, #13]
1000530a:	428b      	cmp	r3, r1
1000530c:	d00e      	beq.n	1000532c <ph_remove_and_free_node+0x2c>
1000530e:	2900      	cmp	r1, #0
10005310:	d011      	beq.n	10005336 <ph_remove_and_free_node+0x36>
10005312:	7b03      	ldrb	r3, [r0, #12]
10005314:	4299      	cmp	r1, r3
10005316:	d80e      	bhi.n	10005336 <ph_remove_and_free_node+0x36>
10005318:	6805      	ldr	r5, [r0, #0]
1000531a:	004b      	lsls	r3, r1, #1
1000531c:	185b      	adds	r3, r3, r1
1000531e:	3b03      	subs	r3, #3
10005320:	18ed      	adds	r5, r5, r3
10005322:	78ab      	ldrb	r3, [r5, #2]
10005324:	2b00      	cmp	r3, #0
10005326:	d10c      	bne.n	10005342 <ph_remove_and_free_node+0x42>
10005328:	2000      	movs	r0, #0
1000532a:	e055      	b.n	100053d8 <ph_remove_and_free_node+0xd8>
1000532c:	2101      	movs	r1, #1
1000532e:	f7ff ffdd 	bl	100052ec <ph_remove_head>
10005332:	2001      	movs	r0, #1
10005334:	e050      	b.n	100053d8 <ph_remove_and_free_node+0xd8>
10005336:	4b29      	ldr	r3, [pc, #164]	; (100053dc <ph_remove_and_free_node+0xdc>)
10005338:	4a29      	ldr	r2, [pc, #164]	; (100053e0 <ph_remove_and_free_node+0xe0>)
1000533a:	482a      	ldr	r0, [pc, #168]	; (100053e4 <ph_remove_and_free_node+0xe4>)
1000533c:	2168      	movs	r1, #104	; 0x68
1000533e:	f000 fb13 	bl	10005968 <__assert_func>
10005342:	2b00      	cmp	r3, #0
10005344:	d01f      	beq.n	10005386 <ph_remove_and_free_node+0x86>
10005346:	7b02      	ldrb	r2, [r0, #12]
10005348:	4293      	cmp	r3, r2
1000534a:	d81c      	bhi.n	10005386 <ph_remove_and_free_node+0x86>
1000534c:	6800      	ldr	r0, [r0, #0]
1000534e:	005a      	lsls	r2, r3, #1
10005350:	18d3      	adds	r3, r2, r3
10005352:	3b03      	subs	r3, #3
10005354:	18c2      	adds	r2, r0, r3
10005356:	5cc3      	ldrb	r3, [r0, r3]
10005358:	428b      	cmp	r3, r1
1000535a:	d01a      	beq.n	10005392 <ph_remove_and_free_node+0x92>
1000535c:	2b00      	cmp	r3, #0
1000535e:	d01b      	beq.n	10005398 <ph_remove_and_free_node+0x98>
10005360:	7b22      	ldrb	r2, [r4, #12]
10005362:	4293      	cmp	r3, r2
10005364:	d818      	bhi.n	10005398 <ph_remove_and_free_node+0x98>
10005366:	6820      	ldr	r0, [r4, #0]
10005368:	005a      	lsls	r2, r3, #1
1000536a:	18d3      	adds	r3, r2, r3
1000536c:	3b03      	subs	r3, #3
1000536e:	18c0      	adds	r0, r0, r3
10005370:	7843      	ldrb	r3, [r0, #1]
10005372:	428b      	cmp	r3, r1
10005374:	d016      	beq.n	100053a4 <ph_remove_and_free_node+0xa4>
10005376:	2b00      	cmp	r3, #0
10005378:	d1f0      	bne.n	1000535c <ph_remove_and_free_node+0x5c>
1000537a:	4b1b      	ldr	r3, [pc, #108]	; (100053e8 <ph_remove_and_free_node+0xe8>)
1000537c:	4a1b      	ldr	r2, [pc, #108]	; (100053ec <ph_remove_and_free_node+0xec>)
1000537e:	481c      	ldr	r0, [pc, #112]	; (100053f0 <ph_remove_and_free_node+0xf0>)
10005380:	216b      	movs	r1, #107	; 0x6b
10005382:	f000 faf1 	bl	10005968 <__assert_func>
10005386:	4b15      	ldr	r3, [pc, #84]	; (100053dc <ph_remove_and_free_node+0xdc>)
10005388:	4a15      	ldr	r2, [pc, #84]	; (100053e0 <ph_remove_and_free_node+0xe0>)
1000538a:	4816      	ldr	r0, [pc, #88]	; (100053e4 <ph_remove_and_free_node+0xe4>)
1000538c:	2168      	movs	r1, #104	; 0x68
1000538e:	f000 faeb 	bl	10005968 <__assert_func>
10005392:	786b      	ldrb	r3, [r5, #1]
10005394:	7013      	strb	r3, [r2, #0]
10005396:	e007      	b.n	100053a8 <ph_remove_and_free_node+0xa8>
10005398:	4b10      	ldr	r3, [pc, #64]	; (100053dc <ph_remove_and_free_node+0xdc>)
1000539a:	4a11      	ldr	r2, [pc, #68]	; (100053e0 <ph_remove_and_free_node+0xe0>)
1000539c:	4811      	ldr	r0, [pc, #68]	; (100053e4 <ph_remove_and_free_node+0xe4>)
1000539e:	2168      	movs	r1, #104	; 0x68
100053a0:	f000 fae2 	bl	10005968 <__assert_func>
100053a4:	786b      	ldrb	r3, [r5, #1]
100053a6:	7043      	strb	r3, [r0, #1]
100053a8:	2300      	movs	r3, #0
100053aa:	70ab      	strb	r3, [r5, #2]
100053ac:	706b      	strb	r3, [r5, #1]
100053ae:	2201      	movs	r2, #1
100053b0:	0020      	movs	r0, r4
100053b2:	f7ff ff0b 	bl	100051cc <ph_remove_any_head>
100053b6:	0002      	movs	r2, r0
100053b8:	7b61      	ldrb	r1, [r4, #13]
100053ba:	4281      	cmp	r1, r0
100053bc:	d005      	beq.n	100053ca <ph_remove_and_free_node+0xca>
100053be:	0020      	movs	r0, r4
100053c0:	f7ff fe52 	bl	10005068 <ph_merge_nodes>
100053c4:	7360      	strb	r0, [r4, #13]
100053c6:	2001      	movs	r0, #1
100053c8:	e006      	b.n	100053d8 <ph_remove_and_free_node+0xd8>
100053ca:	4b0a      	ldr	r3, [pc, #40]	; (100053f4 <ph_remove_and_free_node+0xf4>)
100053cc:	4a07      	ldr	r2, [pc, #28]	; (100053ec <ph_remove_and_free_node+0xec>)
100053ce:	4808      	ldr	r0, [pc, #32]	; (100053f0 <ph_remove_and_free_node+0xf0>)
100053d0:	2171      	movs	r1, #113	; 0x71
100053d2:	f000 fac9 	bl	10005968 <__assert_func>
100053d6:	2000      	movs	r0, #0
100053d8:	bd70      	pop	{r4, r5, r6, pc}
100053da:	46c0      	nop			; (mov r8, r8)
100053dc:	1000b2ec 	.word	0x1000b2ec
100053e0:	1000b76c 	.word	0x1000b76c
100053e4:	1000b308 	.word	0x1000b308
100053e8:	1000b094 	.word	0x1000b094
100053ec:	1000b72c 	.word	0x1000b72c
100053f0:	1000b688 	.word	0x1000b688
100053f4:	1000b70c 	.word	0x1000b70c

100053f8 <uart_set_baudrate>:
100053f8:	b570      	push	{r4, r5, r6, lr}
100053fa:	0004      	movs	r4, r0
100053fc:	000d      	movs	r5, r1
100053fe:	2006      	movs	r0, #6
10005400:	f000 f97e 	bl	10005700 <clock_get_hz>
10005404:	00c0      	lsls	r0, r0, #3
10005406:	0029      	movs	r1, r5
10005408:	f001 fc72 	bl	10006cf0 <__wrap___aeabi_uidiv>
1000540c:	09c6      	lsrs	r6, r0, #7
1000540e:	d008      	beq.n	10005422 <uart_set_baudrate+0x2a>
10005410:	4b0e      	ldr	r3, [pc, #56]	; (1000544c <uart_set_baudrate+0x54>)
10005412:	429e      	cmp	r6, r3
10005414:	d817      	bhi.n	10005446 <uart_set_baudrate+0x4e>
10005416:	237f      	movs	r3, #127	; 0x7f
10005418:	4003      	ands	r3, r0
1000541a:	3301      	adds	r3, #1
1000541c:	0035      	movs	r5, r6
1000541e:	085e      	lsrs	r6, r3, #1
10005420:	e000      	b.n	10005424 <uart_set_baudrate+0x2c>
10005422:	2501      	movs	r5, #1
10005424:	6265      	str	r5, [r4, #36]	; 0x24
10005426:	62a6      	str	r6, [r4, #40]	; 0x28
10005428:	342c      	adds	r4, #44	; 0x2c
1000542a:	2380      	movs	r3, #128	; 0x80
1000542c:	019b      	lsls	r3, r3, #6
1000542e:	4323      	orrs	r3, r4
10005430:	2200      	movs	r2, #0
10005432:	601a      	str	r2, [r3, #0]
10005434:	2006      	movs	r0, #6
10005436:	f000 f963 	bl	10005700 <clock_get_hz>
1000543a:	0080      	lsls	r0, r0, #2
1000543c:	01a9      	lsls	r1, r5, #6
1000543e:	1989      	adds	r1, r1, r6
10005440:	f001 fc56 	bl	10006cf0 <__wrap___aeabi_uidiv>
10005444:	bd70      	pop	{r4, r5, r6, pc}
10005446:	2600      	movs	r6, #0
10005448:	4d01      	ldr	r5, [pc, #4]	; (10005450 <uart_set_baudrate+0x58>)
1000544a:	e7eb      	b.n	10005424 <uart_set_baudrate+0x2c>
1000544c:	0000fffe 	.word	0x0000fffe
10005450:	0000ffff 	.word	0x0000ffff

10005454 <uart_set_translate_crlf>:
10005454:	2900      	cmp	r1, #0
10005456:	d009      	beq.n	1000546c <uart_set_translate_crlf+0x18>
10005458:	220a      	movs	r2, #10
1000545a:	4b06      	ldr	r3, [pc, #24]	; (10005474 <uart_set_translate_crlf+0x20>)
1000545c:	469c      	mov	ip, r3
1000545e:	4460      	add	r0, ip
10005460:	4243      	negs	r3, r0
10005462:	4158      	adcs	r0, r3
10005464:	4b04      	ldr	r3, [pc, #16]	; (10005478 <uart_set_translate_crlf+0x24>)
10005466:	0040      	lsls	r0, r0, #1
10005468:	52c2      	strh	r2, [r0, r3]
1000546a:	4770      	bx	lr
1000546c:	2280      	movs	r2, #128	; 0x80
1000546e:	0052      	lsls	r2, r2, #1
10005470:	e7f3      	b.n	1000545a <uart_set_translate_crlf+0x6>
10005472:	46c0      	nop			; (mov r8, r8)
10005474:	bffc8000 	.word	0xbffc8000
10005478:	20001f28 	.word	0x20001f28

1000547c <uart_init>:
1000547c:	b570      	push	{r4, r5, r6, lr}
1000547e:	0005      	movs	r5, r0
10005480:	000c      	movs	r4, r1
10005482:	2006      	movs	r0, #6
10005484:	f000 f93c 	bl	10005700 <clock_get_hz>
10005488:	2800      	cmp	r0, #0
1000548a:	d029      	beq.n	100054e0 <uart_init+0x64>
1000548c:	4b16      	ldr	r3, [pc, #88]	; (100054e8 <uart_init+0x6c>)
1000548e:	429d      	cmp	r5, r3
10005490:	d027      	beq.n	100054e2 <uart_init+0x66>
10005492:	2280      	movs	r2, #128	; 0x80
10005494:	03d2      	lsls	r2, r2, #15
10005496:	4b15      	ldr	r3, [pc, #84]	; (100054ec <uart_init+0x70>)
10005498:	601a      	str	r2, [r3, #0]
1000549a:	4b15      	ldr	r3, [pc, #84]	; (100054f0 <uart_init+0x74>)
1000549c:	601a      	str	r2, [r3, #0]
1000549e:	4b15      	ldr	r3, [pc, #84]	; (100054f4 <uart_init+0x78>)
100054a0:	689b      	ldr	r3, [r3, #8]
100054a2:	0011      	movs	r1, r2
100054a4:	4399      	bics	r1, r3
100054a6:	d1fa      	bne.n	1000549e <uart_init+0x22>
100054a8:	2100      	movs	r1, #0
100054aa:	0028      	movs	r0, r5
100054ac:	f7ff ffd2 	bl	10005454 <uart_set_translate_crlf>
100054b0:	0021      	movs	r1, r4
100054b2:	0028      	movs	r0, r5
100054b4:	f7ff ffa0 	bl	100053f8 <uart_set_baudrate>
100054b8:	0029      	movs	r1, r5
100054ba:	312c      	adds	r1, #44	; 0x2c
100054bc:	6aeb      	ldr	r3, [r5, #44]	; 0x2c
100054be:	2260      	movs	r2, #96	; 0x60
100054c0:	4053      	eors	r3, r2
100054c2:	320e      	adds	r2, #14
100054c4:	401a      	ands	r2, r3
100054c6:	2380      	movs	r3, #128	; 0x80
100054c8:	015b      	lsls	r3, r3, #5
100054ca:	430b      	orrs	r3, r1
100054cc:	601a      	str	r2, [r3, #0]
100054ce:	4b0a      	ldr	r3, [pc, #40]	; (100054f8 <uart_init+0x7c>)
100054d0:	632b      	str	r3, [r5, #48]	; 0x30
100054d2:	2380      	movs	r3, #128	; 0x80
100054d4:	019b      	lsls	r3, r3, #6
100054d6:	430b      	orrs	r3, r1
100054d8:	2210      	movs	r2, #16
100054da:	601a      	str	r2, [r3, #0]
100054dc:	2303      	movs	r3, #3
100054de:	64ab      	str	r3, [r5, #72]	; 0x48
100054e0:	bd70      	pop	{r4, r5, r6, pc}
100054e2:	2280      	movs	r2, #128	; 0x80
100054e4:	0412      	lsls	r2, r2, #16
100054e6:	e7d6      	b.n	10005496 <uart_init+0x1a>
100054e8:	40038000 	.word	0x40038000
100054ec:	4000e000 	.word	0x4000e000
100054f0:	4000f000 	.word	0x4000f000
100054f4:	4000c000 	.word	0x4000c000
100054f8:	00000301 	.word	0x00000301

100054fc <clock_configure>:
100054fc:	b5f8      	push	{r3, r4, r5, r6, r7, lr}
100054fe:	46de      	mov	lr, fp
10005500:	4657      	mov	r7, sl
10005502:	464e      	mov	r6, r9
10005504:	4645      	mov	r5, r8
10005506:	b5e0      	push	{r5, r6, r7, lr}
10005508:	0006      	movs	r6, r0
1000550a:	000f      	movs	r7, r1
1000550c:	0015      	movs	r5, r2
1000550e:	9a0a      	ldr	r2, [sp, #40]	; 0x28
10005510:	4293      	cmp	r3, r2
10005512:	d34e      	bcc.n	100055b2 <clock_configure+0xb6>
10005514:	0e1a      	lsrs	r2, r3, #24
10005516:	4692      	mov	sl, r2
10005518:	021b      	lsls	r3, r3, #8
1000551a:	4698      	mov	r8, r3
1000551c:	9a0a      	ldr	r2, [sp, #40]	; 0x28
1000551e:	2300      	movs	r3, #0
10005520:	4640      	mov	r0, r8
10005522:	4651      	mov	r1, sl
10005524:	f001 fc22 	bl	10006d6c <__wrap___aeabi_uldivmod>
10005528:	4681      	mov	r9, r0
1000552a:	0074      	lsls	r4, r6, #1
1000552c:	19a4      	adds	r4, r4, r6
1000552e:	00a4      	lsls	r4, r4, #2
10005530:	4b2e      	ldr	r3, [pc, #184]	; (100055ec <clock_configure+0xf0>)
10005532:	469c      	mov	ip, r3
10005534:	4464      	add	r4, ip
10005536:	6863      	ldr	r3, [r4, #4]
10005538:	4283      	cmp	r3, r0
1000553a:	d200      	bcs.n	1000553e <clock_configure+0x42>
1000553c:	6060      	str	r0, [r4, #4]
1000553e:	1f33      	subs	r3, r6, #4
10005540:	b2db      	uxtb	r3, r3
10005542:	469b      	mov	fp, r3
10005544:	2b01      	cmp	r3, #1
10005546:	d93a      	bls.n	100055be <clock_configure+0xc2>
10005548:	23c0      	movs	r3, #192	; 0xc0
1000554a:	019b      	lsls	r3, r3, #6
1000554c:	4323      	orrs	r3, r4
1000554e:	2280      	movs	r2, #128	; 0x80
10005550:	0112      	lsls	r2, r2, #4
10005552:	601a      	str	r2, [r3, #0]
10005554:	4b26      	ldr	r3, [pc, #152]	; (100055f0 <clock_configure+0xf4>)
10005556:	00b2      	lsls	r2, r6, #2
10005558:	58d1      	ldr	r1, [r2, r3]
1000555a:	2900      	cmp	r1, #0
1000555c:	d005      	beq.n	1000556a <clock_configure+0x6e>
1000555e:	6958      	ldr	r0, [r3, #20]
10005560:	f001 fbc6 	bl	10006cf0 <__wrap___aeabi_uidiv>
10005564:	3001      	adds	r0, #1
10005566:	3801      	subs	r0, #1
10005568:	d1fd      	bne.n	10005566 <clock_configure+0x6a>
1000556a:	016d      	lsls	r5, r5, #5
1000556c:	6823      	ldr	r3, [r4, #0]
1000556e:	405d      	eors	r5, r3
10005570:	22e0      	movs	r2, #224	; 0xe0
10005572:	402a      	ands	r2, r5
10005574:	2380      	movs	r3, #128	; 0x80
10005576:	015b      	lsls	r3, r3, #5
10005578:	4323      	orrs	r3, r4
1000557a:	601a      	str	r2, [r3, #0]
1000557c:	465a      	mov	r2, fp
1000557e:	2a01      	cmp	r2, #1
10005580:	d928      	bls.n	100055d4 <clock_configure+0xd8>
10005582:	2380      	movs	r3, #128	; 0x80
10005584:	019b      	lsls	r3, r3, #6
10005586:	4323      	orrs	r3, r4
10005588:	2280      	movs	r2, #128	; 0x80
1000558a:	0112      	lsls	r2, r2, #4
1000558c:	601a      	str	r2, [r3, #0]
1000558e:	464b      	mov	r3, r9
10005590:	6063      	str	r3, [r4, #4]
10005592:	464a      	mov	r2, r9
10005594:	2300      	movs	r3, #0
10005596:	4640      	mov	r0, r8
10005598:	4651      	mov	r1, sl
1000559a:	f001 fbe7 	bl	10006d6c <__wrap___aeabi_uldivmod>
1000559e:	4b14      	ldr	r3, [pc, #80]	; (100055f0 <clock_configure+0xf4>)
100055a0:	00b6      	lsls	r6, r6, #2
100055a2:	5198      	str	r0, [r3, r6]
100055a4:	2001      	movs	r0, #1
100055a6:	bcf0      	pop	{r4, r5, r6, r7}
100055a8:	46bb      	mov	fp, r7
100055aa:	46b2      	mov	sl, r6
100055ac:	46a9      	mov	r9, r5
100055ae:	46a0      	mov	r8, r4
100055b0:	bdf8      	pop	{r3, r4, r5, r6, r7, pc}
100055b2:	4b10      	ldr	r3, [pc, #64]	; (100055f4 <clock_configure+0xf8>)
100055b4:	4a10      	ldr	r2, [pc, #64]	; (100055f8 <clock_configure+0xfc>)
100055b6:	4811      	ldr	r0, [pc, #68]	; (100055fc <clock_configure+0x100>)
100055b8:	212d      	movs	r1, #45	; 0x2d
100055ba:	f000 f9d5 	bl	10005968 <__assert_func>
100055be:	2f01      	cmp	r7, #1
100055c0:	d1c2      	bne.n	10005548 <clock_configure+0x4c>
100055c2:	23c0      	movs	r3, #192	; 0xc0
100055c4:	019b      	lsls	r3, r3, #6
100055c6:	4323      	orrs	r3, r4
100055c8:	2203      	movs	r2, #3
100055ca:	601a      	str	r2, [r3, #0]
100055cc:	68a3      	ldr	r3, [r4, #8]
100055ce:	07db      	lsls	r3, r3, #31
100055d0:	d5fc      	bpl.n	100055cc <clock_configure+0xd0>
100055d2:	e7ca      	b.n	1000556a <clock_configure+0x6e>
100055d4:	6821      	ldr	r1, [r4, #0]
100055d6:	4079      	eors	r1, r7
100055d8:	2203      	movs	r2, #3
100055da:	400a      	ands	r2, r1
100055dc:	601a      	str	r2, [r3, #0]
100055de:	68a3      	ldr	r3, [r4, #8]
100055e0:	2501      	movs	r5, #1
100055e2:	40bd      	lsls	r5, r7
100055e4:	421d      	tst	r5, r3
100055e6:	d0fa      	beq.n	100055de <clock_configure+0xe2>
100055e8:	e7cb      	b.n	10005582 <clock_configure+0x86>
100055ea:	46c0      	nop			; (mov r8, r8)
100055ec:	40008000 	.word	0x40008000
100055f0:	2000182c 	.word	0x2000182c
100055f4:	1000b778 	.word	0x1000b778
100055f8:	1000b7d0 	.word	0x1000b7d0
100055fc:	1000b78c 	.word	0x1000b78c

10005600 <clocks_init>:
10005600:	b530      	push	{r4, r5, lr}
10005602:	b083      	sub	sp, #12
10005604:	200c      	movs	r0, #12
10005606:	f000 f917 	bl	10005838 <watchdog_start_tick>
1000560a:	f7fe f965 	bl	100038d8 <running_on_fpga>
1000560e:	2800      	cmp	r0, #0
10005610:	d00d      	beq.n	1000562e <clocks_init+0x2e>
10005612:	2300      	movs	r3, #0
10005614:	e004      	b.n	10005620 <clocks_init+0x20>
10005616:	4a2e      	ldr	r2, [pc, #184]	; (100056d0 <clocks_init+0xd0>)
10005618:	0099      	lsls	r1, r3, #2
1000561a:	482e      	ldr	r0, [pc, #184]	; (100056d4 <clocks_init+0xd4>)
1000561c:	5088      	str	r0, [r1, r2]
1000561e:	3301      	adds	r3, #1
10005620:	2b09      	cmp	r3, #9
10005622:	d9f8      	bls.n	10005616 <clocks_init+0x16>
10005624:	4b2a      	ldr	r3, [pc, #168]	; (100056d0 <clocks_init+0xd0>)
10005626:	4a2c      	ldr	r2, [pc, #176]	; (100056d8 <clocks_init+0xd8>)
10005628:	625a      	str	r2, [r3, #36]	; 0x24
1000562a:	b003      	add	sp, #12
1000562c:	bd30      	pop	{r4, r5, pc}
1000562e:	4b2b      	ldr	r3, [pc, #172]	; (100056dc <clocks_init+0xdc>)
10005630:	2200      	movs	r2, #0
10005632:	679a      	str	r2, [r3, #120]	; 0x78
10005634:	f000 f97e 	bl	10005934 <xosc_init>
10005638:	4b29      	ldr	r3, [pc, #164]	; (100056e0 <clocks_init+0xe0>)
1000563a:	2201      	movs	r2, #1
1000563c:	601a      	str	r2, [r3, #0]
1000563e:	4b27      	ldr	r3, [pc, #156]	; (100056dc <clocks_init+0xdc>)
10005640:	6c5b      	ldr	r3, [r3, #68]	; 0x44
10005642:	2b01      	cmp	r3, #1
10005644:	d1fb      	bne.n	1000563e <clocks_init+0x3e>
10005646:	4b27      	ldr	r3, [pc, #156]	; (100056e4 <clocks_init+0xe4>)
10005648:	2203      	movs	r2, #3
1000564a:	601a      	str	r2, [r3, #0]
1000564c:	4b23      	ldr	r3, [pc, #140]	; (100056dc <clocks_init+0xdc>)
1000564e:	6b9b      	ldr	r3, [r3, #56]	; 0x38
10005650:	2b01      	cmp	r3, #1
10005652:	d1fb      	bne.n	1000564c <clocks_init+0x4c>
10005654:	3301      	adds	r3, #1
10005656:	9300      	str	r3, [sp, #0]
10005658:	3304      	adds	r3, #4
1000565a:	4a23      	ldr	r2, [pc, #140]	; (100056e8 <clocks_init+0xe8>)
1000565c:	2101      	movs	r1, #1
1000565e:	4823      	ldr	r0, [pc, #140]	; (100056ec <clocks_init+0xec>)
10005660:	f000 f854 	bl	1000570c <pll_init>
10005664:	2305      	movs	r3, #5
10005666:	9300      	str	r3, [sp, #0]
10005668:	4a21      	ldr	r2, [pc, #132]	; (100056f0 <clocks_init+0xf0>)
1000566a:	2101      	movs	r1, #1
1000566c:	4821      	ldr	r0, [pc, #132]	; (100056f4 <clocks_init+0xf4>)
1000566e:	f000 f84d 	bl	1000570c <pll_init>
10005672:	4b21      	ldr	r3, [pc, #132]	; (100056f8 <clocks_init+0xf8>)
10005674:	9300      	str	r3, [sp, #0]
10005676:	2200      	movs	r2, #0
10005678:	2102      	movs	r1, #2
1000567a:	2004      	movs	r0, #4
1000567c:	f7ff ff3e 	bl	100054fc <clock_configure>
10005680:	4d1e      	ldr	r5, [pc, #120]	; (100056fc <clocks_init+0xfc>)
10005682:	9500      	str	r5, [sp, #0]
10005684:	002b      	movs	r3, r5
10005686:	2200      	movs	r2, #0
10005688:	2101      	movs	r1, #1
1000568a:	2005      	movs	r0, #5
1000568c:	f7ff ff36 	bl	100054fc <clock_configure>
10005690:	4c10      	ldr	r4, [pc, #64]	; (100056d4 <clocks_init+0xd4>)
10005692:	9400      	str	r4, [sp, #0]
10005694:	0023      	movs	r3, r4
10005696:	2200      	movs	r2, #0
10005698:	2100      	movs	r1, #0
1000569a:	2007      	movs	r0, #7
1000569c:	f7ff ff2e 	bl	100054fc <clock_configure>
100056a0:	9400      	str	r4, [sp, #0]
100056a2:	0023      	movs	r3, r4
100056a4:	2200      	movs	r2, #0
100056a6:	2100      	movs	r1, #0
100056a8:	2008      	movs	r0, #8
100056aa:	f7ff ff27 	bl	100054fc <clock_configure>
100056ae:	4b0a      	ldr	r3, [pc, #40]	; (100056d8 <clocks_init+0xd8>)
100056b0:	9300      	str	r3, [sp, #0]
100056b2:	0023      	movs	r3, r4
100056b4:	2200      	movs	r2, #0
100056b6:	2100      	movs	r1, #0
100056b8:	2009      	movs	r0, #9
100056ba:	f7ff ff1f 	bl	100054fc <clock_configure>
100056be:	9500      	str	r5, [sp, #0]
100056c0:	002b      	movs	r3, r5
100056c2:	2200      	movs	r2, #0
100056c4:	2100      	movs	r1, #0
100056c6:	2006      	movs	r0, #6
100056c8:	f7ff ff18 	bl	100054fc <clock_configure>
100056cc:	e7ad      	b.n	1000562a <clocks_init+0x2a>
100056ce:	46c0      	nop			; (mov r8, r8)
100056d0:	2000182c 	.word	0x2000182c
100056d4:	02dc6c00 	.word	0x02dc6c00
100056d8:	0000b71b 	.word	0x0000b71b
100056dc:	40008000 	.word	0x40008000
100056e0:	4000b03c 	.word	0x4000b03c
100056e4:	4000b030 	.word	0x4000b030
100056e8:	59682f00 	.word	0x59682f00
100056ec:	40028000 	.word	0x40028000
100056f0:	47868c00 	.word	0x47868c00
100056f4:	4002c000 	.word	0x4002c000
100056f8:	00b71b00 	.word	0x00b71b00
100056fc:	07735940 	.word	0x07735940

10005700 <clock_get_hz>:
10005700:	4b01      	ldr	r3, [pc, #4]	; (10005708 <clock_get_hz+0x8>)
10005702:	0080      	lsls	r0, r0, #2
10005704:	58c0      	ldr	r0, [r0, r3]
10005706:	4770      	bx	lr
10005708:	2000182c 	.word	0x2000182c

1000570c <pll_init>:
1000570c:	b5f0      	push	{r4, r5, r6, r7, lr}
1000570e:	46c6      	mov	lr, r8
10005710:	b500      	push	{lr}
10005712:	0004      	movs	r4, r0
10005714:	000d      	movs	r5, r1
10005716:	0017      	movs	r7, r2
10005718:	4698      	mov	r8, r3
1000571a:	200c      	movs	r0, #12
1000571c:	f001 fae8 	bl	10006cf0 <__wrap___aeabi_uidiv>
10005720:	0006      	movs	r6, r0
10005722:	4b39      	ldr	r3, [pc, #228]	; (10005808 <pll_init+0xfc>)
10005724:	18fa      	adds	r2, r7, r3
10005726:	4b39      	ldr	r3, [pc, #228]	; (1000580c <pll_init+0x100>)
10005728:	429a      	cmp	r2, r3
1000572a:	d841      	bhi.n	100057b0 <pll_init+0xa4>
1000572c:	0143      	lsls	r3, r0, #5
1000572e:	1a1b      	subs	r3, r3, r0
10005730:	0199      	lsls	r1, r3, #6
10005732:	1ac9      	subs	r1, r1, r3
10005734:	00c9      	lsls	r1, r1, #3
10005736:	1809      	adds	r1, r1, r0
10005738:	0189      	lsls	r1, r1, #6
1000573a:	0038      	movs	r0, r7
1000573c:	f001 fad8 	bl	10006cf0 <__wrap___aeabi_uidiv>
10005740:	0002      	movs	r2, r0
10005742:	3a10      	subs	r2, #16
10005744:	2398      	movs	r3, #152	; 0x98
10005746:	005b      	lsls	r3, r3, #1
10005748:	429a      	cmp	r2, r3
1000574a:	d837      	bhi.n	100057bc <pll_init+0xb0>
1000574c:	4643      	mov	r3, r8
1000574e:	3b01      	subs	r3, #1
10005750:	2b06      	cmp	r3, #6
10005752:	d839      	bhi.n	100057c8 <pll_init+0xbc>
10005754:	9b06      	ldr	r3, [sp, #24]
10005756:	3b01      	subs	r3, #1
10005758:	2b06      	cmp	r3, #6
1000575a:	d835      	bhi.n	100057c8 <pll_init+0xbc>
1000575c:	093f      	lsrs	r7, r7, #4
1000575e:	42b7      	cmp	r7, r6
10005760:	d338      	bcc.n	100057d4 <pll_init+0xc8>
10005762:	4643      	mov	r3, r8
10005764:	041e      	lsls	r6, r3, #16
10005766:	9b06      	ldr	r3, [sp, #24]
10005768:	031b      	lsls	r3, r3, #12
1000576a:	431e      	orrs	r6, r3
1000576c:	6823      	ldr	r3, [r4, #0]
1000576e:	2b00      	cmp	r3, #0
10005770:	db36      	blt.n	100057e0 <pll_init+0xd4>
10005772:	4b27      	ldr	r3, [pc, #156]	; (10005810 <pll_init+0x104>)
10005774:	429c      	cmp	r4, r3
10005776:	d044      	beq.n	10005802 <pll_init+0xf6>
10005778:	2380      	movs	r3, #128	; 0x80
1000577a:	015b      	lsls	r3, r3, #5
1000577c:	4a25      	ldr	r2, [pc, #148]	; (10005814 <pll_init+0x108>)
1000577e:	6013      	str	r3, [r2, #0]
10005780:	4a25      	ldr	r2, [pc, #148]	; (10005818 <pll_init+0x10c>)
10005782:	6013      	str	r3, [r2, #0]
10005784:	4a25      	ldr	r2, [pc, #148]	; (1000581c <pll_init+0x110>)
10005786:	6892      	ldr	r2, [r2, #8]
10005788:	0019      	movs	r1, r3
1000578a:	4391      	bics	r1, r2
1000578c:	d1fa      	bne.n	10005784 <pll_init+0x78>
1000578e:	6025      	str	r5, [r4, #0]
10005790:	60a0      	str	r0, [r4, #8]
10005792:	1d22      	adds	r2, r4, #4
10005794:	23c0      	movs	r3, #192	; 0xc0
10005796:	019b      	lsls	r3, r3, #6
10005798:	4313      	orrs	r3, r2
1000579a:	2221      	movs	r2, #33	; 0x21
1000579c:	601a      	str	r2, [r3, #0]
1000579e:	6822      	ldr	r2, [r4, #0]
100057a0:	2a00      	cmp	r2, #0
100057a2:	dafc      	bge.n	1000579e <pll_init+0x92>
100057a4:	60e6      	str	r6, [r4, #12]
100057a6:	2208      	movs	r2, #8
100057a8:	601a      	str	r2, [r3, #0]
100057aa:	bc80      	pop	{r7}
100057ac:	46b8      	mov	r8, r7
100057ae:	bdf0      	pop	{r4, r5, r6, r7, pc}
100057b0:	4b1b      	ldr	r3, [pc, #108]	; (10005820 <pll_init+0x114>)
100057b2:	4a1c      	ldr	r2, [pc, #112]	; (10005824 <pll_init+0x118>)
100057b4:	481c      	ldr	r0, [pc, #112]	; (10005828 <pll_init+0x11c>)
100057b6:	2111      	movs	r1, #17
100057b8:	f000 f8d6 	bl	10005968 <__assert_func>
100057bc:	4b1b      	ldr	r3, [pc, #108]	; (1000582c <pll_init+0x120>)
100057be:	4a19      	ldr	r2, [pc, #100]	; (10005824 <pll_init+0x118>)
100057c0:	4819      	ldr	r0, [pc, #100]	; (10005828 <pll_init+0x11c>)
100057c2:	2119      	movs	r1, #25
100057c4:	f000 f8d0 	bl	10005968 <__assert_func>
100057c8:	4b19      	ldr	r3, [pc, #100]	; (10005830 <pll_init+0x124>)
100057ca:	4a16      	ldr	r2, [pc, #88]	; (10005824 <pll_init+0x118>)
100057cc:	4816      	ldr	r0, [pc, #88]	; (10005828 <pll_init+0x11c>)
100057ce:	211c      	movs	r1, #28
100057d0:	f000 f8ca 	bl	10005968 <__assert_func>
100057d4:	4b17      	ldr	r3, [pc, #92]	; (10005834 <pll_init+0x128>)
100057d6:	4a13      	ldr	r2, [pc, #76]	; (10005824 <pll_init+0x118>)
100057d8:	4813      	ldr	r0, [pc, #76]	; (10005828 <pll_init+0x11c>)
100057da:	2123      	movs	r1, #35	; 0x23
100057dc:	f000 f8c4 	bl	10005968 <__assert_func>
100057e0:	6822      	ldr	r2, [r4, #0]
100057e2:	233f      	movs	r3, #63	; 0x3f
100057e4:	4013      	ands	r3, r2
100057e6:	42ab      	cmp	r3, r5
100057e8:	d1c3      	bne.n	10005772 <pll_init+0x66>
100057ea:	68a3      	ldr	r3, [r4, #8]
100057ec:	051b      	lsls	r3, r3, #20
100057ee:	0d1b      	lsrs	r3, r3, #20
100057f0:	4283      	cmp	r3, r0
100057f2:	d1be      	bne.n	10005772 <pll_init+0x66>
100057f4:	68e3      	ldr	r3, [r4, #12]
100057f6:	22ee      	movs	r2, #238	; 0xee
100057f8:	02d2      	lsls	r2, r2, #11
100057fa:	4013      	ands	r3, r2
100057fc:	42b3      	cmp	r3, r6
100057fe:	d1b8      	bne.n	10005772 <pll_init+0x66>
10005800:	e7d3      	b.n	100057aa <pll_init+0x9e>
10005802:	2380      	movs	r3, #128	; 0x80
10005804:	019b      	lsls	r3, r3, #6
10005806:	e7b9      	b.n	1000577c <pll_init+0x70>
10005808:	d34be880 	.word	0xd34be880
1000580c:	32a9f880 	.word	0x32a9f880
10005810:	4002c000 	.word	0x4002c000
10005814:	4000e000 	.word	0x4000e000
10005818:	4000f000 	.word	0x4000f000
1000581c:	4000c000 	.word	0x4000c000
10005820:	1000b7e0 	.word	0x1000b7e0
10005824:	1000b904 	.word	0x1000b904
10005828:	1000b840 	.word	0x1000b840
1000582c:	1000b880 	.word	0x1000b880
10005830:	1000b89c 	.word	0x1000b89c
10005834:	1000b8e8 	.word	0x1000b8e8

10005838 <watchdog_start_tick>:
10005838:	2380      	movs	r3, #128	; 0x80
1000583a:	009b      	lsls	r3, r3, #2
1000583c:	4303      	orrs	r3, r0
1000583e:	4a01      	ldr	r2, [pc, #4]	; (10005844 <watchdog_start_tick+0xc>)
10005840:	62d3      	str	r3, [r2, #44]	; 0x2c
10005842:	4770      	bx	lr
10005844:	40058000 	.word	0x40058000

10005848 <watchdog_update>:
10005848:	4b02      	ldr	r3, [pc, #8]	; (10005854 <watchdog_update+0xc>)
1000584a:	681a      	ldr	r2, [r3, #0]
1000584c:	4b02      	ldr	r3, [pc, #8]	; (10005858 <watchdog_update+0x10>)
1000584e:	605a      	str	r2, [r3, #4]
10005850:	4770      	bx	lr
10005852:	46c0      	nop			; (mov r8, r8)
10005854:	20001cc8 	.word	0x20001cc8
10005858:	40058000 	.word	0x40058000

1000585c <_watchdog_enable>:
1000585c:	b510      	push	{r4, lr}
1000585e:	0002      	movs	r2, r0
10005860:	4b16      	ldr	r3, [pc, #88]	; (100058bc <_watchdog_enable+0x60>)
10005862:	2080      	movs	r0, #128	; 0x80
10005864:	05c0      	lsls	r0, r0, #23
10005866:	6018      	str	r0, [r3, #0]
10005868:	4b15      	ldr	r3, [pc, #84]	; (100058c0 <_watchdog_enable+0x64>)
1000586a:	4816      	ldr	r0, [pc, #88]	; (100058c4 <_watchdog_enable+0x68>)
1000586c:	6018      	str	r0, [r3, #0]
1000586e:	2900      	cmp	r1, #0
10005870:	d00a      	beq.n	10005888 <_watchdog_enable+0x2c>
10005872:	4b15      	ldr	r3, [pc, #84]	; (100058c8 <_watchdog_enable+0x6c>)
10005874:	21e0      	movs	r1, #224	; 0xe0
10005876:	04c9      	lsls	r1, r1, #19
10005878:	6019      	str	r1, [r3, #0]
1000587a:	2a00      	cmp	r2, #0
1000587c:	d109      	bne.n	10005892 <_watchdog_enable+0x36>
1000587e:	4b12      	ldr	r3, [pc, #72]	; (100058c8 <_watchdog_enable+0x6c>)
10005880:	2280      	movs	r2, #128	; 0x80
10005882:	0612      	lsls	r2, r2, #24
10005884:	601a      	str	r2, [r3, #0]
10005886:	bd10      	pop	{r4, pc}
10005888:	4b0c      	ldr	r3, [pc, #48]	; (100058bc <_watchdog_enable+0x60>)
1000588a:	21e0      	movs	r1, #224	; 0xe0
1000588c:	04c9      	lsls	r1, r1, #19
1000588e:	6019      	str	r1, [r3, #0]
10005890:	e7f3      	b.n	1000587a <_watchdog_enable+0x1e>
10005892:	0153      	lsls	r3, r2, #5
10005894:	1a9b      	subs	r3, r3, r2
10005896:	0098      	lsls	r0, r3, #2
10005898:	1880      	adds	r0, r0, r2
1000589a:	0100      	lsls	r0, r0, #4
1000589c:	4b0b      	ldr	r3, [pc, #44]	; (100058cc <_watchdog_enable+0x70>)
1000589e:	6018      	str	r0, [r3, #0]
100058a0:	2380      	movs	r3, #128	; 0x80
100058a2:	045b      	lsls	r3, r3, #17
100058a4:	4298      	cmp	r0, r3
100058a6:	d302      	bcc.n	100058ae <_watchdog_enable+0x52>
100058a8:	4b08      	ldr	r3, [pc, #32]	; (100058cc <_watchdog_enable+0x70>)
100058aa:	4a09      	ldr	r2, [pc, #36]	; (100058d0 <_watchdog_enable+0x74>)
100058ac:	601a      	str	r2, [r3, #0]
100058ae:	f7ff ffcb 	bl	10005848 <watchdog_update>
100058b2:	4b05      	ldr	r3, [pc, #20]	; (100058c8 <_watchdog_enable+0x6c>)
100058b4:	2280      	movs	r2, #128	; 0x80
100058b6:	05d2      	lsls	r2, r2, #23
100058b8:	601a      	str	r2, [r3, #0]
100058ba:	e7e4      	b.n	10005886 <_watchdog_enable+0x2a>
100058bc:	4005b000 	.word	0x4005b000
100058c0:	40012008 	.word	0x40012008
100058c4:	0001fffc 	.word	0x0001fffc
100058c8:	4005a000 	.word	0x4005a000
100058cc:	20001cc8 	.word	0x20001cc8
100058d0:	00ffffff 	.word	0x00ffffff

100058d4 <watchdog_enable>:
100058d4:	b510      	push	{r4, lr}
100058d6:	4b03      	ldr	r3, [pc, #12]	; (100058e4 <watchdog_enable+0x10>)
100058d8:	4a03      	ldr	r2, [pc, #12]	; (100058e8 <watchdog_enable+0x14>)
100058da:	61da      	str	r2, [r3, #28]
100058dc:	f7ff ffbe 	bl	1000585c <_watchdog_enable>
100058e0:	bd10      	pop	{r4, pc}
100058e2:	46c0      	nop			; (mov r8, r8)
100058e4:	40058000 	.word	0x40058000
100058e8:	6ab73121 	.word	0x6ab73121

100058ec <watchdog_reboot>:
100058ec:	b510      	push	{r4, lr}
100058ee:	0003      	movs	r3, r0
100058f0:	0010      	movs	r0, r2
100058f2:	4a0c      	ldr	r2, [pc, #48]	; (10005924 <watchdog_reboot+0x38>)
100058f4:	2480      	movs	r4, #128	; 0x80
100058f6:	05e4      	lsls	r4, r4, #23
100058f8:	6014      	str	r4, [r2, #0]
100058fa:	2b00      	cmp	r3, #0
100058fc:	d00d      	beq.n	1000591a <watchdog_reboot+0x2e>
100058fe:	2201      	movs	r2, #1
10005900:	4313      	orrs	r3, r2
10005902:	4a09      	ldr	r2, [pc, #36]	; (10005928 <watchdog_reboot+0x3c>)
10005904:	4c09      	ldr	r4, [pc, #36]	; (1000592c <watchdog_reboot+0x40>)
10005906:	61d4      	str	r4, [r2, #28]
10005908:	4c09      	ldr	r4, [pc, #36]	; (10005930 <watchdog_reboot+0x44>)
1000590a:	405c      	eors	r4, r3
1000590c:	6214      	str	r4, [r2, #32]
1000590e:	6251      	str	r1, [r2, #36]	; 0x24
10005910:	6293      	str	r3, [r2, #40]	; 0x28
10005912:	2100      	movs	r1, #0
10005914:	f7ff ffa2 	bl	1000585c <_watchdog_enable>
10005918:	bd10      	pop	{r4, pc}
1000591a:	4b03      	ldr	r3, [pc, #12]	; (10005928 <watchdog_reboot+0x3c>)
1000591c:	2200      	movs	r2, #0
1000591e:	61da      	str	r2, [r3, #28]
10005920:	e7f7      	b.n	10005912 <watchdog_reboot+0x26>
10005922:	46c0      	nop			; (mov r8, r8)
10005924:	4005b000 	.word	0x4005b000
10005928:	40058000 	.word	0x40058000
1000592c:	b007c0d3 	.word	0xb007c0d3
10005930:	4ff83f2d 	.word	0x4ff83f2d

10005934 <xosc_init>:
10005934:	4b06      	ldr	r3, [pc, #24]	; (10005950 <xosc_init+0x1c>)
10005936:	22aa      	movs	r2, #170	; 0xaa
10005938:	0112      	lsls	r2, r2, #4
1000593a:	601a      	str	r2, [r3, #0]
1000593c:	222f      	movs	r2, #47	; 0x2f
1000593e:	60da      	str	r2, [r3, #12]
10005940:	4b04      	ldr	r3, [pc, #16]	; (10005954 <xosc_init+0x20>)
10005942:	4a05      	ldr	r2, [pc, #20]	; (10005958 <xosc_init+0x24>)
10005944:	601a      	str	r2, [r3, #0]
10005946:	4b02      	ldr	r3, [pc, #8]	; (10005950 <xosc_init+0x1c>)
10005948:	685b      	ldr	r3, [r3, #4]
1000594a:	2b00      	cmp	r3, #0
1000594c:	dafb      	bge.n	10005946 <xosc_init+0x12>
1000594e:	4770      	bx	lr
10005950:	40024000 	.word	0x40024000
10005954:	40026000 	.word	0x40026000
10005958:	00fab000 	.word	0x00fab000

1000595c <_exit>:
1000595c:	be00      	bkpt	0x0000
1000595e:	e7fd      	b.n	1000595c <_exit>

10005960 <exit>:
10005960:	b510      	push	{r4, lr}
10005962:	f7ff fffb 	bl	1000595c <_exit>
	...

10005968 <__assert_func>:
10005968:	b530      	push	{r4, r5, lr}
1000596a:	b083      	sub	sp, #12
1000596c:	000d      	movs	r5, r1
1000596e:	0019      	movs	r1, r3
10005970:	2a00      	cmp	r2, #0
10005972:	d00d      	beq.n	10005990 <__assert_func+0x28>
10005974:	4b08      	ldr	r3, [pc, #32]	; (10005998 <__assert_func+0x30>)
10005976:	2a00      	cmp	r2, #0
10005978:	d00c      	beq.n	10005994 <__assert_func+0x2c>
1000597a:	4c08      	ldr	r4, [pc, #32]	; (1000599c <__assert_func+0x34>)
1000597c:	9201      	str	r2, [sp, #4]
1000597e:	9300      	str	r3, [sp, #0]
10005980:	002b      	movs	r3, r5
10005982:	0002      	movs	r2, r0
10005984:	0020      	movs	r0, r4
10005986:	f002 fa63 	bl	10007e50 <__wrap_printf>
1000598a:	2001      	movs	r0, #1
1000598c:	f7ff ffe6 	bl	1000595c <_exit>
10005990:	4b03      	ldr	r3, [pc, #12]	; (100059a0 <__assert_func+0x38>)
10005992:	e7f0      	b.n	10005976 <__assert_func+0xe>
10005994:	4a02      	ldr	r2, [pc, #8]	; (100059a0 <__assert_func+0x38>)
10005996:	e7f0      	b.n	1000597a <__assert_func+0x12>
10005998:	1000b910 	.word	0x1000b910
1000599c:	1000b920 	.word	0x1000b920
100059a0:	1000b91c 	.word	0x1000b91c

100059a4 <runtime_init>:
100059a4:	b570      	push	{r4, r5, r6, lr}
100059a6:	4b2b      	ldr	r3, [pc, #172]	; (10005a54 <runtime_init+0xb0>)
100059a8:	4a2b      	ldr	r2, [pc, #172]	; (10005a58 <runtime_init+0xb4>)
100059aa:	601a      	str	r2, [r3, #0]
100059ac:	4b2b      	ldr	r3, [pc, #172]	; (10005a5c <runtime_init+0xb8>)
100059ae:	4a2c      	ldr	r2, [pc, #176]	; (10005a60 <runtime_init+0xbc>)
100059b0:	601a      	str	r2, [r3, #0]
100059b2:	4b2c      	ldr	r3, [pc, #176]	; (10005a64 <runtime_init+0xc0>)
100059b4:	689a      	ldr	r2, [r3, #8]
100059b6:	4b2a      	ldr	r3, [pc, #168]	; (10005a60 <runtime_init+0xbc>)
100059b8:	4393      	bics	r3, r2
100059ba:	d1fa      	bne.n	100059b2 <runtime_init+0xe>
100059bc:	4c2a      	ldr	r4, [pc, #168]	; (10005a68 <runtime_init+0xc4>)
100059be:	e001      	b.n	100059c4 <runtime_init+0x20>
100059c0:	cc08      	ldmia	r4!, {r3}
100059c2:	4798      	blx	r3
100059c4:	4b29      	ldr	r3, [pc, #164]	; (10005a6c <runtime_init+0xc8>)
100059c6:	429c      	cmp	r4, r3
100059c8:	d3fa      	bcc.n	100059c0 <runtime_init+0x1c>
100059ca:	f7ff fe19 	bl	10005600 <clocks_init>
100059ce:	4b23      	ldr	r3, [pc, #140]	; (10005a5c <runtime_init+0xb8>)
100059d0:	4a27      	ldr	r2, [pc, #156]	; (10005a70 <runtime_init+0xcc>)
100059d2:	601a      	str	r2, [r3, #0]
100059d4:	4b23      	ldr	r3, [pc, #140]	; (10005a64 <runtime_init+0xc0>)
100059d6:	689b      	ldr	r3, [r3, #8]
100059d8:	43db      	mvns	r3, r3
100059da:	01db      	lsls	r3, r3, #7
100059dc:	d1fa      	bne.n	100059d4 <runtime_init+0x30>
100059de:	4b25      	ldr	r3, [pc, #148]	; (10005a74 <runtime_init+0xd0>)
100059e0:	2240      	movs	r2, #64	; 0x40
100059e2:	679a      	str	r2, [r3, #120]	; 0x78
100059e4:	675a      	str	r2, [r3, #116]	; 0x74
100059e6:	671a      	str	r2, [r3, #112]	; 0x70
100059e8:	66da      	str	r2, [r3, #108]	; 0x6c
100059ea:	4c23      	ldr	r4, [pc, #140]	; (10005a78 <runtime_init+0xd4>)
100059ec:	e009      	b.n	10005a02 <runtime_init+0x5e>
100059ee:	4b23      	ldr	r3, [pc, #140]	; (10005a7c <runtime_init+0xd8>)
100059f0:	4a23      	ldr	r2, [pc, #140]	; (10005a80 <runtime_init+0xdc>)
100059f2:	4824      	ldr	r0, [pc, #144]	; (10005a84 <runtime_init+0xe0>)
100059f4:	2186      	movs	r1, #134	; 0x86
100059f6:	f7ff ffb7 	bl	10005968 <__assert_func>
100059fa:	0020      	movs	r0, r4
100059fc:	f7fe fb56 	bl	100040ac <mutex_init>
10005a00:	3408      	adds	r4, #8
10005a02:	4b21      	ldr	r3, [pc, #132]	; (10005a88 <runtime_init+0xe4>)
10005a04:	429c      	cmp	r4, r3
10005a06:	d209      	bcs.n	10005a1c <runtime_init+0x78>
10005a08:	6823      	ldr	r3, [r4, #0]
10005a0a:	2b00      	cmp	r3, #0
10005a0c:	d0f5      	beq.n	100059fa <runtime_init+0x56>
10005a0e:	2b01      	cmp	r3, #1
10005a10:	d1ed      	bne.n	100059ee <runtime_init+0x4a>
10005a12:	0020      	movs	r0, r4
10005a14:	f7fe fb57 	bl	100040c6 <recursive_mutex_init>
10005a18:	3408      	adds	r4, #8
10005a1a:	e7f2      	b.n	10005a02 <runtime_init+0x5e>
10005a1c:	4d1b      	ldr	r5, [pc, #108]	; (10005a8c <runtime_init+0xe8>)
10005a1e:	68a9      	ldr	r1, [r5, #8]
10005a20:	4c1b      	ldr	r4, [pc, #108]	; (10005a90 <runtime_init+0xec>)
10005a22:	22c0      	movs	r2, #192	; 0xc0
10005a24:	0020      	movs	r0, r4
10005a26:	f002 f8bb 	bl	10007ba0 <__wrap___aeabi_memcpy>
10005a2a:	60ac      	str	r4, [r5, #8]
10005a2c:	f3ef 8305 	mrs	r3, IPSR
10005a30:	2b00      	cmp	r3, #0
10005a32:	d000      	beq.n	10005a36 <runtime_init+0x92>
10005a34:	be00      	bkpt	0x0000
10005a36:	f7fd ffb1 	bl	1000399c <spin_locks_reset>
10005a3a:	f7fe fb0b 	bl	10004054 <irq_init_priorities>
10005a3e:	f7fe febd 	bl	100047bc <alarm_pool_init_default>
10005a42:	4c14      	ldr	r4, [pc, #80]	; (10005a94 <runtime_init+0xf0>)
10005a44:	e001      	b.n	10005a4a <runtime_init+0xa6>
10005a46:	cc08      	ldmia	r4!, {r3}
10005a48:	4798      	blx	r3
10005a4a:	4b13      	ldr	r3, [pc, #76]	; (10005a98 <runtime_init+0xf4>)
10005a4c:	429c      	cmp	r4, r3
10005a4e:	d3fa      	bcc.n	10005a46 <runtime_init+0xa2>
10005a50:	bd70      	pop	{r4, r5, r6, pc}
10005a52:	46c0      	nop			; (mov r8, r8)
10005a54:	4000e000 	.word	0x4000e000
10005a58:	fefbcdbf 	.word	0xfefbcdbf
10005a5c:	4000f000 	.word	0x4000f000
10005a60:	003c7ffe 	.word	0x003c7ffe
10005a64:	4000c000 	.word	0x4000c000
10005a68:	20000c80 	.word	0x20000c80
10005a6c:	20000c90 	.word	0x20000c90
10005a70:	01ffffff 	.word	0x01ffffff
10005a74:	4001f000 	.word	0x4001f000
10005a78:	20000c78 	.word	0x20000c78
10005a7c:	1000b950 	.word	0x1000b950
10005a80:	1000b9c8 	.word	0x1000b9c8
10005a84:	1000b970 	.word	0x1000b970
10005a88:	20000c80 	.word	0x20000c80
10005a8c:	e000ed00 	.word	0xe000ed00
10005a90:	20000000 	.word	0x20000000
10005a94:	20000c90 	.word	0x20000c90
10005a98:	20000c98 	.word	0x20000c98

10005a9c <panic>:
10005a9c:	b40f      	push	{r0, r1, r2, r3}
10005a9e:	b500      	push	{lr}
10005aa0:	b083      	sub	sp, #12
10005aa2:	4808      	ldr	r0, [pc, #32]	; (10005ac4 <panic+0x28>)
10005aa4:	f002 f9a4 	bl	10007df0 <__wrap_puts>
10005aa8:	9b04      	ldr	r3, [sp, #16]
10005aaa:	2b00      	cmp	r3, #0
10005aac:	d007      	beq.n	10005abe <panic+0x22>
10005aae:	a905      	add	r1, sp, #20
10005ab0:	9101      	str	r1, [sp, #4]
10005ab2:	0018      	movs	r0, r3
10005ab4:	f002 f9ac 	bl	10007e10 <__wrap_vprintf>
10005ab8:	4803      	ldr	r0, [pc, #12]	; (10005ac8 <panic+0x2c>)
10005aba:	f002 f999 	bl	10007df0 <__wrap_puts>
10005abe:	2001      	movs	r0, #1
10005ac0:	f7ff ff4c 	bl	1000595c <_exit>
10005ac4:	1000b9b4 	.word	0x1000b9b4
10005ac8:	1000b9c4 	.word	0x1000b9c4

10005acc <_out_null>:
10005acc:	4770      	bx	lr

10005ace <_out_fct>:
10005ace:	b510      	push	{r4, lr}
10005ad0:	2800      	cmp	r0, #0
10005ad2:	d002      	beq.n	10005ada <_out_fct+0xc>
10005ad4:	680b      	ldr	r3, [r1, #0]
10005ad6:	6849      	ldr	r1, [r1, #4]
10005ad8:	4798      	blx	r3
10005ada:	bd10      	pop	{r4, pc}

10005adc <_atoi>:
10005adc:	0001      	movs	r1, r0
10005ade:	2000      	movs	r0, #0
10005ae0:	e007      	b.n	10005af2 <_atoi+0x16>
10005ae2:	0083      	lsls	r3, r0, #2
10005ae4:	181b      	adds	r3, r3, r0
10005ae6:	005b      	lsls	r3, r3, #1
10005ae8:	1c50      	adds	r0, r2, #1
10005aea:	6008      	str	r0, [r1, #0]
10005aec:	7810      	ldrb	r0, [r2, #0]
10005aee:	18c0      	adds	r0, r0, r3
10005af0:	3830      	subs	r0, #48	; 0x30
10005af2:	680a      	ldr	r2, [r1, #0]
10005af4:	7813      	ldrb	r3, [r2, #0]
10005af6:	3b30      	subs	r3, #48	; 0x30
10005af8:	b2db      	uxtb	r3, r3
10005afa:	2b09      	cmp	r3, #9
10005afc:	d9f1      	bls.n	10005ae2 <_atoi+0x6>
10005afe:	4770      	bx	lr

10005b00 <_out_rev>:
10005b00:	b5f0      	push	{r4, r5, r6, r7, lr}
10005b02:	46de      	mov	lr, fp
10005b04:	4657      	mov	r7, sl
10005b06:	464e      	mov	r6, r9
10005b08:	4645      	mov	r5, r8
10005b0a:	b5e0      	push	{r5, r6, r7, lr}
10005b0c:	b083      	sub	sp, #12
10005b0e:	4693      	mov	fp, r2
10005b10:	001f      	movs	r7, r3
10005b12:	9b0c      	ldr	r3, [sp, #48]	; 0x30
10005b14:	469a      	mov	sl, r3
10005b16:	9c0d      	ldr	r4, [sp, #52]	; 0x34
10005b18:	9b0e      	ldr	r3, [sp, #56]	; 0x38
10005b1a:	4699      	mov	r9, r3
10005b1c:	9b0f      	ldr	r3, [sp, #60]	; 0x3c
10005b1e:	079b      	lsls	r3, r3, #30
10005b20:	d003      	beq.n	10005b2a <_out_rev+0x2a>
10005b22:	46b8      	mov	r8, r7
10005b24:	000f      	movs	r7, r1
10005b26:	0006      	movs	r6, r0
10005b28:	e022      	b.n	10005b70 <_out_rev+0x70>
10005b2a:	9201      	str	r2, [sp, #4]
10005b2c:	46a3      	mov	fp, r4
10005b2e:	4688      	mov	r8, r1
10005b30:	464e      	mov	r6, r9
10005b32:	46b9      	mov	r9, r7
10005b34:	0007      	movs	r7, r0
10005b36:	42b4      	cmp	r4, r6
10005b38:	d207      	bcs.n	10005b4a <_out_rev+0x4a>
10005b3a:	1c55      	adds	r5, r2, #1
10005b3c:	464b      	mov	r3, r9
10005b3e:	4641      	mov	r1, r8
10005b40:	2020      	movs	r0, #32
10005b42:	47b8      	blx	r7
10005b44:	3401      	adds	r4, #1
10005b46:	002a      	movs	r2, r5
10005b48:	e7f5      	b.n	10005b36 <_out_rev+0x36>
10005b4a:	003d      	movs	r5, r7
10005b4c:	464f      	mov	r7, r9
10005b4e:	465c      	mov	r4, fp
10005b50:	9b01      	ldr	r3, [sp, #4]
10005b52:	469b      	mov	fp, r3
10005b54:	46b1      	mov	r9, r6
10005b56:	4646      	mov	r6, r8
10005b58:	46b8      	mov	r8, r7
10005b5a:	0037      	movs	r7, r6
10005b5c:	002e      	movs	r6, r5
10005b5e:	e007      	b.n	10005b70 <_out_rev+0x70>
10005b60:	3c01      	subs	r4, #1
10005b62:	1c55      	adds	r5, r2, #1
10005b64:	4653      	mov	r3, sl
10005b66:	5d18      	ldrb	r0, [r3, r4]
10005b68:	4643      	mov	r3, r8
10005b6a:	0039      	movs	r1, r7
10005b6c:	47b0      	blx	r6
10005b6e:	002a      	movs	r2, r5
10005b70:	2c00      	cmp	r4, #0
10005b72:	d1f5      	bne.n	10005b60 <_out_rev+0x60>
10005b74:	0035      	movs	r5, r6
10005b76:	003e      	movs	r6, r7
10005b78:	4647      	mov	r7, r8
10005b7a:	9b0f      	ldr	r3, [sp, #60]	; 0x3c
10005b7c:	079b      	lsls	r3, r3, #30
10005b7e:	d407      	bmi.n	10005b90 <_out_rev+0x90>
10005b80:	0010      	movs	r0, r2
10005b82:	b003      	add	sp, #12
10005b84:	bcf0      	pop	{r4, r5, r6, r7}
10005b86:	46bb      	mov	fp, r7
10005b88:	46b2      	mov	sl, r6
10005b8a:	46a9      	mov	r9, r5
10005b8c:	46a0      	mov	r8, r4
10005b8e:	bdf0      	pop	{r4, r5, r6, r7, pc}
10005b90:	46b0      	mov	r8, r6
10005b92:	464e      	mov	r6, r9
10005b94:	46b9      	mov	r9, r7
10005b96:	002f      	movs	r7, r5
10005b98:	465d      	mov	r5, fp
10005b9a:	1b53      	subs	r3, r2, r5
10005b9c:	42b3      	cmp	r3, r6
10005b9e:	d2ef      	bcs.n	10005b80 <_out_rev+0x80>
10005ba0:	1c54      	adds	r4, r2, #1
10005ba2:	464b      	mov	r3, r9
10005ba4:	4641      	mov	r1, r8
10005ba6:	2020      	movs	r0, #32
10005ba8:	47b8      	blx	r7
10005baa:	0022      	movs	r2, r4
10005bac:	e7f5      	b.n	10005b9a <_out_rev+0x9a>

10005bae <_ntoa_format>:
10005bae:	b5f0      	push	{r4, r5, r6, r7, lr}
10005bb0:	46ce      	mov	lr, r9
10005bb2:	4647      	mov	r7, r8
10005bb4:	b580      	push	{r7, lr}
10005bb6:	b085      	sub	sp, #20
10005bb8:	4694      	mov	ip, r2
10005bba:	4698      	mov	r8, r3
10005bbc:	9d0c      	ldr	r5, [sp, #48]	; 0x30
10005bbe:	9c0d      	ldr	r4, [sp, #52]	; 0x34
10005bc0:	ab0e      	add	r3, sp, #56	; 0x38
10005bc2:	781b      	ldrb	r3, [r3, #0]
10005bc4:	4699      	mov	r9, r3
10005bc6:	9a10      	ldr	r2, [sp, #64]	; 0x40
10005bc8:	9b11      	ldr	r3, [sp, #68]	; 0x44
10005bca:	9e12      	ldr	r6, [sp, #72]	; 0x48
10005bcc:	07b7      	lsls	r7, r6, #30
10005bce:	d41c      	bmi.n	10005c0a <_ntoa_format+0x5c>
10005bd0:	2b00      	cmp	r3, #0
10005bd2:	d00c      	beq.n	10005bee <_ntoa_format+0x40>
10005bd4:	07f7      	lsls	r7, r6, #31
10005bd6:	d50a      	bpl.n	10005bee <_ntoa_format+0x40>
10005bd8:	464f      	mov	r7, r9
10005bda:	2f00      	cmp	r7, #0
10005bdc:	d102      	bne.n	10005be4 <_ntoa_format+0x36>
10005bde:	370c      	adds	r7, #12
10005be0:	4237      	tst	r7, r6
10005be2:	d004      	beq.n	10005bee <_ntoa_format+0x40>
10005be4:	3b01      	subs	r3, #1
10005be6:	e002      	b.n	10005bee <_ntoa_format+0x40>
10005be8:	2730      	movs	r7, #48	; 0x30
10005bea:	552f      	strb	r7, [r5, r4]
10005bec:	3401      	adds	r4, #1
10005bee:	4294      	cmp	r4, r2
10005bf0:	d201      	bcs.n	10005bf6 <_ntoa_format+0x48>
10005bf2:	2c1f      	cmp	r4, #31
10005bf4:	d9f8      	bls.n	10005be8 <_ntoa_format+0x3a>
10005bf6:	07f7      	lsls	r7, r6, #31
10005bf8:	d507      	bpl.n	10005c0a <_ntoa_format+0x5c>
10005bfa:	429c      	cmp	r4, r3
10005bfc:	d205      	bcs.n	10005c0a <_ntoa_format+0x5c>
10005bfe:	2c1f      	cmp	r4, #31
10005c00:	d803      	bhi.n	10005c0a <_ntoa_format+0x5c>
10005c02:	2730      	movs	r7, #48	; 0x30
10005c04:	552f      	strb	r7, [r5, r4]
10005c06:	3401      	adds	r4, #1
10005c08:	e7f5      	b.n	10005bf6 <_ntoa_format+0x48>
10005c0a:	06f7      	lsls	r7, r6, #27
10005c0c:	d515      	bpl.n	10005c3a <_ntoa_format+0x8c>
10005c0e:	0577      	lsls	r7, r6, #21
10005c10:	d405      	bmi.n	10005c1e <_ntoa_format+0x70>
10005c12:	2c00      	cmp	r4, #0
10005c14:	d003      	beq.n	10005c1e <_ntoa_format+0x70>
10005c16:	4294      	cmp	r4, r2
10005c18:	d024      	beq.n	10005c64 <_ntoa_format+0xb6>
10005c1a:	429c      	cmp	r4, r3
10005c1c:	d022      	beq.n	10005c64 <_ntoa_format+0xb6>
10005c1e:	9a0f      	ldr	r2, [sp, #60]	; 0x3c
10005c20:	2a10      	cmp	r2, #16
10005c22:	d02b      	beq.n	10005c7c <_ntoa_format+0xce>
10005c24:	9a0f      	ldr	r2, [sp, #60]	; 0x3c
10005c26:	2a10      	cmp	r2, #16
10005c28:	d030      	beq.n	10005c8c <_ntoa_format+0xde>
10005c2a:	9a0f      	ldr	r2, [sp, #60]	; 0x3c
10005c2c:	2a02      	cmp	r2, #2
10005c2e:	d035      	beq.n	10005c9c <_ntoa_format+0xee>
10005c30:	2c1f      	cmp	r4, #31
10005c32:	d802      	bhi.n	10005c3a <_ntoa_format+0x8c>
10005c34:	2230      	movs	r2, #48	; 0x30
10005c36:	552a      	strb	r2, [r5, r4]
10005c38:	3401      	adds	r4, #1
10005c3a:	2c1f      	cmp	r4, #31
10005c3c:	d805      	bhi.n	10005c4a <_ntoa_format+0x9c>
10005c3e:	464a      	mov	r2, r9
10005c40:	2a00      	cmp	r2, #0
10005c42:	d031      	beq.n	10005ca8 <_ntoa_format+0xfa>
10005c44:	222d      	movs	r2, #45	; 0x2d
10005c46:	552a      	strb	r2, [r5, r4]
10005c48:	3401      	adds	r4, #1
10005c4a:	9603      	str	r6, [sp, #12]
10005c4c:	9302      	str	r3, [sp, #8]
10005c4e:	9401      	str	r4, [sp, #4]
10005c50:	9500      	str	r5, [sp, #0]
10005c52:	4643      	mov	r3, r8
10005c54:	4662      	mov	r2, ip
10005c56:	f7ff ff53 	bl	10005b00 <_out_rev>
10005c5a:	b005      	add	sp, #20
10005c5c:	bcc0      	pop	{r6, r7}
10005c5e:	46b9      	mov	r9, r7
10005c60:	46b0      	mov	r8, r6
10005c62:	bdf0      	pop	{r4, r5, r6, r7, pc}
10005c64:	1e62      	subs	r2, r4, #1
10005c66:	2c01      	cmp	r4, #1
10005c68:	d006      	beq.n	10005c78 <_ntoa_format+0xca>
10005c6a:	9f0f      	ldr	r7, [sp, #60]	; 0x3c
10005c6c:	2f10      	cmp	r7, #16
10005c6e:	d001      	beq.n	10005c74 <_ntoa_format+0xc6>
10005c70:	0014      	movs	r4, r2
10005c72:	e7d4      	b.n	10005c1e <_ntoa_format+0x70>
10005c74:	3c02      	subs	r4, #2
10005c76:	e7d2      	b.n	10005c1e <_ntoa_format+0x70>
10005c78:	0014      	movs	r4, r2
10005c7a:	e7d0      	b.n	10005c1e <_ntoa_format+0x70>
10005c7c:	06b2      	lsls	r2, r6, #26
10005c7e:	d4d1      	bmi.n	10005c24 <_ntoa_format+0x76>
10005c80:	2c1f      	cmp	r4, #31
10005c82:	d8cf      	bhi.n	10005c24 <_ntoa_format+0x76>
10005c84:	2278      	movs	r2, #120	; 0x78
10005c86:	552a      	strb	r2, [r5, r4]
10005c88:	3401      	adds	r4, #1
10005c8a:	e7d1      	b.n	10005c30 <_ntoa_format+0x82>
10005c8c:	06b2      	lsls	r2, r6, #26
10005c8e:	d5cc      	bpl.n	10005c2a <_ntoa_format+0x7c>
10005c90:	2c1f      	cmp	r4, #31
10005c92:	d8ca      	bhi.n	10005c2a <_ntoa_format+0x7c>
10005c94:	2258      	movs	r2, #88	; 0x58
10005c96:	552a      	strb	r2, [r5, r4]
10005c98:	3401      	adds	r4, #1
10005c9a:	e7c9      	b.n	10005c30 <_ntoa_format+0x82>
10005c9c:	2c1f      	cmp	r4, #31
10005c9e:	d8c7      	bhi.n	10005c30 <_ntoa_format+0x82>
10005ca0:	3260      	adds	r2, #96	; 0x60
10005ca2:	552a      	strb	r2, [r5, r4]
10005ca4:	3401      	adds	r4, #1
10005ca6:	e7c3      	b.n	10005c30 <_ntoa_format+0x82>
10005ca8:	0772      	lsls	r2, r6, #29
10005caa:	d503      	bpl.n	10005cb4 <_ntoa_format+0x106>
10005cac:	222b      	movs	r2, #43	; 0x2b
10005cae:	552a      	strb	r2, [r5, r4]
10005cb0:	3401      	adds	r4, #1
10005cb2:	e7ca      	b.n	10005c4a <_ntoa_format+0x9c>
10005cb4:	0732      	lsls	r2, r6, #28
10005cb6:	d5c8      	bpl.n	10005c4a <_ntoa_format+0x9c>
10005cb8:	2220      	movs	r2, #32
10005cba:	552a      	strb	r2, [r5, r4]
10005cbc:	3401      	adds	r4, #1
10005cbe:	e7c4      	b.n	10005c4a <_ntoa_format+0x9c>

10005cc0 <_ntoa_long>:
10005cc0:	b5f0      	push	{r4, r5, r6, r7, lr}
10005cc2:	46de      	mov	lr, fp
10005cc4:	4657      	mov	r7, sl
10005cc6:	464e      	mov	r6, r9
10005cc8:	4645      	mov	r5, r8
10005cca:	b5e0      	push	{r5, r6, r7, lr}
10005ccc:	b093      	sub	sp, #76	; 0x4c
10005cce:	4681      	mov	r9, r0
10005cd0:	468a      	mov	sl, r1
10005cd2:	9208      	str	r2, [sp, #32]
10005cd4:	9309      	str	r3, [sp, #36]	; 0x24
10005cd6:	ab1c      	add	r3, sp, #112	; 0x70
10005cd8:	cb10      	ldmia	r3!, {r4}
10005cda:	781b      	ldrb	r3, [r3, #0]
10005cdc:	469b      	mov	fp, r3
10005cde:	9d1e      	ldr	r5, [sp, #120]	; 0x78
10005ce0:	9b21      	ldr	r3, [sp, #132]	; 0x84
10005ce2:	4698      	mov	r8, r3
10005ce4:	2c00      	cmp	r4, #0
10005ce6:	d103      	bne.n	10005cf0 <_ntoa_long+0x30>
10005ce8:	2310      	movs	r3, #16
10005cea:	4642      	mov	r2, r8
10005cec:	439a      	bics	r2, r3
10005cee:	4690      	mov	r8, r2
10005cf0:	2380      	movs	r3, #128	; 0x80
10005cf2:	00db      	lsls	r3, r3, #3
10005cf4:	4646      	mov	r6, r8
10005cf6:	401e      	ands	r6, r3
10005cf8:	4642      	mov	r2, r8
10005cfa:	421a      	tst	r2, r3
10005cfc:	d012      	beq.n	10005d24 <_ntoa_long+0x64>
10005cfe:	2c00      	cmp	r4, #0
10005d00:	d022      	beq.n	10005d48 <_ntoa_long+0x88>
10005d02:	2600      	movs	r6, #0
10005d04:	e00e      	b.n	10005d24 <_ntoa_long+0x64>
10005d06:	3130      	adds	r1, #48	; 0x30
10005d08:	b2cb      	uxtb	r3, r1
10005d0a:	1c77      	adds	r7, r6, #1
10005d0c:	aa0a      	add	r2, sp, #40	; 0x28
10005d0e:	5593      	strb	r3, [r2, r6]
10005d10:	0029      	movs	r1, r5
10005d12:	0020      	movs	r0, r4
10005d14:	f000 ffec 	bl	10006cf0 <__wrap___aeabi_uidiv>
10005d18:	42ac      	cmp	r4, r5
10005d1a:	d316      	bcc.n	10005d4a <_ntoa_long+0x8a>
10005d1c:	2f1f      	cmp	r7, #31
10005d1e:	d814      	bhi.n	10005d4a <_ntoa_long+0x8a>
10005d20:	003e      	movs	r6, r7
10005d22:	0004      	movs	r4, r0
10005d24:	0029      	movs	r1, r5
10005d26:	0020      	movs	r0, r4
10005d28:	f000 ffe2 	bl	10006cf0 <__wrap___aeabi_uidiv>
10005d2c:	b2c9      	uxtb	r1, r1
10005d2e:	2909      	cmp	r1, #9
10005d30:	d9e9      	bls.n	10005d06 <_ntoa_long+0x46>
10005d32:	4643      	mov	r3, r8
10005d34:	069b      	lsls	r3, r3, #26
10005d36:	d505      	bpl.n	10005d44 <_ntoa_long+0x84>
10005d38:	2341      	movs	r3, #65	; 0x41
10005d3a:	185b      	adds	r3, r3, r1
10005d3c:	b2db      	uxtb	r3, r3
10005d3e:	3b0a      	subs	r3, #10
10005d40:	b2db      	uxtb	r3, r3
10005d42:	e7e2      	b.n	10005d0a <_ntoa_long+0x4a>
10005d44:	2361      	movs	r3, #97	; 0x61
10005d46:	e7f8      	b.n	10005d3a <_ntoa_long+0x7a>
10005d48:	0027      	movs	r7, r4
10005d4a:	4643      	mov	r3, r8
10005d4c:	9306      	str	r3, [sp, #24]
10005d4e:	9b20      	ldr	r3, [sp, #128]	; 0x80
10005d50:	9305      	str	r3, [sp, #20]
10005d52:	9b1f      	ldr	r3, [sp, #124]	; 0x7c
10005d54:	9304      	str	r3, [sp, #16]
10005d56:	9503      	str	r5, [sp, #12]
10005d58:	465b      	mov	r3, fp
10005d5a:	9302      	str	r3, [sp, #8]
10005d5c:	9701      	str	r7, [sp, #4]
10005d5e:	ab0a      	add	r3, sp, #40	; 0x28
10005d60:	9300      	str	r3, [sp, #0]
10005d62:	9b09      	ldr	r3, [sp, #36]	; 0x24
10005d64:	9a08      	ldr	r2, [sp, #32]
10005d66:	4651      	mov	r1, sl
10005d68:	4648      	mov	r0, r9
10005d6a:	f7ff ff20 	bl	10005bae <_ntoa_format>
10005d6e:	b013      	add	sp, #76	; 0x4c
10005d70:	bcf0      	pop	{r4, r5, r6, r7}
10005d72:	46bb      	mov	fp, r7
10005d74:	46b2      	mov	sl, r6
10005d76:	46a9      	mov	r9, r5
10005d78:	46a0      	mov	r8, r4
10005d7a:	bdf0      	pop	{r4, r5, r6, r7, pc}

10005d7c <_ntoa_long_long>:
10005d7c:	b5f0      	push	{r4, r5, r6, r7, lr}
10005d7e:	46de      	mov	lr, fp
10005d80:	4657      	mov	r7, sl
10005d82:	464e      	mov	r6, r9
10005d84:	4645      	mov	r5, r8
10005d86:	b5e0      	push	{r5, r6, r7, lr}
10005d88:	b095      	sub	sp, #84	; 0x54
10005d8a:	9008      	str	r0, [sp, #32]
10005d8c:	9109      	str	r1, [sp, #36]	; 0x24
10005d8e:	920a      	str	r2, [sp, #40]	; 0x28
10005d90:	930b      	str	r3, [sp, #44]	; 0x2c
10005d92:	9e1e      	ldr	r6, [sp, #120]	; 0x78
10005d94:	9c1f      	ldr	r4, [sp, #124]	; 0x7c
10005d96:	ab20      	add	r3, sp, #128	; 0x80
10005d98:	781b      	ldrb	r3, [r3, #0]
10005d9a:	469b      	mov	fp, r3
10005d9c:	9b22      	ldr	r3, [sp, #136]	; 0x88
10005d9e:	4699      	mov	r9, r3
10005da0:	9d23      	ldr	r5, [sp, #140]	; 0x8c
10005da2:	9b26      	ldr	r3, [sp, #152]	; 0x98
10005da4:	469a      	mov	sl, r3
10005da6:	0033      	movs	r3, r6
10005da8:	4323      	orrs	r3, r4
10005daa:	d103      	bne.n	10005db4 <_ntoa_long_long+0x38>
10005dac:	3310      	adds	r3, #16
10005dae:	4652      	mov	r2, sl
10005db0:	439a      	bics	r2, r3
10005db2:	4692      	mov	sl, r2
10005db4:	2380      	movs	r3, #128	; 0x80
10005db6:	00db      	lsls	r3, r3, #3
10005db8:	4657      	mov	r7, sl
10005dba:	401f      	ands	r7, r3
10005dbc:	4652      	mov	r2, sl
10005dbe:	421a      	tst	r2, r3
10005dc0:	d019      	beq.n	10005df6 <_ntoa_long_long+0x7a>
10005dc2:	0033      	movs	r3, r6
10005dc4:	4323      	orrs	r3, r4
10005dc6:	d02d      	beq.n	10005e24 <_ntoa_long_long+0xa8>
10005dc8:	2700      	movs	r7, #0
10005dca:	e014      	b.n	10005df6 <_ntoa_long_long+0x7a>
10005dcc:	3230      	adds	r2, #48	; 0x30
10005dce:	b2d3      	uxtb	r3, r2
10005dd0:	1c7a      	adds	r2, r7, #1
10005dd2:	4690      	mov	r8, r2
10005dd4:	aa0c      	add	r2, sp, #48	; 0x30
10005dd6:	55d3      	strb	r3, [r2, r7]
10005dd8:	464a      	mov	r2, r9
10005dda:	002b      	movs	r3, r5
10005ddc:	0030      	movs	r0, r6
10005dde:	0021      	movs	r1, r4
10005de0:	f000 ffc4 	bl	10006d6c <__wrap___aeabi_uldivmod>
10005de4:	42a5      	cmp	r5, r4
10005de6:	d81f      	bhi.n	10005e28 <_ntoa_long_long+0xac>
10005de8:	d019      	beq.n	10005e1e <_ntoa_long_long+0xa2>
10005dea:	4643      	mov	r3, r8
10005dec:	2b1f      	cmp	r3, #31
10005dee:	d81b      	bhi.n	10005e28 <_ntoa_long_long+0xac>
10005df0:	4647      	mov	r7, r8
10005df2:	0006      	movs	r6, r0
10005df4:	000c      	movs	r4, r1
10005df6:	464a      	mov	r2, r9
10005df8:	002b      	movs	r3, r5
10005dfa:	0030      	movs	r0, r6
10005dfc:	0021      	movs	r1, r4
10005dfe:	f000 ffb5 	bl	10006d6c <__wrap___aeabi_uldivmod>
10005e02:	b2d2      	uxtb	r2, r2
10005e04:	2a09      	cmp	r2, #9
10005e06:	d9e1      	bls.n	10005dcc <_ntoa_long_long+0x50>
10005e08:	4653      	mov	r3, sl
10005e0a:	069b      	lsls	r3, r3, #26
10005e0c:	d505      	bpl.n	10005e1a <_ntoa_long_long+0x9e>
10005e0e:	2341      	movs	r3, #65	; 0x41
10005e10:	189b      	adds	r3, r3, r2
10005e12:	b2db      	uxtb	r3, r3
10005e14:	3b0a      	subs	r3, #10
10005e16:	b2db      	uxtb	r3, r3
10005e18:	e7da      	b.n	10005dd0 <_ntoa_long_long+0x54>
10005e1a:	2361      	movs	r3, #97	; 0x61
10005e1c:	e7f8      	b.n	10005e10 <_ntoa_long_long+0x94>
10005e1e:	45b1      	cmp	r9, r6
10005e20:	d9e3      	bls.n	10005dea <_ntoa_long_long+0x6e>
10005e22:	e001      	b.n	10005e28 <_ntoa_long_long+0xac>
10005e24:	2300      	movs	r3, #0
10005e26:	4698      	mov	r8, r3
10005e28:	4653      	mov	r3, sl
10005e2a:	9306      	str	r3, [sp, #24]
10005e2c:	9b25      	ldr	r3, [sp, #148]	; 0x94
10005e2e:	9305      	str	r3, [sp, #20]
10005e30:	9b24      	ldr	r3, [sp, #144]	; 0x90
10005e32:	9304      	str	r3, [sp, #16]
10005e34:	464b      	mov	r3, r9
10005e36:	9303      	str	r3, [sp, #12]
10005e38:	465b      	mov	r3, fp
10005e3a:	9302      	str	r3, [sp, #8]
10005e3c:	4643      	mov	r3, r8
10005e3e:	9301      	str	r3, [sp, #4]
10005e40:	ab0c      	add	r3, sp, #48	; 0x30
10005e42:	9300      	str	r3, [sp, #0]
10005e44:	9b0b      	ldr	r3, [sp, #44]	; 0x2c
10005e46:	9a0a      	ldr	r2, [sp, #40]	; 0x28
10005e48:	9909      	ldr	r1, [sp, #36]	; 0x24
10005e4a:	9808      	ldr	r0, [sp, #32]
10005e4c:	f7ff feaf 	bl	10005bae <_ntoa_format>
10005e50:	b015      	add	sp, #84	; 0x54
10005e52:	bcf0      	pop	{r4, r5, r6, r7}
10005e54:	46bb      	mov	fp, r7
10005e56:	46b2      	mov	sl, r6
10005e58:	46a9      	mov	r9, r5
10005e5a:	46a0      	mov	r8, r4
10005e5c:	bdf0      	pop	{r4, r5, r6, r7, pc}
	...

10005e60 <_etoa>:
10005e60:	b5f0      	push	{r4, r5, r6, r7, lr}
10005e62:	46de      	mov	lr, fp
10005e64:	4657      	mov	r7, sl
10005e66:	464e      	mov	r6, r9
10005e68:	4645      	mov	r5, r8
10005e6a:	b5e0      	push	{r5, r6, r7, lr}
10005e6c:	b091      	sub	sp, #68	; 0x44
10005e6e:	4683      	mov	fp, r0
10005e70:	468a      	mov	sl, r1
10005e72:	920c      	str	r2, [sp, #48]	; 0x30
10005e74:	4698      	mov	r8, r3
10005e76:	9c1a      	ldr	r4, [sp, #104]	; 0x68
10005e78:	9408      	str	r4, [sp, #32]
10005e7a:	9d1b      	ldr	r5, [sp, #108]	; 0x6c
10005e7c:	9509      	str	r5, [sp, #36]	; 0x24
10005e7e:	0022      	movs	r2, r4
10005e80:	002b      	movs	r3, r5
10005e82:	0020      	movs	r0, r4
10005e84:	0029      	movs	r1, r5
10005e86:	f001 f9fc 	bl	10007282 <__wrap___aeabi_dcmpun>
10005e8a:	2800      	cmp	r0, #0
10005e8c:	d000      	beq.n	10005e90 <_etoa+0x30>
10005e8e:	e0e5      	b.n	1000605c <_etoa+0x1fc>
10005e90:	2201      	movs	r2, #1
10005e92:	4252      	negs	r2, r2
10005e94:	4bd7      	ldr	r3, [pc, #860]	; (100061f4 <_etoa+0x394>)
10005e96:	0020      	movs	r0, r4
10005e98:	0029      	movs	r1, r5
10005e9a:	f001 f9ed 	bl	10007278 <__wrap___aeabi_dcmpgt>
10005e9e:	2800      	cmp	r0, #0
10005ea0:	d000      	beq.n	10005ea4 <_etoa+0x44>
10005ea2:	e0db      	b.n	1000605c <_etoa+0x1fc>
10005ea4:	2201      	movs	r2, #1
10005ea6:	4252      	negs	r2, r2
10005ea8:	4bd3      	ldr	r3, [pc, #844]	; (100061f8 <_etoa+0x398>)
10005eaa:	0020      	movs	r0, r4
10005eac:	0029      	movs	r1, r5
10005eae:	f001 f9cd 	bl	1000724c <__wrap___aeabi_dcmplt>
10005eb2:	2800      	cmp	r0, #0
10005eb4:	d000      	beq.n	10005eb8 <_etoa+0x58>
10005eb6:	e0d1      	b.n	1000605c <_etoa+0x1fc>
10005eb8:	2200      	movs	r2, #0
10005eba:	2300      	movs	r3, #0
10005ebc:	9e08      	ldr	r6, [sp, #32]
10005ebe:	0030      	movs	r0, r6
10005ec0:	9d09      	ldr	r5, [sp, #36]	; 0x24
10005ec2:	0029      	movs	r1, r5
10005ec4:	f001 f9c2 	bl	1000724c <__wrap___aeabi_dcmplt>
10005ec8:	2800      	cmp	r0, #0
10005eca:	d000      	beq.n	10005ece <_etoa+0x6e>
10005ecc:	e0dd      	b.n	1000608a <_etoa+0x22a>
10005ece:	9a08      	ldr	r2, [sp, #32]
10005ed0:	9b09      	ldr	r3, [sp, #36]	; 0x24
10005ed2:	9206      	str	r2, [sp, #24]
10005ed4:	9307      	str	r3, [sp, #28]
10005ed6:	2380      	movs	r3, #128	; 0x80
10005ed8:	00db      	lsls	r3, r3, #3
10005eda:	9a1e      	ldr	r2, [sp, #120]	; 0x78
10005edc:	401a      	ands	r2, r3
10005ede:	920d      	str	r2, [sp, #52]	; 0x34
10005ee0:	9a1e      	ldr	r2, [sp, #120]	; 0x78
10005ee2:	421a      	tst	r2, r3
10005ee4:	d101      	bne.n	10005eea <_etoa+0x8a>
10005ee6:	2306      	movs	r3, #6
10005ee8:	931c      	str	r3, [sp, #112]	; 0x70
10005eea:	9806      	ldr	r0, [sp, #24]
10005eec:	9907      	ldr	r1, [sp, #28]
10005eee:	0004      	movs	r4, r0
10005ef0:	000d      	movs	r5, r1
10005ef2:	000a      	movs	r2, r1
10005ef4:	0006      	movs	r6, r0
10005ef6:	4302      	orrs	r2, r0
10005ef8:	d100      	bne.n	10005efc <_etoa+0x9c>
10005efa:	e0d1      	b.n	100060a0 <_etoa+0x240>
10005efc:	0d08      	lsrs	r0, r1, #20
10005efe:	0540      	lsls	r0, r0, #21
10005f00:	0d40      	lsrs	r0, r0, #21
10005f02:	4cbe      	ldr	r4, [pc, #760]	; (100061fc <_etoa+0x39c>)
10005f04:	46a4      	mov	ip, r4
10005f06:	4460      	add	r0, ip
10005f08:	030a      	lsls	r2, r1, #12
10005f0a:	0b12      	lsrs	r2, r2, #12
10005f0c:	4bbc      	ldr	r3, [pc, #752]	; (10006200 <_etoa+0x3a0>)
10005f0e:	4313      	orrs	r3, r2
10005f10:	001f      	movs	r7, r3
10005f12:	f001 f9c9 	bl	100072a8 <__wrap___aeabi_i2d>
10005f16:	4abb      	ldr	r2, [pc, #748]	; (10006204 <_etoa+0x3a4>)
10005f18:	4bbb      	ldr	r3, [pc, #748]	; (10006208 <_etoa+0x3a8>)
10005f1a:	f001 f954 	bl	100071c6 <__wrap___aeabi_dmul>
10005f1e:	4abb      	ldr	r2, [pc, #748]	; (1000620c <_etoa+0x3ac>)
10005f20:	4bbb      	ldr	r3, [pc, #748]	; (10006210 <_etoa+0x3b0>)
10005f22:	f001 f929 	bl	10007178 <__wrap___aeabi_dadd>
10005f26:	0004      	movs	r4, r0
10005f28:	000d      	movs	r5, r1
10005f2a:	2200      	movs	r2, #0
10005f2c:	4bb9      	ldr	r3, [pc, #740]	; (10006214 <_etoa+0x3b4>)
10005f2e:	0030      	movs	r0, r6
10005f30:	0039      	movs	r1, r7
10005f32:	f001 f918 	bl	10007166 <__wrap___aeabi_dsub>
10005f36:	4ab8      	ldr	r2, [pc, #736]	; (10006218 <_etoa+0x3b8>)
10005f38:	4bb8      	ldr	r3, [pc, #736]	; (1000621c <_etoa+0x3bc>)
10005f3a:	f001 f944 	bl	100071c6 <__wrap___aeabi_dmul>
10005f3e:	0002      	movs	r2, r0
10005f40:	000b      	movs	r3, r1
10005f42:	0020      	movs	r0, r4
10005f44:	0029      	movs	r1, r5
10005f46:	f001 f917 	bl	10007178 <__wrap___aeabi_dadd>
10005f4a:	f001 f9c5 	bl	100072d8 <__wrap___aeabi_d2iz>
10005f4e:	4681      	mov	r9, r0
10005f50:	f001 f9aa 	bl	100072a8 <__wrap___aeabi_i2d>
10005f54:	0004      	movs	r4, r0
10005f56:	000d      	movs	r5, r1
10005f58:	4ab1      	ldr	r2, [pc, #708]	; (10006220 <_etoa+0x3c0>)
10005f5a:	4bb2      	ldr	r3, [pc, #712]	; (10006224 <_etoa+0x3c4>)
10005f5c:	f001 f933 	bl	100071c6 <__wrap___aeabi_dmul>
10005f60:	2200      	movs	r2, #0
10005f62:	4bb1      	ldr	r3, [pc, #708]	; (10006228 <_etoa+0x3c8>)
10005f64:	f001 f908 	bl	10007178 <__wrap___aeabi_dadd>
10005f68:	f001 f9b6 	bl	100072d8 <__wrap___aeabi_d2iz>
10005f6c:	0006      	movs	r6, r0
10005f6e:	4aaf      	ldr	r2, [pc, #700]	; (1000622c <_etoa+0x3cc>)
10005f70:	4baf      	ldr	r3, [pc, #700]	; (10006230 <_etoa+0x3d0>)
10005f72:	0020      	movs	r0, r4
10005f74:	0029      	movs	r1, r5
10005f76:	f001 f926 	bl	100071c6 <__wrap___aeabi_dmul>
10005f7a:	0004      	movs	r4, r0
10005f7c:	000d      	movs	r5, r1
10005f7e:	0030      	movs	r0, r6
10005f80:	f001 f992 	bl	100072a8 <__wrap___aeabi_i2d>
10005f84:	4aab      	ldr	r2, [pc, #684]	; (10006234 <_etoa+0x3d4>)
10005f86:	4bac      	ldr	r3, [pc, #688]	; (10006238 <_etoa+0x3d8>)
10005f88:	f001 f91d 	bl	100071c6 <__wrap___aeabi_dmul>
10005f8c:	0002      	movs	r2, r0
10005f8e:	000b      	movs	r3, r1
10005f90:	0020      	movs	r0, r4
10005f92:	0029      	movs	r1, r5
10005f94:	f001 f8e7 	bl	10007166 <__wrap___aeabi_dsub>
10005f98:	0004      	movs	r4, r0
10005f9a:	000d      	movs	r5, r1
10005f9c:	0002      	movs	r2, r0
10005f9e:	000b      	movs	r3, r1
10005fa0:	f001 f911 	bl	100071c6 <__wrap___aeabi_dmul>
10005fa4:	900a      	str	r0, [sp, #40]	; 0x28
10005fa6:	910b      	str	r1, [sp, #44]	; 0x2c
10005fa8:	4ba4      	ldr	r3, [pc, #656]	; (1000623c <_etoa+0x3dc>)
10005faa:	18f3      	adds	r3, r6, r3
10005fac:	2600      	movs	r6, #0
10005fae:	051f      	lsls	r7, r3, #20
10005fb0:	0022      	movs	r2, r4
10005fb2:	002b      	movs	r3, r5
10005fb4:	0020      	movs	r0, r4
10005fb6:	0029      	movs	r1, r5
10005fb8:	f001 f8de 	bl	10007178 <__wrap___aeabi_dadd>
10005fbc:	900e      	str	r0, [sp, #56]	; 0x38
10005fbe:	910f      	str	r1, [sp, #60]	; 0x3c
10005fc0:	0022      	movs	r2, r4
10005fc2:	002b      	movs	r3, r5
10005fc4:	2000      	movs	r0, #0
10005fc6:	2180      	movs	r1, #128	; 0x80
10005fc8:	05c9      	lsls	r1, r1, #23
10005fca:	f001 f8cc 	bl	10007166 <__wrap___aeabi_dsub>
10005fce:	0004      	movs	r4, r0
10005fd0:	000d      	movs	r5, r1
10005fd2:	2200      	movs	r2, #0
10005fd4:	4b9a      	ldr	r3, [pc, #616]	; (10006240 <_etoa+0x3e0>)
10005fd6:	980a      	ldr	r0, [sp, #40]	; 0x28
10005fd8:	990b      	ldr	r1, [sp, #44]	; 0x2c
10005fda:	f001 f8d6 	bl	1000718a <__wrap___aeabi_ddiv>
10005fde:	2200      	movs	r2, #0
10005fe0:	4b98      	ldr	r3, [pc, #608]	; (10006244 <_etoa+0x3e4>)
10005fe2:	f001 f8c9 	bl	10007178 <__wrap___aeabi_dadd>
10005fe6:	0002      	movs	r2, r0
10005fe8:	000b      	movs	r3, r1
10005fea:	980a      	ldr	r0, [sp, #40]	; 0x28
10005fec:	990b      	ldr	r1, [sp, #44]	; 0x2c
10005fee:	f001 f8cc 	bl	1000718a <__wrap___aeabi_ddiv>
10005ff2:	2200      	movs	r2, #0
10005ff4:	4b94      	ldr	r3, [pc, #592]	; (10006248 <_etoa+0x3e8>)
10005ff6:	f001 f8bf 	bl	10007178 <__wrap___aeabi_dadd>
10005ffa:	0002      	movs	r2, r0
10005ffc:	000b      	movs	r3, r1
10005ffe:	980a      	ldr	r0, [sp, #40]	; 0x28
10006000:	990b      	ldr	r1, [sp, #44]	; 0x2c
10006002:	f001 f8c2 	bl	1000718a <__wrap___aeabi_ddiv>
10006006:	0002      	movs	r2, r0
10006008:	000b      	movs	r3, r1
1000600a:	0020      	movs	r0, r4
1000600c:	0029      	movs	r1, r5
1000600e:	f001 f8b3 	bl	10007178 <__wrap___aeabi_dadd>
10006012:	0002      	movs	r2, r0
10006014:	000b      	movs	r3, r1
10006016:	980e      	ldr	r0, [sp, #56]	; 0x38
10006018:	990f      	ldr	r1, [sp, #60]	; 0x3c
1000601a:	f001 f8b6 	bl	1000718a <__wrap___aeabi_ddiv>
1000601e:	2200      	movs	r2, #0
10006020:	4b77      	ldr	r3, [pc, #476]	; (10006200 <_etoa+0x3a0>)
10006022:	f001 f8a9 	bl	10007178 <__wrap___aeabi_dadd>
10006026:	0032      	movs	r2, r6
10006028:	003b      	movs	r3, r7
1000602a:	f001 f8cc 	bl	100071c6 <__wrap___aeabi_dmul>
1000602e:	0006      	movs	r6, r0
10006030:	000f      	movs	r7, r1
10006032:	0004      	movs	r4, r0
10006034:	000d      	movs	r5, r1
10006036:	9a06      	ldr	r2, [sp, #24]
10006038:	9b07      	ldr	r3, [sp, #28]
1000603a:	f001 f91d 	bl	10007278 <__wrap___aeabi_dcmpgt>
1000603e:	2800      	cmp	r0, #0
10006040:	d030      	beq.n	100060a4 <_etoa+0x244>
10006042:	2301      	movs	r3, #1
10006044:	425b      	negs	r3, r3
10006046:	469c      	mov	ip, r3
10006048:	44e1      	add	r9, ip
1000604a:	2200      	movs	r2, #0
1000604c:	4b7d      	ldr	r3, [pc, #500]	; (10006244 <_etoa+0x3e4>)
1000604e:	0030      	movs	r0, r6
10006050:	0039      	movs	r1, r7
10006052:	f001 f89a 	bl	1000718a <__wrap___aeabi_ddiv>
10006056:	0004      	movs	r4, r0
10006058:	000d      	movs	r5, r1
1000605a:	e023      	b.n	100060a4 <_etoa+0x244>
1000605c:	9b1e      	ldr	r3, [sp, #120]	; 0x78
1000605e:	9304      	str	r3, [sp, #16]
10006060:	9b1d      	ldr	r3, [sp, #116]	; 0x74
10006062:	9303      	str	r3, [sp, #12]
10006064:	9b1c      	ldr	r3, [sp, #112]	; 0x70
10006066:	9302      	str	r3, [sp, #8]
10006068:	9a08      	ldr	r2, [sp, #32]
1000606a:	9b09      	ldr	r3, [sp, #36]	; 0x24
1000606c:	9200      	str	r2, [sp, #0]
1000606e:	9301      	str	r3, [sp, #4]
10006070:	4643      	mov	r3, r8
10006072:	9a0c      	ldr	r2, [sp, #48]	; 0x30
10006074:	4651      	mov	r1, sl
10006076:	4658      	mov	r0, fp
10006078:	f000 f8fc 	bl	10006274 <_ftoa>
1000607c:	b011      	add	sp, #68	; 0x44
1000607e:	bcf0      	pop	{r4, r5, r6, r7}
10006080:	46bb      	mov	fp, r7
10006082:	46b2      	mov	sl, r6
10006084:	46a9      	mov	r9, r5
10006086:	46a0      	mov	r8, r4
10006088:	bdf0      	pop	{r4, r5, r6, r7, pc}
1000608a:	2300      	movs	r3, #0
1000608c:	2400      	movs	r4, #0
1000608e:	9306      	str	r3, [sp, #24]
10006090:	9407      	str	r4, [sp, #28]
10006092:	9606      	str	r6, [sp, #24]
10006094:	2380      	movs	r3, #128	; 0x80
10006096:	061b      	lsls	r3, r3, #24
10006098:	469c      	mov	ip, r3
1000609a:	4465      	add	r5, ip
1000609c:	9507      	str	r5, [sp, #28]
1000609e:	e71a      	b.n	10005ed6 <_etoa+0x76>
100060a0:	2300      	movs	r3, #0
100060a2:	4699      	mov	r9, r3
100060a4:	464b      	mov	r3, r9
100060a6:	3363      	adds	r3, #99	; 0x63
100060a8:	2bc6      	cmp	r3, #198	; 0xc6
100060aa:	d81e      	bhi.n	100060ea <_etoa+0x28a>
100060ac:	2604      	movs	r6, #4
100060ae:	9b1e      	ldr	r3, [sp, #120]	; 0x78
100060b0:	051b      	lsls	r3, r3, #20
100060b2:	d526      	bpl.n	10006102 <_etoa+0x2a2>
100060b4:	002b      	movs	r3, r5
100060b6:	4323      	orrs	r3, r4
100060b8:	d00f      	beq.n	100060da <_etoa+0x27a>
100060ba:	4a64      	ldr	r2, [pc, #400]	; (1000624c <_etoa+0x3ec>)
100060bc:	4b64      	ldr	r3, [pc, #400]	; (10006250 <_etoa+0x3f0>)
100060be:	9806      	ldr	r0, [sp, #24]
100060c0:	9907      	ldr	r1, [sp, #28]
100060c2:	f001 f8d1 	bl	10007268 <__wrap___aeabi_dcmpge>
100060c6:	2800      	cmp	r0, #0
100060c8:	d079      	beq.n	100061be <_etoa+0x35e>
100060ca:	2200      	movs	r2, #0
100060cc:	4b61      	ldr	r3, [pc, #388]	; (10006254 <_etoa+0x3f4>)
100060ce:	9806      	ldr	r0, [sp, #24]
100060d0:	9907      	ldr	r1, [sp, #28]
100060d2:	f001 f8bb 	bl	1000724c <__wrap___aeabi_dcmplt>
100060d6:	2800      	cmp	r0, #0
100060d8:	d071      	beq.n	100061be <_etoa+0x35e>
100060da:	9b1c      	ldr	r3, [sp, #112]	; 0x70
100060dc:	454b      	cmp	r3, r9
100060de:	dd06      	ble.n	100060ee <_etoa+0x28e>
100060e0:	464a      	mov	r2, r9
100060e2:	1a9b      	subs	r3, r3, r2
100060e4:	3b01      	subs	r3, #1
100060e6:	931c      	str	r3, [sp, #112]	; 0x70
100060e8:	e003      	b.n	100060f2 <_etoa+0x292>
100060ea:	2605      	movs	r6, #5
100060ec:	e7df      	b.n	100060ae <_etoa+0x24e>
100060ee:	2300      	movs	r3, #0
100060f0:	931c      	str	r3, [sp, #112]	; 0x70
100060f2:	2380      	movs	r3, #128	; 0x80
100060f4:	00db      	lsls	r3, r3, #3
100060f6:	9a1e      	ldr	r2, [sp, #120]	; 0x78
100060f8:	431a      	orrs	r2, r3
100060fa:	921e      	str	r2, [sp, #120]	; 0x78
100060fc:	2600      	movs	r6, #0
100060fe:	2300      	movs	r3, #0
10006100:	4699      	mov	r9, r3
10006102:	9b1d      	ldr	r3, [sp, #116]	; 0x74
10006104:	429e      	cmp	r6, r3
10006106:	d264      	bcs.n	100061d2 <_etoa+0x372>
10006108:	1b9f      	subs	r7, r3, r6
1000610a:	2302      	movs	r3, #2
1000610c:	9a1e      	ldr	r2, [sp, #120]	; 0x78
1000610e:	401a      	ands	r2, r3
10006110:	920a      	str	r2, [sp, #40]	; 0x28
10006112:	9a1e      	ldr	r2, [sp, #120]	; 0x78
10006114:	4213      	tst	r3, r2
10006116:	d002      	beq.n	1000611e <_etoa+0x2be>
10006118:	2e00      	cmp	r6, #0
1000611a:	d000      	beq.n	1000611e <_etoa+0x2be>
1000611c:	2700      	movs	r7, #0
1000611e:	464b      	mov	r3, r9
10006120:	2b00      	cmp	r3, #0
10006122:	d007      	beq.n	10006134 <_etoa+0x2d4>
10006124:	0022      	movs	r2, r4
10006126:	002b      	movs	r3, r5
10006128:	9806      	ldr	r0, [sp, #24]
1000612a:	9907      	ldr	r1, [sp, #28]
1000612c:	f001 f82d 	bl	1000718a <__wrap___aeabi_ddiv>
10006130:	9006      	str	r0, [sp, #24]
10006132:	9107      	str	r1, [sp, #28]
10006134:	2200      	movs	r2, #0
10006136:	2300      	movs	r3, #0
10006138:	9808      	ldr	r0, [sp, #32]
1000613a:	9909      	ldr	r1, [sp, #36]	; 0x24
1000613c:	f001 f886 	bl	1000724c <__wrap___aeabi_dcmplt>
10006140:	2800      	cmp	r0, #0
10006142:	d148      	bne.n	100061d6 <_etoa+0x376>
10006144:	4b44      	ldr	r3, [pc, #272]	; (10006258 <_etoa+0x3f8>)
10006146:	9a1e      	ldr	r2, [sp, #120]	; 0x78
10006148:	4013      	ands	r3, r2
1000614a:	9304      	str	r3, [sp, #16]
1000614c:	9703      	str	r7, [sp, #12]
1000614e:	9b1c      	ldr	r3, [sp, #112]	; 0x70
10006150:	9302      	str	r3, [sp, #8]
10006152:	9b06      	ldr	r3, [sp, #24]
10006154:	9c07      	ldr	r4, [sp, #28]
10006156:	9300      	str	r3, [sp, #0]
10006158:	9401      	str	r4, [sp, #4]
1000615a:	4643      	mov	r3, r8
1000615c:	9a0c      	ldr	r2, [sp, #48]	; 0x30
1000615e:	4651      	mov	r1, sl
10006160:	4658      	mov	r0, fp
10006162:	f000 f887 	bl	10006274 <_ftoa>
10006166:	2e00      	cmp	r6, #0
10006168:	d100      	bne.n	1000616c <_etoa+0x30c>
1000616a:	e787      	b.n	1000607c <_etoa+0x21c>
1000616c:	9b1e      	ldr	r3, [sp, #120]	; 0x78
1000616e:	069b      	lsls	r3, r3, #26
10006170:	d53d      	bpl.n	100061ee <_etoa+0x38e>
10006172:	2545      	movs	r5, #69	; 0x45
10006174:	1c44      	adds	r4, r0, #1
10006176:	4643      	mov	r3, r8
10006178:	0002      	movs	r2, r0
1000617a:	4651      	mov	r1, sl
1000617c:	0028      	movs	r0, r5
1000617e:	47d8      	blx	fp
10006180:	464a      	mov	r2, r9
10006182:	17d3      	asrs	r3, r2, #31
10006184:	18d2      	adds	r2, r2, r3
10006186:	405a      	eors	r2, r3
10006188:	2305      	movs	r3, #5
1000618a:	9305      	str	r3, [sp, #20]
1000618c:	3e01      	subs	r6, #1
1000618e:	9604      	str	r6, [sp, #16]
10006190:	2300      	movs	r3, #0
10006192:	9303      	str	r3, [sp, #12]
10006194:	330a      	adds	r3, #10
10006196:	9302      	str	r3, [sp, #8]
10006198:	464b      	mov	r3, r9
1000619a:	0fdb      	lsrs	r3, r3, #31
1000619c:	9301      	str	r3, [sp, #4]
1000619e:	9200      	str	r2, [sp, #0]
100061a0:	4643      	mov	r3, r8
100061a2:	0022      	movs	r2, r4
100061a4:	4651      	mov	r1, sl
100061a6:	4658      	mov	r0, fp
100061a8:	f7ff fd8a 	bl	10005cc0 <_ntoa_long>
100061ac:	9b0a      	ldr	r3, [sp, #40]	; 0x28
100061ae:	2b00      	cmp	r3, #0
100061b0:	d100      	bne.n	100061b4 <_etoa+0x354>
100061b2:	e763      	b.n	1000607c <_etoa+0x21c>
100061b4:	0002      	movs	r2, r0
100061b6:	465f      	mov	r7, fp
100061b8:	9e0c      	ldr	r6, [sp, #48]	; 0x30
100061ba:	9d1d      	ldr	r5, [sp, #116]	; 0x74
100061bc:	e054      	b.n	10006268 <_etoa+0x408>
100061be:	9b1c      	ldr	r3, [sp, #112]	; 0x70
100061c0:	2b00      	cmp	r3, #0
100061c2:	d09e      	beq.n	10006102 <_etoa+0x2a2>
100061c4:	9b0d      	ldr	r3, [sp, #52]	; 0x34
100061c6:	2b00      	cmp	r3, #0
100061c8:	d09b      	beq.n	10006102 <_etoa+0x2a2>
100061ca:	9b1c      	ldr	r3, [sp, #112]	; 0x70
100061cc:	3b01      	subs	r3, #1
100061ce:	931c      	str	r3, [sp, #112]	; 0x70
100061d0:	e797      	b.n	10006102 <_etoa+0x2a2>
100061d2:	2700      	movs	r7, #0
100061d4:	e799      	b.n	1000610a <_etoa+0x2aa>
100061d6:	9c06      	ldr	r4, [sp, #24]
100061d8:	9d07      	ldr	r5, [sp, #28]
100061da:	0022      	movs	r2, r4
100061dc:	0029      	movs	r1, r5
100061de:	2080      	movs	r0, #128	; 0x80
100061e0:	0600      	lsls	r0, r0, #24
100061e2:	4684      	mov	ip, r0
100061e4:	4461      	add	r1, ip
100061e6:	000b      	movs	r3, r1
100061e8:	9206      	str	r2, [sp, #24]
100061ea:	9307      	str	r3, [sp, #28]
100061ec:	e7aa      	b.n	10006144 <_etoa+0x2e4>
100061ee:	2565      	movs	r5, #101	; 0x65
100061f0:	e7c0      	b.n	10006174 <_etoa+0x314>
100061f2:	46c0      	nop			; (mov r8, r8)
100061f4:	7fefffff 	.word	0x7fefffff
100061f8:	ffefffff 	.word	0xffefffff
100061fc:	fffffc01 	.word	0xfffffc01
10006200:	3ff00000 	.word	0x3ff00000
10006204:	509f79fb 	.word	0x509f79fb
10006208:	3fd34413 	.word	0x3fd34413
1000620c:	8b60c8b3 	.word	0x8b60c8b3
10006210:	3fc68a28 	.word	0x3fc68a28
10006214:	3ff80000 	.word	0x3ff80000
10006218:	636f4361 	.word	0x636f4361
1000621c:	3fd287a7 	.word	0x3fd287a7
10006220:	0979a371 	.word	0x0979a371
10006224:	400a934f 	.word	0x400a934f
10006228:	3fe00000 	.word	0x3fe00000
1000622c:	bbb55516 	.word	0xbbb55516
10006230:	40026bb1 	.word	0x40026bb1
10006234:	fefa39ef 	.word	0xfefa39ef
10006238:	3fe62e42 	.word	0x3fe62e42
1000623c:	000003ff 	.word	0x000003ff
10006240:	402c0000 	.word	0x402c0000
10006244:	40240000 	.word	0x40240000
10006248:	40180000 	.word	0x40180000
1000624c:	eb1c432d 	.word	0xeb1c432d
10006250:	3f1a36e2 	.word	0x3f1a36e2
10006254:	412e8480 	.word	0x412e8480
10006258:	fffff7ff 	.word	0xfffff7ff
1000625c:	1c54      	adds	r4, r2, #1
1000625e:	4643      	mov	r3, r8
10006260:	4651      	mov	r1, sl
10006262:	2020      	movs	r0, #32
10006264:	47b8      	blx	r7
10006266:	0022      	movs	r2, r4
10006268:	1b93      	subs	r3, r2, r6
1000626a:	42ab      	cmp	r3, r5
1000626c:	d3f6      	bcc.n	1000625c <_etoa+0x3fc>
1000626e:	0010      	movs	r0, r2
10006270:	e704      	b.n	1000607c <_etoa+0x21c>
10006272:	46c0      	nop			; (mov r8, r8)

10006274 <_ftoa>:
10006274:	b5f0      	push	{r4, r5, r6, r7, lr}
10006276:	46de      	mov	lr, fp
10006278:	4657      	mov	r7, sl
1000627a:	464e      	mov	r6, r9
1000627c:	4645      	mov	r5, r8
1000627e:	b5e0      	push	{r5, r6, r7, lr}
10006280:	b095      	sub	sp, #84	; 0x54
10006282:	9006      	str	r0, [sp, #24]
10006284:	9107      	str	r1, [sp, #28]
10006286:	4693      	mov	fp, r2
10006288:	4699      	mov	r9, r3
1000628a:	9f20      	ldr	r7, [sp, #128]	; 0x80
1000628c:	9a1e      	ldr	r2, [sp, #120]	; 0x78
1000628e:	9b1f      	ldr	r3, [sp, #124]	; 0x7c
10006290:	0010      	movs	r0, r2
10006292:	0019      	movs	r1, r3
10006294:	f000 fff5 	bl	10007282 <__wrap___aeabi_dcmpun>
10006298:	2800      	cmp	r0, #0
1000629a:	d131      	bne.n	10006300 <_ftoa+0x8c>
1000629c:	2201      	movs	r2, #1
1000629e:	4252      	negs	r2, r2
100062a0:	4bbf      	ldr	r3, [pc, #764]	; (100065a0 <_ftoa+0x32c>)
100062a2:	981e      	ldr	r0, [sp, #120]	; 0x78
100062a4:	991f      	ldr	r1, [sp, #124]	; 0x7c
100062a6:	f000 ffd1 	bl	1000724c <__wrap___aeabi_dcmplt>
100062aa:	2800      	cmp	r0, #0
100062ac:	d137      	bne.n	1000631e <_ftoa+0xaa>
100062ae:	2201      	movs	r2, #1
100062b0:	4252      	negs	r2, r2
100062b2:	4bbc      	ldr	r3, [pc, #752]	; (100065a4 <_ftoa+0x330>)
100062b4:	981e      	ldr	r0, [sp, #120]	; 0x78
100062b6:	991f      	ldr	r1, [sp, #124]	; 0x7c
100062b8:	f000 ffde 	bl	10007278 <__wrap___aeabi_dcmpgt>
100062bc:	2800      	cmp	r0, #0
100062be:	d13d      	bne.n	1000633c <_ftoa+0xc8>
100062c0:	2200      	movs	r2, #0
100062c2:	4bb9      	ldr	r3, [pc, #740]	; (100065a8 <_ftoa+0x334>)
100062c4:	981e      	ldr	r0, [sp, #120]	; 0x78
100062c6:	991f      	ldr	r1, [sp, #124]	; 0x7c
100062c8:	f000 ffd6 	bl	10007278 <__wrap___aeabi_dcmpgt>
100062cc:	2800      	cmp	r0, #0
100062ce:	d150      	bne.n	10006372 <_ftoa+0xfe>
100062d0:	2200      	movs	r2, #0
100062d2:	4bb6      	ldr	r3, [pc, #728]	; (100065ac <_ftoa+0x338>)
100062d4:	981e      	ldr	r0, [sp, #120]	; 0x78
100062d6:	991f      	ldr	r1, [sp, #124]	; 0x7c
100062d8:	f000 ffb8 	bl	1000724c <__wrap___aeabi_dcmplt>
100062dc:	2800      	cmp	r0, #0
100062de:	d148      	bne.n	10006372 <_ftoa+0xfe>
100062e0:	2200      	movs	r2, #0
100062e2:	2300      	movs	r3, #0
100062e4:	981e      	ldr	r0, [sp, #120]	; 0x78
100062e6:	991f      	ldr	r1, [sp, #124]	; 0x7c
100062e8:	f000 ffb0 	bl	1000724c <__wrap___aeabi_dcmplt>
100062ec:	2800      	cmp	r0, #0
100062ee:	d150      	bne.n	10006392 <_ftoa+0x11e>
100062f0:	2300      	movs	r3, #0
100062f2:	4698      	mov	r8, r3
100062f4:	9b22      	ldr	r3, [sp, #136]	; 0x88
100062f6:	055b      	lsls	r3, r3, #21
100062f8:	d400      	bmi.n	100062fc <_ftoa+0x88>
100062fa:	e0b6      	b.n	1000646a <_ftoa+0x1f6>
100062fc:	2400      	movs	r4, #0
100062fe:	e058      	b.n	100063b2 <_ftoa+0x13e>
10006300:	9b22      	ldr	r3, [sp, #136]	; 0x88
10006302:	9303      	str	r3, [sp, #12]
10006304:	9b21      	ldr	r3, [sp, #132]	; 0x84
10006306:	9302      	str	r3, [sp, #8]
10006308:	2303      	movs	r3, #3
1000630a:	9301      	str	r3, [sp, #4]
1000630c:	4ba8      	ldr	r3, [pc, #672]	; (100065b0 <_ftoa+0x33c>)
1000630e:	9300      	str	r3, [sp, #0]
10006310:	464b      	mov	r3, r9
10006312:	465a      	mov	r2, fp
10006314:	9907      	ldr	r1, [sp, #28]
10006316:	9806      	ldr	r0, [sp, #24]
10006318:	f7ff fbf2 	bl	10005b00 <_out_rev>
1000631c:	e10e      	b.n	1000653c <_ftoa+0x2c8>
1000631e:	9b22      	ldr	r3, [sp, #136]	; 0x88
10006320:	9303      	str	r3, [sp, #12]
10006322:	9b21      	ldr	r3, [sp, #132]	; 0x84
10006324:	9302      	str	r3, [sp, #8]
10006326:	2304      	movs	r3, #4
10006328:	9301      	str	r3, [sp, #4]
1000632a:	4ba2      	ldr	r3, [pc, #648]	; (100065b4 <_ftoa+0x340>)
1000632c:	9300      	str	r3, [sp, #0]
1000632e:	464b      	mov	r3, r9
10006330:	465a      	mov	r2, fp
10006332:	9907      	ldr	r1, [sp, #28]
10006334:	9806      	ldr	r0, [sp, #24]
10006336:	f7ff fbe3 	bl	10005b00 <_out_rev>
1000633a:	e0ff      	b.n	1000653c <_ftoa+0x2c8>
1000633c:	2304      	movs	r3, #4
1000633e:	9a22      	ldr	r2, [sp, #136]	; 0x88
10006340:	401a      	ands	r2, r3
10006342:	9922      	ldr	r1, [sp, #136]	; 0x88
10006344:	420b      	tst	r3, r1
10006346:	d010      	beq.n	1000636a <_ftoa+0xf6>
10006348:	4b9b      	ldr	r3, [pc, #620]	; (100065b8 <_ftoa+0x344>)
1000634a:	2a00      	cmp	r2, #0
1000634c:	d00f      	beq.n	1000636e <_ftoa+0xfa>
1000634e:	2204      	movs	r2, #4
10006350:	9922      	ldr	r1, [sp, #136]	; 0x88
10006352:	9103      	str	r1, [sp, #12]
10006354:	9921      	ldr	r1, [sp, #132]	; 0x84
10006356:	9102      	str	r1, [sp, #8]
10006358:	9201      	str	r2, [sp, #4]
1000635a:	9300      	str	r3, [sp, #0]
1000635c:	464b      	mov	r3, r9
1000635e:	465a      	mov	r2, fp
10006360:	9907      	ldr	r1, [sp, #28]
10006362:	9806      	ldr	r0, [sp, #24]
10006364:	f7ff fbcc 	bl	10005b00 <_out_rev>
10006368:	e0e8      	b.n	1000653c <_ftoa+0x2c8>
1000636a:	4b94      	ldr	r3, [pc, #592]	; (100065bc <_ftoa+0x348>)
1000636c:	e7ed      	b.n	1000634a <_ftoa+0xd6>
1000636e:	2203      	movs	r2, #3
10006370:	e7ee      	b.n	10006350 <_ftoa+0xdc>
10006372:	9b22      	ldr	r3, [sp, #136]	; 0x88
10006374:	9304      	str	r3, [sp, #16]
10006376:	9b21      	ldr	r3, [sp, #132]	; 0x84
10006378:	9303      	str	r3, [sp, #12]
1000637a:	9702      	str	r7, [sp, #8]
1000637c:	9b1e      	ldr	r3, [sp, #120]	; 0x78
1000637e:	9c1f      	ldr	r4, [sp, #124]	; 0x7c
10006380:	9300      	str	r3, [sp, #0]
10006382:	9401      	str	r4, [sp, #4]
10006384:	464b      	mov	r3, r9
10006386:	465a      	mov	r2, fp
10006388:	9907      	ldr	r1, [sp, #28]
1000638a:	9806      	ldr	r0, [sp, #24]
1000638c:	f7ff fd68 	bl	10005e60 <_etoa>
10006390:	e0d4      	b.n	1000653c <_ftoa+0x2c8>
10006392:	9a1e      	ldr	r2, [sp, #120]	; 0x78
10006394:	9b1f      	ldr	r3, [sp, #124]	; 0x7c
10006396:	2000      	movs	r0, #0
10006398:	2100      	movs	r1, #0
1000639a:	f000 fee4 	bl	10007166 <__wrap___aeabi_dsub>
1000639e:	901e      	str	r0, [sp, #120]	; 0x78
100063a0:	911f      	str	r1, [sp, #124]	; 0x7c
100063a2:	2301      	movs	r3, #1
100063a4:	4698      	mov	r8, r3
100063a6:	e7a5      	b.n	100062f4 <_ftoa+0x80>
100063a8:	ab0c      	add	r3, sp, #48	; 0x30
100063aa:	2230      	movs	r2, #48	; 0x30
100063ac:	551a      	strb	r2, [r3, r4]
100063ae:	3f01      	subs	r7, #1
100063b0:	3401      	adds	r4, #1
100063b2:	2c1f      	cmp	r4, #31
100063b4:	d801      	bhi.n	100063ba <_ftoa+0x146>
100063b6:	2f09      	cmp	r7, #9
100063b8:	d8f6      	bhi.n	100063a8 <_ftoa+0x134>
100063ba:	981e      	ldr	r0, [sp, #120]	; 0x78
100063bc:	991f      	ldr	r1, [sp, #124]	; 0x7c
100063be:	f000 ff8b 	bl	100072d8 <__wrap___aeabi_d2iz>
100063c2:	0005      	movs	r5, r0
100063c4:	f000 ff70 	bl	100072a8 <__wrap___aeabi_i2d>
100063c8:	0002      	movs	r2, r0
100063ca:	000b      	movs	r3, r1
100063cc:	981e      	ldr	r0, [sp, #120]	; 0x78
100063ce:	991f      	ldr	r1, [sp, #124]	; 0x7c
100063d0:	f000 fec9 	bl	10007166 <__wrap___aeabi_dsub>
100063d4:	4b7a      	ldr	r3, [pc, #488]	; (100065c0 <_ftoa+0x34c>)
100063d6:	00fa      	lsls	r2, r7, #3
100063d8:	189b      	adds	r3, r3, r2
100063da:	681a      	ldr	r2, [r3, #0]
100063dc:	685b      	ldr	r3, [r3, #4]
100063de:	920a      	str	r2, [sp, #40]	; 0x28
100063e0:	930b      	str	r3, [sp, #44]	; 0x2c
100063e2:	f000 fef0 	bl	100071c6 <__wrap___aeabi_dmul>
100063e6:	9008      	str	r0, [sp, #32]
100063e8:	9109      	str	r1, [sp, #36]	; 0x24
100063ea:	f000 ff99 	bl	10007320 <__wrap___aeabi_d2uiz>
100063ee:	0006      	movs	r6, r0
100063f0:	f000 ff56 	bl	100072a0 <__wrap___aeabi_ui2d>
100063f4:	0002      	movs	r2, r0
100063f6:	000b      	movs	r3, r1
100063f8:	9808      	ldr	r0, [sp, #32]
100063fa:	9909      	ldr	r1, [sp, #36]	; 0x24
100063fc:	f000 feb3 	bl	10007166 <__wrap___aeabi_dsub>
10006400:	9008      	str	r0, [sp, #32]
10006402:	9109      	str	r1, [sp, #36]	; 0x24
10006404:	2200      	movs	r2, #0
10006406:	4b6f      	ldr	r3, [pc, #444]	; (100065c4 <_ftoa+0x350>)
10006408:	f000 ff36 	bl	10007278 <__wrap___aeabi_dcmpgt>
1000640c:	2800      	cmp	r0, #0
1000640e:	d02e      	beq.n	1000646e <_ftoa+0x1fa>
10006410:	3601      	adds	r6, #1
10006412:	0030      	movs	r0, r6
10006414:	f000 ff44 	bl	100072a0 <__wrap___aeabi_ui2d>
10006418:	0002      	movs	r2, r0
1000641a:	000b      	movs	r3, r1
1000641c:	980a      	ldr	r0, [sp, #40]	; 0x28
1000641e:	990b      	ldr	r1, [sp, #44]	; 0x2c
10006420:	f000 ff1a 	bl	10007258 <__wrap___aeabi_dcmple>
10006424:	2800      	cmp	r0, #0
10006426:	d001      	beq.n	1000642c <_ftoa+0x1b8>
10006428:	3501      	adds	r5, #1
1000642a:	2600      	movs	r6, #0
1000642c:	2f00      	cmp	r7, #0
1000642e:	d12c      	bne.n	1000648a <_ftoa+0x216>
10006430:	0028      	movs	r0, r5
10006432:	f000 ff39 	bl	100072a8 <__wrap___aeabi_i2d>
10006436:	0002      	movs	r2, r0
10006438:	000b      	movs	r3, r1
1000643a:	981e      	ldr	r0, [sp, #120]	; 0x78
1000643c:	991f      	ldr	r1, [sp, #124]	; 0x7c
1000643e:	f000 fe92 	bl	10007166 <__wrap___aeabi_dsub>
10006442:	0006      	movs	r6, r0
10006444:	000f      	movs	r7, r1
10006446:	2200      	movs	r2, #0
10006448:	4b5e      	ldr	r3, [pc, #376]	; (100065c4 <_ftoa+0x350>)
1000644a:	f000 feff 	bl	1000724c <__wrap___aeabi_dcmplt>
1000644e:	2800      	cmp	r0, #0
10006450:	d146      	bne.n	100064e0 <_ftoa+0x26c>
10006452:	2200      	movs	r2, #0
10006454:	4b5b      	ldr	r3, [pc, #364]	; (100065c4 <_ftoa+0x350>)
10006456:	0030      	movs	r0, r6
10006458:	0039      	movs	r1, r7
1000645a:	f000 ff0d 	bl	10007278 <__wrap___aeabi_dcmpgt>
1000645e:	2800      	cmp	r0, #0
10006460:	d13e      	bne.n	100064e0 <_ftoa+0x26c>
10006462:	07eb      	lsls	r3, r5, #31
10006464:	d53c      	bpl.n	100064e0 <_ftoa+0x26c>
10006466:	3501      	adds	r5, #1
10006468:	e03a      	b.n	100064e0 <_ftoa+0x26c>
1000646a:	2706      	movs	r7, #6
1000646c:	e746      	b.n	100062fc <_ftoa+0x88>
1000646e:	2200      	movs	r2, #0
10006470:	4b54      	ldr	r3, [pc, #336]	; (100065c4 <_ftoa+0x350>)
10006472:	9808      	ldr	r0, [sp, #32]
10006474:	9909      	ldr	r1, [sp, #36]	; 0x24
10006476:	f000 fee9 	bl	1000724c <__wrap___aeabi_dcmplt>
1000647a:	2800      	cmp	r0, #0
1000647c:	d1d6      	bne.n	1000642c <_ftoa+0x1b8>
1000647e:	2e00      	cmp	r6, #0
10006480:	d001      	beq.n	10006486 <_ftoa+0x212>
10006482:	07f3      	lsls	r3, r6, #31
10006484:	d5d2      	bpl.n	1000642c <_ftoa+0x1b8>
10006486:	3601      	adds	r6, #1
10006488:	e7d0      	b.n	1000642c <_ftoa+0x1b8>
1000648a:	46aa      	mov	sl, r5
1000648c:	2c1f      	cmp	r4, #31
1000648e:	d811      	bhi.n	100064b4 <_ftoa+0x240>
10006490:	3f01      	subs	r7, #1
10006492:	210a      	movs	r1, #10
10006494:	0030      	movs	r0, r6
10006496:	f000 fc2b 	bl	10006cf0 <__wrap___aeabi_uidiv>
1000649a:	1c65      	adds	r5, r4, #1
1000649c:	3130      	adds	r1, #48	; 0x30
1000649e:	ab0c      	add	r3, sp, #48	; 0x30
100064a0:	5519      	strb	r1, [r3, r4]
100064a2:	210a      	movs	r1, #10
100064a4:	0030      	movs	r0, r6
100064a6:	f000 fc23 	bl	10006cf0 <__wrap___aeabi_uidiv>
100064aa:	2e09      	cmp	r6, #9
100064ac:	d90e      	bls.n	100064cc <_ftoa+0x258>
100064ae:	0006      	movs	r6, r0
100064b0:	002c      	movs	r4, r5
100064b2:	e7eb      	b.n	1000648c <_ftoa+0x218>
100064b4:	4655      	mov	r5, sl
100064b6:	2c1f      	cmp	r4, #31
100064b8:	d80c      	bhi.n	100064d4 <_ftoa+0x260>
100064ba:	1e7b      	subs	r3, r7, #1
100064bc:	2f00      	cmp	r7, #0
100064be:	d009      	beq.n	100064d4 <_ftoa+0x260>
100064c0:	aa0c      	add	r2, sp, #48	; 0x30
100064c2:	2130      	movs	r1, #48	; 0x30
100064c4:	5511      	strb	r1, [r2, r4]
100064c6:	001f      	movs	r7, r3
100064c8:	3401      	adds	r4, #1
100064ca:	e7f4      	b.n	100064b6 <_ftoa+0x242>
100064cc:	002b      	movs	r3, r5
100064ce:	4655      	mov	r5, sl
100064d0:	001c      	movs	r4, r3
100064d2:	e7f0      	b.n	100064b6 <_ftoa+0x242>
100064d4:	2c1f      	cmp	r4, #31
100064d6:	d803      	bhi.n	100064e0 <_ftoa+0x26c>
100064d8:	ab0c      	add	r3, sp, #48	; 0x30
100064da:	222e      	movs	r2, #46	; 0x2e
100064dc:	551a      	strb	r2, [r3, r4]
100064de:	3401      	adds	r4, #1
100064e0:	2c1f      	cmp	r4, #31
100064e2:	d810      	bhi.n	10006506 <_ftoa+0x292>
100064e4:	210a      	movs	r1, #10
100064e6:	0028      	movs	r0, r5
100064e8:	f000 fbda 	bl	10006ca0 <__wrap___aeabi_idiv>
100064ec:	1c66      	adds	r6, r4, #1
100064ee:	3130      	adds	r1, #48	; 0x30
100064f0:	ab0c      	add	r3, sp, #48	; 0x30
100064f2:	5519      	strb	r1, [r3, r4]
100064f4:	210a      	movs	r1, #10
100064f6:	0028      	movs	r0, r5
100064f8:	f000 fbd2 	bl	10006ca0 <__wrap___aeabi_idiv>
100064fc:	1e05      	subs	r5, r0, #0
100064fe:	d001      	beq.n	10006504 <_ftoa+0x290>
10006500:	0034      	movs	r4, r6
10006502:	e7ed      	b.n	100064e0 <_ftoa+0x26c>
10006504:	0034      	movs	r4, r6
10006506:	2303      	movs	r3, #3
10006508:	9a22      	ldr	r2, [sp, #136]	; 0x88
1000650a:	4013      	ands	r3, r2
1000650c:	2b01      	cmp	r3, #1
1000650e:	d01c      	beq.n	1000654a <_ftoa+0x2d6>
10006510:	2c1f      	cmp	r4, #31
10006512:	d806      	bhi.n	10006522 <_ftoa+0x2ae>
10006514:	4643      	mov	r3, r8
10006516:	2b00      	cmp	r3, #0
10006518:	d032      	beq.n	10006580 <_ftoa+0x30c>
1000651a:	ab0c      	add	r3, sp, #48	; 0x30
1000651c:	222d      	movs	r2, #45	; 0x2d
1000651e:	551a      	strb	r2, [r3, r4]
10006520:	3401      	adds	r4, #1
10006522:	9b22      	ldr	r3, [sp, #136]	; 0x88
10006524:	9303      	str	r3, [sp, #12]
10006526:	9b21      	ldr	r3, [sp, #132]	; 0x84
10006528:	9302      	str	r3, [sp, #8]
1000652a:	9401      	str	r4, [sp, #4]
1000652c:	ab0c      	add	r3, sp, #48	; 0x30
1000652e:	9300      	str	r3, [sp, #0]
10006530:	464b      	mov	r3, r9
10006532:	465a      	mov	r2, fp
10006534:	9907      	ldr	r1, [sp, #28]
10006536:	9806      	ldr	r0, [sp, #24]
10006538:	f7ff fae2 	bl	10005b00 <_out_rev>
1000653c:	b015      	add	sp, #84	; 0x54
1000653e:	bcf0      	pop	{r4, r5, r6, r7}
10006540:	46bb      	mov	fp, r7
10006542:	46b2      	mov	sl, r6
10006544:	46a9      	mov	r9, r5
10006546:	46a0      	mov	r8, r4
10006548:	bdf0      	pop	{r4, r5, r6, r7, pc}
1000654a:	9b21      	ldr	r3, [sp, #132]	; 0x84
1000654c:	2b00      	cmp	r3, #0
1000654e:	d013      	beq.n	10006578 <_ftoa+0x304>
10006550:	4643      	mov	r3, r8
10006552:	2b00      	cmp	r3, #0
10006554:	d102      	bne.n	1000655c <_ftoa+0x2e8>
10006556:	330c      	adds	r3, #12
10006558:	4213      	tst	r3, r2
1000655a:	d00f      	beq.n	1000657c <_ftoa+0x308>
1000655c:	9b21      	ldr	r3, [sp, #132]	; 0x84
1000655e:	3b01      	subs	r3, #1
10006560:	9321      	str	r3, [sp, #132]	; 0x84
10006562:	0019      	movs	r1, r3
10006564:	e003      	b.n	1000656e <_ftoa+0x2fa>
10006566:	ab0c      	add	r3, sp, #48	; 0x30
10006568:	2230      	movs	r2, #48	; 0x30
1000656a:	551a      	strb	r2, [r3, r4]
1000656c:	3401      	adds	r4, #1
1000656e:	428c      	cmp	r4, r1
10006570:	d2ce      	bcs.n	10006510 <_ftoa+0x29c>
10006572:	2c1f      	cmp	r4, #31
10006574:	d9f7      	bls.n	10006566 <_ftoa+0x2f2>
10006576:	e7cb      	b.n	10006510 <_ftoa+0x29c>
10006578:	9921      	ldr	r1, [sp, #132]	; 0x84
1000657a:	e7f8      	b.n	1000656e <_ftoa+0x2fa>
1000657c:	9921      	ldr	r1, [sp, #132]	; 0x84
1000657e:	e7f6      	b.n	1000656e <_ftoa+0x2fa>
10006580:	9b22      	ldr	r3, [sp, #136]	; 0x88
10006582:	075b      	lsls	r3, r3, #29
10006584:	d504      	bpl.n	10006590 <_ftoa+0x31c>
10006586:	ab0c      	add	r3, sp, #48	; 0x30
10006588:	222b      	movs	r2, #43	; 0x2b
1000658a:	551a      	strb	r2, [r3, r4]
1000658c:	3401      	adds	r4, #1
1000658e:	e7c8      	b.n	10006522 <_ftoa+0x2ae>
10006590:	9b22      	ldr	r3, [sp, #136]	; 0x88
10006592:	071b      	lsls	r3, r3, #28
10006594:	d5c5      	bpl.n	10006522 <_ftoa+0x2ae>
10006596:	ab0c      	add	r3, sp, #48	; 0x30
10006598:	2220      	movs	r2, #32
1000659a:	551a      	strb	r2, [r3, r4]
1000659c:	3401      	adds	r4, #1
1000659e:	e7c0      	b.n	10006522 <_ftoa+0x2ae>
100065a0:	ffefffff 	.word	0xffefffff
100065a4:	7fefffff 	.word	0x7fefffff
100065a8:	41cdcd65 	.word	0x41cdcd65
100065ac:	c1cdcd65 	.word	0xc1cdcd65
100065b0:	1000b9e4 	.word	0x1000b9e4
100065b4:	1000b9e8 	.word	0x1000b9e8
100065b8:	1000b9d8 	.word	0x1000b9d8
100065bc:	1000b9e0 	.word	0x1000b9e0
100065c0:	1000bb90 	.word	0x1000bb90
100065c4:	3fe00000 	.word	0x3fe00000

100065c8 <_vsnprintf>:
100065c8:	b5f0      	push	{r4, r5, r6, r7, lr}
100065ca:	46de      	mov	lr, fp
100065cc:	4657      	mov	r7, sl
100065ce:	464e      	mov	r6, r9
100065d0:	4645      	mov	r5, r8
100065d2:	b5e0      	push	{r5, r6, r7, lr}
100065d4:	b093      	sub	sp, #76	; 0x4c
100065d6:	4682      	mov	sl, r0
100065d8:	468b      	mov	fp, r1
100065da:	4690      	mov	r8, r2
100065dc:	9311      	str	r3, [sp, #68]	; 0x44
100065de:	2900      	cmp	r1, #0
100065e0:	d100      	bne.n	100065e4 <_vsnprintf+0x1c>
100065e2:	e300      	b.n	10006be6 <_vsnprintf+0x61e>
100065e4:	2700      	movs	r7, #0
100065e6:	4654      	mov	r4, sl
100065e8:	9b11      	ldr	r3, [sp, #68]	; 0x44
100065ea:	7818      	ldrb	r0, [r3, #0]
100065ec:	2800      	cmp	r0, #0
100065ee:	d100      	bne.n	100065f2 <_vsnprintf+0x2a>
100065f0:	e2fc      	b.n	10006bec <_vsnprintf+0x624>
100065f2:	2825      	cmp	r0, #37	; 0x25
100065f4:	d009      	beq.n	1000660a <_vsnprintf+0x42>
100065f6:	1c7d      	adds	r5, r7, #1
100065f8:	4643      	mov	r3, r8
100065fa:	003a      	movs	r2, r7
100065fc:	4659      	mov	r1, fp
100065fe:	47a0      	blx	r4
10006600:	9b11      	ldr	r3, [sp, #68]	; 0x44
10006602:	3301      	adds	r3, #1
10006604:	9311      	str	r3, [sp, #68]	; 0x44
10006606:	002f      	movs	r7, r5
10006608:	e7ee      	b.n	100065e8 <_vsnprintf+0x20>
1000660a:	3301      	adds	r3, #1
1000660c:	9311      	str	r3, [sp, #68]	; 0x44
1000660e:	2500      	movs	r5, #0
10006610:	9a11      	ldr	r2, [sp, #68]	; 0x44
10006612:	7811      	ldrb	r1, [r2, #0]
10006614:	000b      	movs	r3, r1
10006616:	3b20      	subs	r3, #32
10006618:	b2d8      	uxtb	r0, r3
1000661a:	2810      	cmp	r0, #16
1000661c:	d803      	bhi.n	10006626 <_vsnprintf+0x5e>
1000661e:	0083      	lsls	r3, r0, #2
10006620:	48c2      	ldr	r0, [pc, #776]	; (1000692c <_vsnprintf+0x364>)
10006622:	58c3      	ldr	r3, [r0, r3]
10006624:	469f      	mov	pc, r3
10006626:	000b      	movs	r3, r1
10006628:	3b30      	subs	r3, #48	; 0x30
1000662a:	b2db      	uxtb	r3, r3
1000662c:	2b09      	cmp	r3, #9
1000662e:	d92c      	bls.n	1000668a <_vsnprintf+0xc2>
10006630:	292a      	cmp	r1, #42	; 0x2a
10006632:	d02f      	beq.n	10006694 <_vsnprintf+0xcc>
10006634:	2300      	movs	r3, #0
10006636:	930a      	str	r3, [sp, #40]	; 0x28
10006638:	9b11      	ldr	r3, [sp, #68]	; 0x44
1000663a:	781a      	ldrb	r2, [r3, #0]
1000663c:	2a2e      	cmp	r2, #46	; 0x2e
1000663e:	d039      	beq.n	100066b4 <_vsnprintf+0xec>
10006640:	2300      	movs	r3, #0
10006642:	4699      	mov	r9, r3
10006644:	9a11      	ldr	r2, [sp, #68]	; 0x44
10006646:	7813      	ldrb	r3, [r2, #0]
10006648:	3b68      	subs	r3, #104	; 0x68
1000664a:	b2d9      	uxtb	r1, r3
1000664c:	2912      	cmp	r1, #18
1000664e:	d876      	bhi.n	1000673e <_vsnprintf+0x176>
10006650:	008b      	lsls	r3, r1, #2
10006652:	49b7      	ldr	r1, [pc, #732]	; (10006930 <_vsnprintf+0x368>)
10006654:	58cb      	ldr	r3, [r1, r3]
10006656:	469f      	mov	pc, r3
10006658:	2301      	movs	r3, #1
1000665a:	431d      	orrs	r5, r3
1000665c:	3201      	adds	r2, #1
1000665e:	9211      	str	r2, [sp, #68]	; 0x44
10006660:	e7d6      	b.n	10006610 <_vsnprintf+0x48>
10006662:	2302      	movs	r3, #2
10006664:	431d      	orrs	r5, r3
10006666:	3201      	adds	r2, #1
10006668:	9211      	str	r2, [sp, #68]	; 0x44
1000666a:	e7d1      	b.n	10006610 <_vsnprintf+0x48>
1000666c:	2304      	movs	r3, #4
1000666e:	431d      	orrs	r5, r3
10006670:	3201      	adds	r2, #1
10006672:	9211      	str	r2, [sp, #68]	; 0x44
10006674:	e7cc      	b.n	10006610 <_vsnprintf+0x48>
10006676:	2308      	movs	r3, #8
10006678:	431d      	orrs	r5, r3
1000667a:	3201      	adds	r2, #1
1000667c:	9211      	str	r2, [sp, #68]	; 0x44
1000667e:	e7c7      	b.n	10006610 <_vsnprintf+0x48>
10006680:	2310      	movs	r3, #16
10006682:	431d      	orrs	r5, r3
10006684:	3201      	adds	r2, #1
10006686:	9211      	str	r2, [sp, #68]	; 0x44
10006688:	e7c2      	b.n	10006610 <_vsnprintf+0x48>
1000668a:	a811      	add	r0, sp, #68	; 0x44
1000668c:	f7ff fa26 	bl	10005adc <_atoi>
10006690:	900a      	str	r0, [sp, #40]	; 0x28
10006692:	e7d1      	b.n	10006638 <_vsnprintf+0x70>
10006694:	9b1c      	ldr	r3, [sp, #112]	; 0x70
10006696:	1d1a      	adds	r2, r3, #4
10006698:	921c      	str	r2, [sp, #112]	; 0x70
1000669a:	681b      	ldr	r3, [r3, #0]
1000669c:	2b00      	cmp	r3, #0
1000669e:	db04      	blt.n	100066aa <_vsnprintf+0xe2>
100066a0:	930a      	str	r3, [sp, #40]	; 0x28
100066a2:	9b11      	ldr	r3, [sp, #68]	; 0x44
100066a4:	3301      	adds	r3, #1
100066a6:	9311      	str	r3, [sp, #68]	; 0x44
100066a8:	e7c6      	b.n	10006638 <_vsnprintf+0x70>
100066aa:	2202      	movs	r2, #2
100066ac:	4315      	orrs	r5, r2
100066ae:	425b      	negs	r3, r3
100066b0:	930a      	str	r3, [sp, #40]	; 0x28
100066b2:	e7f6      	b.n	100066a2 <_vsnprintf+0xda>
100066b4:	2280      	movs	r2, #128	; 0x80
100066b6:	00d2      	lsls	r2, r2, #3
100066b8:	4315      	orrs	r5, r2
100066ba:	1c5a      	adds	r2, r3, #1
100066bc:	9211      	str	r2, [sp, #68]	; 0x44
100066be:	785a      	ldrb	r2, [r3, #1]
100066c0:	0013      	movs	r3, r2
100066c2:	3b30      	subs	r3, #48	; 0x30
100066c4:	b2db      	uxtb	r3, r3
100066c6:	2b09      	cmp	r3, #9
100066c8:	d904      	bls.n	100066d4 <_vsnprintf+0x10c>
100066ca:	2a2a      	cmp	r2, #42	; 0x2a
100066cc:	d007      	beq.n	100066de <_vsnprintf+0x116>
100066ce:	2300      	movs	r3, #0
100066d0:	4699      	mov	r9, r3
100066d2:	e7b7      	b.n	10006644 <_vsnprintf+0x7c>
100066d4:	a811      	add	r0, sp, #68	; 0x44
100066d6:	f7ff fa01 	bl	10005adc <_atoi>
100066da:	4681      	mov	r9, r0
100066dc:	e7b2      	b.n	10006644 <_vsnprintf+0x7c>
100066de:	9b1c      	ldr	r3, [sp, #112]	; 0x70
100066e0:	1d1a      	adds	r2, r3, #4
100066e2:	921c      	str	r2, [sp, #112]	; 0x70
100066e4:	681b      	ldr	r3, [r3, #0]
100066e6:	2b00      	cmp	r3, #0
100066e8:	db04      	blt.n	100066f4 <_vsnprintf+0x12c>
100066ea:	4699      	mov	r9, r3
100066ec:	9b11      	ldr	r3, [sp, #68]	; 0x44
100066ee:	3301      	adds	r3, #1
100066f0:	9311      	str	r3, [sp, #68]	; 0x44
100066f2:	e7a7      	b.n	10006644 <_vsnprintf+0x7c>
100066f4:	2300      	movs	r3, #0
100066f6:	e7f8      	b.n	100066ea <_vsnprintf+0x122>
100066f8:	2380      	movs	r3, #128	; 0x80
100066fa:	005b      	lsls	r3, r3, #1
100066fc:	432b      	orrs	r3, r5
100066fe:	1c51      	adds	r1, r2, #1
10006700:	9111      	str	r1, [sp, #68]	; 0x44
10006702:	7852      	ldrb	r2, [r2, #1]
10006704:	2a6c      	cmp	r2, #108	; 0x6c
10006706:	d001      	beq.n	1000670c <_vsnprintf+0x144>
10006708:	001d      	movs	r5, r3
1000670a:	e018      	b.n	1000673e <_vsnprintf+0x176>
1000670c:	23c0      	movs	r3, #192	; 0xc0
1000670e:	009b      	lsls	r3, r3, #2
10006710:	431d      	orrs	r5, r3
10006712:	3101      	adds	r1, #1
10006714:	9111      	str	r1, [sp, #68]	; 0x44
10006716:	e012      	b.n	1000673e <_vsnprintf+0x176>
10006718:	2380      	movs	r3, #128	; 0x80
1000671a:	432b      	orrs	r3, r5
1000671c:	1c51      	adds	r1, r2, #1
1000671e:	9111      	str	r1, [sp, #68]	; 0x44
10006720:	7852      	ldrb	r2, [r2, #1]
10006722:	2a68      	cmp	r2, #104	; 0x68
10006724:	d001      	beq.n	1000672a <_vsnprintf+0x162>
10006726:	001d      	movs	r5, r3
10006728:	e009      	b.n	1000673e <_vsnprintf+0x176>
1000672a:	23c0      	movs	r3, #192	; 0xc0
1000672c:	431d      	orrs	r5, r3
1000672e:	3101      	adds	r1, #1
10006730:	9111      	str	r1, [sp, #68]	; 0x44
10006732:	e004      	b.n	1000673e <_vsnprintf+0x176>
10006734:	2380      	movs	r3, #128	; 0x80
10006736:	005b      	lsls	r3, r3, #1
10006738:	431d      	orrs	r5, r3
1000673a:	3201      	adds	r2, #1
1000673c:	9211      	str	r2, [sp, #68]	; 0x44
1000673e:	9b11      	ldr	r3, [sp, #68]	; 0x44
10006740:	7818      	ldrb	r0, [r3, #0]
10006742:	2867      	cmp	r0, #103	; 0x67
10006744:	d816      	bhi.n	10006774 <_vsnprintf+0x1ac>
10006746:	2825      	cmp	r0, #37	; 0x25
10006748:	d326      	bcc.n	10006798 <_vsnprintf+0x1d0>
1000674a:	0003      	movs	r3, r0
1000674c:	3b25      	subs	r3, #37	; 0x25
1000674e:	b2da      	uxtb	r2, r3
10006750:	2a42      	cmp	r2, #66	; 0x42
10006752:	d821      	bhi.n	10006798 <_vsnprintf+0x1d0>
10006754:	0093      	lsls	r3, r2, #2
10006756:	4a77      	ldr	r2, [pc, #476]	; (10006934 <_vsnprintf+0x36c>)
10006758:	58d3      	ldr	r3, [r2, r3]
1000675a:	469f      	mov	pc, r3
1000675c:	2380      	movs	r3, #128	; 0x80
1000675e:	009b      	lsls	r3, r3, #2
10006760:	431d      	orrs	r5, r3
10006762:	3201      	adds	r2, #1
10006764:	9211      	str	r2, [sp, #68]	; 0x44
10006766:	e7ea      	b.n	1000673e <_vsnprintf+0x176>
10006768:	2380      	movs	r3, #128	; 0x80
1000676a:	005b      	lsls	r3, r3, #1
1000676c:	431d      	orrs	r5, r3
1000676e:	3201      	adds	r2, #1
10006770:	9211      	str	r2, [sp, #68]	; 0x44
10006772:	e7e4      	b.n	1000673e <_vsnprintf+0x176>
10006774:	2878      	cmp	r0, #120	; 0x78
10006776:	d80f      	bhi.n	10006798 <_vsnprintf+0x1d0>
10006778:	2869      	cmp	r0, #105	; 0x69
1000677a:	d30d      	bcc.n	10006798 <_vsnprintf+0x1d0>
1000677c:	0002      	movs	r2, r0
1000677e:	3a69      	subs	r2, #105	; 0x69
10006780:	b2d2      	uxtb	r2, r2
10006782:	2301      	movs	r3, #1
10006784:	4093      	lsls	r3, r2
10006786:	4a6c      	ldr	r2, [pc, #432]	; (10006938 <_vsnprintf+0x370>)
10006788:	4213      	tst	r3, r2
1000678a:	d10f      	bne.n	100067ac <_vsnprintf+0x1e4>
1000678c:	061a      	lsls	r2, r3, #24
1000678e:	d500      	bpl.n	10006792 <_vsnprintf+0x1ca>
10006790:	e203      	b.n	10006b9a <_vsnprintf+0x5d2>
10006792:	055b      	lsls	r3, r3, #21
10006794:	d500      	bpl.n	10006798 <_vsnprintf+0x1d0>
10006796:	e194      	b.n	10006ac2 <_vsnprintf+0x4fa>
10006798:	1c7d      	adds	r5, r7, #1
1000679a:	4643      	mov	r3, r8
1000679c:	003a      	movs	r2, r7
1000679e:	4659      	mov	r1, fp
100067a0:	47a0      	blx	r4
100067a2:	9b11      	ldr	r3, [sp, #68]	; 0x44
100067a4:	3301      	adds	r3, #1
100067a6:	9311      	str	r3, [sp, #68]	; 0x44
100067a8:	002f      	movs	r7, r5
100067aa:	e71d      	b.n	100065e8 <_vsnprintf+0x20>
100067ac:	2878      	cmp	r0, #120	; 0x78
100067ae:	d009      	beq.n	100067c4 <_vsnprintf+0x1fc>
100067b0:	2862      	cmp	r0, #98	; 0x62
100067b2:	d038      	beq.n	10006826 <_vsnprintf+0x25e>
100067b4:	286f      	cmp	r0, #111	; 0x6f
100067b6:	d038      	beq.n	1000682a <_vsnprintf+0x262>
100067b8:	2858      	cmp	r0, #88	; 0x58
100067ba:	d038      	beq.n	1000682e <_vsnprintf+0x266>
100067bc:	2310      	movs	r3, #16
100067be:	439d      	bics	r5, r3
100067c0:	260a      	movs	r6, #10
100067c2:	e000      	b.n	100067c6 <_vsnprintf+0x1fe>
100067c4:	2610      	movs	r6, #16
100067c6:	2858      	cmp	r0, #88	; 0x58
100067c8:	d033      	beq.n	10006832 <_vsnprintf+0x26a>
100067ca:	2869      	cmp	r0, #105	; 0x69
100067cc:	d003      	beq.n	100067d6 <_vsnprintf+0x20e>
100067ce:	2864      	cmp	r0, #100	; 0x64
100067d0:	d001      	beq.n	100067d6 <_vsnprintf+0x20e>
100067d2:	220c      	movs	r2, #12
100067d4:	4395      	bics	r5, r2
100067d6:	056a      	lsls	r2, r5, #21
100067d8:	d501      	bpl.n	100067de <_vsnprintf+0x216>
100067da:	2201      	movs	r2, #1
100067dc:	4395      	bics	r5, r2
100067de:	2869      	cmp	r0, #105	; 0x69
100067e0:	d02a      	beq.n	10006838 <_vsnprintf+0x270>
100067e2:	2864      	cmp	r0, #100	; 0x64
100067e4:	d028      	beq.n	10006838 <_vsnprintf+0x270>
100067e6:	05aa      	lsls	r2, r5, #22
100067e8:	d500      	bpl.n	100067ec <_vsnprintf+0x224>
100067ea:	e0a7      	b.n	1000693c <_vsnprintf+0x374>
100067ec:	05ea      	lsls	r2, r5, #23
100067ee:	d500      	bpl.n	100067f2 <_vsnprintf+0x22a>
100067f0:	e0c0      	b.n	10006974 <_vsnprintf+0x3ac>
100067f2:	066a      	lsls	r2, r5, #25
100067f4:	d400      	bmi.n	100067f8 <_vsnprintf+0x230>
100067f6:	e0d2      	b.n	1000699e <_vsnprintf+0x3d6>
100067f8:	9a1c      	ldr	r2, [sp, #112]	; 0x70
100067fa:	1d11      	adds	r1, r2, #4
100067fc:	911c      	str	r1, [sp, #112]	; 0x70
100067fe:	6811      	ldr	r1, [r2, #0]
10006800:	22ff      	movs	r2, #255	; 0xff
10006802:	400a      	ands	r2, r1
10006804:	9505      	str	r5, [sp, #20]
10006806:	9b0a      	ldr	r3, [sp, #40]	; 0x28
10006808:	9304      	str	r3, [sp, #16]
1000680a:	464b      	mov	r3, r9
1000680c:	9303      	str	r3, [sp, #12]
1000680e:	9602      	str	r6, [sp, #8]
10006810:	2300      	movs	r3, #0
10006812:	9301      	str	r3, [sp, #4]
10006814:	9200      	str	r2, [sp, #0]
10006816:	4643      	mov	r3, r8
10006818:	003a      	movs	r2, r7
1000681a:	4659      	mov	r1, fp
1000681c:	0020      	movs	r0, r4
1000681e:	f7ff fa4f 	bl	10005cc0 <_ntoa_long>
10006822:	0007      	movs	r7, r0
10006824:	e027      	b.n	10006876 <_vsnprintf+0x2ae>
10006826:	2602      	movs	r6, #2
10006828:	e7cd      	b.n	100067c6 <_vsnprintf+0x1fe>
1000682a:	2608      	movs	r6, #8
1000682c:	e7cb      	b.n	100067c6 <_vsnprintf+0x1fe>
1000682e:	2610      	movs	r6, #16
10006830:	e7c9      	b.n	100067c6 <_vsnprintf+0x1fe>
10006832:	2220      	movs	r2, #32
10006834:	4315      	orrs	r5, r2
10006836:	e7c8      	b.n	100067ca <_vsnprintf+0x202>
10006838:	05aa      	lsls	r2, r5, #22
1000683a:	d420      	bmi.n	1000687e <_vsnprintf+0x2b6>
1000683c:	05ea      	lsls	r2, r5, #23
1000683e:	d450      	bmi.n	100068e2 <_vsnprintf+0x31a>
10006840:	066a      	lsls	r2, r5, #25
10006842:	d566      	bpl.n	10006912 <_vsnprintf+0x34a>
10006844:	9a1c      	ldr	r2, [sp, #112]	; 0x70
10006846:	1d11      	adds	r1, r2, #4
10006848:	911c      	str	r1, [sp, #112]	; 0x70
1000684a:	6811      	ldr	r1, [r2, #0]
1000684c:	22ff      	movs	r2, #255	; 0xff
1000684e:	400a      	ands	r2, r1
10006850:	17d0      	asrs	r0, r2, #31
10006852:	1811      	adds	r1, r2, r0
10006854:	4041      	eors	r1, r0
10006856:	9505      	str	r5, [sp, #20]
10006858:	9b0a      	ldr	r3, [sp, #40]	; 0x28
1000685a:	9304      	str	r3, [sp, #16]
1000685c:	464b      	mov	r3, r9
1000685e:	9303      	str	r3, [sp, #12]
10006860:	9602      	str	r6, [sp, #8]
10006862:	0fd2      	lsrs	r2, r2, #31
10006864:	9201      	str	r2, [sp, #4]
10006866:	9100      	str	r1, [sp, #0]
10006868:	4643      	mov	r3, r8
1000686a:	003a      	movs	r2, r7
1000686c:	4659      	mov	r1, fp
1000686e:	0020      	movs	r0, r4
10006870:	f7ff fa26 	bl	10005cc0 <_ntoa_long>
10006874:	0007      	movs	r7, r0
10006876:	9b11      	ldr	r3, [sp, #68]	; 0x44
10006878:	3301      	adds	r3, #1
1000687a:	9311      	str	r3, [sp, #68]	; 0x44
1000687c:	e6b4      	b.n	100065e8 <_vsnprintf+0x20>
1000687e:	9a1c      	ldr	r2, [sp, #112]	; 0x70
10006880:	3207      	adds	r2, #7
10006882:	2107      	movs	r1, #7
10006884:	438a      	bics	r2, r1
10006886:	0011      	movs	r1, r2
10006888:	3108      	adds	r1, #8
1000688a:	911c      	str	r1, [sp, #112]	; 0x70
1000688c:	6811      	ldr	r1, [r2, #0]
1000688e:	6853      	ldr	r3, [r2, #4]
10006890:	469c      	mov	ip, r3
10006892:	17db      	asrs	r3, r3, #31
10006894:	930c      	str	r3, [sp, #48]	; 0x30
10006896:	930d      	str	r3, [sp, #52]	; 0x34
10006898:	9a0c      	ldr	r2, [sp, #48]	; 0x30
1000689a:	9b0d      	ldr	r3, [sp, #52]	; 0x34
1000689c:	0010      	movs	r0, r2
1000689e:	4048      	eors	r0, r1
100068a0:	900e      	str	r0, [sp, #56]	; 0x38
100068a2:	4662      	mov	r2, ip
100068a4:	4053      	eors	r3, r2
100068a6:	930f      	str	r3, [sp, #60]	; 0x3c
100068a8:	980e      	ldr	r0, [sp, #56]	; 0x38
100068aa:	990f      	ldr	r1, [sp, #60]	; 0x3c
100068ac:	9a0c      	ldr	r2, [sp, #48]	; 0x30
100068ae:	9b0d      	ldr	r3, [sp, #52]	; 0x34
100068b0:	1a80      	subs	r0, r0, r2
100068b2:	4199      	sbcs	r1, r3
100068b4:	900e      	str	r0, [sp, #56]	; 0x38
100068b6:	910f      	str	r1, [sp, #60]	; 0x3c
100068b8:	9508      	str	r5, [sp, #32]
100068ba:	9b0a      	ldr	r3, [sp, #40]	; 0x28
100068bc:	9307      	str	r3, [sp, #28]
100068be:	464b      	mov	r3, r9
100068c0:	9306      	str	r3, [sp, #24]
100068c2:	9604      	str	r6, [sp, #16]
100068c4:	2300      	movs	r3, #0
100068c6:	9305      	str	r3, [sp, #20]
100068c8:	4663      	mov	r3, ip
100068ca:	0fda      	lsrs	r2, r3, #31
100068cc:	9202      	str	r2, [sp, #8]
100068ce:	9000      	str	r0, [sp, #0]
100068d0:	9101      	str	r1, [sp, #4]
100068d2:	4643      	mov	r3, r8
100068d4:	003a      	movs	r2, r7
100068d6:	4659      	mov	r1, fp
100068d8:	0020      	movs	r0, r4
100068da:	f7ff fa4f 	bl	10005d7c <_ntoa_long_long>
100068de:	0007      	movs	r7, r0
100068e0:	e7c9      	b.n	10006876 <_vsnprintf+0x2ae>
100068e2:	9a1c      	ldr	r2, [sp, #112]	; 0x70
100068e4:	1d11      	adds	r1, r2, #4
100068e6:	911c      	str	r1, [sp, #112]	; 0x70
100068e8:	6812      	ldr	r2, [r2, #0]
100068ea:	17d0      	asrs	r0, r2, #31
100068ec:	1811      	adds	r1, r2, r0
100068ee:	4041      	eors	r1, r0
100068f0:	9505      	str	r5, [sp, #20]
100068f2:	9b0a      	ldr	r3, [sp, #40]	; 0x28
100068f4:	9304      	str	r3, [sp, #16]
100068f6:	464b      	mov	r3, r9
100068f8:	9303      	str	r3, [sp, #12]
100068fa:	9602      	str	r6, [sp, #8]
100068fc:	0fd2      	lsrs	r2, r2, #31
100068fe:	9201      	str	r2, [sp, #4]
10006900:	9100      	str	r1, [sp, #0]
10006902:	4643      	mov	r3, r8
10006904:	003a      	movs	r2, r7
10006906:	4659      	mov	r1, fp
10006908:	0020      	movs	r0, r4
1000690a:	f7ff f9d9 	bl	10005cc0 <_ntoa_long>
1000690e:	0007      	movs	r7, r0
10006910:	e7b1      	b.n	10006876 <_vsnprintf+0x2ae>
10006912:	062a      	lsls	r2, r5, #24
10006914:	d505      	bpl.n	10006922 <_vsnprintf+0x35a>
10006916:	9a1c      	ldr	r2, [sp, #112]	; 0x70
10006918:	1d11      	adds	r1, r2, #4
1000691a:	911c      	str	r1, [sp, #112]	; 0x70
1000691c:	2300      	movs	r3, #0
1000691e:	5ed2      	ldrsh	r2, [r2, r3]
10006920:	e796      	b.n	10006850 <_vsnprintf+0x288>
10006922:	9a1c      	ldr	r2, [sp, #112]	; 0x70
10006924:	1d11      	adds	r1, r2, #4
10006926:	911c      	str	r1, [sp, #112]	; 0x70
10006928:	6812      	ldr	r2, [r2, #0]
1000692a:	e791      	b.n	10006850 <_vsnprintf+0x288>
1000692c:	1000b9f0 	.word	0x1000b9f0
10006930:	1000ba34 	.word	0x1000ba34
10006934:	1000ba80 	.word	0x1000ba80
10006938:	00009041 	.word	0x00009041
1000693c:	9a1c      	ldr	r2, [sp, #112]	; 0x70
1000693e:	3207      	adds	r2, #7
10006940:	2107      	movs	r1, #7
10006942:	438a      	bics	r2, r1
10006944:	0011      	movs	r1, r2
10006946:	3108      	adds	r1, #8
10006948:	911c      	str	r1, [sp, #112]	; 0x70
1000694a:	9508      	str	r5, [sp, #32]
1000694c:	9b0a      	ldr	r3, [sp, #40]	; 0x28
1000694e:	9307      	str	r3, [sp, #28]
10006950:	464b      	mov	r3, r9
10006952:	9306      	str	r3, [sp, #24]
10006954:	9604      	str	r6, [sp, #16]
10006956:	2300      	movs	r3, #0
10006958:	9305      	str	r3, [sp, #20]
1000695a:	9302      	str	r3, [sp, #8]
1000695c:	6853      	ldr	r3, [r2, #4]
1000695e:	6812      	ldr	r2, [r2, #0]
10006960:	9200      	str	r2, [sp, #0]
10006962:	9301      	str	r3, [sp, #4]
10006964:	4643      	mov	r3, r8
10006966:	003a      	movs	r2, r7
10006968:	4659      	mov	r1, fp
1000696a:	0020      	movs	r0, r4
1000696c:	f7ff fa06 	bl	10005d7c <_ntoa_long_long>
10006970:	0007      	movs	r7, r0
10006972:	e780      	b.n	10006876 <_vsnprintf+0x2ae>
10006974:	9a1c      	ldr	r2, [sp, #112]	; 0x70
10006976:	1d11      	adds	r1, r2, #4
10006978:	911c      	str	r1, [sp, #112]	; 0x70
1000697a:	9505      	str	r5, [sp, #20]
1000697c:	9b0a      	ldr	r3, [sp, #40]	; 0x28
1000697e:	9304      	str	r3, [sp, #16]
10006980:	464b      	mov	r3, r9
10006982:	9303      	str	r3, [sp, #12]
10006984:	9602      	str	r6, [sp, #8]
10006986:	2300      	movs	r3, #0
10006988:	9301      	str	r3, [sp, #4]
1000698a:	6813      	ldr	r3, [r2, #0]
1000698c:	9300      	str	r3, [sp, #0]
1000698e:	4643      	mov	r3, r8
10006990:	003a      	movs	r2, r7
10006992:	4659      	mov	r1, fp
10006994:	0020      	movs	r0, r4
10006996:	f7ff f993 	bl	10005cc0 <_ntoa_long>
1000699a:	0007      	movs	r7, r0
1000699c:	e76b      	b.n	10006876 <_vsnprintf+0x2ae>
1000699e:	062a      	lsls	r2, r5, #24
100069a0:	d506      	bpl.n	100069b0 <_vsnprintf+0x3e8>
100069a2:	9a1c      	ldr	r2, [sp, #112]	; 0x70
100069a4:	1d11      	adds	r1, r2, #4
100069a6:	911c      	str	r1, [sp, #112]	; 0x70
100069a8:	6812      	ldr	r2, [r2, #0]
100069aa:	0412      	lsls	r2, r2, #16
100069ac:	0c12      	lsrs	r2, r2, #16
100069ae:	e729      	b.n	10006804 <_vsnprintf+0x23c>
100069b0:	9a1c      	ldr	r2, [sp, #112]	; 0x70
100069b2:	1d11      	adds	r1, r2, #4
100069b4:	911c      	str	r1, [sp, #112]	; 0x70
100069b6:	6812      	ldr	r2, [r2, #0]
100069b8:	e724      	b.n	10006804 <_vsnprintf+0x23c>
100069ba:	2846      	cmp	r0, #70	; 0x46
100069bc:	d01a      	beq.n	100069f4 <_vsnprintf+0x42c>
100069be:	9b1c      	ldr	r3, [sp, #112]	; 0x70
100069c0:	3307      	adds	r3, #7
100069c2:	2207      	movs	r2, #7
100069c4:	4393      	bics	r3, r2
100069c6:	001a      	movs	r2, r3
100069c8:	3208      	adds	r2, #8
100069ca:	921c      	str	r2, [sp, #112]	; 0x70
100069cc:	9504      	str	r5, [sp, #16]
100069ce:	9a0a      	ldr	r2, [sp, #40]	; 0x28
100069d0:	9203      	str	r2, [sp, #12]
100069d2:	464a      	mov	r2, r9
100069d4:	9202      	str	r2, [sp, #8]
100069d6:	681a      	ldr	r2, [r3, #0]
100069d8:	685b      	ldr	r3, [r3, #4]
100069da:	9200      	str	r2, [sp, #0]
100069dc:	9301      	str	r3, [sp, #4]
100069de:	4643      	mov	r3, r8
100069e0:	003a      	movs	r2, r7
100069e2:	4659      	mov	r1, fp
100069e4:	0020      	movs	r0, r4
100069e6:	f7ff fc45 	bl	10006274 <_ftoa>
100069ea:	0007      	movs	r7, r0
100069ec:	9b11      	ldr	r3, [sp, #68]	; 0x44
100069ee:	3301      	adds	r3, #1
100069f0:	9311      	str	r3, [sp, #68]	; 0x44
100069f2:	e5f9      	b.n	100065e8 <_vsnprintf+0x20>
100069f4:	2320      	movs	r3, #32
100069f6:	431d      	orrs	r5, r3
100069f8:	e7e1      	b.n	100069be <_vsnprintf+0x3f6>
100069fa:	2867      	cmp	r0, #103	; 0x67
100069fc:	d001      	beq.n	10006a02 <_vsnprintf+0x43a>
100069fe:	2847      	cmp	r0, #71	; 0x47
10006a00:	d102      	bne.n	10006a08 <_vsnprintf+0x440>
10006a02:	2380      	movs	r3, #128	; 0x80
10006a04:	011b      	lsls	r3, r3, #4
10006a06:	431d      	orrs	r5, r3
10006a08:	2845      	cmp	r0, #69	; 0x45
10006a0a:	d001      	beq.n	10006a10 <_vsnprintf+0x448>
10006a0c:	2847      	cmp	r0, #71	; 0x47
10006a0e:	d101      	bne.n	10006a14 <_vsnprintf+0x44c>
10006a10:	2320      	movs	r3, #32
10006a12:	431d      	orrs	r5, r3
10006a14:	9b1c      	ldr	r3, [sp, #112]	; 0x70
10006a16:	3307      	adds	r3, #7
10006a18:	2207      	movs	r2, #7
10006a1a:	4393      	bics	r3, r2
10006a1c:	001a      	movs	r2, r3
10006a1e:	3208      	adds	r2, #8
10006a20:	921c      	str	r2, [sp, #112]	; 0x70
10006a22:	9504      	str	r5, [sp, #16]
10006a24:	9a0a      	ldr	r2, [sp, #40]	; 0x28
10006a26:	9203      	str	r2, [sp, #12]
10006a28:	464a      	mov	r2, r9
10006a2a:	9202      	str	r2, [sp, #8]
10006a2c:	681a      	ldr	r2, [r3, #0]
10006a2e:	685b      	ldr	r3, [r3, #4]
10006a30:	9200      	str	r2, [sp, #0]
10006a32:	9301      	str	r3, [sp, #4]
10006a34:	4643      	mov	r3, r8
10006a36:	003a      	movs	r2, r7
10006a38:	4659      	mov	r1, fp
10006a3a:	0020      	movs	r0, r4
10006a3c:	f7ff fa10 	bl	10005e60 <_etoa>
10006a40:	0007      	movs	r7, r0
10006a42:	9b11      	ldr	r3, [sp, #68]	; 0x44
10006a44:	3301      	adds	r3, #1
10006a46:	9311      	str	r3, [sp, #68]	; 0x44
10006a48:	e5ce      	b.n	100065e8 <_vsnprintf+0x20>
10006a4a:	2302      	movs	r3, #2
10006a4c:	001a      	movs	r2, r3
10006a4e:	402a      	ands	r2, r5
10006a50:	4692      	mov	sl, r2
10006a52:	422b      	tst	r3, r5
10006a54:	d01f      	beq.n	10006a96 <_vsnprintf+0x4ce>
10006a56:	2501      	movs	r5, #1
10006a58:	9b1c      	ldr	r3, [sp, #112]	; 0x70
10006a5a:	1d1a      	adds	r2, r3, #4
10006a5c:	921c      	str	r2, [sp, #112]	; 0x70
10006a5e:	1c7a      	adds	r2, r7, #1
10006a60:	4691      	mov	r9, r2
10006a62:	7818      	ldrb	r0, [r3, #0]
10006a64:	4643      	mov	r3, r8
10006a66:	003a      	movs	r2, r7
10006a68:	4659      	mov	r1, fp
10006a6a:	47a0      	blx	r4
10006a6c:	4653      	mov	r3, sl
10006a6e:	2b00      	cmp	r3, #0
10006a70:	d116      	bne.n	10006aa0 <_vsnprintf+0x4d8>
10006a72:	9b11      	ldr	r3, [sp, #68]	; 0x44
10006a74:	3301      	adds	r3, #1
10006a76:	9311      	str	r3, [sp, #68]	; 0x44
10006a78:	464f      	mov	r7, r9
10006a7a:	e5b5      	b.n	100065e8 <_vsnprintf+0x20>
10006a7c:	1c56      	adds	r6, r2, #1
10006a7e:	4643      	mov	r3, r8
10006a80:	4659      	mov	r1, fp
10006a82:	2020      	movs	r0, #32
10006a84:	47b8      	blx	r7
10006a86:	002b      	movs	r3, r5
10006a88:	0032      	movs	r2, r6
10006a8a:	1c5d      	adds	r5, r3, #1
10006a8c:	429c      	cmp	r4, r3
10006a8e:	d8f5      	bhi.n	10006a7c <_vsnprintf+0x4b4>
10006a90:	003c      	movs	r4, r7
10006a92:	0017      	movs	r7, r2
10006a94:	e7e0      	b.n	10006a58 <_vsnprintf+0x490>
10006a96:	2301      	movs	r3, #1
10006a98:	003a      	movs	r2, r7
10006a9a:	0027      	movs	r7, r4
10006a9c:	9c0a      	ldr	r4, [sp, #40]	; 0x28
10006a9e:	e7f4      	b.n	10006a8a <_vsnprintf+0x4c2>
10006aa0:	464a      	mov	r2, r9
10006aa2:	46a1      	mov	r9, r4
10006aa4:	9c0a      	ldr	r4, [sp, #40]	; 0x28
10006aa6:	e006      	b.n	10006ab6 <_vsnprintf+0x4ee>
10006aa8:	1c57      	adds	r7, r2, #1
10006aaa:	4643      	mov	r3, r8
10006aac:	4659      	mov	r1, fp
10006aae:	2020      	movs	r0, #32
10006ab0:	47c8      	blx	r9
10006ab2:	0035      	movs	r5, r6
10006ab4:	003a      	movs	r2, r7
10006ab6:	1c6e      	adds	r6, r5, #1
10006ab8:	42ac      	cmp	r4, r5
10006aba:	d8f5      	bhi.n	10006aa8 <_vsnprintf+0x4e0>
10006abc:	464c      	mov	r4, r9
10006abe:	4691      	mov	r9, r2
10006ac0:	e7d7      	b.n	10006a72 <_vsnprintf+0x4aa>
10006ac2:	9b1c      	ldr	r3, [sp, #112]	; 0x70
10006ac4:	1d1a      	adds	r2, r3, #4
10006ac6:	921c      	str	r2, [sp, #112]	; 0x70
10006ac8:	681e      	ldr	r6, [r3, #0]
10006aca:	464b      	mov	r3, r9
10006acc:	2b00      	cmp	r3, #0
10006ace:	d100      	bne.n	10006ad2 <_vsnprintf+0x50a>
10006ad0:	3b01      	subs	r3, #1
10006ad2:	0031      	movs	r1, r6
10006ad4:	e001      	b.n	10006ada <_vsnprintf+0x512>
10006ad6:	3101      	adds	r1, #1
10006ad8:	0013      	movs	r3, r2
10006ada:	780a      	ldrb	r2, [r1, #0]
10006adc:	2a00      	cmp	r2, #0
10006ade:	d002      	beq.n	10006ae6 <_vsnprintf+0x51e>
10006ae0:	1e5a      	subs	r2, r3, #1
10006ae2:	2b00      	cmp	r3, #0
10006ae4:	d1f7      	bne.n	10006ad6 <_vsnprintf+0x50e>
10006ae6:	1b89      	subs	r1, r1, r6
10006ae8:	9110      	str	r1, [sp, #64]	; 0x40
10006aea:	2380      	movs	r3, #128	; 0x80
10006aec:	00db      	lsls	r3, r3, #3
10006aee:	002a      	movs	r2, r5
10006af0:	401a      	ands	r2, r3
10006af2:	4692      	mov	sl, r2
10006af4:	421d      	tst	r5, r3
10006af6:	d003      	beq.n	10006b00 <_vsnprintf+0x538>
10006af8:	4549      	cmp	r1, r9
10006afa:	d901      	bls.n	10006b00 <_vsnprintf+0x538>
10006afc:	464b      	mov	r3, r9
10006afe:	9310      	str	r3, [sp, #64]	; 0x40
10006b00:	2302      	movs	r3, #2
10006b02:	001a      	movs	r2, r3
10006b04:	402a      	ands	r2, r5
10006b06:	920b      	str	r2, [sp, #44]	; 0x2c
10006b08:	422b      	tst	r3, r5
10006b0a:	d005      	beq.n	10006b18 <_vsnprintf+0x550>
10006b0c:	003a      	movs	r2, r7
10006b0e:	4657      	mov	r7, sl
10006b10:	0023      	movs	r3, r4
10006b12:	464c      	mov	r4, r9
10006b14:	4699      	mov	r9, r3
10006b16:	e020      	b.n	10006b5a <_vsnprintf+0x592>
10006b18:	003a      	movs	r2, r7
10006b1a:	9b10      	ldr	r3, [sp, #64]	; 0x40
10006b1c:	465f      	mov	r7, fp
10006b1e:	46b3      	mov	fp, r6
10006b20:	0026      	movs	r6, r4
10006b22:	e006      	b.n	10006b32 <_vsnprintf+0x56a>
10006b24:	1c54      	adds	r4, r2, #1
10006b26:	4643      	mov	r3, r8
10006b28:	0039      	movs	r1, r7
10006b2a:	2020      	movs	r0, #32
10006b2c:	47b0      	blx	r6
10006b2e:	002b      	movs	r3, r5
10006b30:	0022      	movs	r2, r4
10006b32:	1c5d      	adds	r5, r3, #1
10006b34:	990a      	ldr	r1, [sp, #40]	; 0x28
10006b36:	4299      	cmp	r1, r3
10006b38:	d8f4      	bhi.n	10006b24 <_vsnprintf+0x55c>
10006b3a:	0034      	movs	r4, r6
10006b3c:	465e      	mov	r6, fp
10006b3e:	46bb      	mov	fp, r7
10006b40:	9510      	str	r5, [sp, #64]	; 0x40
10006b42:	4657      	mov	r7, sl
10006b44:	0023      	movs	r3, r4
10006b46:	464c      	mov	r4, r9
10006b48:	4699      	mov	r9, r3
10006b4a:	e006      	b.n	10006b5a <_vsnprintf+0x592>
10006b4c:	001c      	movs	r4, r3
10006b4e:	3601      	adds	r6, #1
10006b50:	1c55      	adds	r5, r2, #1
10006b52:	4643      	mov	r3, r8
10006b54:	4659      	mov	r1, fp
10006b56:	47c8      	blx	r9
10006b58:	002a      	movs	r2, r5
10006b5a:	7830      	ldrb	r0, [r6, #0]
10006b5c:	2800      	cmp	r0, #0
10006b5e:	d004      	beq.n	10006b6a <_vsnprintf+0x5a2>
10006b60:	2f00      	cmp	r7, #0
10006b62:	d0f4      	beq.n	10006b4e <_vsnprintf+0x586>
10006b64:	1e63      	subs	r3, r4, #1
10006b66:	2c00      	cmp	r4, #0
10006b68:	d1f0      	bne.n	10006b4c <_vsnprintf+0x584>
10006b6a:	0017      	movs	r7, r2
10006b6c:	464c      	mov	r4, r9
10006b6e:	9b0b      	ldr	r3, [sp, #44]	; 0x2c
10006b70:	2b00      	cmp	r3, #0
10006b72:	d103      	bne.n	10006b7c <_vsnprintf+0x5b4>
10006b74:	9b11      	ldr	r3, [sp, #68]	; 0x44
10006b76:	3301      	adds	r3, #1
10006b78:	9311      	str	r3, [sp, #68]	; 0x44
10006b7a:	e535      	b.n	100065e8 <_vsnprintf+0x20>
10006b7c:	9f0a      	ldr	r7, [sp, #40]	; 0x28
10006b7e:	9b10      	ldr	r3, [sp, #64]	; 0x40
10006b80:	e006      	b.n	10006b90 <_vsnprintf+0x5c8>
10006b82:	1c56      	adds	r6, r2, #1
10006b84:	4643      	mov	r3, r8
10006b86:	4659      	mov	r1, fp
10006b88:	2020      	movs	r0, #32
10006b8a:	47a0      	blx	r4
10006b8c:	002b      	movs	r3, r5
10006b8e:	0032      	movs	r2, r6
10006b90:	1c5d      	adds	r5, r3, #1
10006b92:	429f      	cmp	r7, r3
10006b94:	d8f5      	bhi.n	10006b82 <_vsnprintf+0x5ba>
10006b96:	0017      	movs	r7, r2
10006b98:	e7ec      	b.n	10006b74 <_vsnprintf+0x5ac>
10006b9a:	2321      	movs	r3, #33	; 0x21
10006b9c:	432b      	orrs	r3, r5
10006b9e:	9a1c      	ldr	r2, [sp, #112]	; 0x70
10006ba0:	1d11      	adds	r1, r2, #4
10006ba2:	911c      	str	r1, [sp, #112]	; 0x70
10006ba4:	6812      	ldr	r2, [r2, #0]
10006ba6:	9305      	str	r3, [sp, #20]
10006ba8:	2308      	movs	r3, #8
10006baa:	9304      	str	r3, [sp, #16]
10006bac:	464b      	mov	r3, r9
10006bae:	9303      	str	r3, [sp, #12]
10006bb0:	2310      	movs	r3, #16
10006bb2:	9302      	str	r3, [sp, #8]
10006bb4:	2300      	movs	r3, #0
10006bb6:	9301      	str	r3, [sp, #4]
10006bb8:	9200      	str	r2, [sp, #0]
10006bba:	4643      	mov	r3, r8
10006bbc:	003a      	movs	r2, r7
10006bbe:	4659      	mov	r1, fp
10006bc0:	0020      	movs	r0, r4
10006bc2:	f7ff f87d 	bl	10005cc0 <_ntoa_long>
10006bc6:	0007      	movs	r7, r0
10006bc8:	9b11      	ldr	r3, [sp, #68]	; 0x44
10006bca:	3301      	adds	r3, #1
10006bcc:	9311      	str	r3, [sp, #68]	; 0x44
10006bce:	e50b      	b.n	100065e8 <_vsnprintf+0x20>
10006bd0:	1c7d      	adds	r5, r7, #1
10006bd2:	4643      	mov	r3, r8
10006bd4:	003a      	movs	r2, r7
10006bd6:	4659      	mov	r1, fp
10006bd8:	2025      	movs	r0, #37	; 0x25
10006bda:	47a0      	blx	r4
10006bdc:	9b11      	ldr	r3, [sp, #68]	; 0x44
10006bde:	3301      	adds	r3, #1
10006be0:	9311      	str	r3, [sp, #68]	; 0x44
10006be2:	002f      	movs	r7, r5
10006be4:	e500      	b.n	100065e8 <_vsnprintf+0x20>
10006be6:	4b0b      	ldr	r3, [pc, #44]	; (10006c14 <_vsnprintf+0x64c>)
10006be8:	469a      	mov	sl, r3
10006bea:	e4fb      	b.n	100065e4 <_vsnprintf+0x1c>
10006bec:	46a2      	mov	sl, r4
10006bee:	4547      	cmp	r7, r8
10006bf0:	d302      	bcc.n	10006bf8 <_vsnprintf+0x630>
10006bf2:	4643      	mov	r3, r8
10006bf4:	1e5a      	subs	r2, r3, #1
10006bf6:	e000      	b.n	10006bfa <_vsnprintf+0x632>
10006bf8:	003a      	movs	r2, r7
10006bfa:	4643      	mov	r3, r8
10006bfc:	4659      	mov	r1, fp
10006bfe:	2000      	movs	r0, #0
10006c00:	47d0      	blx	sl
10006c02:	0038      	movs	r0, r7
10006c04:	b013      	add	sp, #76	; 0x4c
10006c06:	bcf0      	pop	{r4, r5, r6, r7}
10006c08:	46bb      	mov	fp, r7
10006c0a:	46b2      	mov	sl, r6
10006c0c:	46a9      	mov	r9, r5
10006c0e:	46a0      	mov	r8, r4
10006c10:	bdf0      	pop	{r4, r5, r6, r7, pc}
10006c12:	46c0      	nop			; (mov r8, r8)
10006c14:	10005acd 	.word	0x10005acd

10006c18 <vfctprintf>:
10006c18:	b500      	push	{lr}
10006c1a:	b085      	sub	sp, #20
10006c1c:	9002      	str	r0, [sp, #8]
10006c1e:	9103      	str	r1, [sp, #12]
10006c20:	2101      	movs	r1, #1
10006c22:	4804      	ldr	r0, [pc, #16]	; (10006c34 <vfctprintf+0x1c>)
10006c24:	9300      	str	r3, [sp, #0]
10006c26:	0013      	movs	r3, r2
10006c28:	424a      	negs	r2, r1
10006c2a:	a902      	add	r1, sp, #8
10006c2c:	f7ff fccc 	bl	100065c8 <_vsnprintf>
10006c30:	b005      	add	sp, #20
10006c32:	bd00      	pop	{pc}
10006c34:	10005acf 	.word	0x10005acf

10006c38 <__aeabi_bits_init>:
10006c38:	4801      	ldr	r0, [pc, #4]	; (10006c40 <__aeabi_bits_init+0x8>)
10006c3a:	2104      	movs	r1, #4
10006c3c:	4b01      	ldr	r3, [pc, #4]	; (10006c44 <__aeabi_bits_init+0xc>)
10006c3e:	4718      	bx	r3
10006c40:	20000c10 	.word	0x20000c10
10006c44:	10006c69 	.word	0x10006c69

10006c48 <rom_func_lookup>:
10006c48:	b510      	push	{r4, lr}
10006c4a:	0001      	movs	r1, r0
10006c4c:	2318      	movs	r3, #24
10006c4e:	881b      	ldrh	r3, [r3, #0]
10006c50:	2214      	movs	r2, #20
10006c52:	8810      	ldrh	r0, [r2, #0]
10006c54:	4798      	blx	r3
10006c56:	bd10      	pop	{r4, pc}

10006c58 <rom_data_lookup>:
10006c58:	b510      	push	{r4, lr}
10006c5a:	0001      	movs	r1, r0
10006c5c:	2318      	movs	r3, #24
10006c5e:	881b      	ldrh	r3, [r3, #0]
10006c60:	2216      	movs	r2, #22
10006c62:	8810      	ldrh	r0, [r2, #0]
10006c64:	4798      	blx	r3
10006c66:	bd10      	pop	{r4, pc}

10006c68 <rom_funcs_lookup>:
10006c68:	b5f0      	push	{r4, r5, r6, r7, lr}
10006c6a:	46c6      	mov	lr, r8
10006c6c:	b500      	push	{lr}
10006c6e:	0007      	movs	r7, r0
10006c70:	000e      	movs	r6, r1
10006c72:	2500      	movs	r5, #0
10006c74:	2301      	movs	r3, #1
10006c76:	4698      	mov	r8, r3
10006c78:	e000      	b.n	10006c7c <rom_funcs_lookup+0x14>
10006c7a:	3501      	adds	r5, #1
10006c7c:	42b5      	cmp	r5, r6
10006c7e:	d20a      	bcs.n	10006c96 <rom_funcs_lookup+0x2e>
10006c80:	00ac      	lsls	r4, r5, #2
10006c82:	193c      	adds	r4, r7, r4
10006c84:	6820      	ldr	r0, [r4, #0]
10006c86:	f7ff ffdf 	bl	10006c48 <rom_func_lookup>
10006c8a:	6020      	str	r0, [r4, #0]
10006c8c:	2800      	cmp	r0, #0
10006c8e:	d1f4      	bne.n	10006c7a <rom_funcs_lookup+0x12>
10006c90:	2300      	movs	r3, #0
10006c92:	4698      	mov	r8, r3
10006c94:	e7f1      	b.n	10006c7a <rom_funcs_lookup+0x12>
10006c96:	4640      	mov	r0, r8
10006c98:	bc80      	pop	{r7}
10006c9a:	46b8      	mov	r8, r7
10006c9c:	bdf0      	pop	{r4, r5, r6, r7, pc}
	...

10006ca0 <__wrap___aeabi_idiv>:
10006ca0:	4a12      	ldr	r2, [pc, #72]	; (10006cec <divmod_s32s32_savestate+0x18>)
10006ca2:	6f93      	ldr	r3, [r2, #120]	; 0x78
10006ca4:	089b      	lsrs	r3, r3, #2
10006ca6:	d215      	bcs.n	10006cd4 <divmod_s32s32_savestate>

10006ca8 <divmod_s32s32_unsafe>:
10006ca8:	6690      	str	r0, [r2, #104]	; 0x68
10006caa:	66d1      	str	r1, [r2, #108]	; 0x6c
10006cac:	2900      	cmp	r1, #0
10006cae:	d005      	beq.n	10006cbc <divmod_s32s32_unsafe+0x14>
10006cb0:	e7ff      	b.n	10006cb2 <divmod_s32s32_unsafe+0xa>
10006cb2:	e7ff      	b.n	10006cb4 <divmod_s32s32_unsafe+0xc>
10006cb4:	e7ff      	b.n	10006cb6 <divmod_s32s32_unsafe+0xe>
10006cb6:	6f51      	ldr	r1, [r2, #116]	; 0x74
10006cb8:	6f10      	ldr	r0, [r2, #112]	; 0x70
10006cba:	4770      	bx	lr
10006cbc:	b504      	push	{r2, lr}
10006cbe:	2180      	movs	r1, #128	; 0x80
10006cc0:	0609      	lsls	r1, r1, #24
10006cc2:	17c2      	asrs	r2, r0, #31
10006cc4:	4051      	eors	r1, r2
10006cc6:	2800      	cmp	r0, #0
10006cc8:	d000      	beq.n	10006ccc <divmod_s32s32_unsafe+0x24>
10006cca:	43c8      	mvns	r0, r1
10006ccc:	f003 ff08 	bl	1000aae0 <____aeabi_idiv0_veneer>
10006cd0:	2100      	movs	r1, #0
10006cd2:	bd04      	pop	{r2, pc}

10006cd4 <divmod_s32s32_savestate>:
10006cd4:	b5f0      	push	{r4, r5, r6, r7, lr}
10006cd6:	6e14      	ldr	r4, [r2, #96]	; 0x60
10006cd8:	6e55      	ldr	r5, [r2, #100]	; 0x64
10006cda:	6f57      	ldr	r7, [r2, #116]	; 0x74
10006cdc:	6f16      	ldr	r6, [r2, #112]	; 0x70
10006cde:	f7ff ffe3 	bl	10006ca8 <divmod_s32s32_unsafe>
10006ce2:	6614      	str	r4, [r2, #96]	; 0x60
10006ce4:	6655      	str	r5, [r2, #100]	; 0x64
10006ce6:	6757      	str	r7, [r2, #116]	; 0x74
10006ce8:	6716      	str	r6, [r2, #112]	; 0x70
10006cea:	bdf0      	pop	{r4, r5, r6, r7, pc}
10006cec:	d0000000 	.word	0xd0000000

10006cf0 <__wrap___aeabi_uidiv>:
10006cf0:	4a11      	ldr	r2, [pc, #68]	; (10006d38 <divmod_u32u32_savestate+0x18>)
10006cf2:	6f93      	ldr	r3, [r2, #120]	; 0x78
10006cf4:	089b      	lsrs	r3, r3, #2
10006cf6:	d213      	bcs.n	10006d20 <divmod_u32u32_savestate>

10006cf8 <divmod_u32u32_unsafe>:
10006cf8:	6610      	str	r0, [r2, #96]	; 0x60
10006cfa:	6651      	str	r1, [r2, #100]	; 0x64
10006cfc:	2900      	cmp	r1, #0
10006cfe:	d005      	beq.n	10006d0c <divmod_u32u32_unsafe+0x14>
10006d00:	e7ff      	b.n	10006d02 <divmod_u32u32_unsafe+0xa>
10006d02:	e7ff      	b.n	10006d04 <divmod_u32u32_unsafe+0xc>
10006d04:	e7ff      	b.n	10006d06 <divmod_u32u32_unsafe+0xe>
10006d06:	6f51      	ldr	r1, [r2, #116]	; 0x74
10006d08:	6f10      	ldr	r0, [r2, #112]	; 0x70
10006d0a:	4770      	bx	lr
10006d0c:	b504      	push	{r2, lr}
10006d0e:	2800      	cmp	r0, #0
10006d10:	d001      	beq.n	10006d16 <divmod_u32u32_unsafe+0x1e>
10006d12:	2000      	movs	r0, #0
10006d14:	43c0      	mvns	r0, r0
10006d16:	f003 fee3 	bl	1000aae0 <____aeabi_idiv0_veneer>
10006d1a:	2100      	movs	r1, #0
10006d1c:	bd04      	pop	{r2, pc}
10006d1e:	46c0      	nop			; (mov r8, r8)

10006d20 <divmod_u32u32_savestate>:
10006d20:	b5f0      	push	{r4, r5, r6, r7, lr}
10006d22:	6e14      	ldr	r4, [r2, #96]	; 0x60
10006d24:	6e55      	ldr	r5, [r2, #100]	; 0x64
10006d26:	6f57      	ldr	r7, [r2, #116]	; 0x74
10006d28:	6f16      	ldr	r6, [r2, #112]	; 0x70
10006d2a:	f7ff ffe5 	bl	10006cf8 <divmod_u32u32_unsafe>
10006d2e:	6614      	str	r4, [r2, #96]	; 0x60
10006d30:	6655      	str	r5, [r2, #100]	; 0x64
10006d32:	6757      	str	r7, [r2, #116]	; 0x74
10006d34:	6716      	str	r6, [r2, #112]	; 0x70
10006d36:	bdf0      	pop	{r4, r5, r6, r7, pc}
10006d38:	d0000000 	.word	0xd0000000

10006d3c <__wrap___aeabi_ldivmod>:
10006d3c:	4694      	mov	ip, r2
10006d3e:	4a4a      	ldr	r2, [pc, #296]	; (10006e68 <udiv0+0x1a>)
10006d40:	6f92      	ldr	r2, [r2, #120]	; 0x78
10006d42:	0892      	lsrs	r2, r2, #2
10006d44:	4662      	mov	r2, ip
10006d46:	d201      	bcs.n	10006d4c <divmod_s64s64_savestate>
10006d48:	e028      	b.n	10006d9c <divmod_s64s64_unsafe>
10006d4a:	46c0      	nop			; (mov r8, r8)

10006d4c <divmod_s64s64_savestate>:
10006d4c:	b5f0      	push	{r4, r5, r6, r7, lr}
10006d4e:	4e46      	ldr	r6, [pc, #280]	; (10006e68 <udiv0+0x1a>)
10006d50:	6e34      	ldr	r4, [r6, #96]	; 0x60
10006d52:	6e75      	ldr	r5, [r6, #100]	; 0x64
10006d54:	6f77      	ldr	r7, [r6, #116]	; 0x74
10006d56:	6f36      	ldr	r6, [r6, #112]	; 0x70
10006d58:	f000 f820 	bl	10006d9c <divmod_s64s64_unsafe>
10006d5c:	4694      	mov	ip, r2
10006d5e:	4a42      	ldr	r2, [pc, #264]	; (10006e68 <udiv0+0x1a>)
10006d60:	6614      	str	r4, [r2, #96]	; 0x60
10006d62:	6655      	str	r5, [r2, #100]	; 0x64
10006d64:	6757      	str	r7, [r2, #116]	; 0x74
10006d66:	6716      	str	r6, [r2, #112]	; 0x70
10006d68:	4662      	mov	r2, ip
10006d6a:	bdf0      	pop	{r4, r5, r6, r7, pc}

10006d6c <__wrap___aeabi_uldivmod>:
10006d6c:	4694      	mov	ip, r2
10006d6e:	4a3e      	ldr	r2, [pc, #248]	; (10006e68 <udiv0+0x1a>)
10006d70:	6f92      	ldr	r2, [r2, #120]	; 0x78
10006d72:	0892      	lsrs	r2, r2, #2
10006d74:	4662      	mov	r2, ip
10006d76:	d201      	bcs.n	10006d7c <divmod_u64u64_savestate>
10006d78:	e054      	b.n	10006e24 <divmod_u64u64_unsafe>
10006d7a:	46c0      	nop			; (mov r8, r8)

10006d7c <divmod_u64u64_savestate>:
10006d7c:	b5f0      	push	{r4, r5, r6, r7, lr}
10006d7e:	4e3a      	ldr	r6, [pc, #232]	; (10006e68 <udiv0+0x1a>)
10006d80:	6e34      	ldr	r4, [r6, #96]	; 0x60
10006d82:	6e75      	ldr	r5, [r6, #100]	; 0x64
10006d84:	6f77      	ldr	r7, [r6, #116]	; 0x74
10006d86:	6f36      	ldr	r6, [r6, #112]	; 0x70
10006d88:	f000 f84c 	bl	10006e24 <divmod_u64u64_unsafe>
10006d8c:	4694      	mov	ip, r2
10006d8e:	4a36      	ldr	r2, [pc, #216]	; (10006e68 <udiv0+0x1a>)
10006d90:	6614      	str	r4, [r2, #96]	; 0x60
10006d92:	6655      	str	r5, [r2, #100]	; 0x64
10006d94:	6757      	str	r7, [r2, #116]	; 0x74
10006d96:	6716      	str	r6, [r2, #112]	; 0x70
10006d98:	4662      	mov	r2, ip
10006d9a:	bdf0      	pop	{r4, r5, r6, r7, pc}

10006d9c <divmod_s64s64_unsafe>:
10006d9c:	2b00      	cmp	r3, #0
10006d9e:	db24      	blt.n	10006dea <l41_1+0x26>
10006da0:	d011      	beq.n	10006dc6 <l41_1+0x2>
10006da2:	2900      	cmp	r1, #0
10006da4:	da3e      	bge.n	10006e24 <divmod_u64u64_unsafe>
10006da6:	b500      	push	{lr}
10006da8:	43c9      	mvns	r1, r1
10006daa:	4240      	negs	r0, r0
10006dac:	d100      	bne.n	10006db0 <l39_1>
10006dae:	3101      	adds	r1, #1

10006db0 <l39_1>:
10006db0:	f000 f838 	bl	10006e24 <divmod_u64u64_unsafe>
10006db4:	43c9      	mvns	r1, r1
10006db6:	4240      	negs	r0, r0
10006db8:	d100      	bne.n	10006dbc <l40_1>
10006dba:	3101      	adds	r1, #1

10006dbc <l40_1>:
10006dbc:	43db      	mvns	r3, r3
10006dbe:	4252      	negs	r2, r2
10006dc0:	d100      	bne.n	10006dc4 <l41_1>
10006dc2:	3301      	adds	r3, #1

10006dc4 <l41_1>:
10006dc4:	bd00      	pop	{pc}
10006dc6:	2a00      	cmp	r2, #0
10006dc8:	d1eb      	bne.n	10006da2 <divmod_s64s64_unsafe+0x6>
10006dca:	2800      	cmp	r0, #0
10006dcc:	d101      	bne.n	10006dd2 <l41_1+0xe>
10006dce:	2900      	cmp	r1, #0
10006dd0:	d005      	beq.n	10006dde <l41_1+0x1a>
10006dd2:	2000      	movs	r0, #0
10006dd4:	0fc9      	lsrs	r1, r1, #31
10006dd6:	07c9      	lsls	r1, r1, #31
10006dd8:	d101      	bne.n	10006dde <l41_1+0x1a>
10006dda:	43c0      	mvns	r0, r0
10006ddc:	0841      	lsrs	r1, r0, #1
10006dde:	b500      	push	{lr}
10006de0:	f003 fe76 	bl	1000aad0 <____aeabi_ldiv0_veneer>
10006de4:	2200      	movs	r2, #0
10006de6:	2300      	movs	r3, #0
10006de8:	bd00      	pop	{pc}
10006dea:	b500      	push	{lr}
10006dec:	2900      	cmp	r1, #0
10006dee:	db0a      	blt.n	10006e06 <l43_1+0x2>
10006df0:	43db      	mvns	r3, r3
10006df2:	4252      	negs	r2, r2
10006df4:	d100      	bne.n	10006df8 <l42_1>
10006df6:	3301      	adds	r3, #1

10006df8 <l42_1>:
10006df8:	f000 f814 	bl	10006e24 <divmod_u64u64_unsafe>
10006dfc:	43c9      	mvns	r1, r1
10006dfe:	4240      	negs	r0, r0
10006e00:	d100      	bne.n	10006e04 <l43_1>
10006e02:	3101      	adds	r1, #1

10006e04 <l43_1>:
10006e04:	bd00      	pop	{pc}
10006e06:	43c9      	mvns	r1, r1
10006e08:	4240      	negs	r0, r0
10006e0a:	d100      	bne.n	10006e0e <l44_1>
10006e0c:	3101      	adds	r1, #1

10006e0e <l44_1>:
10006e0e:	43db      	mvns	r3, r3
10006e10:	4252      	negs	r2, r2
10006e12:	d100      	bne.n	10006e16 <l45_1>
10006e14:	3301      	adds	r3, #1

10006e16 <l45_1>:
10006e16:	f000 f805 	bl	10006e24 <divmod_u64u64_unsafe>
10006e1a:	43db      	mvns	r3, r3
10006e1c:	4252      	negs	r2, r2
10006e1e:	d100      	bne.n	10006e22 <l46_1>
10006e20:	3301      	adds	r3, #1

10006e22 <l46_1>:
10006e22:	bd00      	pop	{pc}

10006e24 <divmod_u64u64_unsafe>:
10006e24:	2900      	cmp	r1, #0
10006e26:	d123      	bne.n	10006e70 <y64>
10006e28:	2b00      	cmp	r3, #0
10006e2a:	d118      	bne.n	10006e5e <udiv0+0x10>
10006e2c:	2a00      	cmp	r2, #0
10006e2e:	d00c      	beq.n	10006e4a <divmod_u64u64_unsafe+0x26>
10006e30:	46bc      	mov	ip, r7
10006e32:	4f0d      	ldr	r7, [pc, #52]	; (10006e68 <udiv0+0x1a>)
10006e34:	6638      	str	r0, [r7, #96]	; 0x60
10006e36:	667a      	str	r2, [r7, #100]	; 0x64
10006e38:	2100      	movs	r1, #0
10006e3a:	2300      	movs	r3, #0
10006e3c:	e7ff      	b.n	10006e3e <divmod_u64u64_unsafe+0x1a>
10006e3e:	e7ff      	b.n	10006e40 <divmod_u64u64_unsafe+0x1c>
10006e40:	e7ff      	b.n	10006e42 <divmod_u64u64_unsafe+0x1e>
10006e42:	6f7a      	ldr	r2, [r7, #116]	; 0x74
10006e44:	6f38      	ldr	r0, [r7, #112]	; 0x70
10006e46:	4667      	mov	r7, ip
10006e48:	4770      	bx	lr
10006e4a:	2800      	cmp	r0, #0
10006e4c:	d001      	beq.n	10006e52 <udiv0+0x4>

10006e4e <udiv0>:
10006e4e:	4807      	ldr	r0, [pc, #28]	; (10006e6c <udiv0+0x1e>)
10006e50:	0001      	movs	r1, r0
10006e52:	b500      	push	{lr}
10006e54:	f003 fe3c 	bl	1000aad0 <____aeabi_ldiv0_veneer>
10006e58:	2200      	movs	r2, #0
10006e5a:	2300      	movs	r3, #0
10006e5c:	bd00      	pop	{pc}
10006e5e:	0002      	movs	r2, r0
10006e60:	000b      	movs	r3, r1
10006e62:	2000      	movs	r0, #0
10006e64:	2100      	movs	r1, #0
10006e66:	4770      	bx	lr
10006e68:	d0000000 	.word	0xd0000000
10006e6c:	ffffffff 	.word	0xffffffff

10006e70 <y64>:
10006e70:	2b00      	cmp	r3, #0
10006e72:	d000      	beq.n	10006e76 <y64+0x6>
10006e74:	e0bf      	b.n	10006ff6 <y64_x48>
10006e76:	0c13      	lsrs	r3, r2, #16
10006e78:	d128      	bne.n	10006ecc <y64_x32>
10006e7a:	2a00      	cmp	r2, #0
10006e7c:	d0e7      	beq.n	10006e4e <udiv0>
10006e7e:	b480      	push	{r7}
10006e80:	4f11      	ldr	r7, [pc, #68]	; (10006ec8 <y64+0x58>)
10006e82:	6639      	str	r1, [r7, #96]	; 0x60
10006e84:	667a      	str	r2, [r7, #100]	; 0x64
10006e86:	e7ff      	b.n	10006e88 <y64+0x18>
10006e88:	e7ff      	b.n	10006e8a <y64+0x1a>
10006e8a:	b430      	push	{r4, r5}
10006e8c:	0c04      	lsrs	r4, r0, #16
10006e8e:	6f7b      	ldr	r3, [r7, #116]	; 0x74
10006e90:	6f39      	ldr	r1, [r7, #112]	; 0x70
10006e92:	041b      	lsls	r3, r3, #16
10006e94:	4323      	orrs	r3, r4
10006e96:	663b      	str	r3, [r7, #96]	; 0x60
10006e98:	667a      	str	r2, [r7, #100]	; 0x64
10006e9a:	e7ff      	b.n	10006e9c <y64+0x2c>
10006e9c:	e7ff      	b.n	10006e9e <y64+0x2e>
10006e9e:	e7ff      	b.n	10006ea0 <y64+0x30>
10006ea0:	46c0      	nop			; (mov r8, r8)
10006ea2:	b284      	uxth	r4, r0
10006ea4:	6f7b      	ldr	r3, [r7, #116]	; 0x74
10006ea6:	6f3d      	ldr	r5, [r7, #112]	; 0x70
10006ea8:	041b      	lsls	r3, r3, #16
10006eaa:	4323      	orrs	r3, r4
10006eac:	663b      	str	r3, [r7, #96]	; 0x60
10006eae:	667a      	str	r2, [r7, #100]	; 0x64
10006eb0:	e7ff      	b.n	10006eb2 <y64+0x42>
10006eb2:	e7ff      	b.n	10006eb4 <y64+0x44>
10006eb4:	46c0      	nop			; (mov r8, r8)
10006eb6:	2300      	movs	r3, #0
10006eb8:	042c      	lsls	r4, r5, #16
10006eba:	0c2d      	lsrs	r5, r5, #16
10006ebc:	6f7a      	ldr	r2, [r7, #116]	; 0x74
10006ebe:	6f38      	ldr	r0, [r7, #112]	; 0x70
10006ec0:	1900      	adds	r0, r0, r4
10006ec2:	4169      	adcs	r1, r5
10006ec4:	bcb0      	pop	{r4, r5, r7}
10006ec6:	4770      	bx	lr
10006ec8:	d0000000 	.word	0xd0000000

10006ecc <y64_x32>:
10006ecc:	b5f0      	push	{r4, r5, r6, r7, lr}
10006ece:	4694      	mov	ip, r2
10006ed0:	2500      	movs	r5, #0
10006ed2:	0e14      	lsrs	r4, r2, #24
10006ed4:	d101      	bne.n	10006eda <y64_x32+0xe>
10006ed6:	0212      	lsls	r2, r2, #8
10006ed8:	3508      	adds	r5, #8
10006eda:	0f14      	lsrs	r4, r2, #28
10006edc:	d101      	bne.n	10006ee2 <y64_x32+0x16>
10006ede:	0112      	lsls	r2, r2, #4
10006ee0:	3504      	adds	r5, #4
10006ee2:	0f94      	lsrs	r4, r2, #30
10006ee4:	d101      	bne.n	10006eea <y64_x32+0x1e>
10006ee6:	0092      	lsls	r2, r2, #2
10006ee8:	3502      	adds	r5, #2
10006eea:	0fd4      	lsrs	r4, r2, #31
10006eec:	d101      	bne.n	10006ef2 <y64_x32+0x26>
10006eee:	0052      	lsls	r2, r2, #1
10006ef0:	3501      	adds	r5, #1
10006ef2:	0bd4      	lsrs	r4, r2, #15
10006ef4:	3401      	adds	r4, #1
10006ef6:	4f25      	ldr	r7, [pc, #148]	; (10006f8c <y64_x32+0xc0>)
10006ef8:	667c      	str	r4, [r7, #100]	; 0x64
10006efa:	4c25      	ldr	r4, [pc, #148]	; (10006f90 <y64_x32+0xc4>)
10006efc:	663c      	str	r4, [r7, #96]	; 0x60
10006efe:	0c0e      	lsrs	r6, r1, #16
10006f00:	b293      	uxth	r3, r2
10006f02:	e7ff      	b.n	10006f04 <y64_x32+0x38>
10006f04:	e7ff      	b.n	10006f06 <y64_x32+0x3a>
10006f06:	e7ff      	b.n	10006f08 <y64_x32+0x3c>
10006f08:	6f3c      	ldr	r4, [r7, #112]	; 0x70
10006f0a:	4366      	muls	r6, r4
10006f0c:	0c36      	lsrs	r6, r6, #16
10006f0e:	0377      	lsls	r7, r6, #13
10006f10:	46be      	mov	lr, r7
10006f12:	4373      	muls	r3, r6
10006f14:	0bdf      	lsrs	r7, r3, #15
10006f16:	045b      	lsls	r3, r3, #17
10006f18:	1ac0      	subs	r0, r0, r3
10006f1a:	41b9      	sbcs	r1, r7
10006f1c:	0c13      	lsrs	r3, r2, #16
10006f1e:	4373      	muls	r3, r6
10006f20:	18db      	adds	r3, r3, r3
10006f22:	1ac9      	subs	r1, r1, r3
10006f24:	08ce      	lsrs	r6, r1, #3
10006f26:	4366      	muls	r6, r4
10006f28:	0c36      	lsrs	r6, r6, #16
10006f2a:	44b6      	add	lr, r6
10006f2c:	b293      	uxth	r3, r2
10006f2e:	4373      	muls	r3, r6
10006f30:	0f1f      	lsrs	r7, r3, #28
10006f32:	011b      	lsls	r3, r3, #4
10006f34:	1ac0      	subs	r0, r0, r3
10006f36:	41b9      	sbcs	r1, r7
10006f38:	0c13      	lsrs	r3, r2, #16
10006f3a:	4373      	muls	r3, r6
10006f3c:	0b1f      	lsrs	r7, r3, #12
10006f3e:	051b      	lsls	r3, r3, #20
10006f40:	1ac0      	subs	r0, r0, r3
10006f42:	41b9      	sbcs	r1, r7
10006f44:	0d86      	lsrs	r6, r0, #22
10006f46:	028f      	lsls	r7, r1, #10
10006f48:	433e      	orrs	r6, r7
10006f4a:	4366      	muls	r6, r4
10006f4c:	0c36      	lsrs	r6, r6, #16
10006f4e:	2d09      	cmp	r5, #9
10006f50:	db24      	blt.n	10006f9c <last0>
10006f52:	0a52      	lsrs	r2, r2, #9
10006f54:	4372      	muls	r2, r6
10006f56:	1a80      	subs	r0, r0, r2
10006f58:	0377      	lsls	r7, r6, #13
10006f5a:	0a46      	lsrs	r6, r0, #9
10006f5c:	4366      	muls	r6, r4
10006f5e:	0c36      	lsrs	r6, r6, #16
10006f60:	2316      	movs	r3, #22
10006f62:	1b5b      	subs	r3, r3, r5
10006f64:	40de      	lsrs	r6, r3
10006f66:	40df      	lsrs	r7, r3
10006f68:	19bf      	adds	r7, r7, r6
10006f6a:	4664      	mov	r4, ip
10006f6c:	4366      	muls	r6, r4
10006f6e:	1b82      	subs	r2, r0, r6
10006f70:	4670      	mov	r0, lr
10006f72:	3504      	adds	r5, #4
10006f74:	3306      	adds	r3, #6
10006f76:	0001      	movs	r1, r0
10006f78:	40d9      	lsrs	r1, r3
10006f7a:	40a8      	lsls	r0, r5
10006f7c:	19c0      	adds	r0, r0, r7
10006f7e:	d300      	bcc.n	10006f82 <y64_x32+0xb6>
10006f80:	3101      	adds	r1, #1
10006f82:	42a2      	cmp	r2, r4
10006f84:	d206      	bcs.n	10006f94 <y64_x32+0xc8>
10006f86:	2300      	movs	r3, #0
10006f88:	bdf0      	pop	{r4, r5, r6, r7, pc}
10006f8a:	0000      	.short	0x0000
10006f8c:	d0000000 	.word	0xd0000000
10006f90:	ffffffff 	.word	0xffffffff
10006f94:	1b12      	subs	r2, r2, r4
10006f96:	3001      	adds	r0, #1
10006f98:	d3f3      	bcc.n	10006f82 <y64_x32+0xb6>
10006f9a:	e7f1      	b.n	10006f80 <y64_x32+0xb4>

10006f9c <last0>:
10006f9c:	2709      	movs	r7, #9
10006f9e:	1b7f      	subs	r7, r7, r5
10006fa0:	40fe      	lsrs	r6, r7
10006fa2:	4664      	mov	r4, ip
10006fa4:	b2a2      	uxth	r2, r4
10006fa6:	4372      	muls	r2, r6
10006fa8:	1a80      	subs	r0, r0, r2
10006faa:	d200      	bcs.n	10006fae <last0+0x12>
10006fac:	3901      	subs	r1, #1
10006fae:	0c22      	lsrs	r2, r4, #16
10006fb0:	4372      	muls	r2, r6
10006fb2:	0c13      	lsrs	r3, r2, #16
10006fb4:	0412      	lsls	r2, r2, #16
10006fb6:	1a82      	subs	r2, r0, r2
10006fb8:	4199      	sbcs	r1, r3
10006fba:	000b      	movs	r3, r1
10006fbc:	4670      	mov	r0, lr
10006fbe:	3504      	adds	r5, #4
10006fc0:	3713      	adds	r7, #19
10006fc2:	0001      	movs	r1, r0
10006fc4:	40f9      	lsrs	r1, r7
10006fc6:	40a8      	lsls	r0, r5
10006fc8:	1980      	adds	r0, r0, r6
10006fca:	d300      	bcc.n	10006fce <last0+0x32>
10006fcc:	3101      	adds	r1, #1
10006fce:	2b00      	cmp	r3, #0
10006fd0:	d102      	bne.n	10006fd8 <last0+0x3c>
10006fd2:	42a2      	cmp	r2, r4
10006fd4:	d20a      	bcs.n	10006fec <last0+0x50>
10006fd6:	bdf0      	pop	{r4, r5, r6, r7, pc}
10006fd8:	3001      	adds	r0, #1
10006fda:	d300      	bcc.n	10006fde <last0+0x42>
10006fdc:	3101      	adds	r1, #1
10006fde:	1b12      	subs	r2, r2, r4
10006fe0:	d2fa      	bcs.n	10006fd8 <last0+0x3c>
10006fe2:	3b01      	subs	r3, #1
10006fe4:	d1f8      	bne.n	10006fd8 <last0+0x3c>
10006fe6:	42a2      	cmp	r2, r4
10006fe8:	d200      	bcs.n	10006fec <last0+0x50>
10006fea:	bdf0      	pop	{r4, r5, r6, r7, pc}
10006fec:	3001      	adds	r0, #1
10006fee:	d300      	bcc.n	10006ff2 <last0+0x56>
10006ff0:	3101      	adds	r1, #1
10006ff2:	1b12      	subs	r2, r2, r4
10006ff4:	e7f7      	b.n	10006fe6 <last0+0x4a>

10006ff6 <y64_x48>:
10006ff6:	b5f0      	push	{r4, r5, r6, r7, lr}
10006ff8:	0c1c      	lsrs	r4, r3, #16
10006ffa:	d000      	beq.n	10006ffe <y64_x48+0x8>
10006ffc:	e080      	b.n	10007100 <y64_x64>
10006ffe:	b40c      	push	{r2, r3}
10007000:	2500      	movs	r5, #0
10007002:	0a1c      	lsrs	r4, r3, #8
10007004:	d104      	bne.n	10007010 <y64_x48+0x1a>
10007006:	021b      	lsls	r3, r3, #8
10007008:	0e16      	lsrs	r6, r2, #24
1000700a:	4333      	orrs	r3, r6
1000700c:	0212      	lsls	r2, r2, #8
1000700e:	3508      	adds	r5, #8
10007010:	0b1c      	lsrs	r4, r3, #12
10007012:	d104      	bne.n	1000701e <y64_x48+0x28>
10007014:	011b      	lsls	r3, r3, #4
10007016:	0f16      	lsrs	r6, r2, #28
10007018:	4333      	orrs	r3, r6
1000701a:	0112      	lsls	r2, r2, #4
1000701c:	3504      	adds	r5, #4
1000701e:	0b9c      	lsrs	r4, r3, #14
10007020:	d104      	bne.n	1000702c <y64_x48+0x36>
10007022:	009b      	lsls	r3, r3, #2
10007024:	0f96      	lsrs	r6, r2, #30
10007026:	4333      	orrs	r3, r6
10007028:	0092      	lsls	r2, r2, #2
1000702a:	3502      	adds	r5, #2
1000702c:	0bdc      	lsrs	r4, r3, #15
1000702e:	d102      	bne.n	10007036 <y64_x48+0x40>
10007030:	1892      	adds	r2, r2, r2
10007032:	415b      	adcs	r3, r3
10007034:	3501      	adds	r5, #1
10007036:	001c      	movs	r4, r3
10007038:	1897      	adds	r7, r2, r2
1000703a:	4164      	adcs	r4, r4
1000703c:	3401      	adds	r4, #1
1000703e:	4f46      	ldr	r7, [pc, #280]	; (10007158 <y64_x64+0x58>)
10007040:	667c      	str	r4, [r7, #100]	; 0x64
10007042:	4c46      	ldr	r4, [pc, #280]	; (1000715c <y64_x64+0x5c>)
10007044:	663c      	str	r4, [r7, #96]	; 0x60
10007046:	0c0e      	lsrs	r6, r1, #16
10007048:	e7ff      	b.n	1000704a <y64_x48+0x54>
1000704a:	e7ff      	b.n	1000704c <y64_x48+0x56>
1000704c:	e7ff      	b.n	1000704e <y64_x48+0x58>
1000704e:	46c0      	nop			; (mov r8, r8)
10007050:	6f3c      	ldr	r4, [r7, #112]	; 0x70
10007052:	4366      	muls	r6, r4
10007054:	0c36      	lsrs	r6, r6, #16
10007056:	0377      	lsls	r7, r6, #13
10007058:	46be      	mov	lr, r7
1000705a:	b297      	uxth	r7, r2
1000705c:	4377      	muls	r7, r6
1000705e:	1bc0      	subs	r0, r0, r7
10007060:	d200      	bcs.n	10007064 <y64_x48+0x6e>
10007062:	3901      	subs	r1, #1
10007064:	1bc0      	subs	r0, r0, r7
10007066:	d200      	bcs.n	1000706a <y64_x48+0x74>
10007068:	3901      	subs	r1, #1
1000706a:	b29f      	uxth	r7, r3
1000706c:	4377      	muls	r7, r6
1000706e:	1bc9      	subs	r1, r1, r7
10007070:	1bc9      	subs	r1, r1, r7
10007072:	0c17      	lsrs	r7, r2, #16
10007074:	4377      	muls	r7, r6
10007076:	047e      	lsls	r6, r7, #17
10007078:	0bff      	lsrs	r7, r7, #15
1000707a:	1b80      	subs	r0, r0, r6
1000707c:	41b9      	sbcs	r1, r7
1000707e:	08ce      	lsrs	r6, r1, #3
10007080:	4366      	muls	r6, r4
10007082:	0c36      	lsrs	r6, r6, #16
10007084:	2d0c      	cmp	r5, #12
10007086:	db33      	blt.n	100070f0 <last1>
10007088:	44b6      	add	lr, r6
1000708a:	0b12      	lsrs	r2, r2, #12
1000708c:	051f      	lsls	r7, r3, #20
1000708e:	433a      	orrs	r2, r7
10007090:	0b1b      	lsrs	r3, r3, #12
10007092:	b297      	uxth	r7, r2
10007094:	4377      	muls	r7, r6
10007096:	1bc0      	subs	r0, r0, r7
10007098:	d200      	bcs.n	1000709c <y64_x48+0xa6>
1000709a:	3901      	subs	r1, #1
1000709c:	b29f      	uxth	r7, r3
1000709e:	4377      	muls	r7, r6
100070a0:	1bc9      	subs	r1, r1, r7
100070a2:	0c17      	lsrs	r7, r2, #16
100070a4:	4377      	muls	r7, r6
100070a6:	043e      	lsls	r6, r7, #16
100070a8:	0c3f      	lsrs	r7, r7, #16
100070aa:	1b80      	subs	r0, r0, r6
100070ac:	41b9      	sbcs	r1, r7
100070ae:	0d86      	lsrs	r6, r0, #22
100070b0:	028f      	lsls	r7, r1, #10
100070b2:	433e      	orrs	r6, r7
100070b4:	4366      	muls	r6, r4
100070b6:	2729      	movs	r7, #41	; 0x29
100070b8:	1b7f      	subs	r7, r7, r5
100070ba:	40fe      	lsrs	r6, r7
100070bc:	3d0c      	subs	r5, #12
100070be:	4677      	mov	r7, lr
100070c0:	40af      	lsls	r7, r5
100070c2:	19bf      	adds	r7, r7, r6
100070c4:	bc30      	pop	{r4, r5}
100070c6:	b2a2      	uxth	r2, r4
100070c8:	b2ab      	uxth	r3, r5
100070ca:	4372      	muls	r2, r6
100070cc:	4373      	muls	r3, r6
100070ce:	1a80      	subs	r0, r0, r2
100070d0:	4199      	sbcs	r1, r3
100070d2:	0c22      	lsrs	r2, r4, #16
100070d4:	4372      	muls	r2, r6
100070d6:	0c13      	lsrs	r3, r2, #16
100070d8:	0412      	lsls	r2, r2, #16
100070da:	1a80      	subs	r0, r0, r2
100070dc:	4199      	sbcs	r1, r3
100070de:	0002      	movs	r2, r0
100070e0:	000b      	movs	r3, r1
100070e2:	3701      	adds	r7, #1
100070e4:	1b00      	subs	r0, r0, r4
100070e6:	41a9      	sbcs	r1, r5
100070e8:	d2f9      	bcs.n	100070de <y64_x48+0xe8>
100070ea:	1e78      	subs	r0, r7, #1
100070ec:	2100      	movs	r1, #0
100070ee:	bdf0      	pop	{r4, r5, r6, r7, pc}

100070f0 <last1>:
100070f0:	270c      	movs	r7, #12
100070f2:	1b7f      	subs	r7, r7, r5
100070f4:	40fe      	lsrs	r6, r7
100070f6:	4677      	mov	r7, lr
100070f8:	0b7f      	lsrs	r7, r7, #13
100070fa:	40af      	lsls	r7, r5
100070fc:	19ff      	adds	r7, r7, r7
100070fe:	e7e0      	b.n	100070c2 <y64_x48+0xcc>

10007100 <y64_x64>:
10007100:	2400      	movs	r4, #0
10007102:	1c5d      	adds	r5, r3, #1
10007104:	d007      	beq.n	10007116 <y64_x64+0x16>
10007106:	4f14      	ldr	r7, [pc, #80]	; (10007158 <y64_x64+0x58>)
10007108:	667d      	str	r5, [r7, #100]	; 0x64
1000710a:	6639      	str	r1, [r7, #96]	; 0x60
1000710c:	e7ff      	b.n	1000710e <y64_x64+0xe>
1000710e:	e7ff      	b.n	10007110 <y64_x64+0x10>
10007110:	e7ff      	b.n	10007112 <y64_x64+0x12>
10007112:	e7ff      	b.n	10007114 <y64_x64+0x14>
10007114:	6f3c      	ldr	r4, [r7, #112]	; 0x70
10007116:	b295      	uxth	r5, r2
10007118:	b29e      	uxth	r6, r3
1000711a:	4365      	muls	r5, r4
1000711c:	4366      	muls	r6, r4
1000711e:	1b40      	subs	r0, r0, r5
10007120:	41b1      	sbcs	r1, r6
10007122:	0c15      	lsrs	r5, r2, #16
10007124:	0c1e      	lsrs	r6, r3, #16
10007126:	4365      	muls	r5, r4
10007128:	4366      	muls	r6, r4
1000712a:	0436      	lsls	r6, r6, #16
1000712c:	0c2f      	lsrs	r7, r5, #16
1000712e:	433e      	orrs	r6, r7
10007130:	042d      	lsls	r5, r5, #16
10007132:	1b40      	subs	r0, r0, r5
10007134:	41b1      	sbcs	r1, r6
10007136:	4299      	cmp	r1, r3
10007138:	d204      	bcs.n	10007144 <y64_x64+0x44>
1000713a:	0002      	movs	r2, r0
1000713c:	000b      	movs	r3, r1
1000713e:	0020      	movs	r0, r4
10007140:	2100      	movs	r1, #0
10007142:	bdf0      	pop	{r4, r5, r6, r7, pc}
10007144:	d101      	bne.n	1000714a <y64_x64+0x4a>
10007146:	4290      	cmp	r0, r2
10007148:	d3f7      	bcc.n	1000713a <y64_x64+0x3a>
1000714a:	1a80      	subs	r0, r0, r2
1000714c:	4199      	sbcs	r1, r3
1000714e:	3401      	adds	r4, #1
10007150:	4299      	cmp	r1, r3
10007152:	d3f2      	bcc.n	1000713a <y64_x64+0x3a>
10007154:	e7f6      	b.n	10007144 <y64_x64+0x44>
10007156:	0000      	.short	0x0000
10007158:	d0000000 	.word	0xd0000000
1000715c:	ffffffff 	.word	0xffffffff

10007160 <__wrap___aeabi_drsub>:
10007160:	4048      	eors	r0, r1
10007162:	4041      	eors	r1, r0
10007164:	4048      	eors	r0, r1

10007166 <__wrap___aeabi_dsub>:
10007166:	b418      	push	{r3, r4}
10007168:	4b1b      	ldr	r3, [pc, #108]	; (100071d8 <__wrap___aeabi_dmul+0x12>)
1000716a:	685b      	ldr	r3, [r3, #4]
1000716c:	46fc      	mov	ip, pc
1000716e:	9301      	str	r3, [sp, #4]
10007170:	bd08      	pop	{r3, pc}
10007172:	df04      	.short	0xdf04
10007174:	1000743b 	.word	0x1000743b

10007178 <__wrap___aeabi_dadd>:
10007178:	b418      	push	{r3, r4}
1000717a:	4b17      	ldr	r3, [pc, #92]	; (100071d8 <__wrap___aeabi_dmul+0x12>)
1000717c:	681b      	ldr	r3, [r3, #0]
1000717e:	46fc      	mov	ip, pc
10007180:	9301      	str	r3, [sp, #4]
10007182:	bd08      	pop	{r3, pc}
10007184:	7445df00 	.word	0x7445df00
10007188:	1000      	.short	0x1000

1000718a <__wrap___aeabi_ddiv>:
1000718a:	4694      	mov	ip, r2
1000718c:	4a13      	ldr	r2, [pc, #76]	; (100071dc <__wrap___aeabi_dmul+0x16>)
1000718e:	6f92      	ldr	r2, [r2, #120]	; 0x78
10007190:	0892      	lsrs	r2, r2, #2
10007192:	d209      	bcs.n	100071a8 <ddiv_save_state>
10007194:	4662      	mov	r2, ip

10007196 <ddiv_shim_call>:
10007196:	b418      	push	{r3, r4}
10007198:	4b0f      	ldr	r3, [pc, #60]	; (100071d8 <__wrap___aeabi_dmul+0x12>)
1000719a:	68db      	ldr	r3, [r3, #12]
1000719c:	46fc      	mov	ip, pc
1000719e:	9301      	str	r3, [sp, #4]
100071a0:	bd08      	pop	{r3, pc}
100071a2:	df0c      	.short	0xdf0c
100071a4:	100076fd 	.word	0x100076fd

100071a8 <ddiv_save_state>:
100071a8:	4a0c      	ldr	r2, [pc, #48]	; (100071dc <__wrap___aeabi_dmul+0x16>)
100071aa:	b5f0      	push	{r4, r5, r6, r7, lr}
100071ac:	6e14      	ldr	r4, [r2, #96]	; 0x60
100071ae:	6e55      	ldr	r5, [r2, #100]	; 0x64
100071b0:	6f57      	ldr	r7, [r2, #116]	; 0x74
100071b2:	6f16      	ldr	r6, [r2, #112]	; 0x70
100071b4:	4662      	mov	r2, ip
100071b6:	f7ff ffee 	bl	10007196 <ddiv_shim_call>
100071ba:	4a08      	ldr	r2, [pc, #32]	; (100071dc <__wrap___aeabi_dmul+0x16>)
100071bc:	6614      	str	r4, [r2, #96]	; 0x60
100071be:	6655      	str	r5, [r2, #100]	; 0x64
100071c0:	6757      	str	r7, [r2, #116]	; 0x74
100071c2:	6716      	str	r6, [r2, #112]	; 0x70
100071c4:	bdf0      	pop	{r4, r5, r6, r7, pc}

100071c6 <__wrap___aeabi_dmul>:
100071c6:	b418      	push	{r3, r4}
100071c8:	4b03      	ldr	r3, [pc, #12]	; (100071d8 <__wrap___aeabi_dmul+0x12>)
100071ca:	689b      	ldr	r3, [r3, #8]
100071cc:	46fc      	mov	ip, pc
100071ce:	9301      	str	r3, [sp, #4]
100071d0:	bd08      	pop	{r3, pc}
100071d2:	df08      	.short	0xdf08
100071d4:	100075a1 	.word	0x100075a1
100071d8:	20001d08 	.word	0x20001d08
100071dc:	d0000000 	.word	0xd0000000

100071e0 <__wrap___aeabi_cdrcmple>:
100071e0:	b5ff      	push	{r0, r1, r2, r3, r4, r5, r6, r7, lr}
100071e2:	4050      	eors	r0, r2
100071e4:	4042      	eors	r2, r0
100071e6:	4050      	eors	r0, r2
100071e8:	4059      	eors	r1, r3
100071ea:	404b      	eors	r3, r1
100071ec:	4059      	eors	r1, r3
100071ee:	e000      	b.n	100071f2 <__aeabi_dfcmple_guts>

100071f0 <__wrap___aeabi_cdcmpeq>:
100071f0:	b5ff      	push	{r0, r1, r2, r3, r4, r5, r6, r7, lr}

100071f2 <__aeabi_dfcmple_guts>:
100071f2:	4f15      	ldr	r7, [pc, #84]	; (10007248 <__aeabi_dfcmple_guts+0x56>)
100071f4:	004c      	lsls	r4, r1, #1
100071f6:	0d64      	lsrs	r4, r4, #21
100071f8:	d003      	beq.n	10007202 <__aeabi_dfcmple_guts+0x10>
100071fa:	42bc      	cmp	r4, r7
100071fc:	d104      	bne.n	10007208 <__aeabi_dfcmple_guts+0x16>
100071fe:	030c      	lsls	r4, r1, #12
10007200:	d814      	bhi.n	1000722c <__aeabi_dfcmple_guts+0x3a>
10007202:	2000      	movs	r0, #0
10007204:	0d09      	lsrs	r1, r1, #20
10007206:	0509      	lsls	r1, r1, #20
10007208:	005c      	lsls	r4, r3, #1
1000720a:	0d64      	lsrs	r4, r4, #21
1000720c:	d003      	beq.n	10007216 <__aeabi_dfcmple_guts+0x24>
1000720e:	42bc      	cmp	r4, r7
10007210:	d104      	bne.n	1000721c <__aeabi_dfcmple_guts+0x2a>
10007212:	031c      	lsls	r4, r3, #12
10007214:	d80a      	bhi.n	1000722c <__aeabi_dfcmple_guts+0x3a>
10007216:	2200      	movs	r2, #0
10007218:	0d1b      	lsrs	r3, r3, #20
1000721a:	051b      	lsls	r3, r3, #20
1000721c:	2601      	movs	r6, #1
1000721e:	404b      	eors	r3, r1
10007220:	d409      	bmi.n	10007236 <__aeabi_dfcmple_guts+0x44>
10007222:	404b      	eors	r3, r1
10007224:	d503      	bpl.n	1000722e <__aeabi_dfcmple_guts+0x3c>
10007226:	428b      	cmp	r3, r1
10007228:	d100      	bne.n	1000722c <__aeabi_dfcmple_guts+0x3a>
1000722a:	4282      	cmp	r2, r0
1000722c:	bdff      	pop	{r0, r1, r2, r3, r4, r5, r6, r7, pc}
1000722e:	4299      	cmp	r1, r3
10007230:	d1fc      	bne.n	1000722c <__aeabi_dfcmple_guts+0x3a>
10007232:	4290      	cmp	r0, r2
10007234:	bdff      	pop	{r0, r1, r2, r3, r4, r5, r6, r7, pc}
10007236:	430b      	orrs	r3, r1
10007238:	18db      	adds	r3, r3, r3
1000723a:	4303      	orrs	r3, r0
1000723c:	4313      	orrs	r3, r2
1000723e:	d0f5      	beq.n	1000722c <__aeabi_dfcmple_guts+0x3a>
10007240:	43c9      	mvns	r1, r1
10007242:	1849      	adds	r1, r1, r1
10007244:	bdff      	pop	{r0, r1, r2, r3, r4, r5, r6, r7, pc}
10007246:	0000      	.short	0x0000
10007248:	000007ff 	.word	0x000007ff

1000724c <__wrap___aeabi_dcmplt>:
1000724c:	b500      	push	{lr}
1000724e:	f7ff ffcf 	bl	100071f0 <__wrap___aeabi_cdcmpeq>
10007252:	4180      	sbcs	r0, r0
10007254:	bd00      	pop	{pc}
10007256:	46c0      	nop			; (mov r8, r8)

10007258 <__wrap___aeabi_dcmple>:
10007258:	b500      	push	{lr}
1000725a:	f7ff ffc9 	bl	100071f0 <__wrap___aeabi_cdcmpeq>
1000725e:	d901      	bls.n	10007264 <__wrap___aeabi_dcmple+0xc>
10007260:	2000      	movs	r0, #0
10007262:	bd00      	pop	{pc}
10007264:	2001      	movs	r0, #1
10007266:	bd00      	pop	{pc}

10007268 <__wrap___aeabi_dcmpge>:
10007268:	b500      	push	{lr}
1000726a:	f7ff ffb9 	bl	100071e0 <__wrap___aeabi_cdrcmple>
1000726e:	d901      	bls.n	10007274 <__wrap___aeabi_dcmpge+0xc>
10007270:	2000      	movs	r0, #0
10007272:	bd00      	pop	{pc}
10007274:	2001      	movs	r0, #1
10007276:	bd00      	pop	{pc}

10007278 <__wrap___aeabi_dcmpgt>:
10007278:	b500      	push	{lr}
1000727a:	f7ff ffb1 	bl	100071e0 <__wrap___aeabi_cdrcmple>
1000727e:	4180      	sbcs	r0, r0
10007280:	bd00      	pop	{pc}

10007282 <__wrap___aeabi_dcmpun>:
10007282:	2001      	movs	r0, #1
10007284:	0540      	lsls	r0, r0, #21
10007286:	004a      	lsls	r2, r1, #1
10007288:	1812      	adds	r2, r2, r0
1000728a:	d804      	bhi.n	10007296 <__wrap___aeabi_dcmpun+0x14>
1000728c:	005a      	lsls	r2, r3, #1
1000728e:	1812      	adds	r2, r2, r0
10007290:	d801      	bhi.n	10007296 <__wrap___aeabi_dcmpun+0x14>
10007292:	2000      	movs	r0, #0
10007294:	4770      	bx	lr
10007296:	2001      	movs	r0, #1
10007298:	4770      	bx	lr
1000729a:	2000      	movs	r0, #0
1000729c:	4770      	bx	lr
	...

100072a0 <__wrap___aeabi_ui2d>:
100072a0:	2100      	movs	r1, #0
100072a2:	2800      	cmp	r0, #0
100072a4:	d105      	bne.n	100072b2 <__wrap___aeabi_i2d+0xa>
100072a6:	4770      	bx	lr

100072a8 <__wrap___aeabi_i2d>:
100072a8:	17c1      	asrs	r1, r0, #31
100072aa:	4048      	eors	r0, r1
100072ac:	1a40      	subs	r0, r0, r1
100072ae:	d0fa      	beq.n	100072a6 <__wrap___aeabi_ui2d+0x6>
100072b0:	07c9      	lsls	r1, r1, #31
100072b2:	b513      	push	{r0, r1, r4, lr}
100072b4:	4b06      	ldr	r3, [pc, #24]	; (100072d0 <__wrap___aeabi_i2d+0x28>)
100072b6:	681b      	ldr	r3, [r3, #0]
100072b8:	4798      	blx	r3
100072ba:	bc0c      	pop	{r2, r3}
100072bc:	1c44      	adds	r4, r0, #1
100072be:	40a2      	lsls	r2, r4
100072c0:	0510      	lsls	r0, r2, #20
100072c2:	0b12      	lsrs	r2, r2, #12
100072c4:	4903      	ldr	r1, [pc, #12]	; (100072d4 <__wrap___aeabi_i2d+0x2c>)
100072c6:	1b09      	subs	r1, r1, r4
100072c8:	0509      	lsls	r1, r1, #20
100072ca:	4319      	orrs	r1, r3
100072cc:	4311      	orrs	r1, r2
100072ce:	bd10      	pop	{r4, pc}
100072d0:	20001e08 	.word	0x20001e08
100072d4:	0000041f 	.word	0x0000041f

100072d8 <__wrap___aeabi_d2iz>:
100072d8:	b510      	push	{r4, lr}
100072da:	004c      	lsls	r4, r1, #1
100072dc:	0d62      	lsrs	r2, r4, #21
100072de:	2380      	movs	r3, #128	; 0x80
100072e0:	18d2      	adds	r2, r2, r3
100072e2:	00db      	lsls	r3, r3, #3
100072e4:	1ad2      	subs	r2, r2, r3
100072e6:	055b      	lsls	r3, r3, #21
100072e8:	2a7e      	cmp	r2, #126	; 0x7e
100072ea:	dd10      	ble.n	1000730e <__wrap___aeabi_d2iz+0x36>
100072ec:	3a9e      	subs	r2, #158	; 0x9e
100072ee:	da13      	bge.n	10007318 <__wrap___aeabi_d2iz+0x40>
100072f0:	17cc      	asrs	r4, r1, #31
100072f2:	0309      	lsls	r1, r1, #12
100072f4:	0849      	lsrs	r1, r1, #1
100072f6:	4319      	orrs	r1, r3
100072f8:	4252      	negs	r2, r2
100072fa:	40d1      	lsrs	r1, r2
100072fc:	0064      	lsls	r4, r4, #1
100072fe:	3401      	adds	r4, #1
10007300:	3215      	adds	r2, #21
10007302:	2a20      	cmp	r2, #32
10007304:	da05      	bge.n	10007312 <__wrap___aeabi_d2iz+0x3a>
10007306:	40d0      	lsrs	r0, r2
10007308:	4308      	orrs	r0, r1
1000730a:	4360      	muls	r0, r4
1000730c:	bd10      	pop	{r4, pc}
1000730e:	2000      	movs	r0, #0
10007310:	bd10      	pop	{r4, pc}
10007312:	4608      	mov	r0, r1
10007314:	4360      	muls	r0, r4
10007316:	bd10      	pop	{r4, pc}
10007318:	0fc8      	lsrs	r0, r1, #31
1000731a:	18c0      	adds	r0, r0, r3
1000731c:	3801      	subs	r0, #1
1000731e:	bd10      	pop	{r4, pc}

10007320 <__wrap___aeabi_d2uiz>:
10007320:	b418      	push	{r3, r4}
10007322:	4b04      	ldr	r3, [pc, #16]	; (10007334 <__wrap___aeabi_d2uiz+0x14>)
10007324:	6a5b      	ldr	r3, [r3, #36]	; 0x24
10007326:	46fc      	mov	ip, pc
10007328:	9301      	str	r3, [sp, #4]
1000732a:	bd08      	pop	{r3, pc}
1000732c:	78addf24 	.word	0x78addf24
10007330:	00001000 	.word	0x00001000
10007334:	20001d08 	.word	0x20001d08

10007338 <__aeabi_double_init>:
10007338:	b570      	push	{r4, r5, r6, lr}
1000733a:	2313      	movs	r3, #19
1000733c:	781c      	ldrb	r4, [r3, #0]
1000733e:	2c01      	cmp	r4, #1
10007340:	d014      	beq.n	1000736c <__aeabi_double_init+0x34>
10007342:	2c01      	cmp	r4, #1
10007344:	dc14      	bgt.n	10007370 <__aeabi_double_init+0x38>
10007346:	2c02      	cmp	r4, #2
10007348:	dc02      	bgt.n	10007350 <__aeabi_double_init+0x18>
1000734a:	4b1f      	ldr	r3, [pc, #124]	; (100073c8 <__aeabi_double_init+0x90>)
1000734c:	4a1f      	ldr	r2, [pc, #124]	; (100073cc <__aeabi_double_init+0x94>)
1000734e:	6493      	str	r3, [r2, #72]	; 0x48
10007350:	481f      	ldr	r0, [pc, #124]	; (100073d0 <__aeabi_double_init+0x98>)
10007352:	f7ff fc79 	bl	10006c48 <rom_func_lookup>
10007356:	4b1f      	ldr	r3, [pc, #124]	; (100073d4 <__aeabi_double_init+0x9c>)
10007358:	6018      	str	r0, [r3, #0]
1000735a:	bd70      	pop	{r4, r5, r6, pc}
1000735c:	491a      	ldr	r1, [pc, #104]	; (100073c8 <__aeabi_double_init+0x90>)
1000735e:	4a1b      	ldr	r2, [pc, #108]	; (100073cc <__aeabi_double_init+0x94>)
10007360:	0098      	lsls	r0, r3, #2
10007362:	5081      	str	r1, [r0, r2]
10007364:	3301      	adds	r3, #1
10007366:	2b1f      	cmp	r3, #31
10007368:	d9f8      	bls.n	1000735c <__aeabi_double_init+0x24>
1000736a:	e7ea      	b.n	10007342 <__aeabi_double_init+0xa>
1000736c:	2300      	movs	r3, #0
1000736e:	e7fa      	b.n	10007366 <__aeabi_double_init+0x2e>
10007370:	4819      	ldr	r0, [pc, #100]	; (100073d8 <__aeabi_double_init+0xa0>)
10007372:	f7ff fc71 	bl	10006c58 <rom_data_lookup>
10007376:	0005      	movs	r5, r0
10007378:	4818      	ldr	r0, [pc, #96]	; (100073dc <__aeabi_double_init+0xa4>)
1000737a:	f7ff fc6d 	bl	10006c58 <rom_data_lookup>
1000737e:	3802      	subs	r0, #2
10007380:	7803      	ldrb	r3, [r0, #0]
10007382:	009b      	lsls	r3, r3, #2
10007384:	2b7f      	cmp	r3, #127	; 0x7f
10007386:	dd19      	ble.n	100073bc <__aeabi_double_init+0x84>
10007388:	4810      	ldr	r0, [pc, #64]	; (100073cc <__aeabi_double_init+0x94>)
1000738a:	2280      	movs	r2, #128	; 0x80
1000738c:	0029      	movs	r1, r5
1000738e:	f000 fc07 	bl	10007ba0 <__wrap___aeabi_memcpy>
10007392:	2c02      	cmp	r4, #2
10007394:	d1d7      	bne.n	10007346 <__aeabi_double_init+0xe>
10007396:	4b12      	ldr	r3, [pc, #72]	; (100073e0 <__aeabi_double_init+0xa8>)
10007398:	881a      	ldrh	r2, [r3, #0]
1000739a:	23b5      	movs	r3, #181	; 0xb5
1000739c:	021b      	lsls	r3, r3, #8
1000739e:	429a      	cmp	r2, r3
100073a0:	d109      	bne.n	100073b6 <__aeabi_double_init+0x7e>
100073a2:	4b10      	ldr	r3, [pc, #64]	; (100073e4 <__aeabi_double_init+0xac>)
100073a4:	881a      	ldrh	r2, [r3, #0]
100073a6:	4b10      	ldr	r3, [pc, #64]	; (100073e8 <__aeabi_double_init+0xb0>)
100073a8:	429a      	cmp	r2, r3
100073aa:	d104      	bne.n	100073b6 <__aeabi_double_init+0x7e>
100073ac:	4b0f      	ldr	r3, [pc, #60]	; (100073ec <__aeabi_double_init+0xb4>)
100073ae:	881a      	ldrh	r2, [r3, #0]
100073b0:	4b0f      	ldr	r3, [pc, #60]	; (100073f0 <__aeabi_double_init+0xb8>)
100073b2:	429a      	cmp	r2, r3
100073b4:	d0c7      	beq.n	10007346 <__aeabi_double_init+0xe>
100073b6:	2000      	movs	r0, #0
100073b8:	f7fe fb70 	bl	10005a9c <panic>
100073bc:	4b0d      	ldr	r3, [pc, #52]	; (100073f4 <__aeabi_double_init+0xbc>)
100073be:	4a0e      	ldr	r2, [pc, #56]	; (100073f8 <__aeabi_double_init+0xc0>)
100073c0:	480e      	ldr	r0, [pc, #56]	; (100073fc <__aeabi_double_init+0xc4>)
100073c2:	2132      	movs	r1, #50	; 0x32
100073c4:	f7fe fad0 	bl	10005968 <__assert_func>
100073c8:	10007401 	.word	0x10007401
100073cc:	20001d08 	.word	0x20001d08
100073d0:	0000334c 	.word	0x0000334c
100073d4:	20001e08 	.word	0x20001e08
100073d8:	00004453 	.word	0x00004453
100073dc:	00004653 	.word	0x00004653
100073e0:	00003854 	.word	0x00003854
100073e4:	000038d8 	.word	0x000038d8
100073e8:	00004649 	.word	0x00004649
100073ec:	0000389c 	.word	0x0000389c
100073f0:	00004659 	.word	0x00004659
100073f4:	1000bbe0 	.word	0x1000bbe0
100073f8:	1000bc88 	.word	0x1000bc88
100073fc:	1000bc40 	.word	0x1000bc40

10007400 <double_table_shim_on_use_helper>:
10007400:	b507      	push	{r0, r1, r2, lr}
10007402:	4660      	mov	r0, ip
10007404:	2800      	cmp	r0, #0
10007406:	d100      	bne.n	1000740a <double_table_shim_on_use_helper+0xa>
10007408:	be00      	bkpt	0x0000
1000740a:	8801      	ldrh	r1, [r0, #0]
1000740c:	0a0a      	lsrs	r2, r1, #8
1000740e:	3002      	adds	r0, #2
10007410:	2adf      	cmp	r2, #223	; 0xdf
10007412:	d1fa      	bne.n	1000740a <double_table_shim_on_use_helper+0xa>
10007414:	b2c9      	uxtb	r1, r1
10007416:	0882      	lsrs	r2, r0, #2
10007418:	d304      	bcc.n	10007424 <double_table_shim_on_use_helper+0x24>
1000741a:	8802      	ldrh	r2, [r0, #0]
1000741c:	8840      	ldrh	r0, [r0, #2]
1000741e:	0400      	lsls	r0, r0, #16
10007420:	4310      	orrs	r0, r2
10007422:	e000      	b.n	10007426 <double_table_shim_on_use_helper+0x26>
10007424:	6800      	ldr	r0, [r0, #0]
10007426:	4a02      	ldr	r2, [pc, #8]	; (10007430 <double_table_shim_on_use_helper+0x30>)
10007428:	5050      	str	r0, [r2, r1]
1000742a:	9003      	str	r0, [sp, #12]
1000742c:	bd07      	pop	{r0, r1, r2, pc}
1000742e:	0000      	.short	0x0000
10007430:	20001d08 	.word	0x20001d08

10007434 <drsub_shim>:
10007434:	b40f      	push	{r0, r1, r2, r3}
10007436:	bc03      	pop	{r0, r1}
10007438:	bc0c      	pop	{r2, r3}

1000743a <dsub_shim>:
1000743a:	b5f0      	push	{r4, r5, r6, r7, lr}
1000743c:	2401      	movs	r4, #1
1000743e:	07e4      	lsls	r4, r4, #31
10007440:	4063      	eors	r3, r4
10007442:	e000      	b.n	10007446 <da_entry>

10007444 <dadd_shim>:
10007444:	b5f0      	push	{r4, r5, r6, r7, lr}

10007446 <da_entry>:
10007446:	0d0c      	lsrs	r4, r1, #20
10007448:	0fcf      	lsrs	r7, r1, #31
1000744a:	1e66      	subs	r6, r4, #1
1000744c:	0536      	lsls	r6, r6, #20
1000744e:	1b89      	subs	r1, r1, r6
10007450:	0564      	lsls	r4, r4, #21
10007452:	d303      	bcc.n	1000745c <l7_1>
10007454:	43c9      	mvns	r1, r1
10007456:	4240      	negs	r0, r0
10007458:	d300      	bcc.n	1000745c <l7_1>
1000745a:	3101      	adds	r1, #1

1000745c <l7_1>:
1000745c:	0d64      	lsrs	r4, r4, #21
1000745e:	d003      	beq.n	10007468 <l7_2>
10007460:	1c66      	adds	r6, r4, #1
10007462:	0af6      	lsrs	r6, r6, #11
10007464:	d007      	beq.n	10007476 <l7_3>
10007466:	1be4      	subs	r4, r4, r7

10007468 <l7_2>:
10007468:	2000      	movs	r0, #0
1000746a:	007f      	lsls	r7, r7, #1
1000746c:	1c79      	adds	r1, r7, #1
1000746e:	0789      	lsls	r1, r1, #30
10007470:	1289      	asrs	r1, r1, #10
10007472:	3c80      	subs	r4, #128	; 0x80
10007474:	0324      	lsls	r4, r4, #12

10007476 <l7_3>:
10007476:	0d1d      	lsrs	r5, r3, #20
10007478:	0fdf      	lsrs	r7, r3, #31
1000747a:	1e6e      	subs	r6, r5, #1
1000747c:	0536      	lsls	r6, r6, #20
1000747e:	1b9b      	subs	r3, r3, r6
10007480:	056d      	lsls	r5, r5, #21
10007482:	d303      	bcc.n	1000748c <l8_1>
10007484:	43db      	mvns	r3, r3
10007486:	4252      	negs	r2, r2
10007488:	d300      	bcc.n	1000748c <l8_1>
1000748a:	3301      	adds	r3, #1

1000748c <l8_1>:
1000748c:	0d6d      	lsrs	r5, r5, #21
1000748e:	d003      	beq.n	10007498 <l8_2>
10007490:	1c6e      	adds	r6, r5, #1
10007492:	0af6      	lsrs	r6, r6, #11
10007494:	d007      	beq.n	100074a6 <l8_3>
10007496:	1bed      	subs	r5, r5, r7

10007498 <l8_2>:
10007498:	2200      	movs	r2, #0
1000749a:	007f      	lsls	r7, r7, #1
1000749c:	1c7b      	adds	r3, r7, #1
1000749e:	079b      	lsls	r3, r3, #30
100074a0:	129b      	asrs	r3, r3, #10
100074a2:	3d80      	subs	r5, #128	; 0x80
100074a4:	032d      	lsls	r5, r5, #12

100074a6 <l8_3>:
100074a6:	1b2f      	subs	r7, r5, r4
100074a8:	1b66      	subs	r6, r4, r5
100074aa:	d458      	bmi.n	1000755e <da_ygtx>
100074ac:	46a4      	mov	ip, r4
100074ae:	2e20      	cmp	r6, #32
100074b0:	da46      	bge.n	10007540 <da_xrgty>
100074b2:	3720      	adds	r7, #32
100074b4:	0014      	movs	r4, r2
100074b6:	40bc      	lsls	r4, r7

100074b8 <da_xgty0>:
100074b8:	001d      	movs	r5, r3
100074ba:	40bd      	lsls	r5, r7
100074bc:	40f2      	lsrs	r2, r6
100074be:	4133      	asrs	r3, r6
100074c0:	432a      	orrs	r2, r5

100074c2 <da_add>:
100074c2:	1880      	adds	r0, r0, r2
100074c4:	4159      	adcs	r1, r3

100074c6 <da_pack>:
100074c6:	0fcb      	lsrs	r3, r1, #31
100074c8:	d005      	beq.n	100074d6 <da_pack+0x10>
100074ca:	43c9      	mvns	r1, r1
100074cc:	43c0      	mvns	r0, r0
100074ce:	2200      	movs	r2, #0
100074d0:	4264      	negs	r4, r4
100074d2:	4150      	adcs	r0, r2
100074d4:	4151      	adcs	r1, r2
100074d6:	4662      	mov	r2, ip
100074d8:	0d4d      	lsrs	r5, r1, #21
100074da:	d128      	bne.n	1000752e <da_0>
100074dc:	0d0d      	lsrs	r5, r1, #20
100074de:	d107      	bne.n	100074f0 <da_1>
100074e0:	2800      	cmp	r0, #0
100074e2:	d01f      	beq.n	10007524 <da_5>

100074e4 <da_2>:
100074e4:	1924      	adds	r4, r4, r4
100074e6:	4140      	adcs	r0, r0
100074e8:	4149      	adcs	r1, r1
100074ea:	3a01      	subs	r2, #1
100074ec:	0d0d      	lsrs	r5, r1, #20
100074ee:	d0f9      	beq.n	100074e4 <da_2>

100074f0 <da_1>:
100074f0:	0064      	lsls	r4, r4, #1
100074f2:	d306      	bcc.n	10007502 <da_3>

100074f4 <da_4>:
100074f4:	3001      	adds	r0, #1
100074f6:	d300      	bcc.n	100074fa <da_4+0x6>
100074f8:	3101      	adds	r1, #1
100074fa:	2c00      	cmp	r4, #0
100074fc:	d101      	bne.n	10007502 <da_3>
100074fe:	0840      	lsrs	r0, r0, #1
10007500:	0040      	lsls	r0, r0, #1

10007502 <da_3>:
10007502:	3a01      	subs	r2, #1
10007504:	d40b      	bmi.n	1000751e <da_6>
10007506:	1c94      	adds	r4, r2, #2
10007508:	0ae4      	lsrs	r4, r4, #11
1000750a:	d104      	bne.n	10007516 <da_7>
1000750c:	0512      	lsls	r2, r2, #20
1000750e:	4411      	add	r1, r2
10007510:	07db      	lsls	r3, r3, #31
10007512:	4419      	add	r1, r3
10007514:	bdf0      	pop	{r4, r5, r6, r7, pc}

10007516 <da_7>:
10007516:	07d9      	lsls	r1, r3, #31
10007518:	4b20      	ldr	r3, [pc, #128]	; (1000759c <da_xmgty+0x4>)
1000751a:	4319      	orrs	r1, r3
1000751c:	e000      	b.n	10007520 <da_6+0x2>

1000751e <da_6>:
1000751e:	07d9      	lsls	r1, r3, #31
10007520:	2000      	movs	r0, #0
10007522:	bdf0      	pop	{r4, r5, r6, r7, pc}

10007524 <da_5>:
10007524:	2900      	cmp	r1, #0
10007526:	d1dd      	bne.n	100074e4 <da_2>
10007528:	2c00      	cmp	r4, #0
1000752a:	d1db      	bne.n	100074e4 <da_2>
1000752c:	bdf0      	pop	{r4, r5, r6, r7, pc}

1000752e <da_0>:
1000752e:	3201      	adds	r2, #1
10007530:	07c6      	lsls	r6, r0, #31
10007532:	0840      	lsrs	r0, r0, #1
10007534:	07cd      	lsls	r5, r1, #31
10007536:	4328      	orrs	r0, r5
10007538:	0849      	lsrs	r1, r1, #1
1000753a:	2e00      	cmp	r6, #0
1000753c:	d0e1      	beq.n	10007502 <da_3>
1000753e:	e7d9      	b.n	100074f4 <da_4>

10007540 <da_xrgty>:
10007540:	2e3c      	cmp	r6, #60	; 0x3c
10007542:	da29      	bge.n	10007598 <da_xmgty>
10007544:	3e20      	subs	r6, #32
10007546:	3740      	adds	r7, #64	; 0x40
10007548:	0014      	movs	r4, r2
1000754a:	40bc      	lsls	r4, r7
1000754c:	d000      	beq.n	10007550 <da_xrgty+0x10>
1000754e:	2401      	movs	r4, #1
10007550:	40f2      	lsrs	r2, r6
10007552:	4314      	orrs	r4, r2
10007554:	001a      	movs	r2, r3
10007556:	40bb      	lsls	r3, r7
10007558:	431c      	orrs	r4, r3
1000755a:	17d3      	asrs	r3, r2, #31
1000755c:	e7ac      	b.n	100074b8 <da_xgty0>

1000755e <da_ygtx>:
1000755e:	46ac      	mov	ip, r5
10007560:	2f20      	cmp	r7, #32
10007562:	da08      	bge.n	10007576 <da_yrgtx>
10007564:	3620      	adds	r6, #32
10007566:	0004      	movs	r4, r0
10007568:	40b4      	lsls	r4, r6

1000756a <da_ygtx0>:
1000756a:	000d      	movs	r5, r1
1000756c:	40b5      	lsls	r5, r6
1000756e:	40f8      	lsrs	r0, r7
10007570:	4139      	asrs	r1, r7
10007572:	4328      	orrs	r0, r5
10007574:	e7a5      	b.n	100074c2 <da_add>

10007576 <da_yrgtx>:
10007576:	2f3c      	cmp	r7, #60	; 0x3c
10007578:	da0c      	bge.n	10007594 <da_ymgtx>
1000757a:	3f20      	subs	r7, #32
1000757c:	3640      	adds	r6, #64	; 0x40
1000757e:	0004      	movs	r4, r0
10007580:	40b4      	lsls	r4, r6
10007582:	d000      	beq.n	10007586 <da_yrgtx+0x10>
10007584:	2401      	movs	r4, #1
10007586:	40f8      	lsrs	r0, r7
10007588:	4304      	orrs	r4, r0
1000758a:	0008      	movs	r0, r1
1000758c:	40b1      	lsls	r1, r6
1000758e:	430c      	orrs	r4, r1
10007590:	17c1      	asrs	r1, r0, #31
10007592:	e7ea      	b.n	1000756a <da_ygtx0>

10007594 <da_ymgtx>:
10007594:	0010      	movs	r0, r2
10007596:	0019      	movs	r1, r3

10007598 <da_xmgty>:
10007598:	2400      	movs	r4, #0
1000759a:	e794      	b.n	100074c6 <da_pack>
1000759c:	7ff00000 	.word	0x7ff00000

100075a0 <dmul_shim>:
100075a0:	b5f0      	push	{r4, r5, r6, r7, lr}
100075a2:	0d0c      	lsrs	r4, r1, #20
100075a4:	1e66      	subs	r6, r4, #1
100075a6:	0536      	lsls	r6, r6, #20
100075a8:	1b89      	subs	r1, r1, r6
100075aa:	0ae6      	lsrs	r6, r4, #11
100075ac:	0564      	lsls	r4, r4, #21
100075ae:	0d64      	lsrs	r4, r4, #21
100075b0:	d002      	beq.n	100075b8 <l11_1>
100075b2:	1c65      	adds	r5, r4, #1
100075b4:	0aed      	lsrs	r5, r5, #11
100075b6:	d004      	beq.n	100075c2 <l11_2>

100075b8 <l11_1>:
100075b8:	2000      	movs	r0, #0
100075ba:	2101      	movs	r1, #1
100075bc:	0509      	lsls	r1, r1, #20
100075be:	3c80      	subs	r4, #128	; 0x80
100075c0:	0324      	lsls	r4, r4, #12

100075c2 <l11_2>:
100075c2:	46a4      	mov	ip, r4
100075c4:	0d1c      	lsrs	r4, r3, #20
100075c6:	1e67      	subs	r7, r4, #1
100075c8:	053f      	lsls	r7, r7, #20
100075ca:	1bdb      	subs	r3, r3, r7
100075cc:	0ae7      	lsrs	r7, r4, #11
100075ce:	0564      	lsls	r4, r4, #21
100075d0:	0d64      	lsrs	r4, r4, #21
100075d2:	d002      	beq.n	100075da <l12_1>
100075d4:	1c65      	adds	r5, r4, #1
100075d6:	0aed      	lsrs	r5, r5, #11
100075d8:	d004      	beq.n	100075e4 <l12_2>

100075da <l12_1>:
100075da:	2200      	movs	r2, #0
100075dc:	2301      	movs	r3, #1
100075de:	051b      	lsls	r3, r3, #20
100075e0:	3c80      	subs	r4, #128	; 0x80
100075e2:	0324      	lsls	r4, r4, #12

100075e4 <l12_2>:
100075e4:	4077      	eors	r7, r6
100075e6:	4464      	add	r4, ip
100075e8:	b497      	push	{r0, r1, r2, r4, r7}
100075ea:	b284      	uxth	r4, r0
100075ec:	b296      	uxth	r6, r2
100075ee:	4374      	muls	r4, r6
100075f0:	0c07      	lsrs	r7, r0, #16
100075f2:	437e      	muls	r6, r7
100075f4:	0c15      	lsrs	r5, r2, #16
100075f6:	436f      	muls	r7, r5
100075f8:	b280      	uxth	r0, r0
100075fa:	4368      	muls	r0, r5
100075fc:	1836      	adds	r6, r6, r0
100075fe:	d302      	bcc.n	10007606 <l13_1>
10007600:	2001      	movs	r0, #1
10007602:	0400      	lsls	r0, r0, #16
10007604:	183f      	adds	r7, r7, r0

10007606 <l13_1>:
10007606:	0430      	lsls	r0, r6, #16
10007608:	0c35      	lsrs	r5, r6, #16
1000760a:	1900      	adds	r0, r0, r4
1000760c:	417d      	adcs	r5, r7
1000760e:	4684      	mov	ip, r0
10007610:	b288      	uxth	r0, r1
10007612:	b29a      	uxth	r2, r3
10007614:	4350      	muls	r0, r2
10007616:	0c0c      	lsrs	r4, r1, #16
10007618:	4362      	muls	r2, r4
1000761a:	0c1f      	lsrs	r7, r3, #16
1000761c:	437c      	muls	r4, r7
1000761e:	b28e      	uxth	r6, r1
10007620:	437e      	muls	r6, r7
10007622:	1992      	adds	r2, r2, r6
10007624:	d302      	bcc.n	1000762c <l14_1>
10007626:	2601      	movs	r6, #1
10007628:	0436      	lsls	r6, r6, #16
1000762a:	19a4      	adds	r4, r4, r6

1000762c <l14_1>:
1000762c:	0416      	lsls	r6, r2, #16
1000762e:	0c17      	lsrs	r7, r2, #16
10007630:	1836      	adds	r6, r6, r0
10007632:	4167      	adcs	r7, r4
10007634:	bc01      	pop	{r0}
10007636:	b281      	uxth	r1, r0
10007638:	b29a      	uxth	r2, r3
1000763a:	4351      	muls	r1, r2
1000763c:	0c04      	lsrs	r4, r0, #16
1000763e:	4362      	muls	r2, r4
10007640:	0c1b      	lsrs	r3, r3, #16
10007642:	435c      	muls	r4, r3
10007644:	b280      	uxth	r0, r0
10007646:	4358      	muls	r0, r3
10007648:	1812      	adds	r2, r2, r0
1000764a:	d302      	bcc.n	10007652 <l15_1>
1000764c:	2001      	movs	r0, #1
1000764e:	0400      	lsls	r0, r0, #16
10007650:	1824      	adds	r4, r4, r0

10007652 <l15_1>:
10007652:	0410      	lsls	r0, r2, #16
10007654:	0c13      	lsrs	r3, r2, #16
10007656:	1840      	adds	r0, r0, r1
10007658:	4163      	adcs	r3, r4
1000765a:	182d      	adds	r5, r5, r0
1000765c:	415e      	adcs	r6, r3
1000765e:	2000      	movs	r0, #0
10007660:	4147      	adcs	r7, r0
10007662:	bc06      	pop	{r1, r2}
10007664:	b288      	uxth	r0, r1
10007666:	b293      	uxth	r3, r2
10007668:	4358      	muls	r0, r3
1000766a:	0c0c      	lsrs	r4, r1, #16
1000766c:	4363      	muls	r3, r4
1000766e:	0c12      	lsrs	r2, r2, #16
10007670:	4354      	muls	r4, r2
10007672:	b289      	uxth	r1, r1
10007674:	4351      	muls	r1, r2
10007676:	185b      	adds	r3, r3, r1
10007678:	d302      	bcc.n	10007680 <l16_1>
1000767a:	2101      	movs	r1, #1
1000767c:	0409      	lsls	r1, r1, #16
1000767e:	1864      	adds	r4, r4, r1

10007680 <l16_1>:
10007680:	0419      	lsls	r1, r3, #16
10007682:	0c1a      	lsrs	r2, r3, #16
10007684:	1809      	adds	r1, r1, r0
10007686:	4162      	adcs	r2, r4
10007688:	186d      	adds	r5, r5, r1
1000768a:	4156      	adcs	r6, r2
1000768c:	2000      	movs	r0, #0
1000768e:	4147      	adcs	r7, r0
10007690:	bc18      	pop	{r3, r4}
10007692:	02f9      	lsls	r1, r7, #11
10007694:	0d72      	lsrs	r2, r6, #21
10007696:	4311      	orrs	r1, r2
10007698:	02f0      	lsls	r0, r6, #11
1000769a:	0d6a      	lsrs	r2, r5, #21
1000769c:	4310      	orrs	r0, r2
1000769e:	02ed      	lsls	r5, r5, #11
100076a0:	0d0a      	lsrs	r2, r1, #20
100076a2:	d103      	bne.n	100076ac <l16_1+0x2c>
100076a4:	196d      	adds	r5, r5, r5
100076a6:	4140      	adcs	r0, r0
100076a8:	4149      	adcs	r1, r1
100076aa:	3b01      	subs	r3, #1
100076ac:	4e12      	ldr	r6, [pc, #72]	; (100076f8 <dm_1+0xa>)
100076ae:	1b9b      	subs	r3, r3, r6
100076b0:	0076      	lsls	r6, r6, #1
100076b2:	42b3      	cmp	r3, r6
100076b4:	d20e      	bcs.n	100076d4 <dm_0>
100076b6:	006d      	lsls	r5, r5, #1
100076b8:	d307      	bcc.n	100076ca <l16_1+0x4a>
100076ba:	3001      	adds	r0, #1
100076bc:	2600      	movs	r6, #0
100076be:	4171      	adcs	r1, r6
100076c0:	4666      	mov	r6, ip
100076c2:	4335      	orrs	r5, r6
100076c4:	d101      	bne.n	100076ca <l16_1+0x4a>
100076c6:	0840      	lsrs	r0, r0, #1
100076c8:	0040      	lsls	r0, r0, #1
100076ca:	051b      	lsls	r3, r3, #20
100076cc:	18c9      	adds	r1, r1, r3

100076ce <dm_2>:
100076ce:	07e4      	lsls	r4, r4, #31
100076d0:	4421      	add	r1, r4
100076d2:	bdf0      	pop	{r4, r5, r6, r7, pc}

100076d4 <dm_0>:
100076d4:	da0b      	bge.n	100076ee <dm_1>
100076d6:	3301      	adds	r3, #1
100076d8:	d106      	bne.n	100076e8 <dm_0+0x14>
100076da:	3001      	adds	r0, #1
100076dc:	d104      	bne.n	100076e8 <dm_0+0x14>
100076de:	3101      	adds	r1, #1
100076e0:	0d4f      	lsrs	r7, r1, #21
100076e2:	d001      	beq.n	100076e8 <dm_0+0x14>
100076e4:	0849      	lsrs	r1, r1, #1
100076e6:	e7f2      	b.n	100076ce <dm_2>
100076e8:	07e1      	lsls	r1, r4, #31
100076ea:	2000      	movs	r0, #0
100076ec:	bdf0      	pop	{r4, r5, r6, r7, pc}

100076ee <dm_1>:
100076ee:	3601      	adds	r6, #1
100076f0:	0531      	lsls	r1, r6, #20
100076f2:	2000      	movs	r0, #0
100076f4:	e7eb      	b.n	100076ce <dm_2>
100076f6:	0000      	.short	0x0000
100076f8:	000003ff 	.word	0x000003ff

100076fc <ddiv_shim>:
100076fc:	b5f0      	push	{r4, r5, r6, r7, lr}

100076fe <ddiv0>:
100076fe:	0d1c      	lsrs	r4, r3, #20
10007700:	1e67      	subs	r7, r4, #1
10007702:	053f      	lsls	r7, r7, #20
10007704:	1bdb      	subs	r3, r3, r7
10007706:	0ae7      	lsrs	r7, r4, #11
10007708:	0564      	lsls	r4, r4, #21
1000770a:	0d64      	lsrs	r4, r4, #21
1000770c:	d002      	beq.n	10007714 <l19_1>
1000770e:	1c66      	adds	r6, r4, #1
10007710:	0af6      	lsrs	r6, r6, #11
10007712:	d004      	beq.n	1000771e <l19_2>

10007714 <l19_1>:
10007714:	2200      	movs	r2, #0
10007716:	2301      	movs	r3, #1
10007718:	051b      	lsls	r3, r3, #20
1000771a:	3c80      	subs	r4, #128	; 0x80
1000771c:	0324      	lsls	r4, r4, #12

1000771e <l19_2>:
1000771e:	25d0      	movs	r5, #208	; 0xd0
10007720:	062d      	lsls	r5, r5, #24
10007722:	2600      	movs	r6, #0
10007724:	43f6      	mvns	r6, r6
10007726:	662e      	str	r6, [r5, #96]	; 0x60
10007728:	091e      	lsrs	r6, r3, #4
1000772a:	666e      	str	r6, [r5, #100]	; 0x64
1000772c:	0fce      	lsrs	r6, r1, #31
1000772e:	19f6      	adds	r6, r6, r7
10007730:	46b4      	mov	ip, r6
10007732:	0049      	lsls	r1, r1, #1
10007734:	0d4f      	lsrs	r7, r1, #21
10007736:	d002      	beq.n	1000773e <l19_2+0x20>
10007738:	1c7e      	adds	r6, r7, #1
1000773a:	0af6      	lsrs	r6, r6, #11
1000773c:	d003      	beq.n	10007746 <l19_2+0x28>
1000773e:	2000      	movs	r0, #0
10007740:	2100      	movs	r1, #0
10007742:	3f40      	subs	r7, #64	; 0x40
10007744:	033f      	lsls	r7, r7, #12
10007746:	1b3e      	subs	r6, r7, r4
10007748:	00b6      	lsls	r6, r6, #2
1000774a:	44b4      	add	ip, r6
1000774c:	3f01      	subs	r7, #1
1000774e:	057f      	lsls	r7, r7, #21
10007750:	1bc9      	subs	r1, r1, r7
10007752:	0849      	lsrs	r1, r1, #1
10007754:	6f2e      	ldr	r6, [r5, #112]	; 0x70
10007756:	3601      	adds	r6, #1
10007758:	0876      	lsrs	r6, r6, #1
1000775a:	029c      	lsls	r4, r3, #10
1000775c:	0d95      	lsrs	r5, r2, #22
1000775e:	4325      	orrs	r5, r4
10007760:	4375      	muls	r5, r6
10007762:	13ed      	asrs	r5, r5, #15
10007764:	4375      	muls	r5, r6
10007766:	13ad      	asrs	r5, r5, #14
10007768:	3501      	adds	r5, #1
1000776a:	106d      	asrs	r5, r5, #1
1000776c:	03f6      	lsls	r6, r6, #15
1000776e:	1b76      	subs	r6, r6, r5
10007770:	b40c      	push	{r2, r3}
10007772:	02cc      	lsls	r4, r1, #11
10007774:	0d45      	lsrs	r5, r0, #21
10007776:	432c      	orrs	r4, r5
10007778:	b2a2      	uxth	r2, r4
1000777a:	b2b3      	uxth	r3, r6
1000777c:	435a      	muls	r2, r3
1000777e:	0c27      	lsrs	r7, r4, #16
10007780:	437b      	muls	r3, r7
10007782:	0c35      	lsrs	r5, r6, #16
10007784:	436f      	muls	r7, r5
10007786:	b2a4      	uxth	r4, r4
10007788:	436c      	muls	r4, r5
1000778a:	191b      	adds	r3, r3, r4
1000778c:	d302      	bcc.n	10007794 <l20_1>
1000778e:	2401      	movs	r4, #1
10007790:	0424      	lsls	r4, r4, #16
10007792:	193f      	adds	r7, r7, r4

10007794 <l20_1>:
10007794:	041c      	lsls	r4, r3, #16
10007796:	0c1d      	lsrs	r5, r3, #16
10007798:	18a4      	adds	r4, r4, r2
1000779a:	417d      	adcs	r5, r7
1000779c:	1924      	adds	r4, r4, r4
1000779e:	416d      	adcs	r5, r5
100077a0:	9a00      	ldr	r2, [sp, #0]
100077a2:	b291      	uxth	r1, r2
100077a4:	b2ac      	uxth	r4, r5
100077a6:	4361      	muls	r1, r4
100077a8:	0c17      	lsrs	r7, r2, #16
100077aa:	437c      	muls	r4, r7
100077ac:	0c2b      	lsrs	r3, r5, #16
100077ae:	435f      	muls	r7, r3
100077b0:	b292      	uxth	r2, r2
100077b2:	435a      	muls	r2, r3
100077b4:	18a4      	adds	r4, r4, r2
100077b6:	d302      	bcc.n	100077be <l21_1>
100077b8:	2201      	movs	r2, #1
100077ba:	0412      	lsls	r2, r2, #16
100077bc:	18bf      	adds	r7, r7, r2

100077be <l21_1>:
100077be:	0422      	lsls	r2, r4, #16
100077c0:	0c23      	lsrs	r3, r4, #16
100077c2:	1852      	adds	r2, r2, r1
100077c4:	417b      	adcs	r3, r7
100077c6:	9c01      	ldr	r4, [sp, #4]
100077c8:	436c      	muls	r4, r5
100077ca:	191b      	adds	r3, r3, r4
100077cc:	0e52      	lsrs	r2, r2, #25
100077ce:	01d9      	lsls	r1, r3, #7
100077d0:	430a      	orrs	r2, r1
100077d2:	0144      	lsls	r4, r0, #5
100077d4:	1aa0      	subs	r0, r4, r2
100077d6:	b281      	uxth	r1, r0
100077d8:	b2b2      	uxth	r2, r6
100077da:	4351      	muls	r1, r2
100077dc:	1403      	asrs	r3, r0, #16
100077de:	435a      	muls	r2, r3
100077e0:	0c36      	lsrs	r6, r6, #16
100077e2:	4373      	muls	r3, r6
100077e4:	b287      	uxth	r7, r0
100077e6:	4377      	muls	r7, r6
100077e8:	17d6      	asrs	r6, r2, #31
100077ea:	19d2      	adds	r2, r2, r7
100077ec:	2700      	movs	r7, #0
100077ee:	417e      	adcs	r6, r7
100077f0:	0436      	lsls	r6, r6, #16
100077f2:	199b      	adds	r3, r3, r6
100077f4:	0417      	lsls	r7, r2, #16
100077f6:	0c16      	lsrs	r6, r2, #16
100077f8:	187f      	adds	r7, r7, r1
100077fa:	415e      	adcs	r6, r3
100077fc:	1673      	asrs	r3, r6, #25
100077fe:	18ed      	adds	r5, r5, r3
10007800:	01f3      	lsls	r3, r6, #7
10007802:	2600      	movs	r6, #0
10007804:	3380      	adds	r3, #128	; 0x80
10007806:	4175      	adcs	r5, r6
10007808:	0fa9      	lsrs	r1, r5, #30
1000780a:	d106      	bne.n	1000781a <dd_0>
1000780c:	0064      	lsls	r4, r4, #1
1000780e:	0a69      	lsrs	r1, r5, #9
10007810:	05e8      	lsls	r0, r5, #23
10007812:	0a5b      	lsrs	r3, r3, #9
10007814:	4318      	orrs	r0, r3
10007816:	d209      	bcs.n	1000782c <dd_1>
10007818:	e02f      	b.n	1000787a <dd_2>

1000781a <dd_0>:
1000781a:	2204      	movs	r2, #4
1000781c:	4494      	add	ip, r2
1000781e:	3380      	adds	r3, #128	; 0x80
10007820:	4175      	adcs	r5, r6
10007822:	0aa9      	lsrs	r1, r5, #10
10007824:	05a8      	lsls	r0, r5, #22
10007826:	0a9b      	lsrs	r3, r3, #10
10007828:	4318      	orrs	r0, r3
1000782a:	d326      	bcc.n	1000787a <dd_2>

1000782c <dd_1>:
1000782c:	4140      	adcs	r0, r0
1000782e:	4149      	adcs	r1, r1
10007830:	0424      	lsls	r4, r4, #16
10007832:	9a00      	ldr	r2, [sp, #0]
10007834:	9b01      	ldr	r3, [sp, #4]
10007836:	000d      	movs	r5, r1
10007838:	4355      	muls	r5, r2
1000783a:	1b64      	subs	r4, r4, r5
1000783c:	4343      	muls	r3, r0
1000783e:	1ae4      	subs	r4, r4, r3
10007840:	b295      	uxth	r5, r2
10007842:	b286      	uxth	r6, r0
10007844:	4375      	muls	r5, r6
10007846:	0c17      	lsrs	r7, r2, #16
10007848:	437e      	muls	r6, r7
1000784a:	0c03      	lsrs	r3, r0, #16
1000784c:	435f      	muls	r7, r3
1000784e:	b292      	uxth	r2, r2
10007850:	435a      	muls	r2, r3
10007852:	18b6      	adds	r6, r6, r2
10007854:	d302      	bcc.n	1000785c <l23_1>
10007856:	2201      	movs	r2, #1
10007858:	0412      	lsls	r2, r2, #16
1000785a:	18bf      	adds	r7, r7, r2

1000785c <l23_1>:
1000785c:	0432      	lsls	r2, r6, #16
1000785e:	0c33      	lsrs	r3, r6, #16
10007860:	1952      	adds	r2, r2, r5
10007862:	417b      	adcs	r3, r7
10007864:	4252      	negs	r2, r2
10007866:	419c      	sbcs	r4, r3
10007868:	2c00      	cmp	r4, #0
1000786a:	d402      	bmi.n	10007872 <l23_1+0x16>
1000786c:	2200      	movs	r2, #0
1000786e:	3001      	adds	r0, #1
10007870:	4151      	adcs	r1, r2
10007872:	0840      	lsrs	r0, r0, #1
10007874:	07ca      	lsls	r2, r1, #31
10007876:	4310      	orrs	r0, r2
10007878:	0849      	lsrs	r1, r1, #1

1000787a <dd_2>:
1000787a:	b002      	add	sp, #8
1000787c:	4662      	mov	r2, ip
1000787e:	07d7      	lsls	r7, r2, #31
10007880:	1092      	asrs	r2, r2, #2
10007882:	4b08      	ldr	r3, [pc, #32]	; (100078a4 <dd_4+0x6>)
10007884:	18d2      	adds	r2, r2, r3
10007886:	4b08      	ldr	r3, [pc, #32]	; (100078a8 <dd_4+0xa>)
10007888:	429a      	cmp	r2, r3
1000788a:	d203      	bcs.n	10007894 <dd_3>
1000788c:	0512      	lsls	r2, r2, #20
1000788e:	1889      	adds	r1, r1, r2

10007890 <dd_5>:
10007890:	19c9      	adds	r1, r1, r7
10007892:	bdf0      	pop	{r4, r5, r6, r7, pc}

10007894 <dd_3>:
10007894:	2000      	movs	r0, #0
10007896:	2a00      	cmp	r2, #0
10007898:	dc01      	bgt.n	1000789e <dd_4>
1000789a:	0039      	movs	r1, r7
1000789c:	bdf0      	pop	{r4, r5, r6, r7, pc}

1000789e <dd_4>:
1000789e:	3301      	adds	r3, #1
100078a0:	0519      	lsls	r1, r3, #20
100078a2:	e7f5      	b.n	10007890 <dd_5>
100078a4:	000003fd 	.word	0x000003fd
100078a8:	000007fe 	.word	0x000007fe

100078ac <double2uint_shim>:
100078ac:	2200      	movs	r2, #0

100078ae <double2ufix_shim>:
100078ae:	b500      	push	{lr}
100078b0:	3220      	adds	r2, #32
100078b2:	f000 f804 	bl	100078be <double2ufix64_shim>
100078b6:	0008      	movs	r0, r1
100078b8:	bd00      	pop	{pc}
	...

100078bc <double2uint64_shim>:
100078bc:	2200      	movs	r2, #0

100078be <double2ufix64_shim>:
100078be:	150b      	asrs	r3, r1, #20
100078c0:	d40a      	bmi.n	100078d8 <ret_dzero>

100078c2 <d2fix>:
100078c2:	b510      	push	{r4, lr}
100078c4:	4694      	mov	ip, r2
100078c6:	f000 f831 	bl	1000792c <dunpacks>
100078ca:	1414      	asrs	r4, r2, #16
100078cc:	3401      	adds	r4, #1
100078ce:	da00      	bge.n	100078d2 <d2fix+0x10>
100078d0:	2100      	movs	r1, #0
100078d2:	17cb      	asrs	r3, r1, #31
100078d4:	4c14      	ldr	r4, [pc, #80]	; (10007928 <d2fix_a+0x4a>)
100078d6:	4720      	bx	r4

100078d8 <ret_dzero>:
100078d8:	2000      	movs	r0, #0
100078da:	2100      	movs	r1, #0
100078dc:	4770      	bx	lr

100078de <d2fix_a>:
100078de:	4462      	add	r2, ip
100078e0:	3a34      	subs	r2, #52	; 0x34
100078e2:	d40c      	bmi.n	100078fe <d2fix_a+0x20>
100078e4:	2a0c      	cmp	r2, #12
100078e6:	da07      	bge.n	100078f8 <d2fix_a+0x1a>
100078e8:	0004      	movs	r4, r0
100078ea:	4091      	lsls	r1, r2
100078ec:	4090      	lsls	r0, r2
100078ee:	4252      	negs	r2, r2
100078f0:	3220      	adds	r2, #32
100078f2:	40d4      	lsrs	r4, r2
100078f4:	4321      	orrs	r1, r4
100078f6:	bd10      	pop	{r4, pc}
100078f8:	43d8      	mvns	r0, r3
100078fa:	43d9      	mvns	r1, r3
100078fc:	bd10      	pop	{r4, pc}
100078fe:	3220      	adds	r2, #32
10007900:	d407      	bmi.n	10007912 <d2fix_a+0x34>
10007902:	460c      	mov	r4, r1
10007904:	4094      	lsls	r4, r2
10007906:	4252      	negs	r2, r2
10007908:	3220      	adds	r2, #32
1000790a:	4111      	asrs	r1, r2
1000790c:	40d0      	lsrs	r0, r2
1000790e:	4320      	orrs	r0, r4
10007910:	bd10      	pop	{r4, pc}
10007912:	0008      	movs	r0, r1
10007914:	17c9      	asrs	r1, r1, #31
10007916:	3220      	adds	r2, #32
10007918:	d403      	bmi.n	10007922 <d2fix_a+0x44>
1000791a:	4252      	negs	r2, r2
1000791c:	3220      	adds	r2, #32
1000791e:	4110      	asrs	r0, r2
10007920:	bd10      	pop	{r4, pc}
10007922:	0018      	movs	r0, r3
10007924:	0019      	movs	r1, r3
10007926:	bd10      	pop	{r4, pc}
10007928:	100078df 	.word	0x100078df

1000792c <dunpacks>:
1000792c:	0d0a      	lsrs	r2, r1, #20
1000792e:	0fcc      	lsrs	r4, r1, #31
10007930:	1e53      	subs	r3, r2, #1
10007932:	051b      	lsls	r3, r3, #20
10007934:	1ac9      	subs	r1, r1, r3
10007936:	0552      	lsls	r2, r2, #21
10007938:	d303      	bcc.n	10007942 <l59_1>
1000793a:	43c9      	mvns	r1, r1
1000793c:	4240      	negs	r0, r0
1000793e:	d300      	bcc.n	10007942 <l59_1>
10007940:	3101      	adds	r1, #1

10007942 <l59_1>:
10007942:	0d52      	lsrs	r2, r2, #21
10007944:	d003      	beq.n	1000794e <l59_2>
10007946:	1c53      	adds	r3, r2, #1
10007948:	0adb      	lsrs	r3, r3, #11
1000794a:	d007      	beq.n	1000795c <l59_3>
1000794c:	1b12      	subs	r2, r2, r4

1000794e <l59_2>:
1000794e:	2000      	movs	r0, #0
10007950:	0064      	lsls	r4, r4, #1
10007952:	1c61      	adds	r1, r4, #1
10007954:	0789      	lsls	r1, r1, #30
10007956:	1289      	asrs	r1, r1, #10
10007958:	3a80      	subs	r2, #128	; 0x80
1000795a:	0312      	lsls	r2, r2, #12

1000795c <l59_3>:
1000795c:	4b01      	ldr	r3, [pc, #4]	; (10007964 <l59_3+0x8>)
1000795e:	1ad2      	subs	r2, r2, r3
10007960:	4770      	bx	lr
10007962:	0000      	.short	0x0000
10007964:	000003ff 	.word	0x000003ff

10007968 <__wrap___aeabi_lmul>:
10007968:	4351      	muls	r1, r2
1000796a:	4343      	muls	r3, r0
1000796c:	18c9      	adds	r1, r1, r3
1000796e:	468c      	mov	ip, r1
10007970:	0c11      	lsrs	r1, r2, #16
10007972:	b283      	uxth	r3, r0
10007974:	434b      	muls	r3, r1
10007976:	b410      	push	{r4}
10007978:	0c04      	lsrs	r4, r0, #16
1000797a:	4361      	muls	r1, r4
1000797c:	b292      	uxth	r2, r2
1000797e:	b280      	uxth	r0, r0
10007980:	4350      	muls	r0, r2
10007982:	4362      	muls	r2, r4
10007984:	041c      	lsls	r4, r3, #16
10007986:	0c1b      	lsrs	r3, r3, #16
10007988:	1900      	adds	r0, r0, r4
1000798a:	bc10      	pop	{r4}
1000798c:	4159      	adcs	r1, r3
1000798e:	0413      	lsls	r3, r2, #16
10007990:	0c12      	lsrs	r2, r2, #16
10007992:	18c0      	adds	r0, r0, r3
10007994:	4151      	adcs	r1, r2
10007996:	4461      	add	r1, ip
10007998:	4770      	bx	lr
	...

1000799c <__wrap___aeabi_frsub>:
1000799c:	4048      	eors	r0, r1
1000799e:	4041      	eors	r1, r0
100079a0:	4048      	eors	r0, r1

100079a2 <__wrap___aeabi_fsub>:
100079a2:	2300      	movs	r3, #0
100079a4:	469c      	mov	ip, r3
100079a6:	4b11      	ldr	r3, [pc, #68]	; (100079ec <__wrap___aeabi_fmul+0xa>)
100079a8:	685b      	ldr	r3, [r3, #4]
100079aa:	4718      	bx	r3

100079ac <__wrap___aeabi_fadd>:
100079ac:	2300      	movs	r3, #0
100079ae:	469c      	mov	ip, r3
100079b0:	4b0e      	ldr	r3, [pc, #56]	; (100079ec <__wrap___aeabi_fmul+0xa>)
100079b2:	681b      	ldr	r3, [r3, #0]
100079b4:	4718      	bx	r3

100079b6 <__wrap___aeabi_fdiv>:
100079b6:	4a0e      	ldr	r2, [pc, #56]	; (100079f0 <__wrap___aeabi_fmul+0xe>)
100079b8:	6f93      	ldr	r3, [r2, #120]	; 0x78
100079ba:	089b      	lsrs	r3, r3, #2
100079bc:	d204      	bcs.n	100079c8 <fdiv_save_state>

100079be <fdiv_shim_call>:
100079be:	2300      	movs	r3, #0
100079c0:	469c      	mov	ip, r3
100079c2:	4b0a      	ldr	r3, [pc, #40]	; (100079ec <__wrap___aeabi_fmul+0xa>)
100079c4:	68db      	ldr	r3, [r3, #12]
100079c6:	4718      	bx	r3

100079c8 <fdiv_save_state>:
100079c8:	b5f0      	push	{r4, r5, r6, r7, lr}
100079ca:	6e14      	ldr	r4, [r2, #96]	; 0x60
100079cc:	6e55      	ldr	r5, [r2, #100]	; 0x64
100079ce:	6f57      	ldr	r7, [r2, #116]	; 0x74
100079d0:	6f16      	ldr	r6, [r2, #112]	; 0x70
100079d2:	f7ff fff4 	bl	100079be <fdiv_shim_call>
100079d6:	4a06      	ldr	r2, [pc, #24]	; (100079f0 <__wrap___aeabi_fmul+0xe>)
100079d8:	6614      	str	r4, [r2, #96]	; 0x60
100079da:	6655      	str	r5, [r2, #100]	; 0x64
100079dc:	6757      	str	r7, [r2, #116]	; 0x74
100079de:	6716      	str	r6, [r2, #112]	; 0x70
100079e0:	bdf0      	pop	{r4, r5, r6, r7, pc}

100079e2 <__wrap___aeabi_fmul>:
100079e2:	2300      	movs	r3, #0
100079e4:	469c      	mov	ip, r3
100079e6:	4b01      	ldr	r3, [pc, #4]	; (100079ec <__wrap___aeabi_fmul+0xa>)
100079e8:	689b      	ldr	r3, [r3, #8]
100079ea:	4718      	bx	r3
100079ec:	20001e0c 	.word	0x20001e0c
100079f0:	d0000000 	.word	0xd0000000

100079f4 <__wrap___aeabi_ui2f>:
100079f4:	1a49      	subs	r1, r1, r1
100079f6:	2800      	cmp	r0, #0
100079f8:	d108      	bne.n	10007a0c <__aeabi_i2f_main>
100079fa:	4608      	mov	r0, r1
100079fc:	4770      	bx	lr
	...

10007a00 <__wrap___aeabi_i2f>:
10007a00:	0fc1      	lsrs	r1, r0, #31
10007a02:	07c9      	lsls	r1, r1, #31
10007a04:	d500      	bpl.n	10007a08 <__wrap___aeabi_i2f+0x8>
10007a06:	4240      	negs	r0, r0
10007a08:	2800      	cmp	r0, #0
10007a0a:	d017      	beq.n	10007a3c <__aeabi_i2f_main+0x30>

10007a0c <__aeabi_i2f_main>:
10007a0c:	46f4      	mov	ip, lr
10007a0e:	b403      	push	{r0, r1}
10007a10:	4b0b      	ldr	r3, [pc, #44]	; (10007a40 <__aeabi_i2f_main+0x34>)
10007a12:	681b      	ldr	r3, [r3, #0]
10007a14:	4798      	blx	r3
10007a16:	bc06      	pop	{r1, r2}
10007a18:	4081      	lsls	r1, r0
10007a1a:	389e      	subs	r0, #158	; 0x9e
10007a1c:	4240      	negs	r0, r0
10007a1e:	3180      	adds	r1, #128	; 0x80
10007a20:	d207      	bcs.n	10007a32 <__aeabi_i2f_main+0x26>
10007a22:	060b      	lsls	r3, r1, #24
10007a24:	d007      	beq.n	10007a36 <__aeabi_i2f_main+0x2a>
10007a26:	0049      	lsls	r1, r1, #1
10007a28:	0a49      	lsrs	r1, r1, #9
10007a2a:	05c0      	lsls	r0, r0, #23
10007a2c:	4310      	orrs	r0, r2
10007a2e:	4308      	orrs	r0, r1
10007a30:	4760      	bx	ip
10007a32:	3001      	adds	r0, #1
10007a34:	e7f8      	b.n	10007a28 <__aeabi_i2f_main+0x1c>
10007a36:	0a49      	lsrs	r1, r1, #9
10007a38:	0289      	lsls	r1, r1, #10
10007a3a:	e7f5      	b.n	10007a28 <__aeabi_i2f_main+0x1c>
10007a3c:	4770      	bx	lr
10007a3e:	0000      	.short	0x0000
10007a40:	20001e08 	.word	0x20001e08

10007a44 <__wrap___aeabi_f2uiz>:
10007a44:	2300      	movs	r3, #0
10007a46:	469c      	mov	ip, r3
10007a48:	4b01      	ldr	r3, [pc, #4]	; (10007a50 <__wrap___aeabi_f2uiz+0xc>)
10007a4a:	6a5b      	ldr	r3, [r3, #36]	; 0x24
10007a4c:	4718      	bx	r3
10007a4e:	0000      	.short	0x0000
10007a50:	20001e0c 	.word	0x20001e0c

10007a54 <__aeabi_float_init>:
10007a54:	b570      	push	{r4, r5, r6, lr}
10007a56:	2313      	movs	r3, #19
10007a58:	781e      	ldrb	r6, [r3, #0]
10007a5a:	482a      	ldr	r0, [pc, #168]	; (10007b04 <__aeabi_float_init+0xb0>)
10007a5c:	f7ff f8fc 	bl	10006c58 <rom_data_lookup>
10007a60:	0005      	movs	r5, r0
10007a62:	2e01      	cmp	r6, #1
10007a64:	d011      	beq.n	10007a8a <__aeabi_float_init+0x36>
10007a66:	2e01      	cmp	r6, #1
10007a68:	dd09      	ble.n	10007a7e <__aeabi_float_init+0x2a>
10007a6a:	1eab      	subs	r3, r5, #2
10007a6c:	781b      	ldrb	r3, [r3, #0]
10007a6e:	009b      	lsls	r3, r3, #2
10007a70:	2b7f      	cmp	r3, #127	; 0x7f
10007a72:	dd40      	ble.n	10007af6 <__aeabi_float_init+0xa2>
10007a74:	4824      	ldr	r0, [pc, #144]	; (10007b08 <__aeabi_float_init+0xb4>)
10007a76:	2280      	movs	r2, #128	; 0x80
10007a78:	0029      	movs	r1, r5
10007a7a:	f000 f891 	bl	10007ba0 <__wrap___aeabi_memcpy>
10007a7e:	4823      	ldr	r0, [pc, #140]	; (10007b0c <__aeabi_float_init+0xb8>)
10007a80:	f7ff f8e2 	bl	10006c48 <rom_func_lookup>
10007a84:	4b22      	ldr	r3, [pc, #136]	; (10007b10 <__aeabi_float_init+0xbc>)
10007a86:	6018      	str	r0, [r3, #0]
10007a88:	bd70      	pop	{r4, r5, r6, pc}
10007a8a:	481f      	ldr	r0, [pc, #124]	; (10007b08 <__aeabi_float_init+0xb4>)
10007a8c:	2254      	movs	r2, #84	; 0x54
10007a8e:	0029      	movs	r1, r5
10007a90:	f000 f886 	bl	10007ba0 <__wrap___aeabi_memcpy>
10007a94:	4b1f      	ldr	r3, [pc, #124]	; (10007b14 <__aeabi_float_init+0xc0>)
10007a96:	881a      	ldrh	r2, [r3, #0]
10007a98:	4b1f      	ldr	r3, [pc, #124]	; (10007b18 <__aeabi_float_init+0xc4>)
10007a9a:	429a      	cmp	r2, r3
10007a9c:	d11c      	bne.n	10007ad8 <__aeabi_float_init+0x84>
10007a9e:	23a7      	movs	r3, #167	; 0xa7
10007aa0:	019b      	lsls	r3, r3, #6
10007aa2:	881a      	ldrh	r2, [r3, #0]
10007aa4:	4b1d      	ldr	r3, [pc, #116]	; (10007b1c <__aeabi_float_init+0xc8>)
10007aa6:	429a      	cmp	r2, r3
10007aa8:	d116      	bne.n	10007ad8 <__aeabi_float_init+0x84>
10007aaa:	4b1d      	ldr	r3, [pc, #116]	; (10007b20 <__aeabi_float_init+0xcc>)
10007aac:	881a      	ldrh	r2, [r3, #0]
10007aae:	4b1d      	ldr	r3, [pc, #116]	; (10007b24 <__aeabi_float_init+0xd0>)
10007ab0:	429a      	cmp	r2, r3
10007ab2:	d111      	bne.n	10007ad8 <__aeabi_float_init+0x84>
10007ab4:	4b1c      	ldr	r3, [pc, #112]	; (10007b28 <__aeabi_float_init+0xd4>)
10007ab6:	881a      	ldrh	r2, [r3, #0]
10007ab8:	2394      	movs	r3, #148	; 0x94
10007aba:	019b      	lsls	r3, r3, #6
10007abc:	429a      	cmp	r2, r3
10007abe:	d10b      	bne.n	10007ad8 <__aeabi_float_init+0x84>
10007ac0:	4b1a      	ldr	r3, [pc, #104]	; (10007b2c <__aeabi_float_init+0xd8>)
10007ac2:	881a      	ldrh	r2, [r3, #0]
10007ac4:	4b1a      	ldr	r3, [pc, #104]	; (10007b30 <__aeabi_float_init+0xdc>)
10007ac6:	429a      	cmp	r2, r3
10007ac8:	d106      	bne.n	10007ad8 <__aeabi_float_init+0x84>
10007aca:	4b1a      	ldr	r3, [pc, #104]	; (10007b34 <__aeabi_float_init+0xe0>)
10007acc:	681a      	ldr	r2, [r3, #0]
10007ace:	4b1a      	ldr	r3, [pc, #104]	; (10007b38 <__aeabi_float_init+0xe4>)
10007ad0:	429a      	cmp	r2, r3
10007ad2:	d101      	bne.n	10007ad8 <__aeabi_float_init+0x84>
10007ad4:	2315      	movs	r3, #21
10007ad6:	e007      	b.n	10007ae8 <__aeabi_float_init+0x94>
10007ad8:	4818      	ldr	r0, [pc, #96]	; (10007b3c <__aeabi_float_init+0xe8>)
10007ada:	f7fd ffdf 	bl	10005a9c <panic>
10007ade:	4c18      	ldr	r4, [pc, #96]	; (10007b40 <__aeabi_float_init+0xec>)
10007ae0:	4a09      	ldr	r2, [pc, #36]	; (10007b08 <__aeabi_float_init+0xb4>)
10007ae2:	0099      	lsls	r1, r3, #2
10007ae4:	508c      	str	r4, [r1, r2]
10007ae6:	3301      	adds	r3, #1
10007ae8:	2b1f      	cmp	r3, #31
10007aea:	d9f8      	bls.n	10007ade <__aeabi_float_init+0x8a>
10007aec:	4b14      	ldr	r3, [pc, #80]	; (10007b40 <__aeabi_float_init+0xec>)
10007aee:	4a06      	ldr	r2, [pc, #24]	; (10007b08 <__aeabi_float_init+0xb4>)
10007af0:	6213      	str	r3, [r2, #32]
10007af2:	61d3      	str	r3, [r2, #28]
10007af4:	e7b7      	b.n	10007a66 <__aeabi_float_init+0x12>
10007af6:	4b13      	ldr	r3, [pc, #76]	; (10007b44 <__aeabi_float_init+0xf0>)
10007af8:	4a13      	ldr	r2, [pc, #76]	; (10007b48 <__aeabi_float_init+0xf4>)
10007afa:	4814      	ldr	r0, [pc, #80]	; (10007b4c <__aeabi_float_init+0xf8>)
10007afc:	2142      	movs	r1, #66	; 0x42
10007afe:	f7fd ff33 	bl	10005968 <__assert_func>
10007b02:	46c0      	nop			; (mov r8, r8)
10007b04:	00004653 	.word	0x00004653
10007b08:	20001e0c 	.word	0x20001e0c
10007b0c:	0000334c 	.word	0x0000334c
10007b10:	20001e08 	.word	0x20001e08
10007b14:	000029ee 	.word	0x000029ee
10007b18:	00000fc4 	.word	0x00000fc4
10007b1c:	00000dc2 	.word	0x00000dc2
10007b20:	00002b96 	.word	0x00002b96
10007b24:	0000b5c0 	.word	0x0000b5c0
10007b28:	00002b18 	.word	0x00002b18
10007b2c:	00002acc 	.word	0x00002acc
10007b30:	0000b510 	.word	0x0000b510
10007b34:	00002cfc 	.word	0x00002cfc
10007b38:	6487ed51 	.word	0x6487ed51
10007b3c:	1000b91c 	.word	0x1000b91c
10007b40:	10007b51 	.word	0x10007b51
10007b44:	1000bc9c 	.word	0x1000bc9c
10007b48:	1000bd18 	.word	0x1000bd18
10007b4c:	1000bcd0 	.word	0x1000bcd0

10007b50 <float_table_shim_on_use_helper>:
10007b50:	b507      	push	{r0, r1, r2, lr}
10007b52:	4660      	mov	r0, ip
10007b54:	2800      	cmp	r0, #0
10007b56:	d100      	bne.n	10007b5a <float_table_shim_on_use_helper+0xa>
10007b58:	be00      	bkpt	0x0000
10007b5a:	8801      	ldrh	r1, [r0, #0]
10007b5c:	0a0a      	lsrs	r2, r1, #8
10007b5e:	3002      	adds	r0, #2
10007b60:	2adf      	cmp	r2, #223	; 0xdf
10007b62:	d1fa      	bne.n	10007b5a <float_table_shim_on_use_helper+0xa>
10007b64:	b2c9      	uxtb	r1, r1
10007b66:	0882      	lsrs	r2, r0, #2
10007b68:	d304      	bcc.n	10007b74 <float_table_shim_on_use_helper+0x24>
10007b6a:	8802      	ldrh	r2, [r0, #0]
10007b6c:	8840      	ldrh	r0, [r0, #2]
10007b6e:	0400      	lsls	r0, r0, #16
10007b70:	4310      	orrs	r0, r2
10007b72:	e000      	b.n	10007b76 <float_table_shim_on_use_helper+0x26>
10007b74:	6800      	ldr	r0, [r0, #0]
10007b76:	4a02      	ldr	r2, [pc, #8]	; (10007b80 <float_table_shim_on_use_helper+0x30>)
10007b78:	5050      	str	r0, [r2, r1]
10007b7a:	9003      	str	r0, [sp, #12]
10007b7c:	bd07      	pop	{r0, r1, r2, pc}
10007b7e:	0000      	.short	0x0000
10007b80:	20001e0c 	.word	0x20001e0c

10007b84 <__aeabi_mem_init>:
10007b84:	4801      	ldr	r0, [pc, #4]	; (10007b8c <__aeabi_mem_init+0x8>)
10007b86:	2104      	movs	r1, #4
10007b88:	4b01      	ldr	r3, [pc, #4]	; (10007b90 <__aeabi_mem_init+0xc>)
10007b8a:	4718      	bx	r3
10007b8c:	20000c20 	.word	0x20000c20
10007b90:	10006c69 	.word	0x10006c69

10007b94 <__wrap_memset>:
10007b94:	4b01      	ldr	r3, [pc, #4]	; (10007b9c <__wrap_memset+0x8>)
10007b96:	681b      	ldr	r3, [r3, #0]
10007b98:	4718      	bx	r3
10007b9a:	0000      	.short	0x0000
10007b9c:	20000c20 	.word	0x20000c20

10007ba0 <__wrap___aeabi_memcpy>:
10007ba0:	4b01      	ldr	r3, [pc, #4]	; (10007ba8 <__wrap___aeabi_memcpy+0x8>)
10007ba2:	685b      	ldr	r3, [r3, #4]
10007ba4:	4718      	bx	r3
10007ba6:	0000      	.short	0x0000
10007ba8:	20000c20 	.word	0x20000c20

10007bac <stdio_out_chars_no_crlf>:
10007bac:	b510      	push	{r4, lr}
10007bae:	0003      	movs	r3, r0
10007bb0:	0008      	movs	r0, r1
10007bb2:	0011      	movs	r1, r2
10007bb4:	681b      	ldr	r3, [r3, #0]
10007bb6:	4798      	blx	r3
10007bb8:	bd10      	pop	{r4, pc}
	...

10007bbc <stdio_out_chars_crlf>:
10007bbc:	b5f8      	push	{r3, r4, r5, r6, r7, lr}
10007bbe:	0007      	movs	r7, r0
10007bc0:	000d      	movs	r5, r1
10007bc2:	0016      	movs	r6, r2
10007bc4:	7d43      	ldrb	r3, [r0, #21]
10007bc6:	2b00      	cmp	r3, #0
10007bc8:	d002      	beq.n	10007bd0 <stdio_out_chars_crlf+0x14>
10007bca:	2400      	movs	r4, #0
10007bcc:	2000      	movs	r0, #0
10007bce:	e00c      	b.n	10007bea <stdio_out_chars_crlf+0x2e>
10007bd0:	6803      	ldr	r3, [r0, #0]
10007bd2:	0011      	movs	r1, r2
10007bd4:	0028      	movs	r0, r5
10007bd6:	4798      	blx	r3
10007bd8:	e02d      	b.n	10007c36 <stdio_out_chars_crlf+0x7a>
10007bda:	7d3b      	ldrb	r3, [r7, #20]
10007bdc:	e010      	b.n	10007c00 <stdio_out_chars_crlf+0x44>
10007bde:	683b      	ldr	r3, [r7, #0]
10007be0:	4815      	ldr	r0, [pc, #84]	; (10007c38 <stdio_out_chars_crlf+0x7c>)
10007be2:	2102      	movs	r1, #2
10007be4:	4798      	blx	r3
10007be6:	1c60      	adds	r0, r4, #1
10007be8:	3401      	adds	r4, #1
10007bea:	42b4      	cmp	r4, r6
10007bec:	da14      	bge.n	10007c18 <stdio_out_chars_crlf+0x5c>
10007bee:	2c00      	cmp	r4, #0
10007bf0:	ddf3      	ble.n	10007bda <stdio_out_chars_crlf+0x1e>
10007bf2:	192b      	adds	r3, r5, r4
10007bf4:	3b01      	subs	r3, #1
10007bf6:	781b      	ldrb	r3, [r3, #0]
10007bf8:	3b0d      	subs	r3, #13
10007bfa:	425a      	negs	r2, r3
10007bfc:	4153      	adcs	r3, r2
10007bfe:	b2db      	uxtb	r3, r3
10007c00:	5d2a      	ldrb	r2, [r5, r4]
10007c02:	2a0a      	cmp	r2, #10
10007c04:	d1f0      	bne.n	10007be8 <stdio_out_chars_crlf+0x2c>
10007c06:	2b00      	cmp	r3, #0
10007c08:	d1ee      	bne.n	10007be8 <stdio_out_chars_crlf+0x2c>
10007c0a:	42a0      	cmp	r0, r4
10007c0c:	dae7      	bge.n	10007bde <stdio_out_chars_crlf+0x22>
10007c0e:	683b      	ldr	r3, [r7, #0]
10007c10:	1a21      	subs	r1, r4, r0
10007c12:	1828      	adds	r0, r5, r0
10007c14:	4798      	blx	r3
10007c16:	e7e2      	b.n	10007bde <stdio_out_chars_crlf+0x22>
10007c18:	42b0      	cmp	r0, r6
10007c1a:	da03      	bge.n	10007c24 <stdio_out_chars_crlf+0x68>
10007c1c:	683b      	ldr	r3, [r7, #0]
10007c1e:	1a31      	subs	r1, r6, r0
10007c20:	1828      	adds	r0, r5, r0
10007c22:	4798      	blx	r3
10007c24:	2e00      	cmp	r6, #0
10007c26:	dd06      	ble.n	10007c36 <stdio_out_chars_crlf+0x7a>
10007c28:	19ad      	adds	r5, r5, r6
10007c2a:	3d01      	subs	r5, #1
10007c2c:	782b      	ldrb	r3, [r5, #0]
10007c2e:	3b0d      	subs	r3, #13
10007c30:	425a      	negs	r2, r3
10007c32:	4153      	adcs	r3, r2
10007c34:	753b      	strb	r3, [r7, #20]
10007c36:	bdf8      	pop	{r3, r4, r5, r6, r7, pc}
10007c38:	1000bda0 	.word	0x1000bda0

10007c3c <stdio_stack_buffer_flush>:
10007c3c:	b570      	push	{r4, r5, r6, lr}
10007c3e:	0005      	movs	r5, r0
10007c40:	6803      	ldr	r3, [r0, #0]
10007c42:	2b00      	cmp	r3, #0
10007c44:	d016      	beq.n	10007c74 <stdio_stack_buffer_flush+0x38>
10007c46:	4b0c      	ldr	r3, [pc, #48]	; (10007c78 <stdio_stack_buffer_flush+0x3c>)
10007c48:	681c      	ldr	r4, [r3, #0]
10007c4a:	e005      	b.n	10007c58 <stdio_stack_buffer_flush+0x1c>
10007c4c:	0029      	movs	r1, r5
10007c4e:	c904      	ldmia	r1!, {r2}
10007c50:	0020      	movs	r0, r4
10007c52:	f7ff ffb3 	bl	10007bbc <stdio_out_chars_crlf>
10007c56:	6924      	ldr	r4, [r4, #16]
10007c58:	2c00      	cmp	r4, #0
10007c5a:	d009      	beq.n	10007c70 <stdio_stack_buffer_flush+0x34>
10007c5c:	6823      	ldr	r3, [r4, #0]
10007c5e:	2b00      	cmp	r3, #0
10007c60:	d0f9      	beq.n	10007c56 <stdio_stack_buffer_flush+0x1a>
10007c62:	4b06      	ldr	r3, [pc, #24]	; (10007c7c <stdio_stack_buffer_flush+0x40>)
10007c64:	681b      	ldr	r3, [r3, #0]
10007c66:	2b00      	cmp	r3, #0
10007c68:	d0f0      	beq.n	10007c4c <stdio_stack_buffer_flush+0x10>
10007c6a:	42a3      	cmp	r3, r4
10007c6c:	d1f3      	bne.n	10007c56 <stdio_stack_buffer_flush+0x1a>
10007c6e:	e7ed      	b.n	10007c4c <stdio_stack_buffer_flush+0x10>
10007c70:	2300      	movs	r3, #0
10007c72:	602b      	str	r3, [r5, #0]
10007c74:	bd70      	pop	{r4, r5, r6, pc}
10007c76:	46c0      	nop			; (mov r8, r8)
10007c78:	200018bc 	.word	0x200018bc
10007c7c:	200018c4 	.word	0x200018c4

10007c80 <stdio_buffered_printer>:
10007c80:	b570      	push	{r4, r5, r6, lr}
10007c82:	0005      	movs	r5, r0
10007c84:	000c      	movs	r4, r1
10007c86:	680b      	ldr	r3, [r1, #0]
10007c88:	2b80      	cmp	r3, #128	; 0x80
10007c8a:	d005      	beq.n	10007c98 <stdio_buffered_printer+0x18>
10007c8c:	6823      	ldr	r3, [r4, #0]
10007c8e:	1c5a      	adds	r2, r3, #1
10007c90:	6022      	str	r2, [r4, #0]
10007c92:	18e4      	adds	r4, r4, r3
10007c94:	7125      	strb	r5, [r4, #4]
10007c96:	bd70      	pop	{r4, r5, r6, pc}
10007c98:	0008      	movs	r0, r1
10007c9a:	f7ff ffcf 	bl	10007c3c <stdio_stack_buffer_flush>
10007c9e:	e7f5      	b.n	10007c8c <stdio_buffered_printer+0xc>

10007ca0 <stdout_serialize_begin>:
10007ca0:	b510      	push	{r4, lr}
10007ca2:	f7fd f895 	bl	10004dd0 <time_us_64>
10007ca6:	0002      	movs	r2, r0
10007ca8:	1e0b      	subs	r3, r1, #0
10007caa:	db0b      	blt.n	10007cc4 <stdout_serialize_begin+0x24>
10007cac:	480d      	ldr	r0, [pc, #52]	; (10007ce4 <stdout_serialize_begin+0x44>)
10007cae:	2100      	movs	r1, #0
10007cb0:	1812      	adds	r2, r2, r0
10007cb2:	414b      	adcs	r3, r1
10007cb4:	2b00      	cmp	r3, #0
10007cb6:	db0b      	blt.n	10007cd0 <stdout_serialize_begin+0x30>
10007cb8:	2b00      	cmp	r3, #0
10007cba:	db0d      	blt.n	10007cd8 <stdout_serialize_begin+0x38>
10007cbc:	480a      	ldr	r0, [pc, #40]	; (10007ce8 <stdout_serialize_begin+0x48>)
10007cbe:	f002 ff2f 	bl	1000ab20 <__mutex_try_enter_block_until_veneer>
10007cc2:	bd10      	pop	{r4, pc}
10007cc4:	4b09      	ldr	r3, [pc, #36]	; (10007cec <stdout_serialize_begin+0x4c>)
10007cc6:	4a0a      	ldr	r2, [pc, #40]	; (10007cf0 <stdout_serialize_begin+0x50>)
10007cc8:	480a      	ldr	r0, [pc, #40]	; (10007cf4 <stdout_serialize_begin+0x54>)
10007cca:	213f      	movs	r1, #63	; 0x3f
10007ccc:	f7fd fe4c 	bl	10005968 <__assert_func>
10007cd0:	2201      	movs	r2, #1
10007cd2:	4252      	negs	r2, r2
10007cd4:	4b08      	ldr	r3, [pc, #32]	; (10007cf8 <stdout_serialize_begin+0x58>)
10007cd6:	e7ef      	b.n	10007cb8 <stdout_serialize_begin+0x18>
10007cd8:	4b04      	ldr	r3, [pc, #16]	; (10007cec <stdout_serialize_begin+0x4c>)
10007cda:	4a05      	ldr	r2, [pc, #20]	; (10007cf0 <stdout_serialize_begin+0x50>)
10007cdc:	4805      	ldr	r0, [pc, #20]	; (10007cf4 <stdout_serialize_begin+0x54>)
10007cde:	213f      	movs	r1, #63	; 0x3f
10007ce0:	f7fd fe42 	bl	10005968 <__assert_func>
10007ce4:	000f4240 	.word	0x000f4240
10007ce8:	20000c78 	.word	0x20000c78
10007cec:	1000b1a4 	.word	0x1000b1a4
10007cf0:	1000bd88 	.word	0x1000bd88
10007cf4:	1000b1c0 	.word	0x1000b1c0
10007cf8:	7fffffff 	.word	0x7fffffff

10007cfc <stdout_serialize_end>:
10007cfc:	b510      	push	{r4, lr}
10007cfe:	4802      	ldr	r0, [pc, #8]	; (10007d08 <stdout_serialize_end+0xc>)
10007d00:	f002 fede 	bl	1000aac0 <__mutex_exit_veneer>
10007d04:	bd10      	pop	{r4, pc}
10007d06:	46c0      	nop			; (mov r8, r8)
10007d08:	20000c78 	.word	0x20000c78

10007d0c <stdio_put_string>:
10007d0c:	b5f0      	push	{r4, r5, r6, r7, lr}
10007d0e:	46ce      	mov	lr, r9
10007d10:	4647      	mov	r7, r8
10007d12:	b580      	push	{r7, lr}
10007d14:	b083      	sub	sp, #12
10007d16:	0006      	movs	r6, r0
10007d18:	000d      	movs	r5, r1
10007d1a:	4690      	mov	r8, r2
10007d1c:	001c      	movs	r4, r3
10007d1e:	f7ff ffbf 	bl	10007ca0 <stdout_serialize_begin>
10007d22:	4681      	mov	r9, r0
10007d24:	1c6b      	adds	r3, r5, #1
10007d26:	d005      	beq.n	10007d34 <stdio_put_string+0x28>
10007d28:	2c00      	cmp	r4, #0
10007d2a:	d008      	beq.n	10007d3e <stdio_put_string+0x32>
10007d2c:	4f19      	ldr	r7, [pc, #100]	; (10007d94 <stdio_put_string+0x88>)
10007d2e:	4b1a      	ldr	r3, [pc, #104]	; (10007d98 <stdio_put_string+0x8c>)
10007d30:	681c      	ldr	r4, [r3, #0]
10007d32:	e007      	b.n	10007d44 <stdio_put_string+0x38>
10007d34:	0030      	movs	r0, r6
10007d36:	f002 fe89 	bl	1000aa4c <strlen>
10007d3a:	0005      	movs	r5, r0
10007d3c:	e7f4      	b.n	10007d28 <stdio_put_string+0x1c>
10007d3e:	4f17      	ldr	r7, [pc, #92]	; (10007d9c <stdio_put_string+0x90>)
10007d40:	e7f5      	b.n	10007d2e <stdio_put_string+0x22>
10007d42:	6924      	ldr	r4, [r4, #16]
10007d44:	2c00      	cmp	r4, #0
10007d46:	d017      	beq.n	10007d78 <stdio_put_string+0x6c>
10007d48:	6823      	ldr	r3, [r4, #0]
10007d4a:	2b00      	cmp	r3, #0
10007d4c:	d0f9      	beq.n	10007d42 <stdio_put_string+0x36>
10007d4e:	4b14      	ldr	r3, [pc, #80]	; (10007da0 <stdio_put_string+0x94>)
10007d50:	681b      	ldr	r3, [r3, #0]
10007d52:	2b00      	cmp	r3, #0
10007d54:	d001      	beq.n	10007d5a <stdio_put_string+0x4e>
10007d56:	42a3      	cmp	r3, r4
10007d58:	d1f3      	bne.n	10007d42 <stdio_put_string+0x36>
10007d5a:	002a      	movs	r2, r5
10007d5c:	0031      	movs	r1, r6
10007d5e:	0020      	movs	r0, r4
10007d60:	47b8      	blx	r7
10007d62:	4643      	mov	r3, r8
10007d64:	2b00      	cmp	r3, #0
10007d66:	d0ec      	beq.n	10007d42 <stdio_put_string+0x36>
10007d68:	466b      	mov	r3, sp
10007d6a:	1dd9      	adds	r1, r3, #7
10007d6c:	230a      	movs	r3, #10
10007d6e:	700b      	strb	r3, [r1, #0]
10007d70:	2201      	movs	r2, #1
10007d72:	0020      	movs	r0, r4
10007d74:	47b8      	blx	r7
10007d76:	e7e4      	b.n	10007d42 <stdio_put_string+0x36>
10007d78:	464b      	mov	r3, r9
10007d7a:	2b00      	cmp	r3, #0
10007d7c:	d107      	bne.n	10007d8e <stdio_put_string+0x82>
10007d7e:	1e6b      	subs	r3, r5, #1
10007d80:	419d      	sbcs	r5, r3
10007d82:	b2e8      	uxtb	r0, r5
10007d84:	b003      	add	sp, #12
10007d86:	bcc0      	pop	{r6, r7}
10007d88:	46b9      	mov	r9, r7
10007d8a:	46b0      	mov	r8, r6
10007d8c:	bdf0      	pop	{r4, r5, r6, r7, pc}
10007d8e:	f7ff ffb5 	bl	10007cfc <stdout_serialize_end>
10007d92:	e7f4      	b.n	10007d7e <stdio_put_string+0x72>
10007d94:	10007bad 	.word	0x10007bad
10007d98:	200018bc 	.word	0x200018bc
10007d9c:	10007bbd 	.word	0x10007bbd
10007da0:	200018c4 	.word	0x200018c4

10007da4 <stdio_set_driver_enabled>:
10007da4:	4a09      	ldr	r2, [pc, #36]	; (10007dcc <stdio_set_driver_enabled+0x28>)
10007da6:	e001      	b.n	10007dac <stdio_set_driver_enabled+0x8>
10007da8:	3310      	adds	r3, #16
10007daa:	001a      	movs	r2, r3
10007dac:	6813      	ldr	r3, [r2, #0]
10007dae:	2b00      	cmp	r3, #0
10007db0:	d008      	beq.n	10007dc4 <stdio_set_driver_enabled+0x20>
10007db2:	4283      	cmp	r3, r0
10007db4:	d1f8      	bne.n	10007da8 <stdio_set_driver_enabled+0x4>
10007db6:	2900      	cmp	r1, #0
10007db8:	d107      	bne.n	10007dca <stdio_set_driver_enabled+0x26>
10007dba:	6903      	ldr	r3, [r0, #16]
10007dbc:	6013      	str	r3, [r2, #0]
10007dbe:	2300      	movs	r3, #0
10007dc0:	6103      	str	r3, [r0, #16]
10007dc2:	e002      	b.n	10007dca <stdio_set_driver_enabled+0x26>
10007dc4:	2900      	cmp	r1, #0
10007dc6:	d000      	beq.n	10007dca <stdio_set_driver_enabled+0x26>
10007dc8:	6010      	str	r0, [r2, #0]
10007dca:	4770      	bx	lr
10007dcc:	200018bc 	.word	0x200018bc

10007dd0 <stdio_flush>:
10007dd0:	b510      	push	{r4, lr}
10007dd2:	4b06      	ldr	r3, [pc, #24]	; (10007dec <stdio_flush+0x1c>)
10007dd4:	681c      	ldr	r4, [r3, #0]
10007dd6:	e001      	b.n	10007ddc <stdio_flush+0xc>
10007dd8:	4798      	blx	r3
10007dda:	6924      	ldr	r4, [r4, #16]
10007ddc:	2c00      	cmp	r4, #0
10007dde:	d003      	beq.n	10007de8 <stdio_flush+0x18>
10007de0:	6863      	ldr	r3, [r4, #4]
10007de2:	2b00      	cmp	r3, #0
10007de4:	d1f8      	bne.n	10007dd8 <stdio_flush+0x8>
10007de6:	e7f8      	b.n	10007dda <stdio_flush+0xa>
10007de8:	bd10      	pop	{r4, pc}
10007dea:	46c0      	nop			; (mov r8, r8)
10007dec:	200018bc 	.word	0x200018bc

10007df0 <__wrap_puts>:
10007df0:	b570      	push	{r4, r5, r6, lr}
10007df2:	0005      	movs	r5, r0
10007df4:	f002 fe2a 	bl	1000aa4c <strlen>
10007df8:	0004      	movs	r4, r0
10007dfa:	2300      	movs	r3, #0
10007dfc:	2201      	movs	r2, #1
10007dfe:	0001      	movs	r1, r0
10007e00:	0028      	movs	r0, r5
10007e02:	f7ff ff83 	bl	10007d0c <stdio_put_string>
10007e06:	f7ff ffe3 	bl	10007dd0 <stdio_flush>
10007e0a:	0020      	movs	r0, r4
10007e0c:	bd70      	pop	{r4, r5, r6, pc}
	...

10007e10 <__wrap_vprintf>:
10007e10:	b570      	push	{r4, r5, r6, lr}
10007e12:	b0a2      	sub	sp, #136	; 0x88
10007e14:	0004      	movs	r4, r0
10007e16:	000e      	movs	r6, r1
10007e18:	f7ff ff42 	bl	10007ca0 <stdout_serialize_begin>
10007e1c:	0005      	movs	r5, r0
10007e1e:	2300      	movs	r3, #0
10007e20:	9301      	str	r3, [sp, #4]
10007e22:	480a      	ldr	r0, [pc, #40]	; (10007e4c <__wrap_vprintf+0x3c>)
10007e24:	0033      	movs	r3, r6
10007e26:	0022      	movs	r2, r4
10007e28:	a901      	add	r1, sp, #4
10007e2a:	f7fe fef5 	bl	10006c18 <vfctprintf>
10007e2e:	0004      	movs	r4, r0
10007e30:	a801      	add	r0, sp, #4
10007e32:	f7ff ff03 	bl	10007c3c <stdio_stack_buffer_flush>
10007e36:	f7ff ffcb 	bl	10007dd0 <stdio_flush>
10007e3a:	2d00      	cmp	r5, #0
10007e3c:	d102      	bne.n	10007e44 <__wrap_vprintf+0x34>
10007e3e:	0020      	movs	r0, r4
10007e40:	b022      	add	sp, #136	; 0x88
10007e42:	bd70      	pop	{r4, r5, r6, pc}
10007e44:	f7ff ff5a 	bl	10007cfc <stdout_serialize_end>
10007e48:	e7f9      	b.n	10007e3e <__wrap_vprintf+0x2e>
10007e4a:	46c0      	nop			; (mov r8, r8)
10007e4c:	10007c81 	.word	0x10007c81

10007e50 <__wrap_printf>:
10007e50:	b40f      	push	{r0, r1, r2, r3}
10007e52:	b500      	push	{lr}
10007e54:	b083      	sub	sp, #12
10007e56:	a904      	add	r1, sp, #16
10007e58:	c901      	ldmia	r1!, {r0}
10007e5a:	9101      	str	r1, [sp, #4]
10007e5c:	f7ff ffd8 	bl	10007e10 <__wrap_vprintf>
10007e60:	b003      	add	sp, #12
10007e62:	bc08      	pop	{r3}
10007e64:	b004      	add	sp, #16
10007e66:	4718      	bx	r3

10007e68 <stdio_init_all>:
10007e68:	b510      	push	{r4, lr}
10007e6a:	f000 f933 	bl	100080d4 <stdio_usb_init>
10007e6e:	bd10      	pop	{r4, pc}

10007e70 <resetd_init>:
10007e70:	4770      	bx	lr
	...

10007e74 <resetd_reset>:
10007e74:	4b01      	ldr	r3, [pc, #4]	; (10007e7c <resetd_reset+0x8>)
10007e76:	2200      	movs	r2, #0
10007e78:	701a      	strb	r2, [r3, #0]
10007e7a:	4770      	bx	lr
10007e7c:	20001f6a 	.word	0x20001f6a

10007e80 <resetd_open>:
10007e80:	794b      	ldrb	r3, [r1, #5]
10007e82:	2bff      	cmp	r3, #255	; 0xff
10007e84:	d10c      	bne.n	10007ea0 <resetd_open+0x20>
10007e86:	798b      	ldrb	r3, [r1, #6]
10007e88:	2b00      	cmp	r3, #0
10007e8a:	d10b      	bne.n	10007ea4 <resetd_open+0x24>
10007e8c:	79cb      	ldrb	r3, [r1, #7]
10007e8e:	2b01      	cmp	r3, #1
10007e90:	d10a      	bne.n	10007ea8 <resetd_open+0x28>
10007e92:	2a08      	cmp	r2, #8
10007e94:	d90a      	bls.n	10007eac <resetd_open+0x2c>
10007e96:	788a      	ldrb	r2, [r1, #2]
10007e98:	4b05      	ldr	r3, [pc, #20]	; (10007eb0 <resetd_open+0x30>)
10007e9a:	701a      	strb	r2, [r3, #0]
10007e9c:	2009      	movs	r0, #9
10007e9e:	e000      	b.n	10007ea2 <resetd_open+0x22>
10007ea0:	2000      	movs	r0, #0
10007ea2:	4770      	bx	lr
10007ea4:	2000      	movs	r0, #0
10007ea6:	e7fc      	b.n	10007ea2 <resetd_open+0x22>
10007ea8:	2000      	movs	r0, #0
10007eaa:	e7fa      	b.n	10007ea2 <resetd_open+0x22>
10007eac:	2000      	movs	r0, #0
10007eae:	e7f8      	b.n	10007ea2 <resetd_open+0x22>
10007eb0:	20001f6a 	.word	0x20001f6a

10007eb4 <resetd_xfer_cb>:
10007eb4:	2001      	movs	r0, #1
10007eb6:	4770      	bx	lr

10007eb8 <reset_usb_boot>:
10007eb8:	b570      	push	{r4, r5, r6, lr}
10007eba:	0004      	movs	r4, r0
10007ebc:	000d      	movs	r5, r1
10007ebe:	4803      	ldr	r0, [pc, #12]	; (10007ecc <reset_usb_boot+0x14>)
10007ec0:	f7fe fec2 	bl	10006c48 <rom_func_lookup>
10007ec4:	0003      	movs	r3, r0
10007ec6:	0029      	movs	r1, r5
10007ec8:	0020      	movs	r0, r4
10007eca:	4798      	blx	r3
10007ecc:	00004255 	.word	0x00004255

10007ed0 <resetd_control_xfer_cb>:
10007ed0:	b510      	push	{r4, lr}
10007ed2:	2901      	cmp	r1, #1
10007ed4:	d126      	bne.n	10007f24 <resetd_control_xfer_cb+0x54>
10007ed6:	7911      	ldrb	r1, [r2, #4]
10007ed8:	7953      	ldrb	r3, [r2, #5]
10007eda:	021b      	lsls	r3, r3, #8
10007edc:	430b      	orrs	r3, r1
10007ede:	4912      	ldr	r1, [pc, #72]	; (10007f28 <resetd_control_xfer_cb+0x58>)
10007ee0:	7809      	ldrb	r1, [r1, #0]
10007ee2:	428b      	cmp	r3, r1
10007ee4:	d001      	beq.n	10007eea <resetd_control_xfer_cb+0x1a>
10007ee6:	2000      	movs	r0, #0
10007ee8:	e01d      	b.n	10007f26 <resetd_control_xfer_cb+0x56>
10007eea:	7853      	ldrb	r3, [r2, #1]
10007eec:	2b01      	cmp	r3, #1
10007eee:	d003      	beq.n	10007ef8 <resetd_control_xfer_cb+0x28>
10007ef0:	2b02      	cmp	r3, #2
10007ef2:	d010      	beq.n	10007f16 <resetd_control_xfer_cb+0x46>
10007ef4:	2000      	movs	r0, #0
10007ef6:	e016      	b.n	10007f26 <resetd_control_xfer_cb+0x56>
10007ef8:	7891      	ldrb	r1, [r2, #2]
10007efa:	78d3      	ldrb	r3, [r2, #3]
10007efc:	021b      	lsls	r3, r3, #8
10007efe:	4319      	orrs	r1, r3
10007f00:	05db      	lsls	r3, r3, #23
10007f02:	d506      	bpl.n	10007f12 <resetd_control_xfer_cb+0x42>
10007f04:	0a4b      	lsrs	r3, r1, #9
10007f06:	2001      	movs	r0, #1
10007f08:	4098      	lsls	r0, r3
10007f0a:	237f      	movs	r3, #127	; 0x7f
10007f0c:	4019      	ands	r1, r3
10007f0e:	f7ff ffd3 	bl	10007eb8 <reset_usb_boot>
10007f12:	2000      	movs	r0, #0
10007f14:	e7f9      	b.n	10007f0a <resetd_control_xfer_cb+0x3a>
10007f16:	2264      	movs	r2, #100	; 0x64
10007f18:	2100      	movs	r1, #0
10007f1a:	2000      	movs	r0, #0
10007f1c:	f7fd fce6 	bl	100058ec <watchdog_reboot>
10007f20:	2001      	movs	r0, #1
10007f22:	e000      	b.n	10007f26 <resetd_control_xfer_cb+0x56>
10007f24:	2001      	movs	r0, #1
10007f26:	bd10      	pop	{r4, pc}
10007f28:	20001f6a 	.word	0x20001f6a

10007f2c <usbd_app_driver_get_cb>:
10007f2c:	2301      	movs	r3, #1
10007f2e:	7003      	strb	r3, [r0, #0]
10007f30:	4800      	ldr	r0, [pc, #0]	; (10007f34 <usbd_app_driver_get_cb+0x8>)
10007f32:	4770      	bx	lr
10007f34:	1000bda4 	.word	0x1000bda4

10007f38 <tud_cdc_line_coding_cb>:
10007f38:	b510      	push	{r4, lr}
10007f3a:	780a      	ldrb	r2, [r1, #0]
10007f3c:	784b      	ldrb	r3, [r1, #1]
10007f3e:	021b      	lsls	r3, r3, #8
10007f40:	4313      	orrs	r3, r2
10007f42:	788a      	ldrb	r2, [r1, #2]
10007f44:	0412      	lsls	r2, r2, #16
10007f46:	431a      	orrs	r2, r3
10007f48:	78cb      	ldrb	r3, [r1, #3]
10007f4a:	061b      	lsls	r3, r3, #24
10007f4c:	4313      	orrs	r3, r2
10007f4e:	2296      	movs	r2, #150	; 0x96
10007f50:	00d2      	lsls	r2, r2, #3
10007f52:	4293      	cmp	r3, r2
10007f54:	d000      	beq.n	10007f58 <tud_cdc_line_coding_cb+0x20>
10007f56:	bd10      	pop	{r4, pc}
10007f58:	2100      	movs	r1, #0
10007f5a:	0008      	movs	r0, r1
10007f5c:	f7ff ffac 	bl	10007eb8 <reset_usb_boot>

10007f60 <stdio_usb_set_chars_available_callback>:
10007f60:	4b02      	ldr	r3, [pc, #8]	; (10007f6c <stdio_usb_set_chars_available_callback+0xc>)
10007f62:	6018      	str	r0, [r3, #0]
10007f64:	4b02      	ldr	r3, [pc, #8]	; (10007f70 <stdio_usb_set_chars_available_callback+0x10>)
10007f66:	6019      	str	r1, [r3, #0]
10007f68:	4770      	bx	lr
10007f6a:	46c0      	nop			; (mov r8, r8)
10007f6c:	20001820 	.word	0x20001820
10007f70:	20001824 	.word	0x20001824

10007f74 <usb_irq>:
10007f74:	b510      	push	{r4, lr}
10007f76:	4b02      	ldr	r3, [pc, #8]	; (10007f80 <usb_irq+0xc>)
10007f78:	7818      	ldrb	r0, [r3, #0]
10007f7a:	f7fb fdbb 	bl	10003af4 <irq_set_pending>
10007f7e:	bd10      	pop	{r4, pc}
10007f80:	20001f6b 	.word	0x20001f6b

10007f84 <timer_task>:
10007f84:	b570      	push	{r4, r5, r6, lr}
10007f86:	4b12      	ldr	r3, [pc, #72]	; (10007fd0 <timer_task+0x4c>)
10007f88:	681b      	ldr	r3, [r3, #0]
10007f8a:	2b00      	cmp	r3, #0
10007f8c:	d01b      	beq.n	10007fc6 <timer_task+0x42>
10007f8e:	f3ef 8210 	mrs	r2, PRIMASK
10007f92:	b672      	cpsid	i
10007f94:	6819      	ldr	r1, [r3, #0]
10007f96:	2900      	cmp	r1, #0
10007f98:	d0fc      	beq.n	10007f94 <timer_task+0x10>
10007f9a:	f3bf 8f5f 	dmb	sy
10007f9e:	480c      	ldr	r0, [pc, #48]	; (10007fd0 <timer_task+0x4c>)
10007fa0:	6042      	str	r2, [r0, #4]
10007fa2:	4b0c      	ldr	r3, [pc, #48]	; (10007fd4 <timer_task+0x50>)
10007fa4:	2100      	movs	r1, #0
10007fa6:	7019      	strb	r1, [r3, #0]
10007fa8:	6803      	ldr	r3, [r0, #0]
10007faa:	f3bf 8f5f 	dmb	sy
10007fae:	6019      	str	r1, [r3, #0]
10007fb0:	f382 8810 	msr	PRIMASK, r2
10007fb4:	2400      	movs	r4, #0
10007fb6:	2500      	movs	r5, #0
10007fb8:	4b07      	ldr	r3, [pc, #28]	; (10007fd8 <timer_task+0x54>)
10007fba:	7818      	ldrb	r0, [r3, #0]
10007fbc:	f7fb fd9a 	bl	10003af4 <irq_set_pending>
10007fc0:	0020      	movs	r0, r4
10007fc2:	0029      	movs	r1, r5
10007fc4:	bd70      	pop	{r4, r5, r6, pc}
10007fc6:	24fa      	movs	r4, #250	; 0xfa
10007fc8:	00a4      	lsls	r4, r4, #2
10007fca:	2500      	movs	r5, #0
10007fcc:	e7f4      	b.n	10007fb8 <timer_task+0x34>
10007fce:	46c0      	nop			; (mov r8, r8)
10007fd0:	20001ce8 	.word	0x20001ce8
10007fd4:	20001f6c 	.word	0x20001f6c
10007fd8:	20001f6b 	.word	0x20001f6b

10007fdc <low_priority_worker_irq>:
10007fdc:	b510      	push	{r4, lr}
10007fde:	b084      	sub	sp, #16
10007fe0:	482c      	ldr	r0, [pc, #176]	; (10008094 <low_priority_worker_irq+0xb8>)
10007fe2:	2100      	movs	r1, #0
10007fe4:	f002 fd84 	bl	1000aaf0 <__mutex_try_enter_veneer>
10007fe8:	2800      	cmp	r0, #0
10007fea:	d138      	bne.n	1000805e <low_priority_worker_irq+0x82>
10007fec:	4b2a      	ldr	r3, [pc, #168]	; (10008098 <low_priority_worker_irq+0xbc>)
10007fee:	681b      	ldr	r3, [r3, #0]
10007ff0:	2b00      	cmp	r3, #0
10007ff2:	d03c      	beq.n	1000806e <low_priority_worker_irq+0x92>
10007ff4:	f3ef 8210 	mrs	r2, PRIMASK
10007ff8:	b672      	cpsid	i
10007ffa:	6819      	ldr	r1, [r3, #0]
10007ffc:	2900      	cmp	r1, #0
10007ffe:	d0fc      	beq.n	10007ffa <low_priority_worker_irq+0x1e>
10008000:	f3bf 8f5f 	dmb	sy
10008004:	4924      	ldr	r1, [pc, #144]	; (10008098 <low_priority_worker_irq+0xbc>)
10008006:	604a      	str	r2, [r1, #4]
10008008:	4824      	ldr	r0, [pc, #144]	; (1000809c <low_priority_worker_irq+0xc0>)
1000800a:	7803      	ldrb	r3, [r0, #0]
1000800c:	2401      	movs	r4, #1
1000800e:	4063      	eors	r3, r4
10008010:	b2db      	uxtb	r3, r3
10008012:	2401      	movs	r4, #1
10008014:	7004      	strb	r4, [r0, #0]
10008016:	6809      	ldr	r1, [r1, #0]
10008018:	f3bf 8f5f 	dmb	sy
1000801c:	2000      	movs	r0, #0
1000801e:	6008      	str	r0, [r1, #0]
10008020:	f382 8810 	msr	PRIMASK, r2
10008024:	2b00      	cmp	r3, #0
10008026:	d022      	beq.n	1000806e <low_priority_worker_irq+0x92>
10008028:	f7fc fbe8 	bl	100047fc <alarm_pool_get_default>
1000802c:	0004      	movs	r4, r0
1000802e:	f7fc fecf 	bl	10004dd0 <time_us_64>
10008032:	0002      	movs	r2, r0
10008034:	1e0b      	subs	r3, r1, #0
10008036:	db1c      	blt.n	10008072 <low_priority_worker_irq+0x96>
10008038:	20fa      	movs	r0, #250	; 0xfa
1000803a:	0080      	lsls	r0, r0, #2
1000803c:	2100      	movs	r1, #0
1000803e:	1812      	adds	r2, r2, r0
10008040:	414b      	adcs	r3, r1
10008042:	2b00      	cmp	r3, #0
10008044:	db1b      	blt.n	1000807e <low_priority_worker_irq+0xa2>
10008046:	2b00      	cmp	r3, #0
10008048:	db1d      	blt.n	10008086 <low_priority_worker_irq+0xaa>
1000804a:	2101      	movs	r1, #1
1000804c:	9102      	str	r1, [sp, #8]
1000804e:	2100      	movs	r1, #0
10008050:	9101      	str	r1, [sp, #4]
10008052:	4913      	ldr	r1, [pc, #76]	; (100080a0 <low_priority_worker_irq+0xc4>)
10008054:	9100      	str	r1, [sp, #0]
10008056:	0020      	movs	r0, r4
10008058:	f7fc fbe6 	bl	10004828 <alarm_pool_add_alarm_at>
1000805c:	e007      	b.n	1000806e <low_priority_worker_irq+0x92>
1000805e:	2001      	movs	r0, #1
10008060:	2100      	movs	r1, #0
10008062:	4240      	negs	r0, r0
10008064:	f001 f8f8 	bl	10009258 <tud_task_ext>
10008068:	480a      	ldr	r0, [pc, #40]	; (10008094 <low_priority_worker_irq+0xb8>)
1000806a:	f002 fd29 	bl	1000aac0 <__mutex_exit_veneer>
1000806e:	b004      	add	sp, #16
10008070:	bd10      	pop	{r4, pc}
10008072:	4b0c      	ldr	r3, [pc, #48]	; (100080a4 <low_priority_worker_irq+0xc8>)
10008074:	4a0c      	ldr	r2, [pc, #48]	; (100080a8 <low_priority_worker_irq+0xcc>)
10008076:	480d      	ldr	r0, [pc, #52]	; (100080ac <low_priority_worker_irq+0xd0>)
10008078:	213f      	movs	r1, #63	; 0x3f
1000807a:	f7fd fc75 	bl	10005968 <__assert_func>
1000807e:	2201      	movs	r2, #1
10008080:	4252      	negs	r2, r2
10008082:	4b0b      	ldr	r3, [pc, #44]	; (100080b0 <low_priority_worker_irq+0xd4>)
10008084:	e7df      	b.n	10008046 <low_priority_worker_irq+0x6a>
10008086:	4b07      	ldr	r3, [pc, #28]	; (100080a4 <low_priority_worker_irq+0xc8>)
10008088:	4a07      	ldr	r2, [pc, #28]	; (100080a8 <low_priority_worker_irq+0xcc>)
1000808a:	4808      	ldr	r0, [pc, #32]	; (100080ac <low_priority_worker_irq+0xd0>)
1000808c:	213f      	movs	r1, #63	; 0x3f
1000808e:	f7fd fc6b 	bl	10005968 <__assert_func>
10008092:	46c0      	nop			; (mov r8, r8)
10008094:	20001f10 	.word	0x20001f10
10008098:	20001ce8 	.word	0x20001ce8
1000809c:	20001f6c 	.word	0x20001f6c
100080a0:	10007f85 	.word	0x10007f85
100080a4:	1000b1a4 	.word	0x1000b1a4
100080a8:	1000be34 	.word	0x1000be34
100080ac:	1000b1c0 	.word	0x1000b1c0
100080b0:	7fffffff 	.word	0x7fffffff

100080b4 <tud_cdc_rx_cb>:
100080b4:	b510      	push	{r4, lr}
100080b6:	4b05      	ldr	r3, [pc, #20]	; (100080cc <tud_cdc_rx_cb+0x18>)
100080b8:	6818      	ldr	r0, [r3, #0]
100080ba:	2800      	cmp	r0, #0
100080bc:	d004      	beq.n	100080c8 <tud_cdc_rx_cb+0x14>
100080be:	4b04      	ldr	r3, [pc, #16]	; (100080d0 <tud_cdc_rx_cb+0x1c>)
100080c0:	6819      	ldr	r1, [r3, #0]
100080c2:	2200      	movs	r2, #0
100080c4:	f000 fdec 	bl	10008ca0 <usbd_defer_func>
100080c8:	bd10      	pop	{r4, pc}
100080ca:	46c0      	nop			; (mov r8, r8)
100080cc:	20001820 	.word	0x20001820
100080d0:	20001824 	.word	0x20001824

100080d4 <stdio_usb_init>:
100080d4:	b510      	push	{r4, lr}
100080d6:	b084      	sub	sp, #16
100080d8:	23d0      	movs	r3, #208	; 0xd0
100080da:	061b      	lsls	r3, r3, #24
100080dc:	681c      	ldr	r4, [r3, #0]
100080de:	f7fc fb8d 	bl	100047fc <alarm_pool_get_default>
100080e2:	f7fc fccd 	bl	10004a80 <alarm_pool_core_num>
100080e6:	42a0      	cmp	r0, r4
100080e8:	d130      	bne.n	1000814c <stdio_usb_init+0x78>
100080ea:	23d0      	movs	r3, #208	; 0xd0
100080ec:	061b      	lsls	r3, r3, #24
100080ee:	781a      	ldrb	r2, [r3, #0]
100080f0:	4b33      	ldr	r3, [pc, #204]	; (100081c0 <stdio_usb_init+0xec>)
100080f2:	701a      	strb	r2, [r3, #0]
100080f4:	4b33      	ldr	r3, [pc, #204]	; (100081c4 <stdio_usb_init+0xf0>)
100080f6:	781b      	ldrb	r3, [r3, #0]
100080f8:	f001 fd96 	bl	10009c28 <tusb_init>
100080fc:	4832      	ldr	r0, [pc, #200]	; (100081c8 <stdio_usb_init+0xf4>)
100080fe:	f7fb ffd5 	bl	100040ac <mutex_init>
10008102:	2001      	movs	r0, #1
10008104:	f7fb ffb4 	bl	10004070 <user_irq_claim_unused>
10008108:	b2c0      	uxtb	r0, r0
1000810a:	4c30      	ldr	r4, [pc, #192]	; (100081cc <stdio_usb_init+0xf8>)
1000810c:	7020      	strb	r0, [r4, #0]
1000810e:	4930      	ldr	r1, [pc, #192]	; (100081d0 <stdio_usb_init+0xfc>)
10008110:	f7fb fd12 	bl	10003b38 <irq_set_exclusive_handler>
10008114:	7820      	ldrb	r0, [r4, #0]
10008116:	2101      	movs	r1, #1
10008118:	f7fb fce4 	bl	10003ae4 <irq_set_enabled>
1000811c:	2005      	movs	r0, #5
1000811e:	f7fb fcf9 	bl	10003b14 <irq_has_shared_handler>
10008122:	1e04      	subs	r4, r0, #0
10008124:	d018      	beq.n	10008158 <stdio_usb_init+0x84>
10008126:	492b      	ldr	r1, [pc, #172]	; (100081d4 <stdio_usb_init+0x100>)
10008128:	2200      	movs	r2, #0
1000812a:	2005      	movs	r0, #5
1000812c:	f7fb fd2e 	bl	10003b8c <irq_add_shared_handler>
10008130:	f7fb fc44 	bl	100039bc <next_striped_spin_lock_num>
10008134:	0001      	movs	r1, r0
10008136:	4b28      	ldr	r3, [pc, #160]	; (100081d8 <stdio_usb_init+0x104>)
10008138:	0018      	movs	r0, r3
1000813a:	f7fb ffd3 	bl	100040e4 <critical_section_init_with_lock_num>
1000813e:	4827      	ldr	r0, [pc, #156]	; (100081dc <stdio_usb_init+0x108>)
10008140:	2101      	movs	r1, #1
10008142:	f7ff fe2f 	bl	10007da4 <stdio_set_driver_enabled>
10008146:	0020      	movs	r0, r4
10008148:	b004      	add	sp, #16
1000814a:	bd10      	pop	{r4, pc}
1000814c:	4b24      	ldr	r3, [pc, #144]	; (100081e0 <stdio_usb_init+0x10c>)
1000814e:	4a25      	ldr	r2, [pc, #148]	; (100081e4 <stdio_usb_init+0x110>)
10008150:	4825      	ldr	r0, [pc, #148]	; (100081e8 <stdio_usb_init+0x114>)
10008152:	21b5      	movs	r1, #181	; 0xb5
10008154:	f7fd fc08 	bl	10005968 <__assert_func>
10008158:	f7fc fb50 	bl	100047fc <alarm_pool_get_default>
1000815c:	0004      	movs	r4, r0
1000815e:	f7fc fe37 	bl	10004dd0 <time_us_64>
10008162:	0002      	movs	r2, r0
10008164:	1e0b      	subs	r3, r1, #0
10008166:	db1b      	blt.n	100081a0 <stdio_usb_init+0xcc>
10008168:	20fa      	movs	r0, #250	; 0xfa
1000816a:	0080      	lsls	r0, r0, #2
1000816c:	2100      	movs	r1, #0
1000816e:	1812      	adds	r2, r2, r0
10008170:	414b      	adcs	r3, r1
10008172:	2b00      	cmp	r3, #0
10008174:	db1a      	blt.n	100081ac <stdio_usb_init+0xd8>
10008176:	2b00      	cmp	r3, #0
10008178:	db1c      	blt.n	100081b4 <stdio_usb_init+0xe0>
1000817a:	2101      	movs	r1, #1
1000817c:	9102      	str	r1, [sp, #8]
1000817e:	2100      	movs	r1, #0
10008180:	9101      	str	r1, [sp, #4]
10008182:	491a      	ldr	r1, [pc, #104]	; (100081ec <stdio_usb_init+0x118>)
10008184:	9100      	str	r1, [sp, #0]
10008186:	0020      	movs	r0, r4
10008188:	f7fc fb4e 	bl	10004828 <alarm_pool_add_alarm_at>
1000818c:	43c4      	mvns	r4, r0
1000818e:	0fe4      	lsrs	r4, r4, #31
10008190:	4811      	ldr	r0, [pc, #68]	; (100081d8 <stdio_usb_init+0x104>)
10008192:	2208      	movs	r2, #8
10008194:	2100      	movs	r1, #0
10008196:	f7ff fcfd 	bl	10007b94 <__wrap_memset>
1000819a:	2c00      	cmp	r4, #0
1000819c:	d0d3      	beq.n	10008146 <stdio_usb_init+0x72>
1000819e:	e7ce      	b.n	1000813e <stdio_usb_init+0x6a>
100081a0:	4b13      	ldr	r3, [pc, #76]	; (100081f0 <stdio_usb_init+0x11c>)
100081a2:	4a14      	ldr	r2, [pc, #80]	; (100081f4 <stdio_usb_init+0x120>)
100081a4:	4814      	ldr	r0, [pc, #80]	; (100081f8 <stdio_usb_init+0x124>)
100081a6:	213f      	movs	r1, #63	; 0x3f
100081a8:	f7fd fbde 	bl	10005968 <__assert_func>
100081ac:	2201      	movs	r2, #1
100081ae:	4252      	negs	r2, r2
100081b0:	4b12      	ldr	r3, [pc, #72]	; (100081fc <stdio_usb_init+0x128>)
100081b2:	e7e0      	b.n	10008176 <stdio_usb_init+0xa2>
100081b4:	4b0e      	ldr	r3, [pc, #56]	; (100081f0 <stdio_usb_init+0x11c>)
100081b6:	4a0f      	ldr	r2, [pc, #60]	; (100081f4 <stdio_usb_init+0x120>)
100081b8:	480f      	ldr	r0, [pc, #60]	; (100081f8 <stdio_usb_init+0x124>)
100081ba:	213f      	movs	r1, #63	; 0x3f
100081bc:	f7fd fbd4 	bl	10005968 <__assert_func>
100081c0:	20001f6d 	.word	0x20001f6d
100081c4:	1000c43c 	.word	0x1000c43c
100081c8:	20001f10 	.word	0x20001f10
100081cc:	20001f6b 	.word	0x20001f6b
100081d0:	10007fdd 	.word	0x10007fdd
100081d4:	10007f75 	.word	0x10007f75
100081d8:	20001ce8 	.word	0x20001ce8
100081dc:	20000c30 	.word	0x20000c30
100081e0:	1000b058 	.word	0x1000b058
100081e4:	1000be24 	.word	0x1000be24
100081e8:	1000bdbc 	.word	0x1000bdbc
100081ec:	10007f85 	.word	0x10007f85
100081f0:	1000b1a4 	.word	0x1000b1a4
100081f4:	1000be34 	.word	0x1000be34
100081f8:	1000b1c0 	.word	0x1000b1c0
100081fc:	7fffffff 	.word	0x7fffffff

10008200 <stdio_usb_connected>:
10008200:	b510      	push	{r4, lr}
10008202:	2000      	movs	r0, #0
10008204:	f001 fa30 	bl	10009668 <tud_cdc_n_connected>
10008208:	bd10      	pop	{r4, pc}
	...

1000820c <stdio_usb_in_chars>:
1000820c:	b570      	push	{r4, r5, r6, lr}
1000820e:	0005      	movs	r5, r0
10008210:	000c      	movs	r4, r1
10008212:	f7ff fff5 	bl	10008200 <stdio_usb_connected>
10008216:	2800      	cmp	r0, #0
10008218:	d045      	beq.n	100082a6 <stdio_usb_in_chars+0x9a>
1000821a:	2000      	movs	r0, #0
1000821c:	f001 fa46 	bl	100096ac <tud_cdc_n_available>
10008220:	2800      	cmp	r0, #0
10008222:	d043      	beq.n	100082ac <stdio_usb_in_chars+0xa0>
10008224:	f7fc fdd4 	bl	10004dd0 <time_us_64>
10008228:	0002      	movs	r2, r0
1000822a:	1e0b      	subs	r3, r1, #0
1000822c:	db21      	blt.n	10008272 <stdio_usb_in_chars+0x66>
1000822e:	4822      	ldr	r0, [pc, #136]	; (100082b8 <stdio_usb_in_chars+0xac>)
10008230:	2100      	movs	r1, #0
10008232:	1812      	adds	r2, r2, r0
10008234:	414b      	adcs	r3, r1
10008236:	2b00      	cmp	r3, #0
10008238:	db21      	blt.n	1000827e <stdio_usb_in_chars+0x72>
1000823a:	2b00      	cmp	r3, #0
1000823c:	db23      	blt.n	10008286 <stdio_usb_in_chars+0x7a>
1000823e:	481f      	ldr	r0, [pc, #124]	; (100082bc <stdio_usb_in_chars+0xb0>)
10008240:	f002 fc6e 	bl	1000ab20 <__mutex_try_enter_block_until_veneer>
10008244:	2800      	cmp	r0, #0
10008246:	d034      	beq.n	100082b2 <stdio_usb_in_chars+0xa6>
10008248:	f7ff ffda 	bl	10008200 <stdio_usb_connected>
1000824c:	2800      	cmp	r0, #0
1000824e:	d004      	beq.n	1000825a <stdio_usb_in_chars+0x4e>
10008250:	2000      	movs	r0, #0
10008252:	f001 fa2b 	bl	100096ac <tud_cdc_n_available>
10008256:	2800      	cmp	r0, #0
10008258:	d11b      	bne.n	10008292 <stdio_usb_in_chars+0x86>
1000825a:	2001      	movs	r0, #1
1000825c:	2100      	movs	r1, #0
1000825e:	4240      	negs	r0, r0
10008260:	f000 fffa 	bl	10009258 <tud_task_ext>
10008264:	2403      	movs	r4, #3
10008266:	4264      	negs	r4, r4
10008268:	4814      	ldr	r0, [pc, #80]	; (100082bc <stdio_usb_in_chars+0xb0>)
1000826a:	f002 fc29 	bl	1000aac0 <__mutex_exit_veneer>
1000826e:	0020      	movs	r0, r4
10008270:	bd70      	pop	{r4, r5, r6, pc}
10008272:	4b13      	ldr	r3, [pc, #76]	; (100082c0 <stdio_usb_in_chars+0xb4>)
10008274:	4a13      	ldr	r2, [pc, #76]	; (100082c4 <stdio_usb_in_chars+0xb8>)
10008276:	4814      	ldr	r0, [pc, #80]	; (100082c8 <stdio_usb_in_chars+0xbc>)
10008278:	213f      	movs	r1, #63	; 0x3f
1000827a:	f7fd fb75 	bl	10005968 <__assert_func>
1000827e:	2201      	movs	r2, #1
10008280:	4252      	negs	r2, r2
10008282:	4b12      	ldr	r3, [pc, #72]	; (100082cc <stdio_usb_in_chars+0xc0>)
10008284:	e7d9      	b.n	1000823a <stdio_usb_in_chars+0x2e>
10008286:	4b0e      	ldr	r3, [pc, #56]	; (100082c0 <stdio_usb_in_chars+0xb4>)
10008288:	4a0e      	ldr	r2, [pc, #56]	; (100082c4 <stdio_usb_in_chars+0xb8>)
1000828a:	480f      	ldr	r0, [pc, #60]	; (100082c8 <stdio_usb_in_chars+0xbc>)
1000828c:	213f      	movs	r1, #63	; 0x3f
1000828e:	f7fd fb6b 	bl	10005968 <__assert_func>
10008292:	0022      	movs	r2, r4
10008294:	0029      	movs	r1, r5
10008296:	2000      	movs	r0, #0
10008298:	f001 fa14 	bl	100096c4 <tud_cdc_n_read>
1000829c:	1e04      	subs	r4, r0, #0
1000829e:	d1e3      	bne.n	10008268 <stdio_usb_in_chars+0x5c>
100082a0:	2403      	movs	r4, #3
100082a2:	4264      	negs	r4, r4
100082a4:	e7e0      	b.n	10008268 <stdio_usb_in_chars+0x5c>
100082a6:	2403      	movs	r4, #3
100082a8:	4264      	negs	r4, r4
100082aa:	e7e0      	b.n	1000826e <stdio_usb_in_chars+0x62>
100082ac:	2403      	movs	r4, #3
100082ae:	4264      	negs	r4, r4
100082b0:	e7dd      	b.n	1000826e <stdio_usb_in_chars+0x62>
100082b2:	2403      	movs	r4, #3
100082b4:	4264      	negs	r4, r4
100082b6:	e7da      	b.n	1000826e <stdio_usb_in_chars+0x62>
100082b8:	000f4240 	.word	0x000f4240
100082bc:	20001f10 	.word	0x20001f10
100082c0:	1000b1a4 	.word	0x1000b1a4
100082c4:	1000be34 	.word	0x1000be34
100082c8:	1000b1c0 	.word	0x1000b1c0
100082cc:	7fffffff 	.word	0x7fffffff

100082d0 <stdio_usb_out_chars>:
100082d0:	b5f0      	push	{r4, r5, r6, r7, lr}
100082d2:	46c6      	mov	lr, r8
100082d4:	b500      	push	{lr}
100082d6:	4680      	mov	r8, r0
100082d8:	000c      	movs	r4, r1
100082da:	f7fc fd79 	bl	10004dd0 <time_us_64>
100082de:	0002      	movs	r2, r0
100082e0:	1e0b      	subs	r3, r1, #0
100082e2:	db0f      	blt.n	10008304 <stdio_usb_out_chars+0x34>
100082e4:	4837      	ldr	r0, [pc, #220]	; (100083c4 <stdio_usb_out_chars+0xf4>)
100082e6:	2100      	movs	r1, #0
100082e8:	1812      	adds	r2, r2, r0
100082ea:	414b      	adcs	r3, r1
100082ec:	2b00      	cmp	r3, #0
100082ee:	db0f      	blt.n	10008310 <stdio_usb_out_chars+0x40>
100082f0:	2b00      	cmp	r3, #0
100082f2:	db11      	blt.n	10008318 <stdio_usb_out_chars+0x48>
100082f4:	4834      	ldr	r0, [pc, #208]	; (100083c8 <stdio_usb_out_chars+0xf8>)
100082f6:	f002 fc13 	bl	1000ab20 <__mutex_try_enter_block_until_veneer>
100082fa:	2800      	cmp	r0, #0
100082fc:	d112      	bne.n	10008324 <stdio_usb_out_chars+0x54>
100082fe:	bc80      	pop	{r7}
10008300:	46b8      	mov	r8, r7
10008302:	bdf0      	pop	{r4, r5, r6, r7, pc}
10008304:	4b31      	ldr	r3, [pc, #196]	; (100083cc <stdio_usb_out_chars+0xfc>)
10008306:	4a32      	ldr	r2, [pc, #200]	; (100083d0 <stdio_usb_out_chars+0x100>)
10008308:	4832      	ldr	r0, [pc, #200]	; (100083d4 <stdio_usb_out_chars+0x104>)
1000830a:	213f      	movs	r1, #63	; 0x3f
1000830c:	f7fd fb2c 	bl	10005968 <__assert_func>
10008310:	2201      	movs	r2, #1
10008312:	4252      	negs	r2, r2
10008314:	4b30      	ldr	r3, [pc, #192]	; (100083d8 <stdio_usb_out_chars+0x108>)
10008316:	e7eb      	b.n	100082f0 <stdio_usb_out_chars+0x20>
10008318:	4b2c      	ldr	r3, [pc, #176]	; (100083cc <stdio_usb_out_chars+0xfc>)
1000831a:	4a2d      	ldr	r2, [pc, #180]	; (100083d0 <stdio_usb_out_chars+0x100>)
1000831c:	482d      	ldr	r0, [pc, #180]	; (100083d4 <stdio_usb_out_chars+0x104>)
1000831e:	213f      	movs	r1, #63	; 0x3f
10008320:	f7fd fb22 	bl	10005968 <__assert_func>
10008324:	f7ff ff6c 	bl	10008200 <stdio_usb_connected>
10008328:	2800      	cmp	r0, #0
1000832a:	d149      	bne.n	100083c0 <stdio_usb_out_chars+0xf0>
1000832c:	4b2b      	ldr	r3, [pc, #172]	; (100083dc <stdio_usb_out_chars+0x10c>)
1000832e:	2000      	movs	r0, #0
10008330:	2100      	movs	r1, #0
10008332:	6018      	str	r0, [r3, #0]
10008334:	6059      	str	r1, [r3, #4]
10008336:	4824      	ldr	r0, [pc, #144]	; (100083c8 <stdio_usb_out_chars+0xf8>)
10008338:	f002 fbc2 	bl	1000aac0 <__mutex_exit_veneer>
1000833c:	e7df      	b.n	100082fe <stdio_usb_out_chars+0x2e>
1000833e:	2001      	movs	r0, #1
10008340:	2100      	movs	r1, #0
10008342:	4240      	negs	r0, r0
10008344:	f000 ff88 	bl	10009258 <tud_task_ext>
10008348:	2000      	movs	r0, #0
1000834a:	f001 f9cf 	bl	100096ec <tud_cdc_n_write_flush>
1000834e:	f7ff ff57 	bl	10008200 <stdio_usb_connected>
10008352:	2800      	cmp	r0, #0
10008354:	d0ef      	beq.n	10008336 <stdio_usb_out_chars+0x66>
10008356:	2000      	movs	r0, #0
10008358:	f001 fa40 	bl	100097dc <tud_cdc_n_write_available>
1000835c:	2800      	cmp	r0, #0
1000835e:	d020      	beq.n	100083a2 <stdio_usb_out_chars+0xd2>
10008360:	42a5      	cmp	r5, r4
10008362:	dae8      	bge.n	10008336 <stdio_usb_out_chars+0x66>
10008364:	1b66      	subs	r6, r4, r5
10008366:	2000      	movs	r0, #0
10008368:	f001 fa38 	bl	100097dc <tud_cdc_n_write_available>
1000836c:	0002      	movs	r2, r0
1000836e:	4286      	cmp	r6, r0
10008370:	dc00      	bgt.n	10008374 <stdio_usb_out_chars+0xa4>
10008372:	0032      	movs	r2, r6
10008374:	2a00      	cmp	r2, #0
10008376:	d0e2      	beq.n	1000833e <stdio_usb_out_chars+0x6e>
10008378:	4643      	mov	r3, r8
1000837a:	1959      	adds	r1, r3, r5
1000837c:	2000      	movs	r0, #0
1000837e:	f001 fa11 	bl	100097a4 <tud_cdc_n_write>
10008382:	0006      	movs	r6, r0
10008384:	2001      	movs	r0, #1
10008386:	2100      	movs	r1, #0
10008388:	4240      	negs	r0, r0
1000838a:	f000 ff65 	bl	10009258 <tud_task_ext>
1000838e:	2000      	movs	r0, #0
10008390:	f001 f9ac 	bl	100096ec <tud_cdc_n_write_flush>
10008394:	19ad      	adds	r5, r5, r6
10008396:	f7fc fd1b 	bl	10004dd0 <time_us_64>
1000839a:	4b10      	ldr	r3, [pc, #64]	; (100083dc <stdio_usb_out_chars+0x10c>)
1000839c:	6018      	str	r0, [r3, #0]
1000839e:	6059      	str	r1, [r3, #4]
100083a0:	e7de      	b.n	10008360 <stdio_usb_out_chars+0x90>
100083a2:	f7fc fd15 	bl	10004dd0 <time_us_64>
100083a6:	4b0d      	ldr	r3, [pc, #52]	; (100083dc <stdio_usb_out_chars+0x10c>)
100083a8:	681e      	ldr	r6, [r3, #0]
100083aa:	685f      	ldr	r7, [r3, #4]
100083ac:	4a0c      	ldr	r2, [pc, #48]	; (100083e0 <stdio_usb_out_chars+0x110>)
100083ae:	2300      	movs	r3, #0
100083b0:	1992      	adds	r2, r2, r6
100083b2:	417b      	adcs	r3, r7
100083b4:	4299      	cmp	r1, r3
100083b6:	d8be      	bhi.n	10008336 <stdio_usb_out_chars+0x66>
100083b8:	d1d2      	bne.n	10008360 <stdio_usb_out_chars+0x90>
100083ba:	4290      	cmp	r0, r2
100083bc:	d9d0      	bls.n	10008360 <stdio_usb_out_chars+0x90>
100083be:	e7ba      	b.n	10008336 <stdio_usb_out_chars+0x66>
100083c0:	2500      	movs	r5, #0
100083c2:	e7cd      	b.n	10008360 <stdio_usb_out_chars+0x90>
100083c4:	000f4240 	.word	0x000f4240
100083c8:	20001f10 	.word	0x20001f10
100083cc:	1000b1a4 	.word	0x1000b1a4
100083d0:	1000be34 	.word	0x1000be34
100083d4:	1000b1c0 	.word	0x1000b1c0
100083d8:	7fffffff 	.word	0x7fffffff
100083dc:	20001200 	.word	0x20001200
100083e0:	0007a120 	.word	0x0007a120

100083e4 <tud_descriptor_device_cb>:
100083e4:	4800      	ldr	r0, [pc, #0]	; (100083e8 <tud_descriptor_device_cb+0x4>)
100083e6:	4770      	bx	lr
100083e8:	1000becc 	.word	0x1000becc

100083ec <tud_descriptor_configuration_cb>:
100083ec:	4800      	ldr	r0, [pc, #0]	; (100083f0 <tud_descriptor_configuration_cb+0x4>)
100083ee:	4770      	bx	lr
100083f0:	1000be78 	.word	0x1000be78

100083f4 <tud_descriptor_string_cb>:
100083f4:	b510      	push	{r4, lr}
100083f6:	0004      	movs	r4, r0
100083f8:	4b15      	ldr	r3, [pc, #84]	; (10008450 <tud_descriptor_string_cb+0x5c>)
100083fa:	781b      	ldrb	r3, [r3, #0]
100083fc:	2b00      	cmp	r3, #0
100083fe:	d00e      	beq.n	1000841e <tud_descriptor_string_cb+0x2a>
10008400:	2c00      	cmp	r4, #0
10008402:	d111      	bne.n	10008428 <tud_descriptor_string_cb+0x34>
10008404:	4b13      	ldr	r3, [pc, #76]	; (10008454 <tud_descriptor_string_cb+0x60>)
10008406:	4a14      	ldr	r2, [pc, #80]	; (10008458 <tud_descriptor_string_cb+0x64>)
10008408:	805a      	strh	r2, [r3, #2]
1000840a:	2301      	movs	r3, #1
1000840c:	3301      	adds	r3, #1
1000840e:	005b      	lsls	r3, r3, #1
10008410:	b21b      	sxth	r3, r3
10008412:	22c0      	movs	r2, #192	; 0xc0
10008414:	0092      	lsls	r2, r2, #2
10008416:	4313      	orrs	r3, r2
10008418:	480e      	ldr	r0, [pc, #56]	; (10008454 <tud_descriptor_string_cb+0x60>)
1000841a:	8003      	strh	r3, [r0, #0]
1000841c:	bd10      	pop	{r4, pc}
1000841e:	480c      	ldr	r0, [pc, #48]	; (10008450 <tud_descriptor_string_cb+0x5c>)
10008420:	2111      	movs	r1, #17
10008422:	f000 f825 	bl	10008470 <pico_get_unique_board_id_string>
10008426:	e7eb      	b.n	10008400 <tud_descriptor_string_cb+0xc>
10008428:	2c05      	cmp	r4, #5
1000842a:	d80e      	bhi.n	1000844a <tud_descriptor_string_cb+0x56>
1000842c:	4b0b      	ldr	r3, [pc, #44]	; (1000845c <tud_descriptor_string_cb+0x68>)
1000842e:	00a4      	lsls	r4, r4, #2
10008430:	58e4      	ldr	r4, [r4, r3]
10008432:	2300      	movs	r3, #0
10008434:	2b12      	cmp	r3, #18
10008436:	d8e9      	bhi.n	1000840c <tud_descriptor_string_cb+0x18>
10008438:	5ce1      	ldrb	r1, [r4, r3]
1000843a:	2900      	cmp	r1, #0
1000843c:	d0e6      	beq.n	1000840c <tud_descriptor_string_cb+0x18>
1000843e:	3301      	adds	r3, #1
10008440:	4a04      	ldr	r2, [pc, #16]	; (10008454 <tud_descriptor_string_cb+0x60>)
10008442:	0058      	lsls	r0, r3, #1
10008444:	5211      	strh	r1, [r2, r0]
10008446:	b2db      	uxtb	r3, r3
10008448:	e7f4      	b.n	10008434 <tud_descriptor_string_cb+0x40>
1000844a:	2000      	movs	r0, #0
1000844c:	e7e6      	b.n	1000841c <tud_descriptor_string_cb+0x28>
1000844e:	46c0      	nop			; (mov r8, r8)
10008450:	20001f2c 	.word	0x20001f2c
10008454:	20001894 	.word	0x20001894
10008458:	00000409 	.word	0x00000409
1000845c:	1000bee0 	.word	0x1000bee0

10008460 <_retrieve_unique_id_on_boot>:
10008460:	b510      	push	{r4, lr}
10008462:	4802      	ldr	r0, [pc, #8]	; (1000846c <_retrieve_unique_id_on_boot+0xc>)
10008464:	f000 f832 	bl	100084cc <flash_get_unique_id>
10008468:	bd10      	pop	{r4, pc}
1000846a:	46c0      	nop			; (mov r8, r8)
1000846c:	20001d00 	.word	0x20001d00

10008470 <pico_get_unique_board_id_string>:
10008470:	b510      	push	{r4, lr}
10008472:	2900      	cmp	r1, #0
10008474:	d001      	beq.n	1000847a <pico_get_unique_board_id_string+0xa>
10008476:	2300      	movs	r3, #0
10008478:	e00a      	b.n	10008490 <pico_get_unique_board_id_string+0x20>
1000847a:	4b10      	ldr	r3, [pc, #64]	; (100084bc <pico_get_unique_board_id_string+0x4c>)
1000847c:	4a10      	ldr	r2, [pc, #64]	; (100084c0 <pico_get_unique_board_id_string+0x50>)
1000847e:	4811      	ldr	r0, [pc, #68]	; (100084c4 <pico_get_unique_board_id_string+0x54>)
10008480:	311f      	adds	r1, #31
10008482:	f7fd fa71 	bl	10005968 <__assert_func>
10008486:	2200      	movs	r2, #0
10008488:	e00d      	b.n	100084a6 <pico_get_unique_board_id_string+0x36>
1000848a:	3237      	adds	r2, #55	; 0x37
1000848c:	54c2      	strb	r2, [r0, r3]
1000848e:	3301      	adds	r3, #1
10008490:	1e4a      	subs	r2, r1, #1
10008492:	429a      	cmp	r2, r3
10008494:	d90e      	bls.n	100084b4 <pico_get_unique_board_id_string+0x44>
10008496:	2b0f      	cmp	r3, #15
10008498:	d80c      	bhi.n	100084b4 <pico_get_unique_board_id_string+0x44>
1000849a:	085a      	lsrs	r2, r3, #1
1000849c:	4c0a      	ldr	r4, [pc, #40]	; (100084c8 <pico_get_unique_board_id_string+0x58>)
1000849e:	5ca4      	ldrb	r4, [r4, r2]
100084a0:	07da      	lsls	r2, r3, #31
100084a2:	d4f0      	bmi.n	10008486 <pico_get_unique_board_id_string+0x16>
100084a4:	2204      	movs	r2, #4
100084a6:	4114      	asrs	r4, r2
100084a8:	220f      	movs	r2, #15
100084aa:	4022      	ands	r2, r4
100084ac:	2a09      	cmp	r2, #9
100084ae:	dcec      	bgt.n	1000848a <pico_get_unique_board_id_string+0x1a>
100084b0:	3230      	adds	r2, #48	; 0x30
100084b2:	e7eb      	b.n	1000848c <pico_get_unique_board_id_string+0x1c>
100084b4:	18c0      	adds	r0, r0, r3
100084b6:	2300      	movs	r3, #0
100084b8:	7003      	strb	r3, [r0, #0]
100084ba:	bd10      	pop	{r4, pc}
100084bc:	1000bef8 	.word	0x1000bef8
100084c0:	1000bf48 	.word	0x1000bf48
100084c4:	1000bf00 	.word	0x1000bf00
100084c8:	20001d00 	.word	0x20001d00

100084cc <flash_get_unique_id>:
100084cc:	b570      	push	{r4, r5, r6, lr}
100084ce:	b088      	sub	sp, #32
100084d0:	0004      	movs	r4, r0
100084d2:	ad04      	add	r5, sp, #16
100084d4:	2600      	movs	r6, #0
100084d6:	9604      	str	r6, [sp, #16]
100084d8:	2209      	movs	r2, #9
100084da:	2100      	movs	r1, #0
100084dc:	a805      	add	r0, sp, #20
100084de:	f7ff fb59 	bl	10007b94 <__wrap_memset>
100084e2:	9600      	str	r6, [sp, #0]
100084e4:	2209      	movs	r2, #9
100084e6:	2100      	movs	r1, #0
100084e8:	a801      	add	r0, sp, #4
100084ea:	f7ff fb53 	bl	10007b94 <__wrap_memset>
100084ee:	234b      	movs	r3, #75	; 0x4b
100084f0:	702b      	strb	r3, [r5, #0]
100084f2:	220d      	movs	r2, #13
100084f4:	4669      	mov	r1, sp
100084f6:	0028      	movs	r0, r5
100084f8:	f002 fada 	bl	1000aab0 <__flash_do_cmd_veneer>
100084fc:	2300      	movs	r3, #0
100084fe:	e004      	b.n	1000850a <flash_get_unique_id+0x3e>
10008500:	1d5a      	adds	r2, r3, #5
10008502:	4669      	mov	r1, sp
10008504:	5c8a      	ldrb	r2, [r1, r2]
10008506:	54e2      	strb	r2, [r4, r3]
10008508:	3301      	adds	r3, #1
1000850a:	2b07      	cmp	r3, #7
1000850c:	ddf8      	ble.n	10008500 <flash_get_unique_id+0x34>
1000850e:	b008      	add	sp, #32
10008510:	bd70      	pop	{r4, r5, r6, pc}
	...

10008514 <hw_endpoint_get_by_addr>:
10008514:	0002      	movs	r2, r0
10008516:	207f      	movs	r0, #127	; 0x7f
10008518:	4010      	ands	r0, r2
1000851a:	09d2      	lsrs	r2, r2, #7
1000851c:	0040      	lsls	r0, r0, #1
1000851e:	1880      	adds	r0, r0, r2
10008520:	0140      	lsls	r0, r0, #5
10008522:	4b01      	ldr	r3, [pc, #4]	; (10008528 <hw_endpoint_get_by_addr+0x14>)
10008524:	18c0      	adds	r0, r0, r3
10008526:	4770      	bx	lr
10008528:	200018c8 	.word	0x200018c8

1000852c <_hw_endpoint_alloc>:
1000852c:	b510      	push	{r4, lr}
1000852e:	8b03      	ldrh	r3, [r0, #24]
10008530:	333f      	adds	r3, #63	; 0x3f
10008532:	223f      	movs	r2, #63	; 0x3f
10008534:	4393      	bics	r3, r2
10008536:	2902      	cmp	r1, #2
10008538:	d015      	beq.n	10008566 <_hw_endpoint_alloc+0x3a>
1000853a:	4c12      	ldr	r4, [pc, #72]	; (10008584 <_hw_endpoint_alloc+0x58>)
1000853c:	6822      	ldr	r2, [r4, #0]
1000853e:	60c2      	str	r2, [r0, #12]
10008540:	18d3      	adds	r3, r2, r3
10008542:	6023      	str	r3, [r4, #0]
10008544:	069c      	lsls	r4, r3, #26
10008546:	d110      	bne.n	1000856a <_hw_endpoint_alloc+0x3e>
10008548:	4c0f      	ldr	r4, [pc, #60]	; (10008588 <_hw_endpoint_alloc+0x5c>)
1000854a:	4062      	eors	r2, r4
1000854c:	4063      	eors	r3, r4
1000854e:	2480      	movs	r4, #128	; 0x80
10008550:	0164      	lsls	r4, r4, #5
10008552:	42a3      	cmp	r3, r4
10008554:	d80f      	bhi.n	10008576 <_hw_endpoint_alloc+0x4a>
10008556:	0689      	lsls	r1, r1, #26
10008558:	4311      	orrs	r1, r2
1000855a:	2380      	movs	r3, #128	; 0x80
1000855c:	061b      	lsls	r3, r3, #24
1000855e:	430b      	orrs	r3, r1
10008560:	6842      	ldr	r2, [r0, #4]
10008562:	6013      	str	r3, [r2, #0]
10008564:	bd10      	pop	{r4, pc}
10008566:	005b      	lsls	r3, r3, #1
10008568:	e7e7      	b.n	1000853a <_hw_endpoint_alloc+0xe>
1000856a:	4b08      	ldr	r3, [pc, #32]	; (1000858c <_hw_endpoint_alloc+0x60>)
1000856c:	4a08      	ldr	r2, [pc, #32]	; (10008590 <_hw_endpoint_alloc+0x64>)
1000856e:	4809      	ldr	r0, [pc, #36]	; (10008594 <_hw_endpoint_alloc+0x68>)
10008570:	2154      	movs	r1, #84	; 0x54
10008572:	f7fd f9f9 	bl	10005968 <__assert_func>
10008576:	4b08      	ldr	r3, [pc, #32]	; (10008598 <_hw_endpoint_alloc+0x6c>)
10008578:	4a05      	ldr	r2, [pc, #20]	; (10008590 <_hw_endpoint_alloc+0x64>)
1000857a:	4806      	ldr	r0, [pc, #24]	; (10008594 <_hw_endpoint_alloc+0x68>)
1000857c:	2156      	movs	r1, #86	; 0x56
1000857e:	f7fd f9f3 	bl	10005968 <__assert_func>
10008582:	46c0      	nop			; (mov r8, r8)
10008584:	20001ccc 	.word	0x20001ccc
10008588:	50100000 	.word	0x50100000
1000858c:	1000c0d4 	.word	0x1000c0d4
10008590:	1000c1ec 	.word	0x1000c1ec
10008594:	1000c104 	.word	0x1000c104
10008598:	1000c158 	.word	0x1000c158

1000859c <hw_endpoint_init>:
1000859c:	b5f8      	push	{r3, r4, r5, r6, r7, lr}
1000859e:	0005      	movs	r5, r0
100085a0:	000e      	movs	r6, r1
100085a2:	0014      	movs	r4, r2
100085a4:	f7ff ffb6 	bl	10008514 <hw_endpoint_get_by_addr>
100085a8:	237f      	movs	r3, #127	; 0x7f
100085aa:	402b      	ands	r3, r5
100085ac:	09ef      	lsrs	r7, r5, #7
100085ae:	7085      	strb	r5, [r0, #2]
100085b0:	427a      	negs	r2, r7
100085b2:	417a      	adcs	r2, r7
100085b4:	7042      	strb	r2, [r0, #1]
100085b6:	2200      	movs	r2, #0
100085b8:	70c2      	strb	r2, [r0, #3]
100085ba:	8306      	strh	r6, [r0, #24]
100085bc:	76c4      	strb	r4, [r0, #27]
100085be:	2f01      	cmp	r7, #1
100085c0:	d00d      	beq.n	100085de <hw_endpoint_init+0x42>
100085c2:	00da      	lsls	r2, r3, #3
100085c4:	4912      	ldr	r1, [pc, #72]	; (10008610 <hw_endpoint_init+0x74>)
100085c6:	468c      	mov	ip, r1
100085c8:	4462      	add	r2, ip
100085ca:	6082      	str	r2, [r0, #8]
100085cc:	6882      	ldr	r2, [r0, #8]
100085ce:	2100      	movs	r1, #0
100085d0:	6011      	str	r1, [r2, #0]
100085d2:	2b00      	cmp	r3, #0
100085d4:	d109      	bne.n	100085ea <hw_endpoint_init+0x4e>
100085d6:	6043      	str	r3, [r0, #4]
100085d8:	4b0e      	ldr	r3, [pc, #56]	; (10008614 <hw_endpoint_init+0x78>)
100085da:	60c3      	str	r3, [r0, #12]
100085dc:	bdf8      	pop	{r3, r4, r5, r6, r7, pc}
100085de:	00da      	lsls	r2, r3, #3
100085e0:	490d      	ldr	r1, [pc, #52]	; (10008618 <hw_endpoint_init+0x7c>)
100085e2:	468c      	mov	ip, r1
100085e4:	4462      	add	r2, ip
100085e6:	6082      	str	r2, [r0, #8]
100085e8:	e7f0      	b.n	100085cc <hw_endpoint_init+0x30>
100085ea:	2f01      	cmp	r7, #1
100085ec:	d009      	beq.n	10008602 <hw_endpoint_init+0x66>
100085ee:	3b01      	subs	r3, #1
100085f0:	00db      	lsls	r3, r3, #3
100085f2:	4a0a      	ldr	r2, [pc, #40]	; (1000861c <hw_endpoint_init+0x80>)
100085f4:	4694      	mov	ip, r2
100085f6:	4463      	add	r3, ip
100085f8:	6043      	str	r3, [r0, #4]
100085fa:	0021      	movs	r1, r4
100085fc:	f7ff ff96 	bl	1000852c <_hw_endpoint_alloc>
10008600:	e7ec      	b.n	100085dc <hw_endpoint_init+0x40>
10008602:	3b01      	subs	r3, #1
10008604:	00db      	lsls	r3, r3, #3
10008606:	4a06      	ldr	r2, [pc, #24]	; (10008620 <hw_endpoint_init+0x84>)
10008608:	4694      	mov	ip, r2
1000860a:	4463      	add	r3, ip
1000860c:	6043      	str	r3, [r0, #4]
1000860e:	e7f4      	b.n	100085fa <hw_endpoint_init+0x5e>
10008610:	50100084 	.word	0x50100084
10008614:	50100100 	.word	0x50100100
10008618:	50100080 	.word	0x50100080
1000861c:	5010000c 	.word	0x5010000c
10008620:	50100008 	.word	0x50100008

10008624 <hw_endpoint_xfer>:
10008624:	b570      	push	{r4, r5, r6, lr}
10008626:	000c      	movs	r4, r1
10008628:	0015      	movs	r5, r2
1000862a:	f7ff ff73 	bl	10008514 <hw_endpoint_get_by_addr>
1000862e:	002a      	movs	r2, r5
10008630:	0021      	movs	r1, r4
10008632:	f000 f90d 	bl	10008850 <hw_endpoint_xfer_start>
10008636:	bd70      	pop	{r4, r5, r6, pc}

10008638 <dcd_int_enable>:
10008638:	b510      	push	{r4, lr}
1000863a:	2800      	cmp	r0, #0
1000863c:	d104      	bne.n	10008648 <dcd_int_enable+0x10>
1000863e:	2101      	movs	r1, #1
10008640:	2005      	movs	r0, #5
10008642:	f7fb fa4f 	bl	10003ae4 <irq_set_enabled>
10008646:	bd10      	pop	{r4, pc}
10008648:	4b03      	ldr	r3, [pc, #12]	; (10008658 <dcd_int_enable+0x20>)
1000864a:	4a04      	ldr	r2, [pc, #16]	; (1000865c <dcd_int_enable+0x24>)
1000864c:	21d5      	movs	r1, #213	; 0xd5
1000864e:	4804      	ldr	r0, [pc, #16]	; (10008660 <dcd_int_enable+0x28>)
10008650:	0049      	lsls	r1, r1, #1
10008652:	f7fd f989 	bl	10005968 <__assert_func>
10008656:	46c0      	nop			; (mov r8, r8)
10008658:	1000c1a0 	.word	0x1000c1a0
1000865c:	1000c1dc 	.word	0x1000c1dc
10008660:	1000c104 	.word	0x1000c104

10008664 <dcd_set_address>:
10008664:	b510      	push	{r4, lr}
10008666:	2800      	cmp	r0, #0
10008668:	d105      	bne.n	10008676 <dcd_set_address+0x12>
1000866a:	2200      	movs	r2, #0
1000866c:	2100      	movs	r1, #0
1000866e:	2080      	movs	r0, #128	; 0x80
10008670:	f7ff ffd8 	bl	10008624 <hw_endpoint_xfer>
10008674:	bd10      	pop	{r4, pc}
10008676:	4b03      	ldr	r3, [pc, #12]	; (10008684 <dcd_set_address+0x20>)
10008678:	4a03      	ldr	r2, [pc, #12]	; (10008688 <dcd_set_address+0x24>)
1000867a:	21db      	movs	r1, #219	; 0xdb
1000867c:	4803      	ldr	r0, [pc, #12]	; (1000868c <dcd_set_address+0x28>)
1000867e:	0049      	lsls	r1, r1, #1
10008680:	f7fd f972 	bl	10005968 <__assert_func>
10008684:	1000c1a0 	.word	0x1000c1a0
10008688:	1000c1cc 	.word	0x1000c1cc
1000868c:	1000c104 	.word	0x1000c104

10008690 <dcd_connect>:
10008690:	4b02      	ldr	r3, [pc, #8]	; (1000869c <dcd_connect+0xc>)
10008692:	2280      	movs	r2, #128	; 0x80
10008694:	0252      	lsls	r2, r2, #9
10008696:	64da      	str	r2, [r3, #76]	; 0x4c
10008698:	4770      	bx	lr
1000869a:	46c0      	nop			; (mov r8, r8)
1000869c:	50112000 	.word	0x50112000

100086a0 <dcd_init>:
100086a0:	b570      	push	{r4, r5, r6, lr}
100086a2:	1e04      	subs	r4, r0, #0
100086a4:	d126      	bne.n	100086f4 <dcd_init+0x54>
100086a6:	f000 f8ad 	bl	10008804 <rp2040_usb_init>
100086aa:	4d16      	ldr	r5, [pc, #88]	; (10008704 <dcd_init+0x64>)
100086ac:	230c      	movs	r3, #12
100086ae:	67ab      	str	r3, [r5, #120]	; 0x78
100086b0:	4915      	ldr	r1, [pc, #84]	; (10008708 <dcd_init+0x68>)
100086b2:	22ff      	movs	r2, #255	; 0xff
100086b4:	2005      	movs	r0, #5
100086b6:	f7fb fa69 	bl	10003b8c <irq_add_shared_handler>
100086ba:	4814      	ldr	r0, [pc, #80]	; (1000870c <dcd_init+0x6c>)
100086bc:	2240      	movs	r2, #64	; 0x40
100086be:	2100      	movs	r1, #0
100086c0:	f7ff fa68 	bl	10007b94 <__wrap_memset>
100086c4:	2200      	movs	r2, #0
100086c6:	2140      	movs	r1, #64	; 0x40
100086c8:	2000      	movs	r0, #0
100086ca:	f7ff ff67 	bl	1000859c <hw_endpoint_init>
100086ce:	2200      	movs	r2, #0
100086d0:	2140      	movs	r1, #64	; 0x40
100086d2:	2080      	movs	r0, #128	; 0x80
100086d4:	f7ff ff62 	bl	1000859c <hw_endpoint_init>
100086d8:	f002 fa32 	bl	1000ab40 <__reset_non_control_endpoints_veneer>
100086dc:	2301      	movs	r3, #1
100086de:	642b      	str	r3, [r5, #64]	; 0x40
100086e0:	2380      	movs	r3, #128	; 0x80
100086e2:	059b      	lsls	r3, r3, #22
100086e4:	64eb      	str	r3, [r5, #76]	; 0x4c
100086e6:	2390      	movs	r3, #144	; 0x90
100086e8:	4a09      	ldr	r2, [pc, #36]	; (10008710 <dcd_init+0x70>)
100086ea:	50ea      	str	r2, [r5, r3]
100086ec:	0020      	movs	r0, r4
100086ee:	f7ff ffcf 	bl	10008690 <dcd_connect>
100086f2:	bd70      	pop	{r4, r5, r6, pc}
100086f4:	4b07      	ldr	r3, [pc, #28]	; (10008714 <dcd_init+0x74>)
100086f6:	4a08      	ldr	r2, [pc, #32]	; (10008718 <dcd_init+0x78>)
100086f8:	2186      	movs	r1, #134	; 0x86
100086fa:	4808      	ldr	r0, [pc, #32]	; (1000871c <dcd_init+0x7c>)
100086fc:	31ff      	adds	r1, #255	; 0xff
100086fe:	f7fd f933 	bl	10005968 <__assert_func>
10008702:	46c0      	nop			; (mov r8, r8)
10008704:	50110000 	.word	0x50110000
10008708:	200004a1 	.word	0x200004a1
1000870c:	200018c8 	.word	0x200018c8
10008710:	0001d010 	.word	0x0001d010
10008714:	1000c1a0 	.word	0x1000c1a0
10008718:	1000c200 	.word	0x1000c200
1000871c:	1000c104 	.word	0x1000c104

10008720 <dcd_edpt0_status_complete>:
10008720:	780b      	ldrb	r3, [r1, #0]
10008722:	065b      	lsls	r3, r3, #25
10008724:	d102      	bne.n	1000872c <dcd_edpt0_status_complete+0xc>
10008726:	784b      	ldrb	r3, [r1, #1]
10008728:	2b05      	cmp	r3, #5
1000872a:	d000      	beq.n	1000872e <dcd_edpt0_status_complete+0xe>
1000872c:	4770      	bx	lr
1000872e:	788a      	ldrb	r2, [r1, #2]
10008730:	4b01      	ldr	r3, [pc, #4]	; (10008738 <dcd_edpt0_status_complete+0x18>)
10008732:	601a      	str	r2, [r3, #0]
10008734:	e7fa      	b.n	1000872c <dcd_edpt0_status_complete+0xc>
10008736:	46c0      	nop			; (mov r8, r8)
10008738:	50110000 	.word	0x50110000

1000873c <dcd_edpt_open>:
1000873c:	b510      	push	{r4, lr}
1000873e:	000a      	movs	r2, r1
10008740:	2800      	cmp	r0, #0
10008742:	d10d      	bne.n	10008760 <dcd_edpt_open+0x24>
10008744:	7888      	ldrb	r0, [r1, #2]
10008746:	7909      	ldrb	r1, [r1, #4]
10008748:	7953      	ldrb	r3, [r2, #5]
1000874a:	021b      	lsls	r3, r3, #8
1000874c:	430b      	orrs	r3, r1
1000874e:	055b      	lsls	r3, r3, #21
10008750:	0d59      	lsrs	r1, r3, #21
10008752:	78d2      	ldrb	r2, [r2, #3]
10008754:	0792      	lsls	r2, r2, #30
10008756:	0f92      	lsrs	r2, r2, #30
10008758:	f7ff ff20 	bl	1000859c <hw_endpoint_init>
1000875c:	2001      	movs	r0, #1
1000875e:	bd10      	pop	{r4, pc}
10008760:	4b03      	ldr	r3, [pc, #12]	; (10008770 <dcd_edpt_open+0x34>)
10008762:	4a04      	ldr	r2, [pc, #16]	; (10008774 <dcd_edpt_open+0x38>)
10008764:	21fc      	movs	r1, #252	; 0xfc
10008766:	4804      	ldr	r0, [pc, #16]	; (10008778 <dcd_edpt_open+0x3c>)
10008768:	31ff      	adds	r1, #255	; 0xff
1000876a:	f7fd f8fd 	bl	10005968 <__assert_func>
1000876e:	46c0      	nop			; (mov r8, r8)
10008770:	1000c1a0 	.word	0x1000c1a0
10008774:	1000c1bc 	.word	0x1000c1bc
10008778:	1000c104 	.word	0x1000c104

1000877c <dcd_edpt_close_all>:
1000877c:	b510      	push	{r4, lr}
1000877e:	f002 f9df 	bl	1000ab40 <__reset_non_control_endpoints_veneer>
10008782:	bd10      	pop	{r4, pc}

10008784 <dcd_edpt_xfer>:
10008784:	b510      	push	{r4, lr}
10008786:	0004      	movs	r4, r0
10008788:	0008      	movs	r0, r1
1000878a:	0011      	movs	r1, r2
1000878c:	001a      	movs	r2, r3
1000878e:	2c00      	cmp	r4, #0
10008790:	d103      	bne.n	1000879a <dcd_edpt_xfer+0x16>
10008792:	f7ff ff47 	bl	10008624 <hw_endpoint_xfer>
10008796:	2001      	movs	r0, #1
10008798:	bd10      	pop	{r4, pc}
1000879a:	4b03      	ldr	r3, [pc, #12]	; (100087a8 <dcd_edpt_xfer+0x24>)
1000879c:	4a03      	ldr	r2, [pc, #12]	; (100087ac <dcd_edpt_xfer+0x28>)
1000879e:	4804      	ldr	r0, [pc, #16]	; (100087b0 <dcd_edpt_xfer+0x2c>)
100087a0:	4904      	ldr	r1, [pc, #16]	; (100087b4 <dcd_edpt_xfer+0x30>)
100087a2:	f7fd f8e1 	bl	10005968 <__assert_func>
100087a6:	46c0      	nop			; (mov r8, r8)
100087a8:	1000c1a0 	.word	0x1000c1a0
100087ac:	1000c1ac 	.word	0x1000c1ac
100087b0:	1000c104 	.word	0x1000c104
100087b4:	0000020a 	.word	0x0000020a

100087b8 <dcd_edpt_stall>:
100087b8:	b510      	push	{r4, lr}
100087ba:	0008      	movs	r0, r1
100087bc:	064b      	lsls	r3, r1, #25
100087be:	d105      	bne.n	100087cc <dcd_edpt_stall+0x14>
100087c0:	09cb      	lsrs	r3, r1, #7
100087c2:	2b01      	cmp	r3, #1
100087c4:	d00a      	beq.n	100087dc <dcd_edpt_stall+0x24>
100087c6:	2202      	movs	r2, #2
100087c8:	4b05      	ldr	r3, [pc, #20]	; (100087e0 <dcd_edpt_stall+0x28>)
100087ca:	669a      	str	r2, [r3, #104]	; 0x68
100087cc:	f7ff fea2 	bl	10008514 <hw_endpoint_get_by_addr>
100087d0:	2280      	movs	r2, #128	; 0x80
100087d2:	0112      	lsls	r2, r2, #4
100087d4:	2100      	movs	r1, #0
100087d6:	f002 f9d3 	bl	1000ab80 <___hw_endpoint_buffer_control_update32_veneer>
100087da:	bd10      	pop	{r4, pc}
100087dc:	2201      	movs	r2, #1
100087de:	e7f3      	b.n	100087c8 <dcd_edpt_stall+0x10>
100087e0:	50112000 	.word	0x50112000

100087e4 <dcd_edpt_clear_stall>:
100087e4:	b510      	push	{r4, lr}
100087e6:	0008      	movs	r0, r1
100087e8:	064b      	lsls	r3, r1, #25
100087ea:	d100      	bne.n	100087ee <dcd_edpt_clear_stall+0xa>
100087ec:	bd10      	pop	{r4, pc}
100087ee:	f7ff fe91 	bl	10008514 <hw_endpoint_get_by_addr>
100087f2:	2300      	movs	r3, #0
100087f4:	70c3      	strb	r3, [r0, #3]
100087f6:	2200      	movs	r2, #0
100087f8:	4901      	ldr	r1, [pc, #4]	; (10008800 <dcd_edpt_clear_stall+0x1c>)
100087fa:	f002 f9c1 	bl	1000ab80 <___hw_endpoint_buffer_control_update32_veneer>
100087fe:	e7f5      	b.n	100087ec <dcd_edpt_clear_stall+0x8>
10008800:	fffff7ff 	.word	0xfffff7ff

10008804 <rp2040_usb_init>:
10008804:	b510      	push	{r4, lr}
10008806:	2380      	movs	r3, #128	; 0x80
10008808:	045b      	lsls	r3, r3, #17
1000880a:	4a0c      	ldr	r2, [pc, #48]	; (1000883c <rp2040_usb_init+0x38>)
1000880c:	6013      	str	r3, [r2, #0]
1000880e:	4a0c      	ldr	r2, [pc, #48]	; (10008840 <rp2040_usb_init+0x3c>)
10008810:	6013      	str	r3, [r2, #0]
10008812:	4b0c      	ldr	r3, [pc, #48]	; (10008844 <rp2040_usb_init+0x40>)
10008814:	689a      	ldr	r2, [r3, #8]
10008816:	2380      	movs	r3, #128	; 0x80
10008818:	045b      	lsls	r3, r3, #17
1000881a:	4393      	bics	r3, r2
1000881c:	d1f9      	bne.n	10008812 <rp2040_usb_init+0xe>
1000881e:	4c0a      	ldr	r4, [pc, #40]	; (10008848 <rp2040_usb_init+0x44>)
10008820:	229c      	movs	r2, #156	; 0x9c
10008822:	2100      	movs	r1, #0
10008824:	0020      	movs	r0, r4
10008826:	f7ff f9b5 	bl	10007b94 <__wrap_memset>
1000882a:	2280      	movs	r2, #128	; 0x80
1000882c:	0152      	lsls	r2, r2, #5
1000882e:	2100      	movs	r1, #0
10008830:	4806      	ldr	r0, [pc, #24]	; (1000884c <rp2040_usb_init+0x48>)
10008832:	f7ff f9af 	bl	10007b94 <__wrap_memset>
10008836:	2309      	movs	r3, #9
10008838:	6763      	str	r3, [r4, #116]	; 0x74
1000883a:	bd10      	pop	{r4, pc}
1000883c:	4000e000 	.word	0x4000e000
10008840:	4000f000 	.word	0x4000f000
10008844:	4000c000 	.word	0x4000c000
10008848:	50110000 	.word	0x50110000
1000884c:	50100000 	.word	0x50100000

10008850 <hw_endpoint_xfer_start>:
10008850:	b570      	push	{r4, r5, r6, lr}
10008852:	0004      	movs	r4, r0
10008854:	000d      	movs	r5, r1
10008856:	0016      	movs	r6, r2
10008858:	7e83      	ldrb	r3, [r0, #26]
1000885a:	2b00      	cmp	r3, #0
1000885c:	d117      	bne.n	1000888e <hw_endpoint_xfer_start+0x3e>
1000885e:	82a6      	strh	r6, [r4, #20]
10008860:	2300      	movs	r3, #0
10008862:	82e3      	strh	r3, [r4, #22]
10008864:	3301      	adds	r3, #1
10008866:	76a3      	strb	r3, [r4, #26]
10008868:	6125      	str	r5, [r4, #16]
1000886a:	0020      	movs	r0, r4
1000886c:	f002 f970 	bl	1000ab50 <__e15_is_bulkin_ep_veneer>
10008870:	2800      	cmp	r0, #0
10008872:	d004      	beq.n	1000887e <hw_endpoint_xfer_start+0x2e>
10008874:	4a09      	ldr	r2, [pc, #36]	; (1000889c <hw_endpoint_xfer_start+0x4c>)
10008876:	2390      	movs	r3, #144	; 0x90
10008878:	2180      	movs	r1, #128	; 0x80
1000887a:	0289      	lsls	r1, r1, #10
1000887c:	50d1      	str	r1, [r2, r3]
1000887e:	0020      	movs	r0, r4
10008880:	f002 f96e 	bl	1000ab60 <__e15_is_critical_frame_period_veneer>
10008884:	2800      	cmp	r0, #0
10008886:	d005      	beq.n	10008894 <hw_endpoint_xfer_start+0x44>
10008888:	2301      	movs	r3, #1
1000888a:	7723      	strb	r3, [r4, #28]
1000888c:	bd70      	pop	{r4, r5, r6, pc}
1000888e:	f002 f96f 	bl	1000ab70 <__hw_endpoint_reset_transfer_veneer>
10008892:	e7e4      	b.n	1000885e <hw_endpoint_xfer_start+0xe>
10008894:	0020      	movs	r0, r4
10008896:	f002 f94b 	bl	1000ab30 <__hw_endpoint_start_next_buffer_veneer>
1000889a:	e7f7      	b.n	1000888c <hw_endpoint_xfer_start+0x3c>
1000889c:	50112000 	.word	0x50112000

100088a0 <configuration_reset>:
100088a0:	b570      	push	{r4, r5, r6, lr}
100088a2:	0005      	movs	r5, r0
100088a4:	2400      	movs	r4, #0
100088a6:	e00c      	b.n	100088c2 <configuration_reset+0x22>
100088a8:	0062      	lsls	r2, r4, #1
100088aa:	1912      	adds	r2, r2, r4
100088ac:	00d2      	lsls	r2, r2, #3
100088ae:	4b18      	ldr	r3, [pc, #96]	; (10008910 <configuration_reset+0x70>)
100088b0:	681b      	ldr	r3, [r3, #0]
100088b2:	189b      	adds	r3, r3, r2
100088b4:	2b00      	cmp	r3, #0
100088b6:	d02a      	beq.n	1000890e <configuration_reset+0x6e>
100088b8:	685b      	ldr	r3, [r3, #4]
100088ba:	0028      	movs	r0, r5
100088bc:	4798      	blx	r3
100088be:	3401      	adds	r4, #1
100088c0:	b2e4      	uxtb	r4, r4
100088c2:	4b14      	ldr	r3, [pc, #80]	; (10008914 <configuration_reset+0x74>)
100088c4:	781b      	ldrb	r3, [r3, #0]
100088c6:	42a3      	cmp	r3, r4
100088c8:	d310      	bcc.n	100088ec <configuration_reset+0x4c>
100088ca:	4a13      	ldr	r2, [pc, #76]	; (10008918 <configuration_reset+0x78>)
100088cc:	2a00      	cmp	r2, #0
100088ce:	d00b      	beq.n	100088e8 <configuration_reset+0x48>
100088d0:	42a3      	cmp	r3, r4
100088d2:	d8e9      	bhi.n	100088a8 <configuration_reset+0x8>
100088d4:	1ae3      	subs	r3, r4, r3
100088d6:	b2db      	uxtb	r3, r3
100088d8:	2b00      	cmp	r3, #0
100088da:	d118      	bne.n	1000890e <configuration_reset+0x6e>
100088dc:	4a0f      	ldr	r2, [pc, #60]	; (1000891c <configuration_reset+0x7c>)
100088de:	0059      	lsls	r1, r3, #1
100088e0:	18c9      	adds	r1, r1, r3
100088e2:	00c9      	lsls	r1, r1, #3
100088e4:	1853      	adds	r3, r2, r1
100088e6:	e7e5      	b.n	100088b4 <configuration_reset+0x14>
100088e8:	0023      	movs	r3, r4
100088ea:	e7f5      	b.n	100088d8 <configuration_reset+0x38>
100088ec:	4c0c      	ldr	r4, [pc, #48]	; (10008920 <configuration_reset+0x80>)
100088ee:	2253      	movs	r2, #83	; 0x53
100088f0:	2100      	movs	r1, #0
100088f2:	0020      	movs	r0, r4
100088f4:	f7ff f94e 	bl	10007b94 <__wrap_memset>
100088f8:	1ce0      	adds	r0, r4, #3
100088fa:	2210      	movs	r2, #16
100088fc:	21ff      	movs	r1, #255	; 0xff
100088fe:	f7ff f949 	bl	10007b94 <__wrap_memset>
10008902:	0020      	movs	r0, r4
10008904:	3013      	adds	r0, #19
10008906:	2220      	movs	r2, #32
10008908:	21ff      	movs	r1, #255	; 0xff
1000890a:	f7ff f943 	bl	10007b94 <__wrap_memset>
1000890e:	bd70      	pop	{r4, r5, r6, pc}
10008910:	200012cc 	.word	0x200012cc
10008914:	20001f59 	.word	0x20001f59
10008918:	10007f2d 	.word	0x10007f2d
1000891c:	1000c390 	.word	0x1000c390
10008920:	200015f4 	.word	0x200015f4

10008924 <usbd_reset>:
10008924:	b510      	push	{r4, lr}
10008926:	f7ff ffbb 	bl	100088a0 <configuration_reset>
1000892a:	f000 fdf3 	bl	10009514 <usbd_control_reset>
1000892e:	bd10      	pop	{r4, pc}

10008930 <invoke_class_control>:
10008930:	b570      	push	{r4, r5, r6, lr}
10008932:	0005      	movs	r5, r0
10008934:	000c      	movs	r4, r1
10008936:	0016      	movs	r6, r2
10008938:	68c8      	ldr	r0, [r1, #12]
1000893a:	f000 fdf5 	bl	10009528 <usbd_control_set_complete_callback>
1000893e:	68e3      	ldr	r3, [r4, #12]
10008940:	0032      	movs	r2, r6
10008942:	2101      	movs	r1, #1
10008944:	0028      	movs	r0, r5
10008946:	4798      	blx	r3
10008948:	bd70      	pop	{r4, r5, r6, pc}
	...

1000894c <process_set_config>:
1000894c:	b5f0      	push	{r4, r5, r6, r7, lr}
1000894e:	46de      	mov	lr, fp
10008950:	4657      	mov	r7, sl
10008952:	464e      	mov	r6, r9
10008954:	b5c0      	push	{r6, r7, lr}
10008956:	b082      	sub	sp, #8
10008958:	9000      	str	r0, [sp, #0]
1000895a:	3901      	subs	r1, #1
1000895c:	b2c8      	uxtb	r0, r1
1000895e:	f7ff fd45 	bl	100083ec <tud_descriptor_configuration_cb>
10008962:	1e04      	subs	r4, r0, #0
10008964:	d100      	bne.n	10008968 <process_set_config+0x1c>
10008966:	e08c      	b.n	10008a82 <process_set_config+0x136>
10008968:	7843      	ldrb	r3, [r0, #1]
1000896a:	469a      	mov	sl, r3
1000896c:	2b02      	cmp	r3, #2
1000896e:	d000      	beq.n	10008972 <process_set_config+0x26>
10008970:	e089      	b.n	10008a86 <process_set_config+0x13a>
10008972:	79c5      	ldrb	r5, [r0, #7]
10008974:	1168      	asrs	r0, r5, #5
10008976:	2201      	movs	r2, #1
10008978:	4b4b      	ldr	r3, [pc, #300]	; (10008aa8 <process_set_config+0x15c>)
1000897a:	4010      	ands	r0, r2
1000897c:	0100      	lsls	r0, r0, #4
1000897e:	7819      	ldrb	r1, [r3, #0]
10008980:	2610      	movs	r6, #16
10008982:	43b1      	bics	r1, r6
10008984:	4301      	orrs	r1, r0
10008986:	7019      	strb	r1, [r3, #0]
10008988:	11ad      	asrs	r5, r5, #6
1000898a:	402a      	ands	r2, r5
1000898c:	0152      	lsls	r2, r2, #5
1000898e:	b2c9      	uxtb	r1, r1
10008990:	2020      	movs	r0, #32
10008992:	4381      	bics	r1, r0
10008994:	430a      	orrs	r2, r1
10008996:	701a      	strb	r2, [r3, #0]
10008998:	0027      	movs	r7, r4
1000899a:	3709      	adds	r7, #9
1000899c:	78a2      	ldrb	r2, [r4, #2]
1000899e:	78e3      	ldrb	r3, [r4, #3]
100089a0:	021b      	lsls	r3, r3, #8
100089a2:	4313      	orrs	r3, r2
100089a4:	18e4      	adds	r4, r4, r3
100089a6:	42a7      	cmp	r7, r4
100089a8:	d264      	bcs.n	10008a74 <process_set_config+0x128>
100089aa:	787b      	ldrb	r3, [r7, #1]
100089ac:	2b0b      	cmp	r3, #11
100089ae:	d009      	beq.n	100089c4 <process_set_config+0x78>
100089b0:	2301      	movs	r3, #1
100089b2:	469b      	mov	fp, r3
100089b4:	787b      	ldrb	r3, [r7, #1]
100089b6:	2b04      	cmp	r3, #4
100089b8:	d16c      	bne.n	10008a94 <process_set_config+0x148>
100089ba:	1be3      	subs	r3, r4, r7
100089bc:	b29b      	uxth	r3, r3
100089be:	4699      	mov	r9, r3
100089c0:	2500      	movs	r5, #0
100089c2:	e025      	b.n	10008a10 <process_set_config+0xc4>
100089c4:	78fb      	ldrb	r3, [r7, #3]
100089c6:	469b      	mov	fp, r3
100089c8:	783b      	ldrb	r3, [r7, #0]
100089ca:	18ff      	adds	r7, r7, r3
100089cc:	e7f2      	b.n	100089b4 <process_set_config+0x68>
100089ce:	006b      	lsls	r3, r5, #1
100089d0:	195b      	adds	r3, r3, r5
100089d2:	00db      	lsls	r3, r3, #3
100089d4:	4a35      	ldr	r2, [pc, #212]	; (10008aac <process_set_config+0x160>)
100089d6:	6816      	ldr	r6, [r2, #0]
100089d8:	18f6      	adds	r6, r6, r3
100089da:	e02b      	b.n	10008a34 <process_set_config+0xe8>
100089dc:	002b      	movs	r3, r5
100089de:	e022      	b.n	10008a26 <process_set_config+0xda>
100089e0:	68b2      	ldr	r2, [r6, #8]
100089e2:	4b33      	ldr	r3, [pc, #204]	; (10008ab0 <process_set_config+0x164>)
100089e4:	429a      	cmp	r2, r3
100089e6:	d134      	bne.n	10008a52 <process_set_config+0x106>
100089e8:	46d3      	mov	fp, sl
100089ea:	e032      	b.n	10008a52 <process_set_config+0x106>
100089ec:	482e      	ldr	r0, [pc, #184]	; (10008aa8 <process_set_config+0x15c>)
100089ee:	3013      	adds	r0, #19
100089f0:	002b      	movs	r3, r5
100089f2:	9e01      	ldr	r6, [sp, #4]
100089f4:	0032      	movs	r2, r6
100089f6:	0039      	movs	r1, r7
100089f8:	f001 f9a4 	bl	10009d44 <tu_edpt_bind_driver>
100089fc:	46b4      	mov	ip, r6
100089fe:	4467      	add	r7, ip
10008a00:	4b2c      	ldr	r3, [pc, #176]	; (10008ab4 <process_set_config+0x168>)
10008a02:	781b      	ldrb	r3, [r3, #0]
10008a04:	42ab      	cmp	r3, r5
10008a06:	d2ce      	bcs.n	100089a6 <process_set_config+0x5a>
10008a08:	2000      	movs	r0, #0
10008a0a:	e03d      	b.n	10008a88 <process_set_config+0x13c>
10008a0c:	3501      	adds	r5, #1
10008a0e:	b2ed      	uxtb	r5, r5
10008a10:	4b28      	ldr	r3, [pc, #160]	; (10008ab4 <process_set_config+0x168>)
10008a12:	781b      	ldrb	r3, [r3, #0]
10008a14:	42ab      	cmp	r3, r5
10008a16:	d3f3      	bcc.n	10008a00 <process_set_config+0xb4>
10008a18:	4a27      	ldr	r2, [pc, #156]	; (10008ab8 <process_set_config+0x16c>)
10008a1a:	2a00      	cmp	r2, #0
10008a1c:	d0de      	beq.n	100089dc <process_set_config+0x90>
10008a1e:	42ab      	cmp	r3, r5
10008a20:	d8d5      	bhi.n	100089ce <process_set_config+0x82>
10008a22:	1aeb      	subs	r3, r5, r3
10008a24:	b2db      	uxtb	r3, r3
10008a26:	2b00      	cmp	r3, #0
10008a28:	d136      	bne.n	10008a98 <process_set_config+0x14c>
10008a2a:	4e24      	ldr	r6, [pc, #144]	; (10008abc <process_set_config+0x170>)
10008a2c:	005a      	lsls	r2, r3, #1
10008a2e:	18d3      	adds	r3, r2, r3
10008a30:	00db      	lsls	r3, r3, #3
10008a32:	18f6      	adds	r6, r6, r3
10008a34:	2e00      	cmp	r6, #0
10008a36:	d031      	beq.n	10008a9c <process_set_config+0x150>
10008a38:	68b3      	ldr	r3, [r6, #8]
10008a3a:	464a      	mov	r2, r9
10008a3c:	0039      	movs	r1, r7
10008a3e:	9800      	ldr	r0, [sp, #0]
10008a40:	4798      	blx	r3
10008a42:	9001      	str	r0, [sp, #4]
10008a44:	2808      	cmp	r0, #8
10008a46:	d9e1      	bls.n	10008a0c <process_set_config+0xc0>
10008a48:	4581      	cmp	r9, r0
10008a4a:	d3df      	bcc.n	10008a0c <process_set_config+0xc0>
10008a4c:	465b      	mov	r3, fp
10008a4e:	2b01      	cmp	r3, #1
10008a50:	d0c6      	beq.n	100089e0 <process_set_config+0x94>
10008a52:	2200      	movs	r2, #0
10008a54:	4593      	cmp	fp, r2
10008a56:	d9c9      	bls.n	100089ec <process_set_config+0xa0>
10008a58:	78bb      	ldrb	r3, [r7, #2]
10008a5a:	189b      	adds	r3, r3, r2
10008a5c:	b2db      	uxtb	r3, r3
10008a5e:	4912      	ldr	r1, [pc, #72]	; (10008aa8 <process_set_config+0x15c>)
10008a60:	18c9      	adds	r1, r1, r3
10008a62:	78c9      	ldrb	r1, [r1, #3]
10008a64:	29ff      	cmp	r1, #255	; 0xff
10008a66:	d11b      	bne.n	10008aa0 <process_set_config+0x154>
10008a68:	490f      	ldr	r1, [pc, #60]	; (10008aa8 <process_set_config+0x15c>)
10008a6a:	18cb      	adds	r3, r1, r3
10008a6c:	70dd      	strb	r5, [r3, #3]
10008a6e:	3201      	adds	r2, #1
10008a70:	b2d2      	uxtb	r2, r2
10008a72:	e7ef      	b.n	10008a54 <process_set_config+0x108>
10008a74:	4b12      	ldr	r3, [pc, #72]	; (10008ac0 <process_set_config+0x174>)
10008a76:	2b00      	cmp	r3, #0
10008a78:	d014      	beq.n	10008aa4 <process_set_config+0x158>
10008a7a:	e000      	b.n	10008a7e <process_set_config+0x132>
10008a7c:	bf00      	nop
10008a7e:	2001      	movs	r0, #1
10008a80:	e002      	b.n	10008a88 <process_set_config+0x13c>
10008a82:	2000      	movs	r0, #0
10008a84:	e000      	b.n	10008a88 <process_set_config+0x13c>
10008a86:	2000      	movs	r0, #0
10008a88:	b002      	add	sp, #8
10008a8a:	bce0      	pop	{r5, r6, r7}
10008a8c:	46bb      	mov	fp, r7
10008a8e:	46b2      	mov	sl, r6
10008a90:	46a9      	mov	r9, r5
10008a92:	bdf0      	pop	{r4, r5, r6, r7, pc}
10008a94:	2000      	movs	r0, #0
10008a96:	e7f7      	b.n	10008a88 <process_set_config+0x13c>
10008a98:	2000      	movs	r0, #0
10008a9a:	e7f5      	b.n	10008a88 <process_set_config+0x13c>
10008a9c:	2000      	movs	r0, #0
10008a9e:	e7f3      	b.n	10008a88 <process_set_config+0x13c>
10008aa0:	2000      	movs	r0, #0
10008aa2:	e7f1      	b.n	10008a88 <process_set_config+0x13c>
10008aa4:	2001      	movs	r0, #1
10008aa6:	e7ef      	b.n	10008a88 <process_set_config+0x13c>
10008aa8:	200015f4 	.word	0x200015f4
10008aac:	200012cc 	.word	0x200012cc
10008ab0:	100098f9 	.word	0x100098f9
10008ab4:	20001f59 	.word	0x20001f59
10008ab8:	10007f2d 	.word	0x10007f2d
10008abc:	1000c390 	.word	0x1000c390
10008ac0:	00000000 	.word	0x00000000

10008ac4 <process_get_descriptor>:
10008ac4:	b570      	push	{r4, r5, r6, lr}
10008ac6:	0005      	movs	r5, r0
10008ac8:	000c      	movs	r4, r1
10008aca:	78cb      	ldrb	r3, [r1, #3]
10008acc:	7888      	ldrb	r0, [r1, #2]
10008ace:	2b0f      	cmp	r3, #15
10008ad0:	d850      	bhi.n	10008b74 <process_get_descriptor+0xb0>
10008ad2:	009a      	lsls	r2, r3, #2
10008ad4:	492e      	ldr	r1, [pc, #184]	; (10008b90 <process_get_descriptor+0xcc>)
10008ad6:	588a      	ldr	r2, [r1, r2]
10008ad8:	4697      	mov	pc, r2
10008ada:	f7ff fc83 	bl	100083e4 <tud_descriptor_device_cb>
10008ade:	0002      	movs	r2, r0
10008ae0:	2312      	movs	r3, #18
10008ae2:	0021      	movs	r1, r4
10008ae4:	0028      	movs	r0, r5
10008ae6:	f000 fcd9 	bl	1000949c <tud_control_xfer>
10008aea:	e044      	b.n	10008b76 <process_get_descriptor+0xb2>
10008aec:	4b29      	ldr	r3, [pc, #164]	; (10008b94 <process_get_descriptor+0xd0>)
10008aee:	2b00      	cmp	r3, #0
10008af0:	d042      	beq.n	10008b78 <process_get_descriptor+0xb4>
10008af2:	e000      	b.n	10008af6 <process_get_descriptor+0x32>
10008af4:	bf00      	nop
10008af6:	1e02      	subs	r2, r0, #0
10008af8:	d040      	beq.n	10008b7c <process_get_descriptor+0xb8>
10008afa:	7881      	ldrb	r1, [r0, #2]
10008afc:	78c3      	ldrb	r3, [r0, #3]
10008afe:	021b      	lsls	r3, r3, #8
10008b00:	430b      	orrs	r3, r1
10008b02:	0021      	movs	r1, r4
10008b04:	0028      	movs	r0, r5
10008b06:	f000 fcc9 	bl	1000949c <tud_control_xfer>
10008b0a:	e034      	b.n	10008b76 <process_get_descriptor+0xb2>
10008b0c:	2b02      	cmp	r3, #2
10008b0e:	d009      	beq.n	10008b24 <process_get_descriptor+0x60>
10008b10:	4b21      	ldr	r3, [pc, #132]	; (10008b98 <process_get_descriptor+0xd4>)
10008b12:	2b00      	cmp	r3, #0
10008b14:	d034      	beq.n	10008b80 <process_get_descriptor+0xbc>
10008b16:	e000      	b.n	10008b1a <process_get_descriptor+0x56>
10008b18:	bf00      	nop
10008b1a:	0002      	movs	r2, r0
10008b1c:	2a00      	cmp	r2, #0
10008b1e:	d105      	bne.n	10008b2c <process_get_descriptor+0x68>
10008b20:	2000      	movs	r0, #0
10008b22:	e028      	b.n	10008b76 <process_get_descriptor+0xb2>
10008b24:	f7ff fc62 	bl	100083ec <tud_descriptor_configuration_cb>
10008b28:	0002      	movs	r2, r0
10008b2a:	e7f7      	b.n	10008b1c <process_get_descriptor+0x58>
10008b2c:	7891      	ldrb	r1, [r2, #2]
10008b2e:	78d3      	ldrb	r3, [r2, #3]
10008b30:	021b      	lsls	r3, r3, #8
10008b32:	430b      	orrs	r3, r1
10008b34:	0021      	movs	r1, r4
10008b36:	0028      	movs	r0, r5
10008b38:	f000 fcb0 	bl	1000949c <tud_control_xfer>
10008b3c:	e01b      	b.n	10008b76 <process_get_descriptor+0xb2>
10008b3e:	7923      	ldrb	r3, [r4, #4]
10008b40:	7961      	ldrb	r1, [r4, #5]
10008b42:	0209      	lsls	r1, r1, #8
10008b44:	4319      	orrs	r1, r3
10008b46:	f7ff fc55 	bl	100083f4 <tud_descriptor_string_cb>
10008b4a:	1e02      	subs	r2, r0, #0
10008b4c:	d01a      	beq.n	10008b84 <process_get_descriptor+0xc0>
10008b4e:	7803      	ldrb	r3, [r0, #0]
10008b50:	0021      	movs	r1, r4
10008b52:	0028      	movs	r0, r5
10008b54:	f000 fca2 	bl	1000949c <tud_control_xfer>
10008b58:	e00d      	b.n	10008b76 <process_get_descriptor+0xb2>
10008b5a:	4b10      	ldr	r3, [pc, #64]	; (10008b9c <process_get_descriptor+0xd8>)
10008b5c:	2b00      	cmp	r3, #0
10008b5e:	d013      	beq.n	10008b88 <process_get_descriptor+0xc4>
10008b60:	e000      	b.n	10008b64 <process_get_descriptor+0xa0>
10008b62:	bf00      	nop
10008b64:	1e02      	subs	r2, r0, #0
10008b66:	d011      	beq.n	10008b8c <process_get_descriptor+0xc8>
10008b68:	7803      	ldrb	r3, [r0, #0]
10008b6a:	0021      	movs	r1, r4
10008b6c:	0028      	movs	r0, r5
10008b6e:	f000 fc95 	bl	1000949c <tud_control_xfer>
10008b72:	e000      	b.n	10008b76 <process_get_descriptor+0xb2>
10008b74:	2000      	movs	r0, #0
10008b76:	bd70      	pop	{r4, r5, r6, pc}
10008b78:	2000      	movs	r0, #0
10008b7a:	e7fc      	b.n	10008b76 <process_get_descriptor+0xb2>
10008b7c:	2000      	movs	r0, #0
10008b7e:	e7fa      	b.n	10008b76 <process_get_descriptor+0xb2>
10008b80:	2000      	movs	r0, #0
10008b82:	e7f8      	b.n	10008b76 <process_get_descriptor+0xb2>
10008b84:	2000      	movs	r0, #0
10008b86:	e7f6      	b.n	10008b76 <process_get_descriptor+0xb2>
10008b88:	2000      	movs	r0, #0
10008b8a:	e7f4      	b.n	10008b76 <process_get_descriptor+0xb2>
10008b8c:	2000      	movs	r0, #0
10008b8e:	e7f2      	b.n	10008b76 <process_get_descriptor+0xb2>
10008b90:	1000c304 	.word	0x1000c304
	...

10008ba0 <tud_mounted>:
10008ba0:	4b02      	ldr	r3, [pc, #8]	; (10008bac <tud_mounted+0xc>)
10008ba2:	7858      	ldrb	r0, [r3, #1]
10008ba4:	1e43      	subs	r3, r0, #1
10008ba6:	4198      	sbcs	r0, r3
10008ba8:	b2c0      	uxtb	r0, r0
10008baa:	4770      	bx	lr
10008bac:	200015f4 	.word	0x200015f4

10008bb0 <tud_suspended>:
10008bb0:	4b02      	ldr	r3, [pc, #8]	; (10008bbc <tud_suspended+0xc>)
10008bb2:	7818      	ldrb	r0, [r3, #0]
10008bb4:	0740      	lsls	r0, r0, #29
10008bb6:	0fc0      	lsrs	r0, r0, #31
10008bb8:	4770      	bx	lr
10008bba:	46c0      	nop			; (mov r8, r8)
10008bbc:	200015f4 	.word	0x200015f4

10008bc0 <tud_inited>:
10008bc0:	4b03      	ldr	r3, [pc, #12]	; (10008bd0 <tud_inited+0x10>)
10008bc2:	7818      	ldrb	r0, [r3, #0]
10008bc4:	38ff      	subs	r0, #255	; 0xff
10008bc6:	1e43      	subs	r3, r0, #1
10008bc8:	4198      	sbcs	r0, r3
10008bca:	b2c0      	uxtb	r0, r0
10008bcc:	4770      	bx	lr
10008bce:	46c0      	nop			; (mov r8, r8)
10008bd0:	20000c6c 	.word	0x20000c6c

10008bd4 <tud_init>:
10008bd4:	b570      	push	{r4, r5, r6, lr}
10008bd6:	0004      	movs	r4, r0
10008bd8:	f7ff fff2 	bl	10008bc0 <tud_inited>
10008bdc:	1e06      	subs	r6, r0, #0
10008bde:	d001      	beq.n	10008be4 <tud_init+0x10>
10008be0:	0030      	movs	r0, r6
10008be2:	bd70      	pop	{r4, r5, r6, pc}
10008be4:	4824      	ldr	r0, [pc, #144]	; (10008c78 <tud_init+0xa4>)
10008be6:	2253      	movs	r2, #83	; 0x53
10008be8:	2100      	movs	r1, #0
10008bea:	f7fe ffd3 	bl	10007b94 <__wrap_memset>
10008bee:	4d23      	ldr	r5, [pc, #140]	; (10008c7c <tud_init+0xa8>)
10008bf0:	0028      	movs	r0, r5
10008bf2:	f7fb fa5b 	bl	100040ac <mutex_init>
10008bf6:	4b22      	ldr	r3, [pc, #136]	; (10008c80 <tud_init+0xac>)
10008bf8:	601d      	str	r5, [r3, #0]
10008bfa:	4d22      	ldr	r5, [pc, #136]	; (10008c84 <tud_init+0xb0>)
10008bfc:	0028      	movs	r0, r5
10008bfe:	3014      	adds	r0, #20
10008c00:	f7fb fa7a 	bl	100040f8 <critical_section_init>
10008c04:	0028      	movs	r0, r5
10008c06:	f001 fbf1 	bl	1000a3ec <tu_fifo_clear>
10008c0a:	4b1f      	ldr	r3, [pc, #124]	; (10008c88 <tud_init+0xb4>)
10008c0c:	601d      	str	r5, [r3, #0]
10008c0e:	4b1f      	ldr	r3, [pc, #124]	; (10008c8c <tud_init+0xb8>)
10008c10:	2b00      	cmp	r3, #0
10008c12:	d004      	beq.n	10008c1e <tud_init+0x4a>
10008c14:	481e      	ldr	r0, [pc, #120]	; (10008c90 <tud_init+0xbc>)
10008c16:	f7ff f989 	bl	10007f2c <usbd_app_driver_get_cb>
10008c1a:	4b1e      	ldr	r3, [pc, #120]	; (10008c94 <tud_init+0xc0>)
10008c1c:	6018      	str	r0, [r3, #0]
10008c1e:	2500      	movs	r5, #0
10008c20:	e00b      	b.n	10008c3a <tud_init+0x66>
10008c22:	006a      	lsls	r2, r5, #1
10008c24:	1952      	adds	r2, r2, r5
10008c26:	00d2      	lsls	r2, r2, #3
10008c28:	4b1a      	ldr	r3, [pc, #104]	; (10008c94 <tud_init+0xc0>)
10008c2a:	681b      	ldr	r3, [r3, #0]
10008c2c:	189b      	adds	r3, r3, r2
10008c2e:	2b00      	cmp	r3, #0
10008c30:	d0d6      	beq.n	10008be0 <tud_init+0xc>
10008c32:	681b      	ldr	r3, [r3, #0]
10008c34:	4798      	blx	r3
10008c36:	3501      	adds	r5, #1
10008c38:	b2ed      	uxtb	r5, r5
10008c3a:	4b15      	ldr	r3, [pc, #84]	; (10008c90 <tud_init+0xbc>)
10008c3c:	781b      	ldrb	r3, [r3, #0]
10008c3e:	42ab      	cmp	r3, r5
10008c40:	d310      	bcc.n	10008c64 <tud_init+0x90>
10008c42:	4a12      	ldr	r2, [pc, #72]	; (10008c8c <tud_init+0xb8>)
10008c44:	2a00      	cmp	r2, #0
10008c46:	d00b      	beq.n	10008c60 <tud_init+0x8c>
10008c48:	42ab      	cmp	r3, r5
10008c4a:	d8ea      	bhi.n	10008c22 <tud_init+0x4e>
10008c4c:	1aeb      	subs	r3, r5, r3
10008c4e:	b2db      	uxtb	r3, r3
10008c50:	2b00      	cmp	r3, #0
10008c52:	d1c5      	bne.n	10008be0 <tud_init+0xc>
10008c54:	4a10      	ldr	r2, [pc, #64]	; (10008c98 <tud_init+0xc4>)
10008c56:	0059      	lsls	r1, r3, #1
10008c58:	18c9      	adds	r1, r1, r3
10008c5a:	00c9      	lsls	r1, r1, #3
10008c5c:	1853      	adds	r3, r2, r1
10008c5e:	e7e6      	b.n	10008c2e <tud_init+0x5a>
10008c60:	002b      	movs	r3, r5
10008c62:	e7f5      	b.n	10008c50 <tud_init+0x7c>
10008c64:	4b0d      	ldr	r3, [pc, #52]	; (10008c9c <tud_init+0xc8>)
10008c66:	701c      	strb	r4, [r3, #0]
10008c68:	0020      	movs	r0, r4
10008c6a:	f7ff fd19 	bl	100086a0 <dcd_init>
10008c6e:	0020      	movs	r0, r4
10008c70:	f7ff fce2 	bl	10008638 <dcd_int_enable>
10008c74:	2601      	movs	r6, #1
10008c76:	e7b3      	b.n	10008be0 <tud_init+0xc>
10008c78:	200015f4 	.word	0x200015f4
10008c7c:	200015ac 	.word	0x200015ac
10008c80:	20001648 	.word	0x20001648
10008c84:	20000c50 	.word	0x20000c50
10008c88:	2000164c 	.word	0x2000164c
10008c8c:	10007f2d 	.word	0x10007f2d
10008c90:	20001f59 	.word	0x20001f59
10008c94:	200012cc 	.word	0x200012cc
10008c98:	1000c390 	.word	0x1000c390
10008c9c:	20000c6c 	.word	0x20000c6c

10008ca0 <usbd_defer_func>:
10008ca0:	b5f0      	push	{r4, r5, r6, r7, lr}
10008ca2:	b085      	sub	sp, #20
10008ca4:	0007      	movs	r7, r0
10008ca6:	000e      	movs	r6, r1
10008ca8:	0015      	movs	r5, r2
10008caa:	ac01      	add	r4, sp, #4
10008cac:	220c      	movs	r2, #12
10008cae:	2100      	movs	r1, #0
10008cb0:	0020      	movs	r0, r4
10008cb2:	f7fe ff6f 	bl	10007b94 <__wrap_memset>
10008cb6:	2308      	movs	r3, #8
10008cb8:	7063      	strb	r3, [r4, #1]
10008cba:	9702      	str	r7, [sp, #8]
10008cbc:	9603      	str	r6, [sp, #12]
10008cbe:	0029      	movs	r1, r5
10008cc0:	0020      	movs	r0, r4
10008cc2:	f001 ff25 	bl	1000ab10 <__dcd_event_handler_veneer>
10008cc6:	b005      	add	sp, #20
10008cc8:	bdf0      	pop	{r4, r5, r6, r7, pc}
	...

10008ccc <usbd_edpt_open>:
10008ccc:	b570      	push	{r4, r5, r6, lr}
10008cce:	000c      	movs	r4, r1
10008cd0:	4b09      	ldr	r3, [pc, #36]	; (10008cf8 <usbd_edpt_open+0x2c>)
10008cd2:	781d      	ldrb	r5, [r3, #0]
10008cd4:	788b      	ldrb	r3, [r1, #2]
10008cd6:	2270      	movs	r2, #112	; 0x70
10008cd8:	421a      	tst	r2, r3
10008cda:	d001      	beq.n	10008ce0 <usbd_edpt_open+0x14>
10008cdc:	2000      	movs	r0, #0
10008cde:	bd70      	pop	{r4, r5, r6, pc}
10008ce0:	4b06      	ldr	r3, [pc, #24]	; (10008cfc <usbd_edpt_open+0x30>)
10008ce2:	7899      	ldrb	r1, [r3, #2]
10008ce4:	0020      	movs	r0, r4
10008ce6:	f000 fff1 	bl	10009ccc <tu_edpt_validate>
10008cea:	2800      	cmp	r0, #0
10008cec:	d0f7      	beq.n	10008cde <usbd_edpt_open+0x12>
10008cee:	0021      	movs	r1, r4
10008cf0:	0028      	movs	r0, r5
10008cf2:	f7ff fd23 	bl	1000873c <dcd_edpt_open>
10008cf6:	e7f2      	b.n	10008cde <usbd_edpt_open+0x12>
10008cf8:	20000c6c 	.word	0x20000c6c
10008cfc:	200015f4 	.word	0x200015f4

10008d00 <usbd_open_edpt_pair>:
10008d00:	b5f8      	push	{r3, r4, r5, r6, r7, lr}
10008d02:	46ce      	mov	lr, r9
10008d04:	4647      	mov	r7, r8
10008d06:	b580      	push	{r7, lr}
10008d08:	4681      	mov	r9, r0
10008d0a:	000c      	movs	r4, r1
10008d0c:	0017      	movs	r7, r2
10008d0e:	001e      	movs	r6, r3
10008d10:	9b08      	ldr	r3, [sp, #32]
10008d12:	4698      	mov	r8, r3
10008d14:	2500      	movs	r5, #0
10008d16:	e004      	b.n	10008d22 <usbd_open_edpt_pair+0x22>
10008d18:	9a09      	ldr	r2, [sp, #36]	; 0x24
10008d1a:	7013      	strb	r3, [r2, #0]
10008d1c:	7823      	ldrb	r3, [r4, #0]
10008d1e:	18e4      	adds	r4, r4, r3
10008d20:	3501      	adds	r5, #1
10008d22:	42af      	cmp	r7, r5
10008d24:	dd14      	ble.n	10008d50 <usbd_open_edpt_pair+0x50>
10008d26:	7863      	ldrb	r3, [r4, #1]
10008d28:	2b05      	cmp	r3, #5
10008d2a:	d116      	bne.n	10008d5a <usbd_open_edpt_pair+0x5a>
10008d2c:	78e1      	ldrb	r1, [r4, #3]
10008d2e:	0789      	lsls	r1, r1, #30
10008d30:	0f89      	lsrs	r1, r1, #30
10008d32:	42b1      	cmp	r1, r6
10008d34:	d113      	bne.n	10008d5e <usbd_open_edpt_pair+0x5e>
10008d36:	0021      	movs	r1, r4
10008d38:	4648      	mov	r0, r9
10008d3a:	f7ff ffc7 	bl	10008ccc <usbd_edpt_open>
10008d3e:	2800      	cmp	r0, #0
10008d40:	d007      	beq.n	10008d52 <usbd_open_edpt_pair+0x52>
10008d42:	78a3      	ldrb	r3, [r4, #2]
10008d44:	09da      	lsrs	r2, r3, #7
10008d46:	2a01      	cmp	r2, #1
10008d48:	d0e6      	beq.n	10008d18 <usbd_open_edpt_pair+0x18>
10008d4a:	4642      	mov	r2, r8
10008d4c:	7013      	strb	r3, [r2, #0]
10008d4e:	e7e5      	b.n	10008d1c <usbd_open_edpt_pair+0x1c>
10008d50:	2001      	movs	r0, #1
10008d52:	bcc0      	pop	{r6, r7}
10008d54:	46b9      	mov	r9, r7
10008d56:	46b0      	mov	r8, r6
10008d58:	bdf8      	pop	{r3, r4, r5, r6, r7, pc}
10008d5a:	2000      	movs	r0, #0
10008d5c:	e7f9      	b.n	10008d52 <usbd_open_edpt_pair+0x52>
10008d5e:	2000      	movs	r0, #0
10008d60:	e7f7      	b.n	10008d52 <usbd_open_edpt_pair+0x52>
	...

10008d64 <usbd_edpt_claim>:
10008d64:	b510      	push	{r4, lr}
10008d66:	237f      	movs	r3, #127	; 0x7f
10008d68:	400b      	ands	r3, r1
10008d6a:	09c9      	lsrs	r1, r1, #7
10008d6c:	4805      	ldr	r0, [pc, #20]	; (10008d84 <usbd_edpt_claim+0x20>)
10008d6e:	005b      	lsls	r3, r3, #1
10008d70:	185b      	adds	r3, r3, r1
10008d72:	3330      	adds	r3, #48	; 0x30
10008d74:	18c0      	adds	r0, r0, r3
10008d76:	3003      	adds	r0, #3
10008d78:	4b03      	ldr	r3, [pc, #12]	; (10008d88 <usbd_edpt_claim+0x24>)
10008d7a:	6819      	ldr	r1, [r3, #0]
10008d7c:	f000 ff60 	bl	10009c40 <tu_edpt_claim>
10008d80:	bd10      	pop	{r4, pc}
10008d82:	46c0      	nop			; (mov r8, r8)
10008d84:	200015f4 	.word	0x200015f4
10008d88:	20001648 	.word	0x20001648

10008d8c <usbd_edpt_release>:
10008d8c:	b510      	push	{r4, lr}
10008d8e:	237f      	movs	r3, #127	; 0x7f
10008d90:	400b      	ands	r3, r1
10008d92:	09c9      	lsrs	r1, r1, #7
10008d94:	4805      	ldr	r0, [pc, #20]	; (10008dac <usbd_edpt_release+0x20>)
10008d96:	005b      	lsls	r3, r3, #1
10008d98:	185b      	adds	r3, r3, r1
10008d9a:	3330      	adds	r3, #48	; 0x30
10008d9c:	18c0      	adds	r0, r0, r3
10008d9e:	3003      	adds	r0, #3
10008da0:	4b03      	ldr	r3, [pc, #12]	; (10008db0 <usbd_edpt_release+0x24>)
10008da2:	6819      	ldr	r1, [r3, #0]
10008da4:	f000 ff74 	bl	10009c90 <tu_edpt_release>
10008da8:	bd10      	pop	{r4, pc}
10008daa:	46c0      	nop			; (mov r8, r8)
10008dac:	200015f4 	.word	0x200015f4
10008db0:	20001648 	.word	0x20001648

10008db4 <usbd_edpt_xfer>:
10008db4:	b5f8      	push	{r3, r4, r5, r6, r7, lr}
10008db6:	46ce      	mov	lr, r9
10008db8:	4647      	mov	r7, r8
10008dba:	b580      	push	{r7, lr}
10008dbc:	481a      	ldr	r0, [pc, #104]	; (10008e28 <usbd_edpt_xfer+0x74>)
10008dbe:	7800      	ldrb	r0, [r0, #0]
10008dc0:	257f      	movs	r5, #127	; 0x7f
10008dc2:	400d      	ands	r5, r1
10008dc4:	09ce      	lsrs	r6, r1, #7
10008dc6:	4c19      	ldr	r4, [pc, #100]	; (10008e2c <usbd_edpt_xfer+0x78>)
10008dc8:	006f      	lsls	r7, r5, #1
10008dca:	19e4      	adds	r4, r4, r7
10008dcc:	19a4      	adds	r4, r4, r6
10008dce:	3430      	adds	r4, #48	; 0x30
10008dd0:	78e4      	ldrb	r4, [r4, #3]
10008dd2:	07e4      	lsls	r4, r4, #31
10008dd4:	d504      	bpl.n	10008de0 <usbd_edpt_xfer+0x2c>
10008dd6:	2000      	movs	r0, #0
10008dd8:	bcc0      	pop	{r6, r7}
10008dda:	46b9      	mov	r9, r7
10008ddc:	46b0      	mov	r8, r6
10008dde:	bdf8      	pop	{r3, r4, r5, r6, r7, pc}
10008de0:	4f12      	ldr	r7, [pc, #72]	; (10008e2c <usbd_edpt_xfer+0x78>)
10008de2:	006c      	lsls	r4, r5, #1
10008de4:	46a4      	mov	ip, r4
10008de6:	003c      	movs	r4, r7
10008de8:	4464      	add	r4, ip
10008dea:	19a4      	adds	r4, r4, r6
10008dec:	2730      	movs	r7, #48	; 0x30
10008dee:	46b9      	mov	r9, r7
10008df0:	44a1      	add	r9, r4
10008df2:	464c      	mov	r4, r9
10008df4:	78e4      	ldrb	r4, [r4, #3]
10008df6:	2701      	movs	r7, #1
10008df8:	46bc      	mov	ip, r7
10008dfa:	4667      	mov	r7, ip
10008dfc:	433c      	orrs	r4, r7
10008dfe:	0027      	movs	r7, r4
10008e00:	464c      	mov	r4, r9
10008e02:	70e7      	strb	r7, [r4, #3]
10008e04:	f7ff fcbe 	bl	10008784 <dcd_edpt_xfer>
10008e08:	2800      	cmp	r0, #0
10008e0a:	d1e5      	bne.n	10008dd8 <usbd_edpt_xfer+0x24>
10008e0c:	4b07      	ldr	r3, [pc, #28]	; (10008e2c <usbd_edpt_xfer+0x78>)
10008e0e:	006d      	lsls	r5, r5, #1
10008e10:	195b      	adds	r3, r3, r5
10008e12:	199b      	adds	r3, r3, r6
10008e14:	3330      	adds	r3, #48	; 0x30
10008e16:	78da      	ldrb	r2, [r3, #3]
10008e18:	2101      	movs	r1, #1
10008e1a:	438a      	bics	r2, r1
10008e1c:	70da      	strb	r2, [r3, #3]
10008e1e:	78da      	ldrb	r2, [r3, #3]
10008e20:	3103      	adds	r1, #3
10008e22:	438a      	bics	r2, r1
10008e24:	70da      	strb	r2, [r3, #3]
10008e26:	e7d7      	b.n	10008dd8 <usbd_edpt_xfer+0x24>
10008e28:	20000c6c 	.word	0x20000c6c
10008e2c:	200015f4 	.word	0x200015f4

10008e30 <usbd_edpt_stall>:
10008e30:	b570      	push	{r4, r5, r6, lr}
10008e32:	4b0f      	ldr	r3, [pc, #60]	; (10008e70 <usbd_edpt_stall+0x40>)
10008e34:	7818      	ldrb	r0, [r3, #0]
10008e36:	247f      	movs	r4, #127	; 0x7f
10008e38:	400c      	ands	r4, r1
10008e3a:	09cd      	lsrs	r5, r1, #7
10008e3c:	4b0d      	ldr	r3, [pc, #52]	; (10008e74 <usbd_edpt_stall+0x44>)
10008e3e:	0062      	lsls	r2, r4, #1
10008e40:	189b      	adds	r3, r3, r2
10008e42:	195b      	adds	r3, r3, r5
10008e44:	3330      	adds	r3, #48	; 0x30
10008e46:	78db      	ldrb	r3, [r3, #3]
10008e48:	079b      	lsls	r3, r3, #30
10008e4a:	d500      	bpl.n	10008e4e <usbd_edpt_stall+0x1e>
10008e4c:	bd70      	pop	{r4, r5, r6, pc}
10008e4e:	f7ff fcb3 	bl	100087b8 <dcd_edpt_stall>
10008e52:	4b08      	ldr	r3, [pc, #32]	; (10008e74 <usbd_edpt_stall+0x44>)
10008e54:	0062      	lsls	r2, r4, #1
10008e56:	189c      	adds	r4, r3, r2
10008e58:	1964      	adds	r4, r4, r5
10008e5a:	3430      	adds	r4, #48	; 0x30
10008e5c:	78e3      	ldrb	r3, [r4, #3]
10008e5e:	2202      	movs	r2, #2
10008e60:	4313      	orrs	r3, r2
10008e62:	70e3      	strb	r3, [r4, #3]
10008e64:	78e3      	ldrb	r3, [r4, #3]
10008e66:	2201      	movs	r2, #1
10008e68:	4313      	orrs	r3, r2
10008e6a:	70e3      	strb	r3, [r4, #3]
10008e6c:	e7ee      	b.n	10008e4c <usbd_edpt_stall+0x1c>
10008e6e:	46c0      	nop			; (mov r8, r8)
10008e70:	20000c6c 	.word	0x20000c6c
10008e74:	200015f4 	.word	0x200015f4

10008e78 <usbd_edpt_clear_stall>:
10008e78:	b570      	push	{r4, r5, r6, lr}
10008e7a:	4b0f      	ldr	r3, [pc, #60]	; (10008eb8 <usbd_edpt_clear_stall+0x40>)
10008e7c:	7818      	ldrb	r0, [r3, #0]
10008e7e:	247f      	movs	r4, #127	; 0x7f
10008e80:	400c      	ands	r4, r1
10008e82:	09cd      	lsrs	r5, r1, #7
10008e84:	4b0d      	ldr	r3, [pc, #52]	; (10008ebc <usbd_edpt_clear_stall+0x44>)
10008e86:	0062      	lsls	r2, r4, #1
10008e88:	189b      	adds	r3, r3, r2
10008e8a:	195b      	adds	r3, r3, r5
10008e8c:	3330      	adds	r3, #48	; 0x30
10008e8e:	78db      	ldrb	r3, [r3, #3]
10008e90:	079b      	lsls	r3, r3, #30
10008e92:	d400      	bmi.n	10008e96 <usbd_edpt_clear_stall+0x1e>
10008e94:	bd70      	pop	{r4, r5, r6, pc}
10008e96:	f7ff fca5 	bl	100087e4 <dcd_edpt_clear_stall>
10008e9a:	4b08      	ldr	r3, [pc, #32]	; (10008ebc <usbd_edpt_clear_stall+0x44>)
10008e9c:	0062      	lsls	r2, r4, #1
10008e9e:	189c      	adds	r4, r3, r2
10008ea0:	1964      	adds	r4, r4, r5
10008ea2:	3430      	adds	r4, #48	; 0x30
10008ea4:	78e3      	ldrb	r3, [r4, #3]
10008ea6:	2202      	movs	r2, #2
10008ea8:	4393      	bics	r3, r2
10008eaa:	70e3      	strb	r3, [r4, #3]
10008eac:	78e3      	ldrb	r3, [r4, #3]
10008eae:	3a01      	subs	r2, #1
10008eb0:	4393      	bics	r3, r2
10008eb2:	70e3      	strb	r3, [r4, #3]
10008eb4:	e7ee      	b.n	10008e94 <usbd_edpt_clear_stall+0x1c>
10008eb6:	46c0      	nop			; (mov r8, r8)
10008eb8:	20000c6c 	.word	0x20000c6c
10008ebc:	200015f4 	.word	0x200015f4

10008ec0 <usbd_edpt_stalled>:
10008ec0:	227f      	movs	r2, #127	; 0x7f
10008ec2:	400a      	ands	r2, r1
10008ec4:	09c9      	lsrs	r1, r1, #7
10008ec6:	4b04      	ldr	r3, [pc, #16]	; (10008ed8 <usbd_edpt_stalled+0x18>)
10008ec8:	0052      	lsls	r2, r2, #1
10008eca:	189b      	adds	r3, r3, r2
10008ecc:	185b      	adds	r3, r3, r1
10008ece:	3330      	adds	r3, #48	; 0x30
10008ed0:	78d8      	ldrb	r0, [r3, #3]
10008ed2:	0780      	lsls	r0, r0, #30
10008ed4:	0fc0      	lsrs	r0, r0, #31
10008ed6:	4770      	bx	lr
10008ed8:	200015f4 	.word	0x200015f4

10008edc <process_control_request>:
10008edc:	b5f0      	push	{r4, r5, r6, r7, lr}
10008ede:	46c6      	mov	lr, r8
10008ee0:	b500      	push	{lr}
10008ee2:	b082      	sub	sp, #8
10008ee4:	0005      	movs	r5, r0
10008ee6:	000c      	movs	r4, r1
10008ee8:	2000      	movs	r0, #0
10008eea:	f000 fb1d 	bl	10009528 <usbd_control_set_complete_callback>
10008eee:	7822      	ldrb	r2, [r4, #0]
10008ef0:	2360      	movs	r3, #96	; 0x60
10008ef2:	4013      	ands	r3, r2
10008ef4:	2b60      	cmp	r3, #96	; 0x60
10008ef6:	d100      	bne.n	10008efa <process_control_request+0x1e>
10008ef8:	e185      	b.n	10009206 <process_control_request+0x32a>
10008efa:	2b40      	cmp	r3, #64	; 0x40
10008efc:	d00f      	beq.n	10008f1e <process_control_request+0x42>
10008efe:	7822      	ldrb	r2, [r4, #0]
10008f00:	06d2      	lsls	r2, r2, #27
10008f02:	0ed2      	lsrs	r2, r2, #27
10008f04:	2a01      	cmp	r2, #1
10008f06:	d100      	bne.n	10008f0a <process_control_request+0x2e>
10008f08:	e0c9      	b.n	1000909e <process_control_request+0x1c2>
10008f0a:	2a02      	cmp	r2, #2
10008f0c:	d100      	bne.n	10008f10 <process_control_request+0x34>
10008f0e:	e10f      	b.n	10009130 <process_control_request+0x254>
10008f10:	2a00      	cmp	r2, #0
10008f12:	d011      	beq.n	10008f38 <process_control_request+0x5c>
10008f14:	2000      	movs	r0, #0
10008f16:	b002      	add	sp, #8
10008f18:	bc80      	pop	{r7}
10008f1a:	46b8      	mov	r8, r7
10008f1c:	bdf0      	pop	{r4, r5, r6, r7, pc}
10008f1e:	4bc7      	ldr	r3, [pc, #796]	; (1000923c <process_control_request+0x360>)
10008f20:	2b00      	cmp	r3, #0
10008f22:	d100      	bne.n	10008f26 <process_control_request+0x4a>
10008f24:	e171      	b.n	1000920a <process_control_request+0x32e>
10008f26:	0018      	movs	r0, r3
10008f28:	f000 fafe 	bl	10009528 <usbd_control_set_complete_callback>
10008f2c:	0022      	movs	r2, r4
10008f2e:	2101      	movs	r1, #1
10008f30:	0028      	movs	r0, r5
10008f32:	e000      	b.n	10008f36 <process_control_request+0x5a>
10008f34:	bf00      	nop
10008f36:	e7ee      	b.n	10008f16 <process_control_request+0x3a>
10008f38:	2b20      	cmp	r3, #32
10008f3a:	d00a      	beq.n	10008f52 <process_control_request+0x76>
10008f3c:	2b00      	cmp	r3, #0
10008f3e:	d000      	beq.n	10008f42 <process_control_request+0x66>
10008f40:	e16b      	b.n	1000921a <process_control_request+0x33e>
10008f42:	7863      	ldrb	r3, [r4, #1]
10008f44:	2b09      	cmp	r3, #9
10008f46:	d900      	bls.n	10008f4a <process_control_request+0x6e>
10008f48:	e169      	b.n	1000921e <process_control_request+0x342>
10008f4a:	009b      	lsls	r3, r3, #2
10008f4c:	4abc      	ldr	r2, [pc, #752]	; (10009240 <process_control_request+0x364>)
10008f4e:	58d3      	ldr	r3, [r2, r3]
10008f50:	469f      	mov	pc, r3
10008f52:	7923      	ldrb	r3, [r4, #4]
10008f54:	2b0f      	cmp	r3, #15
10008f56:	d900      	bls.n	10008f5a <process_control_request+0x7e>
10008f58:	e159      	b.n	1000920e <process_control_request+0x332>
10008f5a:	4aba      	ldr	r2, [pc, #744]	; (10009244 <process_control_request+0x368>)
10008f5c:	18d3      	adds	r3, r2, r3
10008f5e:	78db      	ldrb	r3, [r3, #3]
10008f60:	4ab9      	ldr	r2, [pc, #740]	; (10009248 <process_control_request+0x36c>)
10008f62:	2a00      	cmp	r2, #0
10008f64:	d005      	beq.n	10008f72 <process_control_request+0x96>
10008f66:	4ab9      	ldr	r2, [pc, #740]	; (1000924c <process_control_request+0x370>)
10008f68:	7812      	ldrb	r2, [r2, #0]
10008f6a:	4293      	cmp	r3, r2
10008f6c:	d311      	bcc.n	10008f92 <process_control_request+0xb6>
10008f6e:	1a9b      	subs	r3, r3, r2
10008f70:	b2db      	uxtb	r3, r3
10008f72:	2b00      	cmp	r3, #0
10008f74:	d000      	beq.n	10008f78 <process_control_request+0x9c>
10008f76:	e14c      	b.n	10009212 <process_control_request+0x336>
10008f78:	49b5      	ldr	r1, [pc, #724]	; (10009250 <process_control_request+0x374>)
10008f7a:	005a      	lsls	r2, r3, #1
10008f7c:	18d3      	adds	r3, r2, r3
10008f7e:	00db      	lsls	r3, r3, #3
10008f80:	18c9      	adds	r1, r1, r3
10008f82:	2900      	cmp	r1, #0
10008f84:	d100      	bne.n	10008f88 <process_control_request+0xac>
10008f86:	e146      	b.n	10009216 <process_control_request+0x33a>
10008f88:	0022      	movs	r2, r4
10008f8a:	0028      	movs	r0, r5
10008f8c:	f7ff fcd0 	bl	10008930 <invoke_class_control>
10008f90:	e7c1      	b.n	10008f16 <process_control_request+0x3a>
10008f92:	005a      	lsls	r2, r3, #1
10008f94:	18d3      	adds	r3, r2, r3
10008f96:	00db      	lsls	r3, r3, #3
10008f98:	4aae      	ldr	r2, [pc, #696]	; (10009254 <process_control_request+0x378>)
10008f9a:	6811      	ldr	r1, [r2, #0]
10008f9c:	18c9      	adds	r1, r1, r3
10008f9e:	e7f0      	b.n	10008f82 <process_control_request+0xa6>
10008fa0:	0020      	movs	r0, r4
10008fa2:	f000 fac7 	bl	10009534 <usbd_control_set_request>
10008fa6:	78a1      	ldrb	r1, [r4, #2]
10008fa8:	0028      	movs	r0, r5
10008faa:	f7ff fb5b 	bl	10008664 <dcd_set_address>
10008fae:	4aa5      	ldr	r2, [pc, #660]	; (10009244 <process_control_request+0x368>)
10008fb0:	7813      	ldrb	r3, [r2, #0]
10008fb2:	2102      	movs	r1, #2
10008fb4:	430b      	orrs	r3, r1
10008fb6:	7013      	strb	r3, [r2, #0]
10008fb8:	2001      	movs	r0, #1
10008fba:	e7ac      	b.n	10008f16 <process_control_request+0x3a>
10008fbc:	4ba1      	ldr	r3, [pc, #644]	; (10009244 <process_control_request+0x368>)
10008fbe:	785b      	ldrb	r3, [r3, #1]
10008fc0:	466a      	mov	r2, sp
10008fc2:	3206      	adds	r2, #6
10008fc4:	7013      	strb	r3, [r2, #0]
10008fc6:	2301      	movs	r3, #1
10008fc8:	0021      	movs	r1, r4
10008fca:	0028      	movs	r0, r5
10008fcc:	f000 fa66 	bl	1000949c <tud_control_xfer>
10008fd0:	2001      	movs	r0, #1
10008fd2:	e7a0      	b.n	10008f16 <process_control_request+0x3a>
10008fd4:	78a6      	ldrb	r6, [r4, #2]
10008fd6:	4b9b      	ldr	r3, [pc, #620]	; (10009244 <process_control_request+0x368>)
10008fd8:	785b      	ldrb	r3, [r3, #1]
10008fda:	b2db      	uxtb	r3, r3
10008fdc:	42b3      	cmp	r3, r6
10008fde:	d005      	beq.n	10008fec <process_control_request+0x110>
10008fe0:	4b98      	ldr	r3, [pc, #608]	; (10009244 <process_control_request+0x368>)
10008fe2:	785b      	ldrb	r3, [r3, #1]
10008fe4:	2b00      	cmp	r3, #0
10008fe6:	d109      	bne.n	10008ffc <process_control_request+0x120>
10008fe8:	2e00      	cmp	r6, #0
10008fea:	d113      	bne.n	10009014 <process_control_request+0x138>
10008fec:	4b95      	ldr	r3, [pc, #596]	; (10009244 <process_control_request+0x368>)
10008fee:	705e      	strb	r6, [r3, #1]
10008ff0:	0021      	movs	r1, r4
10008ff2:	0028      	movs	r0, r5
10008ff4:	f000 fa36 	bl	10009464 <tud_control_status>
10008ff8:	2001      	movs	r0, #1
10008ffa:	e78c      	b.n	10008f16 <process_control_request+0x3a>
10008ffc:	0028      	movs	r0, r5
10008ffe:	f7ff fbbd 	bl	1000877c <dcd_edpt_close_all>
10009002:	4f90      	ldr	r7, [pc, #576]	; (10009244 <process_control_request+0x368>)
10009004:	78bb      	ldrb	r3, [r7, #2]
10009006:	4698      	mov	r8, r3
10009008:	0028      	movs	r0, r5
1000900a:	f7ff fc49 	bl	100088a0 <configuration_reset>
1000900e:	4643      	mov	r3, r8
10009010:	70bb      	strb	r3, [r7, #2]
10009012:	e7e9      	b.n	10008fe8 <process_control_request+0x10c>
10009014:	0031      	movs	r1, r6
10009016:	0028      	movs	r0, r5
10009018:	f7ff fc98 	bl	1000894c <process_set_config>
1000901c:	2800      	cmp	r0, #0
1000901e:	d1e5      	bne.n	10008fec <process_control_request+0x110>
10009020:	e779      	b.n	10008f16 <process_control_request+0x3a>
10009022:	0021      	movs	r1, r4
10009024:	0028      	movs	r0, r5
10009026:	f7ff fd4d 	bl	10008ac4 <process_get_descriptor>
1000902a:	e774      	b.n	10008f16 <process_control_request+0x3a>
1000902c:	78a2      	ldrb	r2, [r4, #2]
1000902e:	78e3      	ldrb	r3, [r4, #3]
10009030:	021b      	lsls	r3, r3, #8
10009032:	4313      	orrs	r3, r2
10009034:	2b01      	cmp	r3, #1
10009036:	d001      	beq.n	1000903c <process_control_request+0x160>
10009038:	2000      	movs	r0, #0
1000903a:	e76c      	b.n	10008f16 <process_control_request+0x3a>
1000903c:	4a81      	ldr	r2, [pc, #516]	; (10009244 <process_control_request+0x368>)
1000903e:	7813      	ldrb	r3, [r2, #0]
10009040:	2108      	movs	r1, #8
10009042:	430b      	orrs	r3, r1
10009044:	7013      	strb	r3, [r2, #0]
10009046:	0021      	movs	r1, r4
10009048:	0028      	movs	r0, r5
1000904a:	f000 fa0b 	bl	10009464 <tud_control_status>
1000904e:	2001      	movs	r0, #1
10009050:	e761      	b.n	10008f16 <process_control_request+0x3a>
10009052:	78a2      	ldrb	r2, [r4, #2]
10009054:	78e3      	ldrb	r3, [r4, #3]
10009056:	021b      	lsls	r3, r3, #8
10009058:	4313      	orrs	r3, r2
1000905a:	2b01      	cmp	r3, #1
1000905c:	d001      	beq.n	10009062 <process_control_request+0x186>
1000905e:	2000      	movs	r0, #0
10009060:	e759      	b.n	10008f16 <process_control_request+0x3a>
10009062:	4a78      	ldr	r2, [pc, #480]	; (10009244 <process_control_request+0x368>)
10009064:	7813      	ldrb	r3, [r2, #0]
10009066:	2108      	movs	r1, #8
10009068:	438b      	bics	r3, r1
1000906a:	7013      	strb	r3, [r2, #0]
1000906c:	0021      	movs	r1, r4
1000906e:	0028      	movs	r0, r5
10009070:	f000 f9f8 	bl	10009464 <tud_control_status>
10009074:	2001      	movs	r0, #1
10009076:	e74e      	b.n	10008f16 <process_control_request+0x3a>
10009078:	4b72      	ldr	r3, [pc, #456]	; (10009244 <process_control_request+0x368>)
1000907a:	781a      	ldrb	r2, [r3, #0]
1000907c:	0951      	lsrs	r1, r2, #5
1000907e:	0892      	lsrs	r2, r2, #2
10009080:	2301      	movs	r3, #1
10009082:	400b      	ands	r3, r1
10009084:	2102      	movs	r1, #2
10009086:	400a      	ands	r2, r1
10009088:	4313      	orrs	r3, r2
1000908a:	466a      	mov	r2, sp
1000908c:	3206      	adds	r2, #6
1000908e:	8013      	strh	r3, [r2, #0]
10009090:	2302      	movs	r3, #2
10009092:	0021      	movs	r1, r4
10009094:	0028      	movs	r0, r5
10009096:	f000 fa01 	bl	1000949c <tud_control_xfer>
1000909a:	2001      	movs	r0, #1
1000909c:	e73b      	b.n	10008f16 <process_control_request+0x3a>
1000909e:	7923      	ldrb	r3, [r4, #4]
100090a0:	2b0f      	cmp	r3, #15
100090a2:	d900      	bls.n	100090a6 <process_control_request+0x1ca>
100090a4:	e0bd      	b.n	10009222 <process_control_request+0x346>
100090a6:	4a67      	ldr	r2, [pc, #412]	; (10009244 <process_control_request+0x368>)
100090a8:	18d3      	adds	r3, r2, r3
100090aa:	78db      	ldrb	r3, [r3, #3]
100090ac:	4a66      	ldr	r2, [pc, #408]	; (10009248 <process_control_request+0x36c>)
100090ae:	2a00      	cmp	r2, #0
100090b0:	d005      	beq.n	100090be <process_control_request+0x1e2>
100090b2:	4a66      	ldr	r2, [pc, #408]	; (1000924c <process_control_request+0x370>)
100090b4:	7812      	ldrb	r2, [r2, #0]
100090b6:	4293      	cmp	r3, r2
100090b8:	d328      	bcc.n	1000910c <process_control_request+0x230>
100090ba:	1a9b      	subs	r3, r3, r2
100090bc:	b2db      	uxtb	r3, r3
100090be:	2b00      	cmp	r3, #0
100090c0:	d000      	beq.n	100090c4 <process_control_request+0x1e8>
100090c2:	e0b0      	b.n	10009226 <process_control_request+0x34a>
100090c4:	4962      	ldr	r1, [pc, #392]	; (10009250 <process_control_request+0x374>)
100090c6:	005a      	lsls	r2, r3, #1
100090c8:	18d3      	adds	r3, r2, r3
100090ca:	00db      	lsls	r3, r3, #3
100090cc:	18c9      	adds	r1, r1, r3
100090ce:	2900      	cmp	r1, #0
100090d0:	d100      	bne.n	100090d4 <process_control_request+0x1f8>
100090d2:	e0aa      	b.n	1000922a <process_control_request+0x34e>
100090d4:	0022      	movs	r2, r4
100090d6:	0028      	movs	r0, r5
100090d8:	f7ff fc2a 	bl	10008930 <invoke_class_control>
100090dc:	2800      	cmp	r0, #0
100090de:	d000      	beq.n	100090e2 <process_control_request+0x206>
100090e0:	e719      	b.n	10008f16 <process_control_request+0x3a>
100090e2:	7823      	ldrb	r3, [r4, #0]
100090e4:	2260      	movs	r2, #96	; 0x60
100090e6:	421a      	tst	r2, r3
100090e8:	d000      	beq.n	100090ec <process_control_request+0x210>
100090ea:	e714      	b.n	10008f16 <process_control_request+0x3a>
100090ec:	7863      	ldrb	r3, [r4, #1]
100090ee:	3b0a      	subs	r3, #10
100090f0:	2b01      	cmp	r3, #1
100090f2:	d900      	bls.n	100090f6 <process_control_request+0x21a>
100090f4:	e70f      	b.n	10008f16 <process_control_request+0x3a>
100090f6:	f000 fa17 	bl	10009528 <usbd_control_set_complete_callback>
100090fa:	7863      	ldrb	r3, [r4, #1]
100090fc:	2b0a      	cmp	r3, #10
100090fe:	d00c      	beq.n	1000911a <process_control_request+0x23e>
10009100:	0021      	movs	r1, r4
10009102:	0028      	movs	r0, r5
10009104:	f000 f9ae 	bl	10009464 <tud_control_status>
10009108:	2001      	movs	r0, #1
1000910a:	e704      	b.n	10008f16 <process_control_request+0x3a>
1000910c:	005a      	lsls	r2, r3, #1
1000910e:	18d3      	adds	r3, r2, r3
10009110:	00db      	lsls	r3, r3, #3
10009112:	4a50      	ldr	r2, [pc, #320]	; (10009254 <process_control_request+0x378>)
10009114:	6811      	ldr	r1, [r2, #0]
10009116:	18c9      	adds	r1, r1, r3
10009118:	e7d9      	b.n	100090ce <process_control_request+0x1f2>
1000911a:	466b      	mov	r3, sp
1000911c:	1d9a      	adds	r2, r3, #6
1000911e:	2300      	movs	r3, #0
10009120:	7013      	strb	r3, [r2, #0]
10009122:	3301      	adds	r3, #1
10009124:	0021      	movs	r1, r4
10009126:	0028      	movs	r0, r5
10009128:	f000 f9b8 	bl	1000949c <tud_control_xfer>
1000912c:	2001      	movs	r0, #1
1000912e:	e6f2      	b.n	10008f16 <process_control_request+0x3a>
10009130:	7921      	ldrb	r1, [r4, #4]
10009132:	207f      	movs	r0, #127	; 0x7f
10009134:	4008      	ands	r0, r1
10009136:	09ce      	lsrs	r6, r1, #7
10009138:	2270      	movs	r2, #112	; 0x70
1000913a:	420a      	tst	r2, r1
1000913c:	d177      	bne.n	1000922e <process_control_request+0x352>
1000913e:	4a41      	ldr	r2, [pc, #260]	; (10009244 <process_control_request+0x368>)
10009140:	0040      	lsls	r0, r0, #1
10009142:	1812      	adds	r2, r2, r0
10009144:	1992      	adds	r2, r2, r6
10009146:	7cd2      	ldrb	r2, [r2, #19]
10009148:	483f      	ldr	r0, [pc, #252]	; (10009248 <process_control_request+0x36c>)
1000914a:	2800      	cmp	r0, #0
1000914c:	d005      	beq.n	1000915a <process_control_request+0x27e>
1000914e:	483f      	ldr	r0, [pc, #252]	; (1000924c <process_control_request+0x370>)
10009150:	7800      	ldrb	r0, [r0, #0]
10009152:	4282      	cmp	r2, r0
10009154:	d312      	bcc.n	1000917c <process_control_request+0x2a0>
10009156:	1a12      	subs	r2, r2, r0
10009158:	b2d2      	uxtb	r2, r2
1000915a:	2a00      	cmp	r2, #0
1000915c:	d115      	bne.n	1000918a <process_control_request+0x2ae>
1000915e:	4e3c      	ldr	r6, [pc, #240]	; (10009250 <process_control_request+0x374>)
10009160:	0050      	lsls	r0, r2, #1
10009162:	1882      	adds	r2, r0, r2
10009164:	00d2      	lsls	r2, r2, #3
10009166:	18b6      	adds	r6, r6, r2
10009168:	2b00      	cmp	r3, #0
1000916a:	d010      	beq.n	1000918e <process_control_request+0x2b2>
1000916c:	2e00      	cmp	r6, #0
1000916e:	d060      	beq.n	10009232 <process_control_request+0x356>
10009170:	0022      	movs	r2, r4
10009172:	0031      	movs	r1, r6
10009174:	0028      	movs	r0, r5
10009176:	f7ff fbdb 	bl	10008930 <invoke_class_control>
1000917a:	e6cc      	b.n	10008f16 <process_control_request+0x3a>
1000917c:	0050      	lsls	r0, r2, #1
1000917e:	1882      	adds	r2, r0, r2
10009180:	00d2      	lsls	r2, r2, #3
10009182:	4834      	ldr	r0, [pc, #208]	; (10009254 <process_control_request+0x378>)
10009184:	6806      	ldr	r6, [r0, #0]
10009186:	18b6      	adds	r6, r6, r2
10009188:	e7ee      	b.n	10009168 <process_control_request+0x28c>
1000918a:	2600      	movs	r6, #0
1000918c:	e7ec      	b.n	10009168 <process_control_request+0x28c>
1000918e:	7863      	ldrb	r3, [r4, #1]
10009190:	2b01      	cmp	r3, #1
10009192:	d012      	beq.n	100091ba <process_control_request+0x2de>
10009194:	2b03      	cmp	r3, #3
10009196:	d010      	beq.n	100091ba <process_control_request+0x2de>
10009198:	2b00      	cmp	r3, #0
1000919a:	d001      	beq.n	100091a0 <process_control_request+0x2c4>
1000919c:	2000      	movs	r0, #0
1000919e:	e6ba      	b.n	10008f16 <process_control_request+0x3a>
100091a0:	0028      	movs	r0, r5
100091a2:	f7ff fe8d 	bl	10008ec0 <usbd_edpt_stalled>
100091a6:	466b      	mov	r3, sp
100091a8:	1d9a      	adds	r2, r3, #6
100091aa:	8010      	strh	r0, [r2, #0]
100091ac:	2302      	movs	r3, #2
100091ae:	0021      	movs	r1, r4
100091b0:	0028      	movs	r0, r5
100091b2:	f000 f973 	bl	1000949c <tud_control_xfer>
100091b6:	2001      	movs	r0, #1
100091b8:	e6ad      	b.n	10008f16 <process_control_request+0x3a>
100091ba:	78a0      	ldrb	r0, [r4, #2]
100091bc:	78e2      	ldrb	r2, [r4, #3]
100091be:	0212      	lsls	r2, r2, #8
100091c0:	4302      	orrs	r2, r0
100091c2:	d104      	bne.n	100091ce <process_control_request+0x2f2>
100091c4:	2b01      	cmp	r3, #1
100091c6:	d01a      	beq.n	100091fe <process_control_request+0x322>
100091c8:	0028      	movs	r0, r5
100091ca:	f7ff fe31 	bl	10008e30 <usbd_edpt_stall>
100091ce:	2e00      	cmp	r6, #0
100091d0:	d031      	beq.n	10009236 <process_control_request+0x35a>
100091d2:	0022      	movs	r2, r4
100091d4:	0031      	movs	r1, r6
100091d6:	0028      	movs	r0, r5
100091d8:	f7ff fbaa 	bl	10008930 <invoke_class_control>
100091dc:	2000      	movs	r0, #0
100091de:	f000 f9a3 	bl	10009528 <usbd_control_set_complete_callback>
100091e2:	4b18      	ldr	r3, [pc, #96]	; (10009244 <process_control_request+0x368>)
100091e4:	2234      	movs	r2, #52	; 0x34
100091e6:	5c9b      	ldrb	r3, [r3, r2]
100091e8:	07db      	lsls	r3, r3, #31
100091ea:	0fd8      	lsrs	r0, r3, #31
100091ec:	2b00      	cmp	r3, #0
100091ee:	d000      	beq.n	100091f2 <process_control_request+0x316>
100091f0:	e691      	b.n	10008f16 <process_control_request+0x3a>
100091f2:	0021      	movs	r1, r4
100091f4:	0028      	movs	r0, r5
100091f6:	f000 f935 	bl	10009464 <tud_control_status>
100091fa:	2001      	movs	r0, #1
100091fc:	e68b      	b.n	10008f16 <process_control_request+0x3a>
100091fe:	0028      	movs	r0, r5
10009200:	f7ff fe3a 	bl	10008e78 <usbd_edpt_clear_stall>
10009204:	e7e3      	b.n	100091ce <process_control_request+0x2f2>
10009206:	2000      	movs	r0, #0
10009208:	e685      	b.n	10008f16 <process_control_request+0x3a>
1000920a:	2000      	movs	r0, #0
1000920c:	e683      	b.n	10008f16 <process_control_request+0x3a>
1000920e:	2000      	movs	r0, #0
10009210:	e681      	b.n	10008f16 <process_control_request+0x3a>
10009212:	2000      	movs	r0, #0
10009214:	e67f      	b.n	10008f16 <process_control_request+0x3a>
10009216:	2000      	movs	r0, #0
10009218:	e67d      	b.n	10008f16 <process_control_request+0x3a>
1000921a:	2000      	movs	r0, #0
1000921c:	e67b      	b.n	10008f16 <process_control_request+0x3a>
1000921e:	2000      	movs	r0, #0
10009220:	e679      	b.n	10008f16 <process_control_request+0x3a>
10009222:	2000      	movs	r0, #0
10009224:	e677      	b.n	10008f16 <process_control_request+0x3a>
10009226:	2000      	movs	r0, #0
10009228:	e675      	b.n	10008f16 <process_control_request+0x3a>
1000922a:	2000      	movs	r0, #0
1000922c:	e673      	b.n	10008f16 <process_control_request+0x3a>
1000922e:	2000      	movs	r0, #0
10009230:	e671      	b.n	10008f16 <process_control_request+0x3a>
10009232:	2000      	movs	r0, #0
10009234:	e66f      	b.n	10008f16 <process_control_request+0x3a>
10009236:	2001      	movs	r0, #1
10009238:	e66d      	b.n	10008f16 <process_control_request+0x3a>
1000923a:	46c0      	nop			; (mov r8, r8)
1000923c:	00000000 	.word	0x00000000
10009240:	1000c344 	.word	0x1000c344
10009244:	200015f4 	.word	0x200015f4
10009248:	10007f2d 	.word	0x10007f2d
1000924c:	20001f59 	.word	0x20001f59
10009250:	1000c390 	.word	0x1000c390
10009254:	200012cc 	.word	0x200012cc

10009258 <tud_task_ext>:
10009258:	b530      	push	{r4, r5, lr}
1000925a:	b085      	sub	sp, #20
1000925c:	f000 fce9 	bl	10009c32 <tusb_inited>
10009260:	2800      	cmp	r0, #0
10009262:	d108      	bne.n	10009276 <tud_task_ext+0x1e>
10009264:	b005      	add	sp, #20
10009266:	bd30      	pop	{r4, r5, pc}
10009268:	ac01      	add	r4, sp, #4
1000926a:	7820      	ldrb	r0, [r4, #0]
1000926c:	f7ff fb5a 	bl	10008924 <usbd_reset>
10009270:	7922      	ldrb	r2, [r4, #4]
10009272:	4b5c      	ldr	r3, [pc, #368]	; (100093e4 <tud_task_ext+0x18c>)
10009274:	709a      	strb	r2, [r3, #2]
10009276:	4b5c      	ldr	r3, [pc, #368]	; (100093e8 <tud_task_ext+0x190>)
10009278:	681c      	ldr	r4, [r3, #0]
1000927a:	6962      	ldr	r2, [r4, #20]
1000927c:	f3ef 8110 	mrs	r1, PRIMASK
10009280:	b672      	cpsid	i
10009282:	6813      	ldr	r3, [r2, #0]
10009284:	2b00      	cmp	r3, #0
10009286:	d0fc      	beq.n	10009282 <tud_task_ext+0x2a>
10009288:	f3bf 8f5f 	dmb	sy
1000928c:	61a1      	str	r1, [r4, #24]
1000928e:	a901      	add	r1, sp, #4
10009290:	0020      	movs	r0, r4
10009292:	f001 f84e 	bl	1000a332 <tu_fifo_read>
10009296:	6962      	ldr	r2, [r4, #20]
10009298:	69a3      	ldr	r3, [r4, #24]
1000929a:	f3bf 8f5f 	dmb	sy
1000929e:	2100      	movs	r1, #0
100092a0:	6011      	str	r1, [r2, #0]
100092a2:	f383 8810 	msr	PRIMASK, r3
100092a6:	2800      	cmp	r0, #0
100092a8:	d0dc      	beq.n	10009264 <tud_task_ext+0xc>
100092aa:	ab01      	add	r3, sp, #4
100092ac:	785b      	ldrb	r3, [r3, #1]
100092ae:	2b08      	cmp	r3, #8
100092b0:	d8e1      	bhi.n	10009276 <tud_task_ext+0x1e>
100092b2:	009b      	lsls	r3, r3, #2
100092b4:	4a4d      	ldr	r2, [pc, #308]	; (100093ec <tud_task_ext+0x194>)
100092b6:	58d3      	ldr	r3, [r2, r3]
100092b8:	469f      	mov	pc, r3
100092ba:	ab01      	add	r3, sp, #4
100092bc:	7818      	ldrb	r0, [r3, #0]
100092be:	f7ff fb31 	bl	10008924 <usbd_reset>
100092c2:	4b4b      	ldr	r3, [pc, #300]	; (100093f0 <tud_task_ext+0x198>)
100092c4:	2b00      	cmp	r3, #0
100092c6:	d0d6      	beq.n	10009276 <tud_task_ext+0x1e>
100092c8:	e000      	b.n	100092cc <tud_task_ext+0x74>
100092ca:	bf00      	nop
100092cc:	e7d3      	b.n	10009276 <tud_task_ext+0x1e>
100092ce:	4b45      	ldr	r3, [pc, #276]	; (100093e4 <tud_task_ext+0x18c>)
100092d0:	781a      	ldrb	r2, [r3, #0]
100092d2:	2401      	movs	r4, #1
100092d4:	2101      	movs	r1, #1
100092d6:	430a      	orrs	r2, r1
100092d8:	701a      	strb	r2, [r3, #0]
100092da:	2233      	movs	r2, #51	; 0x33
100092dc:	5c99      	ldrb	r1, [r3, r2]
100092de:	43a1      	bics	r1, r4
100092e0:	5499      	strb	r1, [r3, r2]
100092e2:	5c99      	ldrb	r1, [r3, r2]
100092e4:	2004      	movs	r0, #4
100092e6:	4381      	bics	r1, r0
100092e8:	5499      	strb	r1, [r3, r2]
100092ea:	3201      	adds	r2, #1
100092ec:	5c99      	ldrb	r1, [r3, r2]
100092ee:	43a1      	bics	r1, r4
100092f0:	5499      	strb	r1, [r3, r2]
100092f2:	5c99      	ldrb	r1, [r3, r2]
100092f4:	4381      	bics	r1, r0
100092f6:	5499      	strb	r1, [r3, r2]
100092f8:	ab01      	add	r3, sp, #4
100092fa:	7818      	ldrb	r0, [r3, #0]
100092fc:	a902      	add	r1, sp, #8
100092fe:	f7ff fded 	bl	10008edc <process_control_request>
10009302:	2800      	cmp	r0, #0
10009304:	d1b7      	bne.n	10009276 <tud_task_ext+0x1e>
10009306:	ac01      	add	r4, sp, #4
10009308:	7820      	ldrb	r0, [r4, #0]
1000930a:	2100      	movs	r1, #0
1000930c:	f7ff fa54 	bl	100087b8 <dcd_edpt_stall>
10009310:	7820      	ldrb	r0, [r4, #0]
10009312:	2180      	movs	r1, #128	; 0x80
10009314:	f7ff fa50 	bl	100087b8 <dcd_edpt_stall>
10009318:	e7ad      	b.n	10009276 <tud_task_ext+0x1e>
1000931a:	ab01      	add	r3, sp, #4
1000931c:	7919      	ldrb	r1, [r3, #4]
1000931e:	207f      	movs	r0, #127	; 0x7f
10009320:	4008      	ands	r0, r1
10009322:	09cc      	lsrs	r4, r1, #7
10009324:	4a2f      	ldr	r2, [pc, #188]	; (100093e4 <tud_task_ext+0x18c>)
10009326:	0045      	lsls	r5, r0, #1
10009328:	1953      	adds	r3, r2, r5
1000932a:	191b      	adds	r3, r3, r4
1000932c:	3330      	adds	r3, #48	; 0x30
1000932e:	78da      	ldrb	r2, [r3, #3]
10009330:	2501      	movs	r5, #1
10009332:	43aa      	bics	r2, r5
10009334:	70da      	strb	r2, [r3, #3]
10009336:	78da      	ldrb	r2, [r3, #3]
10009338:	3503      	adds	r5, #3
1000933a:	43aa      	bics	r2, r5
1000933c:	70da      	strb	r2, [r3, #3]
1000933e:	2800      	cmp	r0, #0
10009340:	d01f      	beq.n	10009382 <tud_task_ext+0x12a>
10009342:	4b28      	ldr	r3, [pc, #160]	; (100093e4 <tud_task_ext+0x18c>)
10009344:	0040      	lsls	r0, r0, #1
10009346:	181b      	adds	r3, r3, r0
10009348:	191b      	adds	r3, r3, r4
1000934a:	7cdb      	ldrb	r3, [r3, #19]
1000934c:	4a29      	ldr	r2, [pc, #164]	; (100093f4 <tud_task_ext+0x19c>)
1000934e:	2a00      	cmp	r2, #0
10009350:	d005      	beq.n	1000935e <tud_task_ext+0x106>
10009352:	4a29      	ldr	r2, [pc, #164]	; (100093f8 <tud_task_ext+0x1a0>)
10009354:	7812      	ldrb	r2, [r2, #0]
10009356:	4293      	cmp	r3, r2
10009358:	d31a      	bcc.n	10009390 <tud_task_ext+0x138>
1000935a:	1a9b      	subs	r3, r3, r2
1000935c:	b2db      	uxtb	r3, r3
1000935e:	2b00      	cmp	r3, #0
10009360:	d000      	beq.n	10009364 <tud_task_ext+0x10c>
10009362:	e77f      	b.n	10009264 <tud_task_ext+0xc>
10009364:	4a25      	ldr	r2, [pc, #148]	; (100093fc <tud_task_ext+0x1a4>)
10009366:	0058      	lsls	r0, r3, #1
10009368:	18c0      	adds	r0, r0, r3
1000936a:	00c0      	lsls	r0, r0, #3
1000936c:	1813      	adds	r3, r2, r0
1000936e:	2b00      	cmp	r3, #0
10009370:	d100      	bne.n	10009374 <tud_task_ext+0x11c>
10009372:	e777      	b.n	10009264 <tud_task_ext+0xc>
10009374:	691c      	ldr	r4, [r3, #16]
10009376:	a801      	add	r0, sp, #4
10009378:	7942      	ldrb	r2, [r0, #5]
1000937a:	9b03      	ldr	r3, [sp, #12]
1000937c:	7800      	ldrb	r0, [r0, #0]
1000937e:	47a0      	blx	r4
10009380:	e779      	b.n	10009276 <tud_task_ext+0x1e>
10009382:	a801      	add	r0, sp, #4
10009384:	7942      	ldrb	r2, [r0, #5]
10009386:	9b03      	ldr	r3, [sp, #12]
10009388:	7800      	ldrb	r0, [r0, #0]
1000938a:	f000 f8e1 	bl	10009550 <usbd_control_xfer_cb>
1000938e:	e772      	b.n	10009276 <tud_task_ext+0x1e>
10009390:	005a      	lsls	r2, r3, #1
10009392:	18d2      	adds	r2, r2, r3
10009394:	00d2      	lsls	r2, r2, #3
10009396:	4b1a      	ldr	r3, [pc, #104]	; (10009400 <tud_task_ext+0x1a8>)
10009398:	681b      	ldr	r3, [r3, #0]
1000939a:	189b      	adds	r3, r3, r2
1000939c:	e7e7      	b.n	1000936e <tud_task_ext+0x116>
1000939e:	4b11      	ldr	r3, [pc, #68]	; (100093e4 <tud_task_ext+0x18c>)
100093a0:	781b      	ldrb	r3, [r3, #0]
100093a2:	07db      	lsls	r3, r3, #31
100093a4:	d400      	bmi.n	100093a8 <tud_task_ext+0x150>
100093a6:	e766      	b.n	10009276 <tud_task_ext+0x1e>
100093a8:	4b16      	ldr	r3, [pc, #88]	; (10009404 <tud_task_ext+0x1ac>)
100093aa:	2b00      	cmp	r3, #0
100093ac:	d100      	bne.n	100093b0 <tud_task_ext+0x158>
100093ae:	e762      	b.n	10009276 <tud_task_ext+0x1e>
100093b0:	4b0c      	ldr	r3, [pc, #48]	; (100093e4 <tud_task_ext+0x18c>)
100093b2:	7818      	ldrb	r0, [r3, #0]
100093b4:	0700      	lsls	r0, r0, #28
100093b6:	0fc0      	lsrs	r0, r0, #31
100093b8:	e000      	b.n	100093bc <tud_task_ext+0x164>
100093ba:	bf00      	nop
100093bc:	e75b      	b.n	10009276 <tud_task_ext+0x1e>
100093be:	4b09      	ldr	r3, [pc, #36]	; (100093e4 <tud_task_ext+0x18c>)
100093c0:	781b      	ldrb	r3, [r3, #0]
100093c2:	07db      	lsls	r3, r3, #31
100093c4:	d400      	bmi.n	100093c8 <tud_task_ext+0x170>
100093c6:	e756      	b.n	10009276 <tud_task_ext+0x1e>
100093c8:	4b0f      	ldr	r3, [pc, #60]	; (10009408 <tud_task_ext+0x1b0>)
100093ca:	2b00      	cmp	r3, #0
100093cc:	d100      	bne.n	100093d0 <tud_task_ext+0x178>
100093ce:	e752      	b.n	10009276 <tud_task_ext+0x1e>
100093d0:	e000      	b.n	100093d4 <tud_task_ext+0x17c>
100093d2:	bf00      	nop
100093d4:	e74f      	b.n	10009276 <tud_task_ext+0x1e>
100093d6:	9b02      	ldr	r3, [sp, #8]
100093d8:	2b00      	cmp	r3, #0
100093da:	d100      	bne.n	100093de <tud_task_ext+0x186>
100093dc:	e74b      	b.n	10009276 <tud_task_ext+0x1e>
100093de:	9803      	ldr	r0, [sp, #12]
100093e0:	4798      	blx	r3
100093e2:	e748      	b.n	10009276 <tud_task_ext+0x1e>
100093e4:	200015f4 	.word	0x200015f4
100093e8:	2000164c 	.word	0x2000164c
100093ec:	1000c36c 	.word	0x1000c36c
100093f0:	00000000 	.word	0x00000000
100093f4:	10007f2d 	.word	0x10007f2d
100093f8:	20001f59 	.word	0x20001f59
100093fc:	1000c390 	.word	0x1000c390
10009400:	200012cc 	.word	0x200012cc
	...

1000940c <_data_stage_xact>:
1000940c:	b5f8      	push	{r3, r4, r5, r6, r7, lr}
1000940e:	0005      	movs	r5, r0
10009410:	4b12      	ldr	r3, [pc, #72]	; (1000945c <_data_stage_xact+0x50>)
10009412:	899f      	ldrh	r7, [r3, #12]
10009414:	89de      	ldrh	r6, [r3, #14]
10009416:	1bb9      	subs	r1, r7, r6
10009418:	b289      	uxth	r1, r1
1000941a:	1c0b      	adds	r3, r1, #0
1000941c:	2940      	cmp	r1, #64	; 0x40
1000941e:	d900      	bls.n	10009422 <_data_stage_xact+0x16>
10009420:	2340      	movs	r3, #64	; 0x40
10009422:	b29c      	uxth	r4, r3
10009424:	4b0d      	ldr	r3, [pc, #52]	; (1000945c <_data_stage_xact+0x50>)
10009426:	781b      	ldrb	r3, [r3, #0]
10009428:	b25b      	sxtb	r3, r3
1000942a:	2b00      	cmp	r3, #0
1000942c:	db08      	blt.n	10009440 <_data_stage_xact+0x34>
1000942e:	2100      	movs	r1, #0
10009430:	42b7      	cmp	r7, r6
10009432:	d011      	beq.n	10009458 <_data_stage_xact+0x4c>
10009434:	4a0a      	ldr	r2, [pc, #40]	; (10009460 <_data_stage_xact+0x54>)
10009436:	0023      	movs	r3, r4
10009438:	0028      	movs	r0, r5
1000943a:	f7ff fcbb 	bl	10008db4 <usbd_edpt_xfer>
1000943e:	bdf8      	pop	{r3, r4, r5, r6, r7, pc}
10009440:	42b7      	cmp	r7, r6
10009442:	d101      	bne.n	10009448 <_data_stage_xact+0x3c>
10009444:	2180      	movs	r1, #128	; 0x80
10009446:	e7f3      	b.n	10009430 <_data_stage_xact+0x24>
10009448:	4b04      	ldr	r3, [pc, #16]	; (1000945c <_data_stage_xact+0x50>)
1000944a:	6899      	ldr	r1, [r3, #8]
1000944c:	4804      	ldr	r0, [pc, #16]	; (10009460 <_data_stage_xact+0x54>)
1000944e:	0022      	movs	r2, r4
10009450:	f7fe fba6 	bl	10007ba0 <__wrap___aeabi_memcpy>
10009454:	2180      	movs	r1, #128	; 0x80
10009456:	e7eb      	b.n	10009430 <_data_stage_xact+0x24>
10009458:	2200      	movs	r2, #0
1000945a:	e7ec      	b.n	10009436 <_data_stage_xact+0x2a>
1000945c:	20001598 	.word	0x20001598
10009460:	200015b4 	.word	0x200015b4

10009464 <tud_control_status>:
10009464:	b570      	push	{r4, r5, r6, lr}
10009466:	0006      	movs	r6, r0
10009468:	000d      	movs	r5, r1
1000946a:	4c0b      	ldr	r4, [pc, #44]	; (10009498 <tud_control_status+0x34>)
1000946c:	2208      	movs	r2, #8
1000946e:	0020      	movs	r0, r4
10009470:	f7fe fb96 	bl	10007ba0 <__wrap___aeabi_memcpy>
10009474:	2300      	movs	r3, #0
10009476:	60a3      	str	r3, [r4, #8]
10009478:	81e3      	strh	r3, [r4, #14]
1000947a:	81a3      	strh	r3, [r4, #12]
1000947c:	2300      	movs	r3, #0
1000947e:	56eb      	ldrsb	r3, [r5, r3]
10009480:	2b00      	cmp	r3, #0
10009482:	db06      	blt.n	10009492 <tud_control_status+0x2e>
10009484:	2180      	movs	r1, #128	; 0x80
10009486:	2300      	movs	r3, #0
10009488:	2200      	movs	r2, #0
1000948a:	0030      	movs	r0, r6
1000948c:	f7ff fc92 	bl	10008db4 <usbd_edpt_xfer>
10009490:	bd70      	pop	{r4, r5, r6, pc}
10009492:	2100      	movs	r1, #0
10009494:	e7f7      	b.n	10009486 <tud_control_status+0x22>
10009496:	46c0      	nop			; (mov r8, r8)
10009498:	20001598 	.word	0x20001598

1000949c <tud_control_xfer>:
1000949c:	b5f0      	push	{r4, r5, r6, r7, lr}
1000949e:	46c6      	mov	lr, r8
100094a0:	b500      	push	{lr}
100094a2:	4680      	mov	r8, r0
100094a4:	000c      	movs	r4, r1
100094a6:	0016      	movs	r6, r2
100094a8:	001d      	movs	r5, r3
100094aa:	4b19      	ldr	r3, [pc, #100]	; (10009510 <tud_control_xfer+0x74>)
100094ac:	2208      	movs	r2, #8
100094ae:	001f      	movs	r7, r3
100094b0:	0018      	movs	r0, r3
100094b2:	f7fe fb75 	bl	10007ba0 <__wrap___aeabi_memcpy>
100094b6:	60be      	str	r6, [r7, #8]
100094b8:	2300      	movs	r3, #0
100094ba:	81fb      	strh	r3, [r7, #14]
100094bc:	79a3      	ldrb	r3, [r4, #6]
100094be:	79e1      	ldrb	r1, [r4, #7]
100094c0:	0209      	lsls	r1, r1, #8
100094c2:	4319      	orrs	r1, r3
100094c4:	1c0b      	adds	r3, r1, #0
100094c6:	42a9      	cmp	r1, r5
100094c8:	d900      	bls.n	100094cc <tud_control_xfer+0x30>
100094ca:	1c2b      	adds	r3, r5, #0
100094cc:	b299      	uxth	r1, r3
100094ce:	4a10      	ldr	r2, [pc, #64]	; (10009510 <tud_control_xfer+0x74>)
100094d0:	8193      	strh	r3, [r2, #12]
100094d2:	79a2      	ldrb	r2, [r4, #6]
100094d4:	79e3      	ldrb	r3, [r4, #7]
100094d6:	021b      	lsls	r3, r3, #8
100094d8:	4313      	orrs	r3, r2
100094da:	d009      	beq.n	100094f0 <tud_control_xfer+0x54>
100094dc:	2900      	cmp	r1, #0
100094de:	d001      	beq.n	100094e4 <tud_control_xfer+0x48>
100094e0:	2e00      	cmp	r6, #0
100094e2:	d012      	beq.n	1000950a <tud_control_xfer+0x6e>
100094e4:	4640      	mov	r0, r8
100094e6:	f7ff ff91 	bl	1000940c <_data_stage_xact>
100094ea:	bc80      	pop	{r7}
100094ec:	46b8      	mov	r8, r7
100094ee:	bdf0      	pop	{r4, r5, r6, r7, pc}
100094f0:	2300      	movs	r3, #0
100094f2:	56e3      	ldrsb	r3, [r4, r3]
100094f4:	2b00      	cmp	r3, #0
100094f6:	db06      	blt.n	10009506 <tud_control_xfer+0x6a>
100094f8:	2180      	movs	r1, #128	; 0x80
100094fa:	2300      	movs	r3, #0
100094fc:	2200      	movs	r2, #0
100094fe:	4640      	mov	r0, r8
10009500:	f7ff fc58 	bl	10008db4 <usbd_edpt_xfer>
10009504:	e7f1      	b.n	100094ea <tud_control_xfer+0x4e>
10009506:	2100      	movs	r1, #0
10009508:	e7f7      	b.n	100094fa <tud_control_xfer+0x5e>
1000950a:	2000      	movs	r0, #0
1000950c:	e7ed      	b.n	100094ea <tud_control_xfer+0x4e>
1000950e:	46c0      	nop			; (mov r8, r8)
10009510:	20001598 	.word	0x20001598

10009514 <usbd_control_reset>:
10009514:	b510      	push	{r4, lr}
10009516:	4803      	ldr	r0, [pc, #12]	; (10009524 <usbd_control_reset+0x10>)
10009518:	2214      	movs	r2, #20
1000951a:	2100      	movs	r1, #0
1000951c:	f7fe fb3a 	bl	10007b94 <__wrap_memset>
10009520:	bd10      	pop	{r4, pc}
10009522:	46c0      	nop			; (mov r8, r8)
10009524:	20001598 	.word	0x20001598

10009528 <usbd_control_set_complete_callback>:
10009528:	4b01      	ldr	r3, [pc, #4]	; (10009530 <usbd_control_set_complete_callback+0x8>)
1000952a:	6118      	str	r0, [r3, #16]
1000952c:	4770      	bx	lr
1000952e:	46c0      	nop			; (mov r8, r8)
10009530:	20001598 	.word	0x20001598

10009534 <usbd_control_set_request>:
10009534:	b510      	push	{r4, lr}
10009536:	0001      	movs	r1, r0
10009538:	4c04      	ldr	r4, [pc, #16]	; (1000954c <usbd_control_set_request+0x18>)
1000953a:	2208      	movs	r2, #8
1000953c:	0020      	movs	r0, r4
1000953e:	f7fe fb2f 	bl	10007ba0 <__wrap___aeabi_memcpy>
10009542:	2300      	movs	r3, #0
10009544:	60a3      	str	r3, [r4, #8]
10009546:	81e3      	strh	r3, [r4, #14]
10009548:	81a3      	strh	r3, [r4, #12]
1000954a:	bd10      	pop	{r4, pc}
1000954c:	20001598 	.word	0x20001598

10009550 <usbd_control_xfer_cb>:
10009550:	b570      	push	{r4, r5, r6, lr}
10009552:	0005      	movs	r5, r0
10009554:	001c      	movs	r4, r3
10009556:	09c9      	lsrs	r1, r1, #7
10009558:	4b2d      	ldr	r3, [pc, #180]	; (10009610 <usbd_control_xfer_cb+0xc0>)
1000955a:	781b      	ldrb	r3, [r3, #0]
1000955c:	09db      	lsrs	r3, r3, #7
1000955e:	428b      	cmp	r3, r1
10009560:	d011      	beq.n	10009586 <usbd_control_xfer_cb+0x36>
10009562:	2c00      	cmp	r4, #0
10009564:	d150      	bne.n	10009608 <usbd_control_xfer_cb+0xb8>
10009566:	4b2b      	ldr	r3, [pc, #172]	; (10009614 <usbd_control_xfer_cb+0xc4>)
10009568:	2b00      	cmp	r3, #0
1000956a:	d002      	beq.n	10009572 <usbd_control_xfer_cb+0x22>
1000956c:	4928      	ldr	r1, [pc, #160]	; (10009610 <usbd_control_xfer_cb+0xc0>)
1000956e:	f7ff f8d7 	bl	10008720 <dcd_edpt0_status_complete>
10009572:	4b27      	ldr	r3, [pc, #156]	; (10009610 <usbd_control_xfer_cb+0xc0>)
10009574:	691b      	ldr	r3, [r3, #16]
10009576:	2b00      	cmp	r3, #0
10009578:	d003      	beq.n	10009582 <usbd_control_xfer_cb+0x32>
1000957a:	4a25      	ldr	r2, [pc, #148]	; (10009610 <usbd_control_xfer_cb+0xc0>)
1000957c:	2103      	movs	r1, #3
1000957e:	0028      	movs	r0, r5
10009580:	4798      	blx	r3
10009582:	2001      	movs	r0, #1
10009584:	bd70      	pop	{r4, r5, r6, pc}
10009586:	4b22      	ldr	r3, [pc, #136]	; (10009610 <usbd_control_xfer_cb+0xc0>)
10009588:	781b      	ldrb	r3, [r3, #0]
1000958a:	b25b      	sxtb	r3, r3
1000958c:	2b00      	cmp	r3, #0
1000958e:	db07      	blt.n	100095a0 <usbd_control_xfer_cb+0x50>
10009590:	4b1f      	ldr	r3, [pc, #124]	; (10009610 <usbd_control_xfer_cb+0xc0>)
10009592:	6898      	ldr	r0, [r3, #8]
10009594:	2800      	cmp	r0, #0
10009596:	d039      	beq.n	1000960c <usbd_control_xfer_cb+0xbc>
10009598:	491f      	ldr	r1, [pc, #124]	; (10009618 <usbd_control_xfer_cb+0xc8>)
1000959a:	0022      	movs	r2, r4
1000959c:	f7fe fb00 	bl	10007ba0 <__wrap___aeabi_memcpy>
100095a0:	b2a3      	uxth	r3, r4
100095a2:	4a1b      	ldr	r2, [pc, #108]	; (10009610 <usbd_control_xfer_cb+0xc0>)
100095a4:	89d1      	ldrh	r1, [r2, #14]
100095a6:	185b      	adds	r3, r3, r1
100095a8:	b29b      	uxth	r3, r3
100095aa:	81d3      	strh	r3, [r2, #14]
100095ac:	6891      	ldr	r1, [r2, #8]
100095ae:	1909      	adds	r1, r1, r4
100095b0:	6091      	str	r1, [r2, #8]
100095b2:	88d2      	ldrh	r2, [r2, #6]
100095b4:	4293      	cmp	r3, r2
100095b6:	d001      	beq.n	100095bc <usbd_control_xfer_cb+0x6c>
100095b8:	2c3f      	cmp	r4, #63	; 0x3f
100095ba:	d821      	bhi.n	10009600 <usbd_control_xfer_cb+0xb0>
100095bc:	4b14      	ldr	r3, [pc, #80]	; (10009610 <usbd_control_xfer_cb+0xc0>)
100095be:	691b      	ldr	r3, [r3, #16]
100095c0:	2b00      	cmp	r3, #0
100095c2:	d005      	beq.n	100095d0 <usbd_control_xfer_cb+0x80>
100095c4:	4a12      	ldr	r2, [pc, #72]	; (10009610 <usbd_control_xfer_cb+0xc0>)
100095c6:	2102      	movs	r1, #2
100095c8:	0028      	movs	r0, r5
100095ca:	4798      	blx	r3
100095cc:	2800      	cmp	r0, #0
100095ce:	d00d      	beq.n	100095ec <usbd_control_xfer_cb+0x9c>
100095d0:	4b0f      	ldr	r3, [pc, #60]	; (10009610 <usbd_control_xfer_cb+0xc0>)
100095d2:	781b      	ldrb	r3, [r3, #0]
100095d4:	b25b      	sxtb	r3, r3
100095d6:	2b00      	cmp	r3, #0
100095d8:	db06      	blt.n	100095e8 <usbd_control_xfer_cb+0x98>
100095da:	2180      	movs	r1, #128	; 0x80
100095dc:	2300      	movs	r3, #0
100095de:	2200      	movs	r2, #0
100095e0:	0028      	movs	r0, r5
100095e2:	f7ff fbe7 	bl	10008db4 <usbd_edpt_xfer>
100095e6:	e7cd      	b.n	10009584 <usbd_control_xfer_cb+0x34>
100095e8:	2100      	movs	r1, #0
100095ea:	e7f7      	b.n	100095dc <usbd_control_xfer_cb+0x8c>
100095ec:	2100      	movs	r1, #0
100095ee:	0028      	movs	r0, r5
100095f0:	f7ff f8e2 	bl	100087b8 <dcd_edpt_stall>
100095f4:	2180      	movs	r1, #128	; 0x80
100095f6:	0028      	movs	r0, r5
100095f8:	f7ff f8de 	bl	100087b8 <dcd_edpt_stall>
100095fc:	2001      	movs	r0, #1
100095fe:	e7c1      	b.n	10009584 <usbd_control_xfer_cb+0x34>
10009600:	0028      	movs	r0, r5
10009602:	f7ff ff03 	bl	1000940c <_data_stage_xact>
10009606:	e7bd      	b.n	10009584 <usbd_control_xfer_cb+0x34>
10009608:	2000      	movs	r0, #0
1000960a:	e7bb      	b.n	10009584 <usbd_control_xfer_cb+0x34>
1000960c:	2000      	movs	r0, #0
1000960e:	e7b9      	b.n	10009584 <usbd_control_xfer_cb+0x34>
10009610:	20001598 	.word	0x20001598
10009614:	10008721 	.word	0x10008721
10009618:	200015b4 	.word	0x200015b4

1000961c <_prep_out_transaction>:
1000961c:	b570      	push	{r4, r5, r6, lr}
1000961e:	0004      	movs	r4, r0
10009620:	0005      	movs	r5, r0
10009622:	3510      	adds	r5, #16
10009624:	0028      	movs	r0, r5
10009626:	f000 fe6e 	bl	1000a306 <tu_fifo_remaining>
1000962a:	283f      	cmp	r0, #63	; 0x3f
1000962c:	d801      	bhi.n	10009632 <_prep_out_transaction+0x16>
1000962e:	2000      	movs	r0, #0
10009630:	bd70      	pop	{r4, r5, r6, pc}
10009632:	78e1      	ldrb	r1, [r4, #3]
10009634:	2000      	movs	r0, #0
10009636:	f7ff fb95 	bl	10008d64 <usbd_edpt_claim>
1000963a:	2800      	cmp	r0, #0
1000963c:	d0f8      	beq.n	10009630 <_prep_out_transaction+0x14>
1000963e:	0028      	movs	r0, r5
10009640:	f000 fe61 	bl	1000a306 <tu_fifo_remaining>
10009644:	283f      	cmp	r0, #63	; 0x3f
10009646:	d908      	bls.n	1000965a <_prep_out_transaction+0x3e>
10009648:	2392      	movs	r3, #146	; 0x92
1000964a:	009b      	lsls	r3, r3, #2
1000964c:	18e2      	adds	r2, r4, r3
1000964e:	78e1      	ldrb	r1, [r4, #3]
10009650:	2340      	movs	r3, #64	; 0x40
10009652:	2000      	movs	r0, #0
10009654:	f7ff fbae 	bl	10008db4 <usbd_edpt_xfer>
10009658:	e7ea      	b.n	10009630 <_prep_out_transaction+0x14>
1000965a:	78e1      	ldrb	r1, [r4, #3]
1000965c:	2000      	movs	r0, #0
1000965e:	f7ff fb95 	bl	10008d8c <usbd_edpt_release>
10009662:	2000      	movs	r0, #0
10009664:	e7e4      	b.n	10009630 <_prep_out_transaction+0x14>
	...

10009668 <tud_cdc_n_connected>:
10009668:	b510      	push	{r4, lr}
1000966a:	0004      	movs	r4, r0
1000966c:	f7ff fa98 	bl	10008ba0 <tud_mounted>
10009670:	2800      	cmp	r0, #0
10009672:	d10c      	bne.n	1000968e <tud_cdc_n_connected+0x26>
10009674:	2300      	movs	r3, #0
10009676:	2b00      	cmp	r3, #0
10009678:	d011      	beq.n	1000969e <tud_cdc_n_connected+0x36>
1000967a:	4b0b      	ldr	r3, [pc, #44]	; (100096a8 <tud_cdc_n_connected+0x40>)
1000967c:	22b2      	movs	r2, #178	; 0xb2
1000967e:	0092      	lsls	r2, r2, #2
10009680:	4362      	muls	r2, r4
10009682:	189b      	adds	r3, r3, r2
10009684:	791b      	ldrb	r3, [r3, #4]
10009686:	07db      	lsls	r3, r3, #31
10009688:	d50b      	bpl.n	100096a2 <tud_cdc_n_connected+0x3a>
1000968a:	2001      	movs	r0, #1
1000968c:	e008      	b.n	100096a0 <tud_cdc_n_connected+0x38>
1000968e:	f7ff fa8f 	bl	10008bb0 <tud_suspended>
10009692:	2800      	cmp	r0, #0
10009694:	d101      	bne.n	1000969a <tud_cdc_n_connected+0x32>
10009696:	2301      	movs	r3, #1
10009698:	e7ed      	b.n	10009676 <tud_cdc_n_connected+0xe>
1000969a:	2300      	movs	r3, #0
1000969c:	e7eb      	b.n	10009676 <tud_cdc_n_connected+0xe>
1000969e:	2000      	movs	r0, #0
100096a0:	bd10      	pop	{r4, pc}
100096a2:	2000      	movs	r0, #0
100096a4:	e7fc      	b.n	100096a0 <tud_cdc_n_connected+0x38>
100096a6:	46c0      	nop			; (mov r8, r8)
100096a8:	200012d0 	.word	0x200012d0

100096ac <tud_cdc_n_available>:
100096ac:	b510      	push	{r4, lr}
100096ae:	23b2      	movs	r3, #178	; 0xb2
100096b0:	009b      	lsls	r3, r3, #2
100096b2:	4358      	muls	r0, r3
100096b4:	3010      	adds	r0, #16
100096b6:	4b02      	ldr	r3, [pc, #8]	; (100096c0 <tud_cdc_n_available+0x14>)
100096b8:	18c0      	adds	r0, r0, r3
100096ba:	f000 fdf4 	bl	1000a2a6 <tu_fifo_count>
100096be:	bd10      	pop	{r4, pc}
100096c0:	200012d0 	.word	0x200012d0

100096c4 <tud_cdc_n_read>:
100096c4:	b570      	push	{r4, r5, r6, lr}
100096c6:	23b2      	movs	r3, #178	; 0xb2
100096c8:	009b      	lsls	r3, r3, #2
100096ca:	4358      	muls	r0, r3
100096cc:	4b06      	ldr	r3, [pc, #24]	; (100096e8 <tud_cdc_n_read+0x24>)
100096ce:	18c5      	adds	r5, r0, r3
100096d0:	b292      	uxth	r2, r2
100096d2:	3010      	adds	r0, #16
100096d4:	18c0      	adds	r0, r0, r3
100096d6:	f000 fe4d 	bl	1000a374 <tu_fifo_read_n>
100096da:	0004      	movs	r4, r0
100096dc:	0028      	movs	r0, r5
100096de:	f7ff ff9d 	bl	1000961c <_prep_out_transaction>
100096e2:	0020      	movs	r0, r4
100096e4:	bd70      	pop	{r4, r5, r6, pc}
100096e6:	46c0      	nop			; (mov r8, r8)
100096e8:	200012d0 	.word	0x200012d0

100096ec <tud_cdc_n_write_flush>:
100096ec:	b570      	push	{r4, r5, r6, lr}
100096ee:	0005      	movs	r5, r0
100096f0:	f7ff fa56 	bl	10008ba0 <tud_mounted>
100096f4:	2800      	cmp	r0, #0
100096f6:	d104      	bne.n	10009702 <tud_cdc_n_write_flush+0x16>
100096f8:	2300      	movs	r3, #0
100096fa:	2b00      	cmp	r3, #0
100096fc:	d109      	bne.n	10009712 <tud_cdc_n_write_flush+0x26>
100096fe:	2000      	movs	r0, #0
10009700:	bd70      	pop	{r4, r5, r6, pc}
10009702:	f7ff fa55 	bl	10008bb0 <tud_suspended>
10009706:	2800      	cmp	r0, #0
10009708:	d101      	bne.n	1000970e <tud_cdc_n_write_flush+0x22>
1000970a:	2301      	movs	r3, #1
1000970c:	e7f5      	b.n	100096fa <tud_cdc_n_write_flush+0xe>
1000970e:	2300      	movs	r3, #0
10009710:	e7f3      	b.n	100096fa <tud_cdc_n_write_flush+0xe>
10009712:	24b2      	movs	r4, #178	; 0xb2
10009714:	00a4      	lsls	r4, r4, #2
10009716:	436c      	muls	r4, r5
10009718:	3420      	adds	r4, #32
1000971a:	4b21      	ldr	r3, [pc, #132]	; (100097a0 <tud_cdc_n_write_flush+0xb4>)
1000971c:	18e4      	adds	r4, r4, r3
1000971e:	3404      	adds	r4, #4
10009720:	0020      	movs	r0, r4
10009722:	f000 fdc0 	bl	1000a2a6 <tu_fifo_count>
10009726:	2800      	cmp	r0, #0
10009728:	d101      	bne.n	1000972e <tud_cdc_n_write_flush+0x42>
1000972a:	2000      	movs	r0, #0
1000972c:	e7e8      	b.n	10009700 <tud_cdc_n_write_flush+0x14>
1000972e:	4b1c      	ldr	r3, [pc, #112]	; (100097a0 <tud_cdc_n_write_flush+0xb4>)
10009730:	22b2      	movs	r2, #178	; 0xb2
10009732:	0092      	lsls	r2, r2, #2
10009734:	436a      	muls	r2, r5
10009736:	189b      	adds	r3, r3, r2
10009738:	7899      	ldrb	r1, [r3, #2]
1000973a:	2000      	movs	r0, #0
1000973c:	f7ff fb12 	bl	10008d64 <usbd_edpt_claim>
10009740:	2800      	cmp	r0, #0
10009742:	d101      	bne.n	10009748 <tud_cdc_n_write_flush+0x5c>
10009744:	2000      	movs	r0, #0
10009746:	e7db      	b.n	10009700 <tud_cdc_n_write_flush+0x14>
10009748:	26b2      	movs	r6, #178	; 0xb2
1000974a:	00b6      	lsls	r6, r6, #2
1000974c:	436e      	muls	r6, r5
1000974e:	23a2      	movs	r3, #162	; 0xa2
10009750:	009b      	lsls	r3, r3, #2
10009752:	469c      	mov	ip, r3
10009754:	4466      	add	r6, ip
10009756:	4b12      	ldr	r3, [pc, #72]	; (100097a0 <tud_cdc_n_write_flush+0xb4>)
10009758:	18f6      	adds	r6, r6, r3
1000975a:	2240      	movs	r2, #64	; 0x40
1000975c:	0031      	movs	r1, r6
1000975e:	0020      	movs	r0, r4
10009760:	f000 fe08 	bl	1000a374 <tu_fifo_read_n>
10009764:	1e04      	subs	r4, r0, #0
10009766:	d00e      	beq.n	10009786 <tud_cdc_n_write_flush+0x9a>
10009768:	4b0d      	ldr	r3, [pc, #52]	; (100097a0 <tud_cdc_n_write_flush+0xb4>)
1000976a:	22b2      	movs	r2, #178	; 0xb2
1000976c:	0092      	lsls	r2, r2, #2
1000976e:	436a      	muls	r2, r5
10009770:	189b      	adds	r3, r3, r2
10009772:	7899      	ldrb	r1, [r3, #2]
10009774:	0003      	movs	r3, r0
10009776:	0032      	movs	r2, r6
10009778:	2000      	movs	r0, #0
1000977a:	f7ff fb1b 	bl	10008db4 <usbd_edpt_xfer>
1000977e:	2800      	cmp	r0, #0
10009780:	d00c      	beq.n	1000979c <tud_cdc_n_write_flush+0xb0>
10009782:	0020      	movs	r0, r4
10009784:	e7bc      	b.n	10009700 <tud_cdc_n_write_flush+0x14>
10009786:	4b06      	ldr	r3, [pc, #24]	; (100097a0 <tud_cdc_n_write_flush+0xb4>)
10009788:	22b2      	movs	r2, #178	; 0xb2
1000978a:	0092      	lsls	r2, r2, #2
1000978c:	436a      	muls	r2, r5
1000978e:	189b      	adds	r3, r3, r2
10009790:	7899      	ldrb	r1, [r3, #2]
10009792:	2000      	movs	r0, #0
10009794:	f7ff fafa 	bl	10008d8c <usbd_edpt_release>
10009798:	2000      	movs	r0, #0
1000979a:	e7b1      	b.n	10009700 <tud_cdc_n_write_flush+0x14>
1000979c:	2000      	movs	r0, #0
1000979e:	e7af      	b.n	10009700 <tud_cdc_n_write_flush+0x14>
100097a0:	200012d0 	.word	0x200012d0

100097a4 <tud_cdc_n_write>:
100097a4:	b570      	push	{r4, r5, r6, lr}
100097a6:	0005      	movs	r5, r0
100097a8:	24b2      	movs	r4, #178	; 0xb2
100097aa:	00a4      	lsls	r4, r4, #2
100097ac:	4344      	muls	r4, r0
100097ae:	3420      	adds	r4, #32
100097b0:	4b09      	ldr	r3, [pc, #36]	; (100097d8 <tud_cdc_n_write+0x34>)
100097b2:	18e4      	adds	r4, r4, r3
100097b4:	3404      	adds	r4, #4
100097b6:	b292      	uxth	r2, r2
100097b8:	0020      	movs	r0, r4
100097ba:	f000 fe12 	bl	1000a3e2 <tu_fifo_write_n>
100097be:	0006      	movs	r6, r0
100097c0:	0020      	movs	r0, r4
100097c2:	f000 fd70 	bl	1000a2a6 <tu_fifo_count>
100097c6:	283f      	cmp	r0, #63	; 0x3f
100097c8:	d801      	bhi.n	100097ce <tud_cdc_n_write+0x2a>
100097ca:	0030      	movs	r0, r6
100097cc:	bd70      	pop	{r4, r5, r6, pc}
100097ce:	0028      	movs	r0, r5
100097d0:	f7ff ff8c 	bl	100096ec <tud_cdc_n_write_flush>
100097d4:	e7f9      	b.n	100097ca <tud_cdc_n_write+0x26>
100097d6:	46c0      	nop			; (mov r8, r8)
100097d8:	200012d0 	.word	0x200012d0

100097dc <tud_cdc_n_write_available>:
100097dc:	b510      	push	{r4, lr}
100097de:	23b2      	movs	r3, #178	; 0xb2
100097e0:	009b      	lsls	r3, r3, #2
100097e2:	4358      	muls	r0, r3
100097e4:	3020      	adds	r0, #32
100097e6:	4b03      	ldr	r3, [pc, #12]	; (100097f4 <tud_cdc_n_write_available+0x18>)
100097e8:	18c0      	adds	r0, r0, r3
100097ea:	3004      	adds	r0, #4
100097ec:	f000 fd8b 	bl	1000a306 <tu_fifo_remaining>
100097f0:	bd10      	pop	{r4, pc}
100097f2:	46c0      	nop			; (mov r8, r8)
100097f4:	200012d0 	.word	0x200012d0

100097f8 <cdcd_init>:
100097f8:	b5f0      	push	{r4, r5, r6, r7, lr}
100097fa:	46ce      	mov	lr, r9
100097fc:	4647      	mov	r7, r8
100097fe:	b580      	push	{r7, lr}
10009800:	b083      	sub	sp, #12
10009802:	482a      	ldr	r0, [pc, #168]	; (100098ac <cdcd_init+0xb4>)
10009804:	22b2      	movs	r2, #178	; 0xb2
10009806:	0092      	lsls	r2, r2, #2
10009808:	2100      	movs	r1, #0
1000980a:	f7fe f9c3 	bl	10007b94 <__wrap_memset>
1000980e:	2700      	movs	r7, #0
10009810:	2f00      	cmp	r7, #0
10009812:	d004      	beq.n	1000981e <cdcd_init+0x26>
10009814:	b003      	add	sp, #12
10009816:	bcc0      	pop	{r6, r7}
10009818:	46b9      	mov	r9, r7
1000981a:	46b0      	mov	r8, r6
1000981c:	bdf0      	pop	{r4, r5, r6, r7, pc}
1000981e:	4e23      	ldr	r6, [pc, #140]	; (100098ac <cdcd_init+0xb4>)
10009820:	24b2      	movs	r4, #178	; 0xb2
10009822:	00a4      	lsls	r4, r4, #2
10009824:	437c      	muls	r4, r7
10009826:	1935      	adds	r5, r6, r4
10009828:	23ff      	movs	r3, #255	; 0xff
1000982a:	716b      	strb	r3, [r5, #5]
1000982c:	2300      	movs	r3, #0
1000982e:	4698      	mov	r8, r3
10009830:	4a1f      	ldr	r2, [pc, #124]	; (100098b0 <cdcd_init+0xb8>)
10009832:	80ea      	strh	r2, [r5, #6]
10009834:	2201      	movs	r2, #1
10009836:	812a      	strh	r2, [r5, #8]
10009838:	72ab      	strb	r3, [r5, #10]
1000983a:	72eb      	strb	r3, [r5, #11]
1000983c:	2308      	movs	r3, #8
1000983e:	732b      	strb	r3, [r5, #12]
10009840:	0021      	movs	r1, r4
10009842:	3138      	adds	r1, #56	; 0x38
10009844:	1989      	adds	r1, r1, r6
10009846:	33f8      	adds	r3, #248	; 0xf8
10009848:	4699      	mov	r9, r3
1000984a:	0020      	movs	r0, r4
1000984c:	3010      	adds	r0, #16
1000984e:	1980      	adds	r0, r0, r6
10009850:	4643      	mov	r3, r8
10009852:	9300      	str	r3, [sp, #0]
10009854:	3301      	adds	r3, #1
10009856:	464a      	mov	r2, r9
10009858:	f000 fce7 	bl	1000a22a <tu_fifo_config>
1000985c:	0021      	movs	r1, r4
1000985e:	3139      	adds	r1, #57	; 0x39
10009860:	31ff      	adds	r1, #255	; 0xff
10009862:	1989      	adds	r1, r1, r6
10009864:	0020      	movs	r0, r4
10009866:	3020      	adds	r0, #32
10009868:	1980      	adds	r0, r0, r6
1000986a:	3004      	adds	r0, #4
1000986c:	2301      	movs	r3, #1
1000986e:	9300      	str	r3, [sp, #0]
10009870:	464a      	mov	r2, r9
10009872:	f000 fcda 	bl	1000a22a <tu_fifo_config>
10009876:	238e      	movs	r3, #142	; 0x8e
10009878:	009b      	lsls	r3, r3, #2
1000987a:	18e3      	adds	r3, r4, r3
1000987c:	4699      	mov	r9, r3
1000987e:	44b1      	add	r9, r6
10009880:	4648      	mov	r0, r9
10009882:	f7fa fc13 	bl	100040ac <mutex_init>
10009886:	4643      	mov	r3, r8
10009888:	61eb      	str	r3, [r5, #28]
1000988a:	464b      	mov	r3, r9
1000988c:	622b      	str	r3, [r5, #32]
1000988e:	2390      	movs	r3, #144	; 0x90
10009890:	009b      	lsls	r3, r3, #2
10009892:	469c      	mov	ip, r3
10009894:	4464      	add	r4, ip
10009896:	19a4      	adds	r4, r4, r6
10009898:	0020      	movs	r0, r4
1000989a:	f7fa fc07 	bl	100040ac <mutex_init>
1000989e:	632c      	str	r4, [r5, #48]	; 0x30
100098a0:	4643      	mov	r3, r8
100098a2:	636b      	str	r3, [r5, #52]	; 0x34
100098a4:	3701      	adds	r7, #1
100098a6:	b2ff      	uxtb	r7, r7
100098a8:	e7b2      	b.n	10009810 <cdcd_init+0x18>
100098aa:	46c0      	nop			; (mov r8, r8)
100098ac:	200012d0 	.word	0x200012d0
100098b0:	ffffc200 	.word	0xffffc200

100098b4 <cdcd_reset>:
100098b4:	b570      	push	{r4, r5, r6, lr}
100098b6:	2500      	movs	r5, #0
100098b8:	2d00      	cmp	r5, #0
100098ba:	d000      	beq.n	100098be <cdcd_reset+0xa>
100098bc:	bd70      	pop	{r4, r5, r6, pc}
100098be:	24b2      	movs	r4, #178	; 0xb2
100098c0:	00a4      	lsls	r4, r4, #2
100098c2:	436c      	muls	r4, r5
100098c4:	4e0b      	ldr	r6, [pc, #44]	; (100098f4 <cdcd_reset+0x40>)
100098c6:	19a0      	adds	r0, r4, r6
100098c8:	2205      	movs	r2, #5
100098ca:	2100      	movs	r1, #0
100098cc:	f7fe f962 	bl	10007b94 <__wrap_memset>
100098d0:	0020      	movs	r0, r4
100098d2:	3010      	adds	r0, #16
100098d4:	1980      	adds	r0, r0, r6
100098d6:	f000 fd89 	bl	1000a3ec <tu_fifo_clear>
100098da:	3420      	adds	r4, #32
100098dc:	19a4      	adds	r4, r4, r6
100098de:	3404      	adds	r4, #4
100098e0:	0020      	movs	r0, r4
100098e2:	f000 fd83 	bl	1000a3ec <tu_fifo_clear>
100098e6:	2101      	movs	r1, #1
100098e8:	0020      	movs	r0, r4
100098ea:	f000 fd9e 	bl	1000a42a <tu_fifo_set_overwritable>
100098ee:	3501      	adds	r5, #1
100098f0:	b2ed      	uxtb	r5, r5
100098f2:	e7e1      	b.n	100098b8 <cdcd_reset+0x4>
100098f4:	200012d0 	.word	0x200012d0

100098f8 <cdcd_open>:
100098f8:	b5f0      	push	{r4, r5, r6, r7, lr}
100098fa:	b083      	sub	sp, #12
100098fc:	0006      	movs	r6, r0
100098fe:	794b      	ldrb	r3, [r1, #5]
10009900:	2b02      	cmp	r3, #2
10009902:	d150      	bne.n	100099a6 <cdcd_open+0xae>
10009904:	798b      	ldrb	r3, [r1, #6]
10009906:	2b02      	cmp	r3, #2
10009908:	d151      	bne.n	100099ae <cdcd_open+0xb6>
1000990a:	2300      	movs	r3, #0
1000990c:	2b00      	cmp	r3, #0
1000990e:	d008      	beq.n	10009922 <cdcd_open+0x2a>
10009910:	2700      	movs	r7, #0
10009912:	2f00      	cmp	r7, #0
10009914:	d04d      	beq.n	100099b2 <cdcd_open+0xba>
10009916:	788b      	ldrb	r3, [r1, #2]
10009918:	703b      	strb	r3, [r7, #0]
1000991a:	780c      	ldrb	r4, [r1, #0]
1000991c:	190c      	adds	r4, r1, r4
1000991e:	2509      	movs	r5, #9
10009920:	e011      	b.n	10009946 <cdcd_open+0x4e>
10009922:	4827      	ldr	r0, [pc, #156]	; (100099c0 <cdcd_open+0xc8>)
10009924:	25b2      	movs	r5, #178	; 0xb2
10009926:	00ad      	lsls	r5, r5, #2
10009928:	435d      	muls	r5, r3
1000992a:	1940      	adds	r0, r0, r5
1000992c:	7880      	ldrb	r0, [r0, #2]
1000992e:	2800      	cmp	r0, #0
10009930:	d002      	beq.n	10009938 <cdcd_open+0x40>
10009932:	3301      	adds	r3, #1
10009934:	b2db      	uxtb	r3, r3
10009936:	e7e9      	b.n	1000990c <cdcd_open+0x14>
10009938:	4b21      	ldr	r3, [pc, #132]	; (100099c0 <cdcd_open+0xc8>)
1000993a:	18ef      	adds	r7, r5, r3
1000993c:	e7e9      	b.n	10009912 <cdcd_open+0x1a>
1000993e:	7821      	ldrb	r1, [r4, #0]
10009940:	194d      	adds	r5, r1, r5
10009942:	b2ad      	uxth	r5, r5
10009944:	1864      	adds	r4, r4, r1
10009946:	7863      	ldrb	r3, [r4, #1]
10009948:	2b24      	cmp	r3, #36	; 0x24
1000994a:	d101      	bne.n	10009950 <cdcd_open+0x58>
1000994c:	4295      	cmp	r5, r2
1000994e:	d9f6      	bls.n	1000993e <cdcd_open+0x46>
10009950:	2b05      	cmp	r3, #5
10009952:	d009      	beq.n	10009968 <cdcd_open+0x70>
10009954:	7863      	ldrb	r3, [r4, #1]
10009956:	2b04      	cmp	r3, #4
10009958:	d102      	bne.n	10009960 <cdcd_open+0x68>
1000995a:	7963      	ldrb	r3, [r4, #5]
1000995c:	2b0a      	cmp	r3, #10
1000995e:	d010      	beq.n	10009982 <cdcd_open+0x8a>
10009960:	0038      	movs	r0, r7
10009962:	f7ff fe5b 	bl	1000961c <_prep_out_transaction>
10009966:	e01f      	b.n	100099a8 <cdcd_open+0xb0>
10009968:	0021      	movs	r1, r4
1000996a:	0030      	movs	r0, r6
1000996c:	f7ff f9ae 	bl	10008ccc <usbd_edpt_open>
10009970:	2800      	cmp	r0, #0
10009972:	d020      	beq.n	100099b6 <cdcd_open+0xbe>
10009974:	78a3      	ldrb	r3, [r4, #2]
10009976:	707b      	strb	r3, [r7, #1]
10009978:	7822      	ldrb	r2, [r4, #0]
1000997a:	1955      	adds	r5, r2, r5
1000997c:	b2ad      	uxth	r5, r5
1000997e:	18a4      	adds	r4, r4, r2
10009980:	e7e8      	b.n	10009954 <cdcd_open+0x5c>
10009982:	7821      	ldrb	r1, [r4, #0]
10009984:	194d      	adds	r5, r1, r5
10009986:	b2ad      	uxth	r5, r5
10009988:	1861      	adds	r1, r4, r1
1000998a:	1cbb      	adds	r3, r7, #2
1000998c:	9301      	str	r3, [sp, #4]
1000998e:	1cfb      	adds	r3, r7, #3
10009990:	9300      	str	r3, [sp, #0]
10009992:	2302      	movs	r3, #2
10009994:	2202      	movs	r2, #2
10009996:	0030      	movs	r0, r6
10009998:	f7ff f9b2 	bl	10008d00 <usbd_open_edpt_pair>
1000999c:	2800      	cmp	r0, #0
1000999e:	d00c      	beq.n	100099ba <cdcd_open+0xc2>
100099a0:	350e      	adds	r5, #14
100099a2:	b2ad      	uxth	r5, r5
100099a4:	e7dc      	b.n	10009960 <cdcd_open+0x68>
100099a6:	2500      	movs	r5, #0
100099a8:	0028      	movs	r0, r5
100099aa:	b003      	add	sp, #12
100099ac:	bdf0      	pop	{r4, r5, r6, r7, pc}
100099ae:	2500      	movs	r5, #0
100099b0:	e7fa      	b.n	100099a8 <cdcd_open+0xb0>
100099b2:	2500      	movs	r5, #0
100099b4:	e7f8      	b.n	100099a8 <cdcd_open+0xb0>
100099b6:	2500      	movs	r5, #0
100099b8:	e7f6      	b.n	100099a8 <cdcd_open+0xb0>
100099ba:	2500      	movs	r5, #0
100099bc:	e7f4      	b.n	100099a8 <cdcd_open+0xb0>
100099be:	46c0      	nop			; (mov r8, r8)
100099c0:	200012d0 	.word	0x200012d0

100099c4 <cdcd_control_xfer_cb>:
100099c4:	b5f8      	push	{r3, r4, r5, r6, r7, lr}
100099c6:	0014      	movs	r4, r2
100099c8:	7812      	ldrb	r2, [r2, #0]
100099ca:	2360      	movs	r3, #96	; 0x60
100099cc:	4013      	ands	r3, r2
100099ce:	2b20      	cmp	r3, #32
100099d0:	d000      	beq.n	100099d4 <cdcd_control_xfer_cb+0x10>
100099d2:	e07f      	b.n	10009ad4 <cdcd_control_xfer_cb+0x110>
100099d4:	4a44      	ldr	r2, [pc, #272]	; (10009ae8 <cdcd_control_xfer_cb+0x124>)
100099d6:	2500      	movs	r5, #0
100099d8:	2d00      	cmp	r5, #0
100099da:	d000      	beq.n	100099de <cdcd_control_xfer_cb+0x1a>
100099dc:	e07c      	b.n	10009ad8 <cdcd_control_xfer_cb+0x114>
100099de:	7816      	ldrb	r6, [r2, #0]
100099e0:	7927      	ldrb	r7, [r4, #4]
100099e2:	7963      	ldrb	r3, [r4, #5]
100099e4:	021b      	lsls	r3, r3, #8
100099e6:	433b      	orrs	r3, r7
100099e8:	429e      	cmp	r6, r3
100099ea:	d006      	beq.n	100099fa <cdcd_control_xfer_cb+0x36>
100099ec:	3501      	adds	r5, #1
100099ee:	b2ed      	uxtb	r5, r5
100099f0:	23b2      	movs	r3, #178	; 0xb2
100099f2:	009b      	lsls	r3, r3, #2
100099f4:	469c      	mov	ip, r3
100099f6:	4462      	add	r2, ip
100099f8:	e7ee      	b.n	100099d8 <cdcd_control_xfer_cb+0x14>
100099fa:	7863      	ldrb	r3, [r4, #1]
100099fc:	2b22      	cmp	r3, #34	; 0x22
100099fe:	d031      	beq.n	10009a64 <cdcd_control_xfer_cb+0xa0>
10009a00:	d809      	bhi.n	10009a16 <cdcd_control_xfer_cb+0x52>
10009a02:	2b20      	cmp	r3, #32
10009a04:	d011      	beq.n	10009a2a <cdcd_control_xfer_cb+0x66>
10009a06:	2b21      	cmp	r3, #33	; 0x21
10009a08:	d103      	bne.n	10009a12 <cdcd_control_xfer_cb+0x4e>
10009a0a:	2901      	cmp	r1, #1
10009a0c:	d023      	beq.n	10009a56 <cdcd_control_xfer_cb+0x92>
10009a0e:	2001      	movs	r0, #1
10009a10:	e061      	b.n	10009ad6 <cdcd_control_xfer_cb+0x112>
10009a12:	2000      	movs	r0, #0
10009a14:	e05f      	b.n	10009ad6 <cdcd_control_xfer_cb+0x112>
10009a16:	2b23      	cmp	r3, #35	; 0x23
10009a18:	d105      	bne.n	10009a26 <cdcd_control_xfer_cb+0x62>
10009a1a:	2901      	cmp	r1, #1
10009a1c:	d049      	beq.n	10009ab2 <cdcd_control_xfer_cb+0xee>
10009a1e:	2903      	cmp	r1, #3
10009a20:	d04c      	beq.n	10009abc <cdcd_control_xfer_cb+0xf8>
10009a22:	2001      	movs	r0, #1
10009a24:	e057      	b.n	10009ad6 <cdcd_control_xfer_cb+0x112>
10009a26:	2000      	movs	r0, #0
10009a28:	e055      	b.n	10009ad6 <cdcd_control_xfer_cb+0x112>
10009a2a:	2901      	cmp	r1, #1
10009a2c:	d003      	beq.n	10009a36 <cdcd_control_xfer_cb+0x72>
10009a2e:	2903      	cmp	r1, #3
10009a30:	d008      	beq.n	10009a44 <cdcd_control_xfer_cb+0x80>
10009a32:	2001      	movs	r0, #1
10009a34:	e04f      	b.n	10009ad6 <cdcd_control_xfer_cb+0x112>
10009a36:	3206      	adds	r2, #6
10009a38:	2307      	movs	r3, #7
10009a3a:	0021      	movs	r1, r4
10009a3c:	f7ff fd2e 	bl	1000949c <tud_control_xfer>
10009a40:	2001      	movs	r0, #1
10009a42:	e048      	b.n	10009ad6 <cdcd_control_xfer_cb+0x112>
10009a44:	4b29      	ldr	r3, [pc, #164]	; (10009aec <cdcd_control_xfer_cb+0x128>)
10009a46:	2b00      	cmp	r3, #0
10009a48:	d048      	beq.n	10009adc <cdcd_control_xfer_cb+0x118>
10009a4a:	1d91      	adds	r1, r2, #6
10009a4c:	0028      	movs	r0, r5
10009a4e:	f7fe fa73 	bl	10007f38 <tud_cdc_line_coding_cb>
10009a52:	2001      	movs	r0, #1
10009a54:	e03f      	b.n	10009ad6 <cdcd_control_xfer_cb+0x112>
10009a56:	3206      	adds	r2, #6
10009a58:	2307      	movs	r3, #7
10009a5a:	0021      	movs	r1, r4
10009a5c:	f7ff fd1e 	bl	1000949c <tud_control_xfer>
10009a60:	2001      	movs	r0, #1
10009a62:	e038      	b.n	10009ad6 <cdcd_control_xfer_cb+0x112>
10009a64:	2901      	cmp	r1, #1
10009a66:	d003      	beq.n	10009a70 <cdcd_control_xfer_cb+0xac>
10009a68:	2903      	cmp	r1, #3
10009a6a:	d006      	beq.n	10009a7a <cdcd_control_xfer_cb+0xb6>
10009a6c:	2001      	movs	r0, #1
10009a6e:	e032      	b.n	10009ad6 <cdcd_control_xfer_cb+0x112>
10009a70:	0021      	movs	r1, r4
10009a72:	f7ff fcf7 	bl	10009464 <tud_control_status>
10009a76:	2001      	movs	r0, #1
10009a78:	e02d      	b.n	10009ad6 <cdcd_control_xfer_cb+0x112>
10009a7a:	78a1      	ldrb	r1, [r4, #2]
10009a7c:	78e3      	ldrb	r3, [r4, #3]
10009a7e:	021b      	lsls	r3, r3, #8
10009a80:	430b      	orrs	r3, r1
10009a82:	2001      	movs	r0, #1
10009a84:	0019      	movs	r1, r3
10009a86:	4001      	ands	r1, r0
10009a88:	000e      	movs	r6, r1
10009a8a:	085c      	lsrs	r4, r3, #1
10009a8c:	4004      	ands	r4, r0
10009a8e:	7113      	strb	r3, [r2, #4]
10009a90:	424b      	negs	r3, r1
10009a92:	4159      	adcs	r1, r3
10009a94:	b2c9      	uxtb	r1, r1
10009a96:	3224      	adds	r2, #36	; 0x24
10009a98:	0010      	movs	r0, r2
10009a9a:	f000 fcc6 	bl	1000a42a <tu_fifo_set_overwritable>
10009a9e:	4b14      	ldr	r3, [pc, #80]	; (10009af0 <cdcd_control_xfer_cb+0x12c>)
10009aa0:	2b00      	cmp	r3, #0
10009aa2:	d01d      	beq.n	10009ae0 <cdcd_control_xfer_cb+0x11c>
10009aa4:	0022      	movs	r2, r4
10009aa6:	0031      	movs	r1, r6
10009aa8:	0028      	movs	r0, r5
10009aaa:	e000      	b.n	10009aae <cdcd_control_xfer_cb+0xea>
10009aac:	bf00      	nop
10009aae:	2001      	movs	r0, #1
10009ab0:	e011      	b.n	10009ad6 <cdcd_control_xfer_cb+0x112>
10009ab2:	0021      	movs	r1, r4
10009ab4:	f7ff fcd6 	bl	10009464 <tud_control_status>
10009ab8:	2001      	movs	r0, #1
10009aba:	e00c      	b.n	10009ad6 <cdcd_control_xfer_cb+0x112>
10009abc:	4b0d      	ldr	r3, [pc, #52]	; (10009af4 <cdcd_control_xfer_cb+0x130>)
10009abe:	2b00      	cmp	r3, #0
10009ac0:	d010      	beq.n	10009ae4 <cdcd_control_xfer_cb+0x120>
10009ac2:	78a3      	ldrb	r3, [r4, #2]
10009ac4:	78e1      	ldrb	r1, [r4, #3]
10009ac6:	0209      	lsls	r1, r1, #8
10009ac8:	4319      	orrs	r1, r3
10009aca:	0028      	movs	r0, r5
10009acc:	e000      	b.n	10009ad0 <cdcd_control_xfer_cb+0x10c>
10009ace:	bf00      	nop
10009ad0:	2001      	movs	r0, #1
10009ad2:	e000      	b.n	10009ad6 <cdcd_control_xfer_cb+0x112>
10009ad4:	2000      	movs	r0, #0
10009ad6:	bdf8      	pop	{r3, r4, r5, r6, r7, pc}
10009ad8:	2000      	movs	r0, #0
10009ada:	e7fc      	b.n	10009ad6 <cdcd_control_xfer_cb+0x112>
10009adc:	2001      	movs	r0, #1
10009ade:	e7fa      	b.n	10009ad6 <cdcd_control_xfer_cb+0x112>
10009ae0:	2001      	movs	r0, #1
10009ae2:	e7f8      	b.n	10009ad6 <cdcd_control_xfer_cb+0x112>
10009ae4:	2001      	movs	r0, #1
10009ae6:	e7f6      	b.n	10009ad6 <cdcd_control_xfer_cb+0x112>
10009ae8:	200012d0 	.word	0x200012d0
10009aec:	10007f39 	.word	0x10007f39
	...

10009af8 <cdcd_xfer_cb>:
10009af8:	b5f0      	push	{r4, r5, r6, r7, lr}
10009afa:	46d6      	mov	lr, sl
10009afc:	b500      	push	{lr}
10009afe:	b082      	sub	sp, #8
10009b00:	9001      	str	r0, [sp, #4]
10009b02:	000f      	movs	r7, r1
10009b04:	9300      	str	r3, [sp, #0]
10009b06:	2400      	movs	r4, #0
10009b08:	2c00      	cmp	r4, #0
10009b0a:	d00e      	beq.n	10009b2a <cdcd_xfer_cb+0x32>
10009b0c:	2c00      	cmp	r4, #0
10009b0e:	d000      	beq.n	10009b12 <cdcd_xfer_cb+0x1a>
10009b10:	e07c      	b.n	10009c0c <cdcd_xfer_cb+0x114>
10009b12:	78eb      	ldrb	r3, [r5, #3]
10009b14:	42bb      	cmp	r3, r7
10009b16:	d016      	beq.n	10009b46 <cdcd_xfer_cb+0x4e>
10009b18:	78ab      	ldrb	r3, [r5, #2]
10009b1a:	42bb      	cmp	r3, r7
10009b1c:	d04d      	beq.n	10009bba <cdcd_xfer_cb+0xc2>
10009b1e:	2401      	movs	r4, #1
10009b20:	0020      	movs	r0, r4
10009b22:	b002      	add	sp, #8
10009b24:	bc80      	pop	{r7}
10009b26:	46ba      	mov	sl, r7
10009b28:	bdf0      	pop	{r4, r5, r6, r7, pc}
10009b2a:	25b2      	movs	r5, #178	; 0xb2
10009b2c:	00ad      	lsls	r5, r5, #2
10009b2e:	4365      	muls	r5, r4
10009b30:	4b39      	ldr	r3, [pc, #228]	; (10009c18 <cdcd_xfer_cb+0x120>)
10009b32:	18ed      	adds	r5, r5, r3
10009b34:	78eb      	ldrb	r3, [r5, #3]
10009b36:	42bb      	cmp	r3, r7
10009b38:	d0e8      	beq.n	10009b0c <cdcd_xfer_cb+0x14>
10009b3a:	78ab      	ldrb	r3, [r5, #2]
10009b3c:	42bb      	cmp	r3, r7
10009b3e:	d0e5      	beq.n	10009b0c <cdcd_xfer_cb+0x14>
10009b40:	3401      	adds	r4, #1
10009b42:	b2e4      	uxtb	r4, r4
10009b44:	e7e0      	b.n	10009b08 <cdcd_xfer_cb+0x10>
10009b46:	2310      	movs	r3, #16
10009b48:	469a      	mov	sl, r3
10009b4a:	44aa      	add	sl, r5
10009b4c:	2392      	movs	r3, #146	; 0x92
10009b4e:	009b      	lsls	r3, r3, #2
10009b50:	18e9      	adds	r1, r5, r3
10009b52:	466b      	mov	r3, sp
10009b54:	881a      	ldrh	r2, [r3, #0]
10009b56:	4650      	mov	r0, sl
10009b58:	f000 fc43 	bl	1000a3e2 <tu_fifo_write_n>
10009b5c:	4b2f      	ldr	r3, [pc, #188]	; (10009c1c <cdcd_xfer_cb+0x124>)
10009b5e:	2b00      	cmp	r3, #0
10009b60:	d01b      	beq.n	10009b9a <cdcd_xfer_cb+0xa2>
10009b62:	796b      	ldrb	r3, [r5, #5]
10009b64:	2bff      	cmp	r3, #255	; 0xff
10009b66:	d018      	beq.n	10009b9a <cdcd_xfer_cb+0xa2>
10009b68:	2600      	movs	r6, #0
10009b6a:	e000      	b.n	10009b6e <cdcd_xfer_cb+0x76>
10009b6c:	3601      	adds	r6, #1
10009b6e:	9b00      	ldr	r3, [sp, #0]
10009b70:	429e      	cmp	r6, r3
10009b72:	d212      	bcs.n	10009b9a <cdcd_xfer_cb+0xa2>
10009b74:	796a      	ldrb	r2, [r5, #5]
10009b76:	19ab      	adds	r3, r5, r6
10009b78:	2192      	movs	r1, #146	; 0x92
10009b7a:	0089      	lsls	r1, r1, #2
10009b7c:	468c      	mov	ip, r1
10009b7e:	4463      	add	r3, ip
10009b80:	781b      	ldrb	r3, [r3, #0]
10009b82:	429a      	cmp	r2, r3
10009b84:	d1f2      	bne.n	10009b6c <cdcd_xfer_cb+0x74>
10009b86:	4650      	mov	r0, sl
10009b88:	f000 fba2 	bl	1000a2d0 <tu_fifo_empty>
10009b8c:	2800      	cmp	r0, #0
10009b8e:	d1ed      	bne.n	10009b6c <cdcd_xfer_cb+0x74>
10009b90:	7969      	ldrb	r1, [r5, #5]
10009b92:	0020      	movs	r0, r4
10009b94:	e000      	b.n	10009b98 <cdcd_xfer_cb+0xa0>
10009b96:	bf00      	nop
10009b98:	e7e8      	b.n	10009b6c <cdcd_xfer_cb+0x74>
10009b9a:	4b21      	ldr	r3, [pc, #132]	; (10009c20 <cdcd_xfer_cb+0x128>)
10009b9c:	2b00      	cmp	r3, #0
10009b9e:	d004      	beq.n	10009baa <cdcd_xfer_cb+0xb2>
10009ba0:	4650      	mov	r0, sl
10009ba2:	f000 fb95 	bl	1000a2d0 <tu_fifo_empty>
10009ba6:	2800      	cmp	r0, #0
10009ba8:	d003      	beq.n	10009bb2 <cdcd_xfer_cb+0xba>
10009baa:	0028      	movs	r0, r5
10009bac:	f7ff fd36 	bl	1000961c <_prep_out_transaction>
10009bb0:	e7b2      	b.n	10009b18 <cdcd_xfer_cb+0x20>
10009bb2:	0020      	movs	r0, r4
10009bb4:	f7fe fa7e 	bl	100080b4 <tud_cdc_rx_cb>
10009bb8:	e7f7      	b.n	10009baa <cdcd_xfer_cb+0xb2>
10009bba:	4b1a      	ldr	r3, [pc, #104]	; (10009c24 <cdcd_xfer_cb+0x12c>)
10009bbc:	2b00      	cmp	r3, #0
10009bbe:	d002      	beq.n	10009bc6 <cdcd_xfer_cb+0xce>
10009bc0:	0020      	movs	r0, r4
10009bc2:	e000      	b.n	10009bc6 <cdcd_xfer_cb+0xce>
10009bc4:	bf00      	nop
10009bc6:	0020      	movs	r0, r4
10009bc8:	f7ff fd90 	bl	100096ec <tud_cdc_n_write_flush>
10009bcc:	2800      	cmp	r0, #0
10009bce:	d001      	beq.n	10009bd4 <cdcd_xfer_cb+0xdc>
10009bd0:	2401      	movs	r4, #1
10009bd2:	e7a5      	b.n	10009b20 <cdcd_xfer_cb+0x28>
10009bd4:	0028      	movs	r0, r5
10009bd6:	3024      	adds	r0, #36	; 0x24
10009bd8:	f000 fb65 	bl	1000a2a6 <tu_fifo_count>
10009bdc:	2800      	cmp	r0, #0
10009bde:	d117      	bne.n	10009c10 <cdcd_xfer_cb+0x118>
10009be0:	9b00      	ldr	r3, [sp, #0]
10009be2:	2b00      	cmp	r3, #0
10009be4:	d016      	beq.n	10009c14 <cdcd_xfer_cb+0x11c>
10009be6:	069e      	lsls	r6, r3, #26
10009be8:	d001      	beq.n	10009bee <cdcd_xfer_cb+0xf6>
10009bea:	2401      	movs	r4, #1
10009bec:	e798      	b.n	10009b20 <cdcd_xfer_cb+0x28>
10009bee:	78a9      	ldrb	r1, [r5, #2]
10009bf0:	9801      	ldr	r0, [sp, #4]
10009bf2:	f7ff f8b7 	bl	10008d64 <usbd_edpt_claim>
10009bf6:	1e04      	subs	r4, r0, #0
10009bf8:	d101      	bne.n	10009bfe <cdcd_xfer_cb+0x106>
10009bfa:	2401      	movs	r4, #1
10009bfc:	e790      	b.n	10009b20 <cdcd_xfer_cb+0x28>
10009bfe:	78a9      	ldrb	r1, [r5, #2]
10009c00:	2300      	movs	r3, #0
10009c02:	2200      	movs	r2, #0
10009c04:	9801      	ldr	r0, [sp, #4]
10009c06:	f7ff f8d5 	bl	10008db4 <usbd_edpt_xfer>
10009c0a:	e789      	b.n	10009b20 <cdcd_xfer_cb+0x28>
10009c0c:	2400      	movs	r4, #0
10009c0e:	e787      	b.n	10009b20 <cdcd_xfer_cb+0x28>
10009c10:	2401      	movs	r4, #1
10009c12:	e785      	b.n	10009b20 <cdcd_xfer_cb+0x28>
10009c14:	2401      	movs	r4, #1
10009c16:	e783      	b.n	10009b20 <cdcd_xfer_cb+0x28>
10009c18:	200012d0 	.word	0x200012d0
10009c1c:	00000000 	.word	0x00000000
10009c20:	100080b5 	.word	0x100080b5
10009c24:	00000000 	.word	0x00000000

10009c28 <tusb_init>:
10009c28:	b510      	push	{r4, lr}
10009c2a:	2000      	movs	r0, #0
10009c2c:	f7fe ffd2 	bl	10008bd4 <tud_init>
10009c30:	bd10      	pop	{r4, pc}

10009c32 <tusb_inited>:
10009c32:	b510      	push	{r4, lr}
10009c34:	f7fe ffc4 	bl	10008bc0 <tud_inited>
10009c38:	2800      	cmp	r0, #0
10009c3a:	d000      	beq.n	10009c3e <tusb_inited+0xc>
10009c3c:	2001      	movs	r0, #1
10009c3e:	bd10      	pop	{r4, pc}

10009c40 <tu_edpt_claim>:
10009c40:	b570      	push	{r4, r5, r6, lr}
10009c42:	0004      	movs	r4, r0
10009c44:	000d      	movs	r5, r1
10009c46:	7803      	ldrb	r3, [r0, #0]
10009c48:	07db      	lsls	r3, r3, #31
10009c4a:	0fde      	lsrs	r6, r3, #31
10009c4c:	2b00      	cmp	r3, #0
10009c4e:	d11c      	bne.n	10009c8a <tu_edpt_claim+0x4a>
10009c50:	7803      	ldrb	r3, [r0, #0]
10009c52:	075b      	lsls	r3, r3, #29
10009c54:	d41a      	bmi.n	10009c8c <tu_edpt_claim+0x4c>
10009c56:	2101      	movs	r1, #1
10009c58:	4249      	negs	r1, r1
10009c5a:	0028      	movs	r0, r5
10009c5c:	f000 ff50 	bl	1000ab00 <__mutex_enter_timeout_ms_veneer>
10009c60:	7823      	ldrb	r3, [r4, #0]
10009c62:	07db      	lsls	r3, r3, #31
10009c64:	d404      	bmi.n	10009c70 <tu_edpt_claim+0x30>
10009c66:	7823      	ldrb	r3, [r4, #0]
10009c68:	075b      	lsls	r3, r3, #29
10009c6a:	d50c      	bpl.n	10009c86 <tu_edpt_claim+0x46>
10009c6c:	2600      	movs	r6, #0
10009c6e:	e000      	b.n	10009c72 <tu_edpt_claim+0x32>
10009c70:	2600      	movs	r6, #0
10009c72:	2e00      	cmp	r6, #0
10009c74:	d003      	beq.n	10009c7e <tu_edpt_claim+0x3e>
10009c76:	7823      	ldrb	r3, [r4, #0]
10009c78:	2204      	movs	r2, #4
10009c7a:	4313      	orrs	r3, r2
10009c7c:	7023      	strb	r3, [r4, #0]
10009c7e:	0028      	movs	r0, r5
10009c80:	f000 ff1e 	bl	1000aac0 <__mutex_exit_veneer>
10009c84:	e002      	b.n	10009c8c <tu_edpt_claim+0x4c>
10009c86:	2601      	movs	r6, #1
10009c88:	e7f3      	b.n	10009c72 <tu_edpt_claim+0x32>
10009c8a:	2600      	movs	r6, #0
10009c8c:	0030      	movs	r0, r6
10009c8e:	bd70      	pop	{r4, r5, r6, pc}

10009c90 <tu_edpt_release>:
10009c90:	b570      	push	{r4, r5, r6, lr}
10009c92:	0004      	movs	r4, r0
10009c94:	000e      	movs	r6, r1
10009c96:	2101      	movs	r1, #1
10009c98:	4249      	negs	r1, r1
10009c9a:	0030      	movs	r0, r6
10009c9c:	f000 ff30 	bl	1000ab00 <__mutex_enter_timeout_ms_veneer>
10009ca0:	7823      	ldrb	r3, [r4, #0]
10009ca2:	075b      	lsls	r3, r3, #29
10009ca4:	d40b      	bmi.n	10009cbe <tu_edpt_release+0x2e>
10009ca6:	2500      	movs	r5, #0
10009ca8:	2d00      	cmp	r5, #0
10009caa:	d003      	beq.n	10009cb4 <tu_edpt_release+0x24>
10009cac:	7823      	ldrb	r3, [r4, #0]
10009cae:	2204      	movs	r2, #4
10009cb0:	4393      	bics	r3, r2
10009cb2:	7023      	strb	r3, [r4, #0]
10009cb4:	0030      	movs	r0, r6
10009cb6:	f000 ff03 	bl	1000aac0 <__mutex_exit_veneer>
10009cba:	0028      	movs	r0, r5
10009cbc:	bd70      	pop	{r4, r5, r6, pc}
10009cbe:	7823      	ldrb	r3, [r4, #0]
10009cc0:	07db      	lsls	r3, r3, #31
10009cc2:	d501      	bpl.n	10009cc8 <tu_edpt_release+0x38>
10009cc4:	2500      	movs	r5, #0
10009cc6:	e7ef      	b.n	10009ca8 <tu_edpt_release+0x18>
10009cc8:	2501      	movs	r5, #1
10009cca:	e7ed      	b.n	10009ca8 <tu_edpt_release+0x18>

10009ccc <tu_edpt_validate>:
10009ccc:	7902      	ldrb	r2, [r0, #4]
10009cce:	7943      	ldrb	r3, [r0, #5]
10009cd0:	021b      	lsls	r3, r3, #8
10009cd2:	4313      	orrs	r3, r2
10009cd4:	055b      	lsls	r3, r3, #21
10009cd6:	0d5b      	lsrs	r3, r3, #21
10009cd8:	78c2      	ldrb	r2, [r0, #3]
10009cda:	0792      	lsls	r2, r2, #30
10009cdc:	0f92      	lsrs	r2, r2, #30
10009cde:	2a02      	cmp	r2, #2
10009ce0:	d00f      	beq.n	10009d02 <tu_edpt_validate+0x36>
10009ce2:	2a03      	cmp	r2, #3
10009ce4:	d019      	beq.n	10009d1a <tu_edpt_validate+0x4e>
10009ce6:	2a01      	cmp	r2, #1
10009ce8:	d001      	beq.n	10009cee <tu_edpt_validate+0x22>
10009cea:	2000      	movs	r0, #0
10009cec:	4770      	bx	lr
10009cee:	2902      	cmp	r1, #2
10009cf0:	d004      	beq.n	10009cfc <tu_edpt_validate+0x30>
10009cf2:	4a13      	ldr	r2, [pc, #76]	; (10009d40 <tu_edpt_validate+0x74>)
10009cf4:	429a      	cmp	r2, r3
10009cf6:	d31a      	bcc.n	10009d2e <tu_edpt_validate+0x62>
10009cf8:	2001      	movs	r0, #1
10009cfa:	e7f7      	b.n	10009cec <tu_edpt_validate+0x20>
10009cfc:	2280      	movs	r2, #128	; 0x80
10009cfe:	00d2      	lsls	r2, r2, #3
10009d00:	e7f8      	b.n	10009cf4 <tu_edpt_validate+0x28>
10009d02:	2902      	cmp	r1, #2
10009d04:	d003      	beq.n	10009d0e <tu_edpt_validate+0x42>
10009d06:	2b40      	cmp	r3, #64	; 0x40
10009d08:	d815      	bhi.n	10009d36 <tu_edpt_validate+0x6a>
10009d0a:	2001      	movs	r0, #1
10009d0c:	e7ee      	b.n	10009cec <tu_edpt_validate+0x20>
10009d0e:	2280      	movs	r2, #128	; 0x80
10009d10:	0092      	lsls	r2, r2, #2
10009d12:	4293      	cmp	r3, r2
10009d14:	d10d      	bne.n	10009d32 <tu_edpt_validate+0x66>
10009d16:	2001      	movs	r0, #1
10009d18:	e7e8      	b.n	10009cec <tu_edpt_validate+0x20>
10009d1a:	2902      	cmp	r1, #2
10009d1c:	d004      	beq.n	10009d28 <tu_edpt_validate+0x5c>
10009d1e:	2240      	movs	r2, #64	; 0x40
10009d20:	429a      	cmp	r2, r3
10009d22:	d30a      	bcc.n	10009d3a <tu_edpt_validate+0x6e>
10009d24:	2001      	movs	r0, #1
10009d26:	e7e1      	b.n	10009cec <tu_edpt_validate+0x20>
10009d28:	2280      	movs	r2, #128	; 0x80
10009d2a:	00d2      	lsls	r2, r2, #3
10009d2c:	e7f8      	b.n	10009d20 <tu_edpt_validate+0x54>
10009d2e:	2000      	movs	r0, #0
10009d30:	e7dc      	b.n	10009cec <tu_edpt_validate+0x20>
10009d32:	2000      	movs	r0, #0
10009d34:	e7da      	b.n	10009cec <tu_edpt_validate+0x20>
10009d36:	2000      	movs	r0, #0
10009d38:	e7d8      	b.n	10009cec <tu_edpt_validate+0x20>
10009d3a:	2000      	movs	r0, #0
10009d3c:	e7d6      	b.n	10009cec <tu_edpt_validate+0x20>
10009d3e:	46c0      	nop			; (mov r8, r8)
10009d40:	000003ff 	.word	0x000003ff

10009d44 <tu_edpt_bind_driver>:
10009d44:	b530      	push	{r4, r5, lr}
10009d46:	188a      	adds	r2, r1, r2
10009d48:	e001      	b.n	10009d4e <tu_edpt_bind_driver+0xa>
10009d4a:	780c      	ldrb	r4, [r1, #0]
10009d4c:	1909      	adds	r1, r1, r4
10009d4e:	4291      	cmp	r1, r2
10009d50:	d20a      	bcs.n	10009d68 <tu_edpt_bind_driver+0x24>
10009d52:	784c      	ldrb	r4, [r1, #1]
10009d54:	2c05      	cmp	r4, #5
10009d56:	d1f8      	bne.n	10009d4a <tu_edpt_bind_driver+0x6>
10009d58:	788d      	ldrb	r5, [r1, #2]
10009d5a:	347a      	adds	r4, #122	; 0x7a
10009d5c:	402c      	ands	r4, r5
10009d5e:	0064      	lsls	r4, r4, #1
10009d60:	1904      	adds	r4, r0, r4
10009d62:	09ed      	lsrs	r5, r5, #7
10009d64:	5563      	strb	r3, [r4, r5]
10009d66:	e7f0      	b.n	10009d4a <tu_edpt_bind_driver+0x6>
10009d68:	bd30      	pop	{r4, r5, pc}

10009d6a <advance_index>:
10009d6a:	0003      	movs	r3, r0
10009d6c:	188a      	adds	r2, r1, r2
10009d6e:	b290      	uxth	r0, r2
10009d70:	4281      	cmp	r1, r0
10009d72:	d802      	bhi.n	10009d7a <advance_index+0x10>
10009d74:	005a      	lsls	r2, r3, #1
10009d76:	4290      	cmp	r0, r2
10009d78:	db03      	blt.n	10009d82 <advance_index+0x18>
10009d7a:	005b      	lsls	r3, r3, #1
10009d7c:	b29b      	uxth	r3, r3
10009d7e:	1ac0      	subs	r0, r0, r3
10009d80:	b280      	uxth	r0, r0
10009d82:	4770      	bx	lr

10009d84 <_tu_fifo_peek>:
10009d84:	b570      	push	{r4, r5, r6, lr}
10009d86:	0005      	movs	r5, r0
10009d88:	0008      	movs	r0, r1
10009d8a:	88ac      	ldrh	r4, [r5, #4]
10009d8c:	429a      	cmp	r2, r3
10009d8e:	d30b      	bcc.n	10009da8 <_tu_fifo_peek+0x24>
10009d90:	1ad1      	subs	r1, r2, r3
10009d92:	b289      	uxth	r1, r1
10009d94:	2900      	cmp	r1, #0
10009d96:	d01e      	beq.n	10009dd6 <_tu_fifo_peek+0x52>
10009d98:	428c      	cmp	r4, r1
10009d9a:	d210      	bcs.n	10009dbe <_tu_fifo_peek+0x3a>
10009d9c:	4294      	cmp	r4, r2
10009d9e:	d809      	bhi.n	10009db4 <_tu_fifo_peek+0x30>
10009da0:	1b12      	subs	r2, r2, r4
10009da2:	b293      	uxth	r3, r2
10009da4:	816b      	strh	r3, [r5, #10]
10009da6:	e00a      	b.n	10009dbe <_tu_fifo_peek+0x3a>
10009da8:	1ad1      	subs	r1, r2, r3
10009daa:	b289      	uxth	r1, r1
10009dac:	0066      	lsls	r6, r4, #1
10009dae:	1989      	adds	r1, r1, r6
10009db0:	b289      	uxth	r1, r1
10009db2:	e7ef      	b.n	10009d94 <_tu_fifo_peek+0x10>
10009db4:	18a2      	adds	r2, r4, r2
10009db6:	b293      	uxth	r3, r2
10009db8:	e7f4      	b.n	10009da4 <_tu_fifo_peek+0x20>
10009dba:	1b1b      	subs	r3, r3, r4
10009dbc:	b29b      	uxth	r3, r3
10009dbe:	429c      	cmp	r4, r3
10009dc0:	d9fb      	bls.n	10009dba <_tu_fifo_peek+0x36>
10009dc2:	6829      	ldr	r1, [r5, #0]
10009dc4:	88ea      	ldrh	r2, [r5, #6]
10009dc6:	0452      	lsls	r2, r2, #17
10009dc8:	0c52      	lsrs	r2, r2, #17
10009dca:	4353      	muls	r3, r2
10009dcc:	18c9      	adds	r1, r1, r3
10009dce:	f7fd fee7 	bl	10007ba0 <__wrap___aeabi_memcpy>
10009dd2:	2001      	movs	r0, #1
10009dd4:	bd70      	pop	{r4, r5, r6, pc}
10009dd6:	2000      	movs	r0, #0
10009dd8:	e7fc      	b.n	10009dd4 <_tu_fifo_peek+0x50>

10009dda <_ff_pull_const_addr>:
10009dda:	b570      	push	{r4, r5, r6, lr}
10009ddc:	b082      	sub	sp, #8
10009dde:	0005      	movs	r5, r0
10009de0:	0016      	movs	r6, r2
10009de2:	0893      	lsrs	r3, r2, #2
10009de4:	e00c      	b.n	10009e00 <_ff_pull_const_addr+0x26>
10009de6:	780a      	ldrb	r2, [r1, #0]
10009de8:	784b      	ldrb	r3, [r1, #1]
10009dea:	021b      	lsls	r3, r3, #8
10009dec:	4313      	orrs	r3, r2
10009dee:	788c      	ldrb	r4, [r1, #2]
10009df0:	0424      	lsls	r4, r4, #16
10009df2:	431c      	orrs	r4, r3
10009df4:	78cb      	ldrb	r3, [r1, #3]
10009df6:	061b      	lsls	r3, r3, #24
10009df8:	4323      	orrs	r3, r4
10009dfa:	602b      	str	r3, [r5, #0]
10009dfc:	3104      	adds	r1, #4
10009dfe:	0003      	movs	r3, r0
10009e00:	1e58      	subs	r0, r3, #1
10009e02:	b280      	uxth	r0, r0
10009e04:	2b00      	cmp	r3, #0
10009e06:	d1ee      	bne.n	10009de6 <_ff_pull_const_addr+0xc>
10009e08:	3303      	adds	r3, #3
10009e0a:	0032      	movs	r2, r6
10009e0c:	401a      	ands	r2, r3
10009e0e:	421e      	tst	r6, r3
10009e10:	d101      	bne.n	10009e16 <_ff_pull_const_addr+0x3c>
10009e12:	b002      	add	sp, #8
10009e14:	bd70      	pop	{r4, r5, r6, pc}
10009e16:	2300      	movs	r3, #0
10009e18:	9301      	str	r3, [sp, #4]
10009e1a:	a801      	add	r0, sp, #4
10009e1c:	f7fd fec0 	bl	10007ba0 <__wrap___aeabi_memcpy>
10009e20:	9b01      	ldr	r3, [sp, #4]
10009e22:	602b      	str	r3, [r5, #0]
10009e24:	e7f5      	b.n	10009e12 <_ff_pull_const_addr+0x38>

10009e26 <_ff_pull_n>:
10009e26:	b5f0      	push	{r4, r5, r6, r7, lr}
10009e28:	46de      	mov	lr, fp
10009e2a:	4657      	mov	r7, sl
10009e2c:	464e      	mov	r6, r9
10009e2e:	4645      	mov	r5, r8
10009e30:	b5e0      	push	{r5, r6, r7, lr}
10009e32:	b083      	sub	sp, #12
10009e34:	0005      	movs	r5, r0
10009e36:	468a      	mov	sl, r1
10009e38:	a90c      	add	r1, sp, #48	; 0x30
10009e3a:	7809      	ldrb	r1, [r1, #0]
10009e3c:	8884      	ldrh	r4, [r0, #4]
10009e3e:	1ae0      	subs	r0, r4, r3
10009e40:	b280      	uxth	r0, r0
10009e42:	1b1c      	subs	r4, r3, r4
10009e44:	1914      	adds	r4, r2, r4
10009e46:	b2a4      	uxth	r4, r4
10009e48:	88ef      	ldrh	r7, [r5, #6]
10009e4a:	047f      	lsls	r7, r7, #17
10009e4c:	0c7e      	lsrs	r6, r7, #17
10009e4e:	0007      	movs	r7, r0
10009e50:	4377      	muls	r7, r6
10009e52:	b2bf      	uxth	r7, r7
10009e54:	4374      	muls	r4, r6
10009e56:	b2a4      	uxth	r4, r4
10009e58:	46a3      	mov	fp, r4
10009e5a:	682c      	ldr	r4, [r5, #0]
10009e5c:	46a0      	mov	r8, r4
10009e5e:	4373      	muls	r3, r6
10009e60:	4498      	add	r8, r3
10009e62:	2900      	cmp	r1, #0
10009e64:	d008      	beq.n	10009e78 <_ff_pull_n+0x52>
10009e66:	2901      	cmp	r1, #1
10009e68:	d01a      	beq.n	10009ea0 <_ff_pull_n+0x7a>
10009e6a:	b003      	add	sp, #12
10009e6c:	bcf0      	pop	{r4, r5, r6, r7}
10009e6e:	46bb      	mov	fp, r7
10009e70:	46b2      	mov	sl, r6
10009e72:	46a9      	mov	r9, r5
10009e74:	46a0      	mov	r8, r4
10009e76:	bdf0      	pop	{r4, r5, r6, r7, pc}
10009e78:	4290      	cmp	r0, r2
10009e7a:	d305      	bcc.n	10009e88 <_ff_pull_n+0x62>
10009e7c:	4372      	muls	r2, r6
10009e7e:	4641      	mov	r1, r8
10009e80:	4650      	mov	r0, sl
10009e82:	f7fd fe8d 	bl	10007ba0 <__wrap___aeabi_memcpy>
10009e86:	e7f0      	b.n	10009e6a <_ff_pull_n+0x44>
10009e88:	003a      	movs	r2, r7
10009e8a:	4641      	mov	r1, r8
10009e8c:	4650      	mov	r0, sl
10009e8e:	f7fd fe87 	bl	10007ba0 <__wrap___aeabi_memcpy>
10009e92:	6829      	ldr	r1, [r5, #0]
10009e94:	0038      	movs	r0, r7
10009e96:	4450      	add	r0, sl
10009e98:	465a      	mov	r2, fp
10009e9a:	f7fd fe81 	bl	10007ba0 <__wrap___aeabi_memcpy>
10009e9e:	e7e4      	b.n	10009e6a <_ff_pull_n+0x44>
10009ea0:	4290      	cmp	r0, r2
10009ea2:	d306      	bcc.n	10009eb2 <_ff_pull_n+0x8c>
10009ea4:	4372      	muls	r2, r6
10009ea6:	b292      	uxth	r2, r2
10009ea8:	4641      	mov	r1, r8
10009eaa:	4650      	mov	r0, sl
10009eac:	f7ff ff95 	bl	10009dda <_ff_pull_const_addr>
10009eb0:	e7db      	b.n	10009e6a <_ff_pull_n+0x44>
10009eb2:	2303      	movs	r3, #3
10009eb4:	003a      	movs	r2, r7
10009eb6:	439a      	bics	r2, r3
10009eb8:	4691      	mov	r9, r2
10009eba:	4641      	mov	r1, r8
10009ebc:	4650      	mov	r0, sl
10009ebe:	f7ff ff8c 	bl	10009dda <_ff_pull_const_addr>
10009ec2:	4642      	mov	r2, r8
10009ec4:	444a      	add	r2, r9
10009ec6:	2303      	movs	r3, #3
10009ec8:	0038      	movs	r0, r7
10009eca:	4018      	ands	r0, r3
10009ecc:	421f      	tst	r7, r3
10009ece:	d030      	beq.n	10009f32 <_ff_pull_n+0x10c>
10009ed0:	2304      	movs	r3, #4
10009ed2:	1a1b      	subs	r3, r3, r0
10009ed4:	b29b      	uxth	r3, r3
10009ed6:	1c19      	adds	r1, r3, #0
10009ed8:	455b      	cmp	r3, fp
10009eda:	d900      	bls.n	10009ede <_ff_pull_n+0xb8>
10009edc:	4659      	mov	r1, fp
10009ede:	b2cf      	uxtb	r7, r1
10009ee0:	23ff      	movs	r3, #255	; 0xff
10009ee2:	400b      	ands	r3, r1
10009ee4:	4659      	mov	r1, fp
10009ee6:	1acc      	subs	r4, r1, r3
10009ee8:	b2a3      	uxth	r3, r4
10009eea:	469b      	mov	fp, r3
10009eec:	2300      	movs	r3, #0
10009eee:	9301      	str	r3, [sp, #4]
10009ef0:	ab01      	add	r3, sp, #4
10009ef2:	e004      	b.n	10009efe <_ff_pull_n+0xd8>
10009ef4:	7810      	ldrb	r0, [r2, #0]
10009ef6:	7018      	strb	r0, [r3, #0]
10009ef8:	3301      	adds	r3, #1
10009efa:	0008      	movs	r0, r1
10009efc:	3201      	adds	r2, #1
10009efe:	1e41      	subs	r1, r0, #1
10009f00:	b2c9      	uxtb	r1, r1
10009f02:	2800      	cmp	r0, #0
10009f04:	d1f6      	bne.n	10009ef4 <_ff_pull_n+0xce>
10009f06:	6829      	ldr	r1, [r5, #0]
10009f08:	e004      	b.n	10009f14 <_ff_pull_n+0xee>
10009f0a:	7808      	ldrb	r0, [r1, #0]
10009f0c:	7018      	strb	r0, [r3, #0]
10009f0e:	3301      	adds	r3, #1
10009f10:	0017      	movs	r7, r2
10009f12:	3101      	adds	r1, #1
10009f14:	1e7a      	subs	r2, r7, #1
10009f16:	b2d2      	uxtb	r2, r2
10009f18:	2f00      	cmp	r7, #0
10009f1a:	d1f6      	bne.n	10009f0a <_ff_pull_n+0xe4>
10009f1c:	9b01      	ldr	r3, [sp, #4]
10009f1e:	4652      	mov	r2, sl
10009f20:	6013      	str	r3, [r2, #0]
10009f22:	465b      	mov	r3, fp
10009f24:	2b00      	cmp	r3, #0
10009f26:	d0a0      	beq.n	10009e6a <_ff_pull_n+0x44>
10009f28:	465a      	mov	r2, fp
10009f2a:	4650      	mov	r0, sl
10009f2c:	f7ff ff55 	bl	10009dda <_ff_pull_const_addr>
10009f30:	e79b      	b.n	10009e6a <_ff_pull_n+0x44>
10009f32:	6829      	ldr	r1, [r5, #0]
10009f34:	e7f5      	b.n	10009f22 <_ff_pull_n+0xfc>

10009f36 <_tu_fifo_peek_n>:
10009f36:	b5f0      	push	{r4, r5, r6, r7, lr}
10009f38:	46c6      	mov	lr, r8
10009f3a:	b500      	push	{lr}
10009f3c:	b082      	sub	sp, #8
10009f3e:	001e      	movs	r6, r3
10009f40:	ab08      	add	r3, sp, #32
10009f42:	881b      	ldrh	r3, [r3, #0]
10009f44:	ac09      	add	r4, sp, #36	; 0x24
10009f46:	7827      	ldrb	r7, [r4, #0]
10009f48:	8884      	ldrh	r4, [r0, #4]
10009f4a:	429e      	cmp	r6, r3
10009f4c:	d30f      	bcc.n	10009f6e <_tu_fifo_peek_n+0x38>
10009f4e:	1af5      	subs	r5, r6, r3
10009f50:	b2ad      	uxth	r5, r5
10009f52:	2d00      	cmp	r5, #0
10009f54:	d01f      	beq.n	10009f96 <_tu_fifo_peek_n+0x60>
10009f56:	42ac      	cmp	r4, r5
10009f58:	d205      	bcs.n	10009f66 <_tu_fifo_peek_n+0x30>
10009f5a:	42b4      	cmp	r4, r6
10009f5c:	d810      	bhi.n	10009f80 <_tu_fifo_peek_n+0x4a>
10009f5e:	1b33      	subs	r3, r6, r4
10009f60:	b29b      	uxth	r3, r3
10009f62:	8143      	strh	r3, [r0, #10]
10009f64:	0025      	movs	r5, r4
10009f66:	4295      	cmp	r5, r2
10009f68:	d30f      	bcc.n	10009f8a <_tu_fifo_peek_n+0x54>
10009f6a:	0015      	movs	r5, r2
10009f6c:	e00d      	b.n	10009f8a <_tu_fifo_peek_n+0x54>
10009f6e:	1af5      	subs	r5, r6, r3
10009f70:	b2ad      	uxth	r5, r5
10009f72:	46a8      	mov	r8, r5
10009f74:	0065      	lsls	r5, r4, #1
10009f76:	46ac      	mov	ip, r5
10009f78:	4645      	mov	r5, r8
10009f7a:	4465      	add	r5, ip
10009f7c:	b2ad      	uxth	r5, r5
10009f7e:	e7e8      	b.n	10009f52 <_tu_fifo_peek_n+0x1c>
10009f80:	19a6      	adds	r6, r4, r6
10009f82:	b2b3      	uxth	r3, r6
10009f84:	e7ed      	b.n	10009f62 <_tu_fifo_peek_n+0x2c>
10009f86:	1b1b      	subs	r3, r3, r4
10009f88:	b29b      	uxth	r3, r3
10009f8a:	429c      	cmp	r4, r3
10009f8c:	d9fb      	bls.n	10009f86 <_tu_fifo_peek_n+0x50>
10009f8e:	9700      	str	r7, [sp, #0]
10009f90:	002a      	movs	r2, r5
10009f92:	f7ff ff48 	bl	10009e26 <_ff_pull_n>
10009f96:	0028      	movs	r0, r5
10009f98:	b002      	add	sp, #8
10009f9a:	bc80      	pop	{r7}
10009f9c:	46b8      	mov	r8, r7
10009f9e:	bdf0      	pop	{r4, r5, r6, r7, pc}

10009fa0 <_tu_fifo_read_n>:
10009fa0:	b5f0      	push	{r4, r5, r6, r7, lr}
10009fa2:	b083      	sub	sp, #12
10009fa4:	0004      	movs	r4, r0
10009fa6:	000d      	movs	r5, r1
10009fa8:	0016      	movs	r6, r2
10009faa:	001f      	movs	r7, r3
10009fac:	6900      	ldr	r0, [r0, #16]
10009fae:	2800      	cmp	r0, #0
10009fb0:	d003      	beq.n	10009fba <_tu_fifo_read_n+0x1a>
10009fb2:	2101      	movs	r1, #1
10009fb4:	4249      	negs	r1, r1
10009fb6:	f000 fda3 	bl	1000ab00 <__mutex_enter_timeout_ms_veneer>
10009fba:	8923      	ldrh	r3, [r4, #8]
10009fbc:	b29b      	uxth	r3, r3
10009fbe:	8962      	ldrh	r2, [r4, #10]
10009fc0:	9701      	str	r7, [sp, #4]
10009fc2:	9200      	str	r2, [sp, #0]
10009fc4:	0032      	movs	r2, r6
10009fc6:	0029      	movs	r1, r5
10009fc8:	0020      	movs	r0, r4
10009fca:	f7ff ffb4 	bl	10009f36 <_tu_fifo_peek_n>
10009fce:	0005      	movs	r5, r0
10009fd0:	8961      	ldrh	r1, [r4, #10]
10009fd2:	b289      	uxth	r1, r1
10009fd4:	88a0      	ldrh	r0, [r4, #4]
10009fd6:	002a      	movs	r2, r5
10009fd8:	f7ff fec7 	bl	10009d6a <advance_index>
10009fdc:	8160      	strh	r0, [r4, #10]
10009fde:	6920      	ldr	r0, [r4, #16]
10009fe0:	2800      	cmp	r0, #0
10009fe2:	d001      	beq.n	10009fe8 <_tu_fifo_read_n+0x48>
10009fe4:	f000 fd6c 	bl	1000aac0 <__mutex_exit_veneer>
10009fe8:	0028      	movs	r0, r5
10009fea:	b003      	add	sp, #12
10009fec:	bdf0      	pop	{r4, r5, r6, r7, pc}

10009fee <_ff_push_const_addr>:
10009fee:	b570      	push	{r4, r5, r6, lr}
10009ff0:	b082      	sub	sp, #8
10009ff2:	0016      	movs	r6, r2
10009ff4:	0895      	lsrs	r5, r2, #2
10009ff6:	e009      	b.n	1000a00c <_ff_push_const_addr+0x1e>
10009ff8:	680b      	ldr	r3, [r1, #0]
10009ffa:	7003      	strb	r3, [r0, #0]
10009ffc:	0a1d      	lsrs	r5, r3, #8
10009ffe:	7045      	strb	r5, [r0, #1]
1000a000:	0c1d      	lsrs	r5, r3, #16
1000a002:	7085      	strb	r5, [r0, #2]
1000a004:	0e1b      	lsrs	r3, r3, #24
1000a006:	70c3      	strb	r3, [r0, #3]
1000a008:	3004      	adds	r0, #4
1000a00a:	0025      	movs	r5, r4
1000a00c:	1e6c      	subs	r4, r5, #1
1000a00e:	b2a4      	uxth	r4, r4
1000a010:	2d00      	cmp	r5, #0
1000a012:	d1f1      	bne.n	10009ff8 <_ff_push_const_addr+0xa>
1000a014:	2303      	movs	r3, #3
1000a016:	0032      	movs	r2, r6
1000a018:	401a      	ands	r2, r3
1000a01a:	421e      	tst	r6, r3
1000a01c:	d101      	bne.n	1000a022 <_ff_push_const_addr+0x34>
1000a01e:	b002      	add	sp, #8
1000a020:	bd70      	pop	{r4, r5, r6, pc}
1000a022:	680b      	ldr	r3, [r1, #0]
1000a024:	9301      	str	r3, [sp, #4]
1000a026:	a901      	add	r1, sp, #4
1000a028:	f7fd fdba 	bl	10007ba0 <__wrap___aeabi_memcpy>
1000a02c:	e7f7      	b.n	1000a01e <_ff_push_const_addr+0x30>

1000a02e <_ff_push_n>:
1000a02e:	b5f0      	push	{r4, r5, r6, r7, lr}
1000a030:	46de      	mov	lr, fp
1000a032:	4657      	mov	r7, sl
1000a034:	464e      	mov	r6, r9
1000a036:	4645      	mov	r5, r8
1000a038:	b5e0      	push	{r5, r6, r7, lr}
1000a03a:	b083      	sub	sp, #12
1000a03c:	0005      	movs	r5, r0
1000a03e:	468a      	mov	sl, r1
1000a040:	a90c      	add	r1, sp, #48	; 0x30
1000a042:	7808      	ldrb	r0, [r1, #0]
1000a044:	88ac      	ldrh	r4, [r5, #4]
1000a046:	1ae1      	subs	r1, r4, r3
1000a048:	b289      	uxth	r1, r1
1000a04a:	1b1c      	subs	r4, r3, r4
1000a04c:	1914      	adds	r4, r2, r4
1000a04e:	b2a4      	uxth	r4, r4
1000a050:	88ef      	ldrh	r7, [r5, #6]
1000a052:	047f      	lsls	r7, r7, #17
1000a054:	0c7e      	lsrs	r6, r7, #17
1000a056:	000f      	movs	r7, r1
1000a058:	4377      	muls	r7, r6
1000a05a:	b2bf      	uxth	r7, r7
1000a05c:	4374      	muls	r4, r6
1000a05e:	b2a4      	uxth	r4, r4
1000a060:	46a3      	mov	fp, r4
1000a062:	682c      	ldr	r4, [r5, #0]
1000a064:	46a0      	mov	r8, r4
1000a066:	4373      	muls	r3, r6
1000a068:	4498      	add	r8, r3
1000a06a:	2800      	cmp	r0, #0
1000a06c:	d008      	beq.n	1000a080 <_ff_push_n+0x52>
1000a06e:	2801      	cmp	r0, #1
1000a070:	d01a      	beq.n	1000a0a8 <_ff_push_n+0x7a>
1000a072:	b003      	add	sp, #12
1000a074:	bcf0      	pop	{r4, r5, r6, r7}
1000a076:	46bb      	mov	fp, r7
1000a078:	46b2      	mov	sl, r6
1000a07a:	46a9      	mov	r9, r5
1000a07c:	46a0      	mov	r8, r4
1000a07e:	bdf0      	pop	{r4, r5, r6, r7, pc}
1000a080:	4291      	cmp	r1, r2
1000a082:	d305      	bcc.n	1000a090 <_ff_push_n+0x62>
1000a084:	4372      	muls	r2, r6
1000a086:	4651      	mov	r1, sl
1000a088:	4640      	mov	r0, r8
1000a08a:	f7fd fd89 	bl	10007ba0 <__wrap___aeabi_memcpy>
1000a08e:	e7f0      	b.n	1000a072 <_ff_push_n+0x44>
1000a090:	003a      	movs	r2, r7
1000a092:	4651      	mov	r1, sl
1000a094:	4640      	mov	r0, r8
1000a096:	f7fd fd83 	bl	10007ba0 <__wrap___aeabi_memcpy>
1000a09a:	6828      	ldr	r0, [r5, #0]
1000a09c:	0039      	movs	r1, r7
1000a09e:	4451      	add	r1, sl
1000a0a0:	465a      	mov	r2, fp
1000a0a2:	f7fd fd7d 	bl	10007ba0 <__wrap___aeabi_memcpy>
1000a0a6:	e7e4      	b.n	1000a072 <_ff_push_n+0x44>
1000a0a8:	4291      	cmp	r1, r2
1000a0aa:	d306      	bcc.n	1000a0ba <_ff_push_n+0x8c>
1000a0ac:	4372      	muls	r2, r6
1000a0ae:	b292      	uxth	r2, r2
1000a0b0:	4651      	mov	r1, sl
1000a0b2:	4640      	mov	r0, r8
1000a0b4:	f7ff ff9b 	bl	10009fee <_ff_push_const_addr>
1000a0b8:	e7db      	b.n	1000a072 <_ff_push_n+0x44>
1000a0ba:	2303      	movs	r3, #3
1000a0bc:	003a      	movs	r2, r7
1000a0be:	439a      	bics	r2, r3
1000a0c0:	4691      	mov	r9, r2
1000a0c2:	4651      	mov	r1, sl
1000a0c4:	4640      	mov	r0, r8
1000a0c6:	f7ff ff92 	bl	10009fee <_ff_push_const_addr>
1000a0ca:	4642      	mov	r2, r8
1000a0cc:	444a      	add	r2, r9
1000a0ce:	2303      	movs	r3, #3
1000a0d0:	0038      	movs	r0, r7
1000a0d2:	4018      	ands	r0, r3
1000a0d4:	421f      	tst	r7, r3
1000a0d6:	d02e      	beq.n	1000a136 <_ff_push_n+0x108>
1000a0d8:	2304      	movs	r3, #4
1000a0da:	1a1b      	subs	r3, r3, r0
1000a0dc:	b29b      	uxth	r3, r3
1000a0de:	1c19      	adds	r1, r3, #0
1000a0e0:	455b      	cmp	r3, fp
1000a0e2:	d900      	bls.n	1000a0e6 <_ff_push_n+0xb8>
1000a0e4:	4659      	mov	r1, fp
1000a0e6:	b2cf      	uxtb	r7, r1
1000a0e8:	23ff      	movs	r3, #255	; 0xff
1000a0ea:	400b      	ands	r3, r1
1000a0ec:	4659      	mov	r1, fp
1000a0ee:	1acc      	subs	r4, r1, r3
1000a0f0:	b2a3      	uxth	r3, r4
1000a0f2:	469b      	mov	fp, r3
1000a0f4:	4653      	mov	r3, sl
1000a0f6:	681b      	ldr	r3, [r3, #0]
1000a0f8:	9301      	str	r3, [sp, #4]
1000a0fa:	ab01      	add	r3, sp, #4
1000a0fc:	e004      	b.n	1000a108 <_ff_push_n+0xda>
1000a0fe:	7818      	ldrb	r0, [r3, #0]
1000a100:	7010      	strb	r0, [r2, #0]
1000a102:	3301      	adds	r3, #1
1000a104:	0008      	movs	r0, r1
1000a106:	3201      	adds	r2, #1
1000a108:	1e41      	subs	r1, r0, #1
1000a10a:	b2c9      	uxtb	r1, r1
1000a10c:	2800      	cmp	r0, #0
1000a10e:	d1f6      	bne.n	1000a0fe <_ff_push_n+0xd0>
1000a110:	6828      	ldr	r0, [r5, #0]
1000a112:	e004      	b.n	1000a11e <_ff_push_n+0xf0>
1000a114:	7819      	ldrb	r1, [r3, #0]
1000a116:	7001      	strb	r1, [r0, #0]
1000a118:	3301      	adds	r3, #1
1000a11a:	0017      	movs	r7, r2
1000a11c:	3001      	adds	r0, #1
1000a11e:	1e7a      	subs	r2, r7, #1
1000a120:	b2d2      	uxtb	r2, r2
1000a122:	2f00      	cmp	r7, #0
1000a124:	d1f6      	bne.n	1000a114 <_ff_push_n+0xe6>
1000a126:	465b      	mov	r3, fp
1000a128:	2b00      	cmp	r3, #0
1000a12a:	d0a2      	beq.n	1000a072 <_ff_push_n+0x44>
1000a12c:	465a      	mov	r2, fp
1000a12e:	4651      	mov	r1, sl
1000a130:	f7ff ff5d 	bl	10009fee <_ff_push_const_addr>
1000a134:	e79d      	b.n	1000a072 <_ff_push_n+0x44>
1000a136:	6828      	ldr	r0, [r5, #0]
1000a138:	e7f5      	b.n	1000a126 <_ff_push_n+0xf8>

1000a13a <_tu_fifo_write_n>:
1000a13a:	b5f0      	push	{r4, r5, r6, r7, lr}
1000a13c:	b085      	sub	sp, #20
1000a13e:	0006      	movs	r6, r0
1000a140:	9103      	str	r1, [sp, #12]
1000a142:	1e15      	subs	r5, r2, #0
1000a144:	9302      	str	r3, [sp, #8]
1000a146:	d100      	bne.n	1000a14a <_tu_fifo_write_n+0x10>
1000a148:	e06d      	b.n	1000a226 <_tu_fifo_write_n+0xec>
1000a14a:	68c0      	ldr	r0, [r0, #12]
1000a14c:	2800      	cmp	r0, #0
1000a14e:	d003      	beq.n	1000a158 <_tu_fifo_write_n+0x1e>
1000a150:	2101      	movs	r1, #1
1000a152:	4249      	negs	r1, r1
1000a154:	f000 fcd4 	bl	1000ab00 <__mutex_enter_timeout_ms_veneer>
1000a158:	8934      	ldrh	r4, [r6, #8]
1000a15a:	b2a4      	uxth	r4, r4
1000a15c:	8971      	ldrh	r1, [r6, #10]
1000a15e:	b289      	uxth	r1, r1
1000a160:	79f3      	ldrb	r3, [r6, #7]
1000a162:	09db      	lsrs	r3, r3, #7
1000a164:	d11a      	bne.n	1000a19c <_tu_fifo_write_n+0x62>
1000a166:	88b3      	ldrh	r3, [r6, #4]
1000a168:	428c      	cmp	r4, r1
1000a16a:	d30f      	bcc.n	1000a18c <_tu_fifo_write_n+0x52>
1000a16c:	1a61      	subs	r1, r4, r1
1000a16e:	b289      	uxth	r1, r1
1000a170:	428b      	cmp	r3, r1
1000a172:	d911      	bls.n	1000a198 <_tu_fifo_write_n+0x5e>
1000a174:	1a5b      	subs	r3, r3, r1
1000a176:	b29b      	uxth	r3, r3
1000a178:	1c2f      	adds	r7, r5, #0
1000a17a:	429d      	cmp	r5, r3
1000a17c:	d900      	bls.n	1000a180 <_tu_fifo_write_n+0x46>
1000a17e:	1c1f      	adds	r7, r3, #0
1000a180:	b2bf      	uxth	r7, r7
1000a182:	2f00      	cmp	r7, #0
1000a184:	d047      	beq.n	1000a216 <_tu_fifo_write_n+0xdc>
1000a186:	88b2      	ldrh	r2, [r6, #4]
1000a188:	0023      	movs	r3, r4
1000a18a:	e035      	b.n	1000a1f8 <_tu_fifo_write_n+0xbe>
1000a18c:	1a61      	subs	r1, r4, r1
1000a18e:	b289      	uxth	r1, r1
1000a190:	005a      	lsls	r2, r3, #1
1000a192:	1889      	adds	r1, r1, r2
1000a194:	b289      	uxth	r1, r1
1000a196:	e7eb      	b.n	1000a170 <_tu_fifo_write_n+0x36>
1000a198:	2300      	movs	r3, #0
1000a19a:	e7ed      	b.n	1000a178 <_tu_fifo_write_n+0x3e>
1000a19c:	88b7      	ldrh	r7, [r6, #4]
1000a19e:	42af      	cmp	r7, r5
1000a1a0:	d80e      	bhi.n	1000a1c0 <_tu_fifo_write_n+0x86>
1000a1a2:	9b02      	ldr	r3, [sp, #8]
1000a1a4:	2b00      	cmp	r3, #0
1000a1a6:	d121      	bne.n	1000a1ec <_tu_fifo_write_n+0xb2>
1000a1a8:	1bed      	subs	r5, r5, r7
1000a1aa:	88f3      	ldrh	r3, [r6, #6]
1000a1ac:	045b      	lsls	r3, r3, #17
1000a1ae:	0c5b      	lsrs	r3, r3, #17
1000a1b0:	436b      	muls	r3, r5
1000a1b2:	9a03      	ldr	r2, [sp, #12]
1000a1b4:	4694      	mov	ip, r2
1000a1b6:	449c      	add	ip, r3
1000a1b8:	4663      	mov	r3, ip
1000a1ba:	9303      	str	r3, [sp, #12]
1000a1bc:	000c      	movs	r4, r1
1000a1be:	e7e0      	b.n	1000a182 <_tu_fifo_write_n+0x48>
1000a1c0:	428c      	cmp	r4, r1
1000a1c2:	d30d      	bcc.n	1000a1e0 <_tu_fifo_write_n+0xa6>
1000a1c4:	1a63      	subs	r3, r4, r1
1000a1c6:	b29b      	uxth	r3, r3
1000a1c8:	195b      	adds	r3, r3, r5
1000a1ca:	007a      	lsls	r2, r7, #1
1000a1cc:	4293      	cmp	r3, r2
1000a1ce:	db0f      	blt.n	1000a1f0 <_tu_fifo_write_n+0xb6>
1000a1d0:	1b7a      	subs	r2, r7, r5
1000a1d2:	b292      	uxth	r2, r2
1000a1d4:	0038      	movs	r0, r7
1000a1d6:	f7ff fdc8 	bl	10009d6a <advance_index>
1000a1da:	0004      	movs	r4, r0
1000a1dc:	002f      	movs	r7, r5
1000a1de:	e7d0      	b.n	1000a182 <_tu_fifo_write_n+0x48>
1000a1e0:	1a63      	subs	r3, r4, r1
1000a1e2:	b29b      	uxth	r3, r3
1000a1e4:	007a      	lsls	r2, r7, #1
1000a1e6:	189b      	adds	r3, r3, r2
1000a1e8:	b29b      	uxth	r3, r3
1000a1ea:	e7ed      	b.n	1000a1c8 <_tu_fifo_write_n+0x8e>
1000a1ec:	000c      	movs	r4, r1
1000a1ee:	e7c8      	b.n	1000a182 <_tu_fifo_write_n+0x48>
1000a1f0:	002f      	movs	r7, r5
1000a1f2:	e7c6      	b.n	1000a182 <_tu_fifo_write_n+0x48>
1000a1f4:	1a9b      	subs	r3, r3, r2
1000a1f6:	b29b      	uxth	r3, r3
1000a1f8:	429a      	cmp	r2, r3
1000a1fa:	d9fb      	bls.n	1000a1f4 <_tu_fifo_write_n+0xba>
1000a1fc:	9a02      	ldr	r2, [sp, #8]
1000a1fe:	9200      	str	r2, [sp, #0]
1000a200:	003a      	movs	r2, r7
1000a202:	9903      	ldr	r1, [sp, #12]
1000a204:	0030      	movs	r0, r6
1000a206:	f7ff ff12 	bl	1000a02e <_ff_push_n>
1000a20a:	88b0      	ldrh	r0, [r6, #4]
1000a20c:	003a      	movs	r2, r7
1000a20e:	0021      	movs	r1, r4
1000a210:	f7ff fdab 	bl	10009d6a <advance_index>
1000a214:	8130      	strh	r0, [r6, #8]
1000a216:	68f0      	ldr	r0, [r6, #12]
1000a218:	2800      	cmp	r0, #0
1000a21a:	d001      	beq.n	1000a220 <_tu_fifo_write_n+0xe6>
1000a21c:	f000 fc50 	bl	1000aac0 <__mutex_exit_veneer>
1000a220:	0038      	movs	r0, r7
1000a222:	b005      	add	sp, #20
1000a224:	bdf0      	pop	{r4, r5, r6, r7, pc}
1000a226:	0017      	movs	r7, r2
1000a228:	e7fa      	b.n	1000a220 <_tu_fifo_write_n+0xe6>

1000a22a <tu_fifo_config>:
1000a22a:	b5f0      	push	{r4, r5, r6, r7, lr}
1000a22c:	b083      	sub	sp, #12
1000a22e:	0004      	movs	r4, r0
1000a230:	9101      	str	r1, [sp, #4]
1000a232:	0016      	movs	r6, r2
1000a234:	001d      	movs	r5, r3
1000a236:	ab08      	add	r3, sp, #32
1000a238:	781f      	ldrb	r7, [r3, #0]
1000a23a:	2380      	movs	r3, #128	; 0x80
1000a23c:	021b      	lsls	r3, r3, #8
1000a23e:	429a      	cmp	r2, r3
1000a240:	d82d      	bhi.n	1000a29e <tu_fifo_config+0x74>
1000a242:	68c0      	ldr	r0, [r0, #12]
1000a244:	2800      	cmp	r0, #0
1000a246:	d003      	beq.n	1000a250 <tu_fifo_config+0x26>
1000a248:	2101      	movs	r1, #1
1000a24a:	4249      	negs	r1, r1
1000a24c:	f000 fc58 	bl	1000ab00 <__mutex_enter_timeout_ms_veneer>
1000a250:	6920      	ldr	r0, [r4, #16]
1000a252:	2800      	cmp	r0, #0
1000a254:	d003      	beq.n	1000a25e <tu_fifo_config+0x34>
1000a256:	2101      	movs	r1, #1
1000a258:	4249      	negs	r1, r1
1000a25a:	f000 fc51 	bl	1000ab00 <__mutex_enter_timeout_ms_veneer>
1000a25e:	9b01      	ldr	r3, [sp, #4]
1000a260:	6023      	str	r3, [r4, #0]
1000a262:	80a6      	strh	r6, [r4, #4]
1000a264:	046d      	lsls	r5, r5, #17
1000a266:	0c6b      	lsrs	r3, r5, #17
1000a268:	88e5      	ldrh	r5, [r4, #6]
1000a26a:	0bed      	lsrs	r5, r5, #15
1000a26c:	03ed      	lsls	r5, r5, #15
1000a26e:	431d      	orrs	r5, r3
1000a270:	80e5      	strh	r5, [r4, #6]
1000a272:	01fb      	lsls	r3, r7, #7
1000a274:	79e2      	ldrb	r2, [r4, #7]
1000a276:	277f      	movs	r7, #127	; 0x7f
1000a278:	4017      	ands	r7, r2
1000a27a:	431f      	orrs	r7, r3
1000a27c:	71e7      	strb	r7, [r4, #7]
1000a27e:	2300      	movs	r3, #0
1000a280:	8163      	strh	r3, [r4, #10]
1000a282:	8123      	strh	r3, [r4, #8]
1000a284:	68e0      	ldr	r0, [r4, #12]
1000a286:	2800      	cmp	r0, #0
1000a288:	d001      	beq.n	1000a28e <tu_fifo_config+0x64>
1000a28a:	f000 fc19 	bl	1000aac0 <__mutex_exit_veneer>
1000a28e:	6920      	ldr	r0, [r4, #16]
1000a290:	2800      	cmp	r0, #0
1000a292:	d006      	beq.n	1000a2a2 <tu_fifo_config+0x78>
1000a294:	f000 fc14 	bl	1000aac0 <__mutex_exit_veneer>
1000a298:	2001      	movs	r0, #1
1000a29a:	b003      	add	sp, #12
1000a29c:	bdf0      	pop	{r4, r5, r6, r7, pc}
1000a29e:	2000      	movs	r0, #0
1000a2a0:	e7fb      	b.n	1000a29a <tu_fifo_config+0x70>
1000a2a2:	2001      	movs	r0, #1
1000a2a4:	e7f9      	b.n	1000a29a <tu_fifo_config+0x70>

1000a2a6 <tu_fifo_count>:
1000a2a6:	8881      	ldrh	r1, [r0, #4]
1000a2a8:	8903      	ldrh	r3, [r0, #8]
1000a2aa:	b29b      	uxth	r3, r3
1000a2ac:	8942      	ldrh	r2, [r0, #10]
1000a2ae:	b292      	uxth	r2, r2
1000a2b0:	4293      	cmp	r3, r2
1000a2b2:	d307      	bcc.n	1000a2c4 <tu_fifo_count+0x1e>
1000a2b4:	1a9b      	subs	r3, r3, r2
1000a2b6:	b29b      	uxth	r3, r3
1000a2b8:	1c08      	adds	r0, r1, #0
1000a2ba:	4299      	cmp	r1, r3
1000a2bc:	d900      	bls.n	1000a2c0 <tu_fifo_count+0x1a>
1000a2be:	1c18      	adds	r0, r3, #0
1000a2c0:	b280      	uxth	r0, r0
1000a2c2:	4770      	bx	lr
1000a2c4:	1a9b      	subs	r3, r3, r2
1000a2c6:	b29b      	uxth	r3, r3
1000a2c8:	004a      	lsls	r2, r1, #1
1000a2ca:	189b      	adds	r3, r3, r2
1000a2cc:	b29b      	uxth	r3, r3
1000a2ce:	e7f3      	b.n	1000a2b8 <tu_fifo_count+0x12>

1000a2d0 <tu_fifo_empty>:
1000a2d0:	8903      	ldrh	r3, [r0, #8]
1000a2d2:	8940      	ldrh	r0, [r0, #10]
1000a2d4:	1a18      	subs	r0, r3, r0
1000a2d6:	4243      	negs	r3, r0
1000a2d8:	4158      	adcs	r0, r3
1000a2da:	b2c0      	uxtb	r0, r0
1000a2dc:	4770      	bx	lr

1000a2de <tu_fifo_full>:
1000a2de:	8881      	ldrh	r1, [r0, #4]
1000a2e0:	8903      	ldrh	r3, [r0, #8]
1000a2e2:	b29b      	uxth	r3, r3
1000a2e4:	8942      	ldrh	r2, [r0, #10]
1000a2e6:	b292      	uxth	r2, r2
1000a2e8:	4293      	cmp	r3, r2
1000a2ea:	d306      	bcc.n	1000a2fa <tu_fifo_full+0x1c>
1000a2ec:	1a9b      	subs	r3, r3, r2
1000a2ee:	b29b      	uxth	r3, r3
1000a2f0:	2000      	movs	r0, #0
1000a2f2:	428b      	cmp	r3, r1
1000a2f4:	4140      	adcs	r0, r0
1000a2f6:	b2c0      	uxtb	r0, r0
1000a2f8:	4770      	bx	lr
1000a2fa:	1a9b      	subs	r3, r3, r2
1000a2fc:	b29b      	uxth	r3, r3
1000a2fe:	004a      	lsls	r2, r1, #1
1000a300:	189b      	adds	r3, r3, r2
1000a302:	b29b      	uxth	r3, r3
1000a304:	e7f4      	b.n	1000a2f0 <tu_fifo_full+0x12>

1000a306 <tu_fifo_remaining>:
1000a306:	8882      	ldrh	r2, [r0, #4]
1000a308:	8903      	ldrh	r3, [r0, #8]
1000a30a:	b29b      	uxth	r3, r3
1000a30c:	8941      	ldrh	r1, [r0, #10]
1000a30e:	b289      	uxth	r1, r1
1000a310:	428b      	cmp	r3, r1
1000a312:	d306      	bcc.n	1000a322 <tu_fifo_remaining+0x1c>
1000a314:	1a5b      	subs	r3, r3, r1
1000a316:	b29b      	uxth	r3, r3
1000a318:	429a      	cmp	r2, r3
1000a31a:	d908      	bls.n	1000a32e <tu_fifo_remaining+0x28>
1000a31c:	1ad0      	subs	r0, r2, r3
1000a31e:	b280      	uxth	r0, r0
1000a320:	4770      	bx	lr
1000a322:	1a5b      	subs	r3, r3, r1
1000a324:	b29b      	uxth	r3, r3
1000a326:	0051      	lsls	r1, r2, #1
1000a328:	185b      	adds	r3, r3, r1
1000a32a:	b29b      	uxth	r3, r3
1000a32c:	e7f4      	b.n	1000a318 <tu_fifo_remaining+0x12>
1000a32e:	2000      	movs	r0, #0
1000a330:	e7f6      	b.n	1000a320 <tu_fifo_remaining+0x1a>

1000a332 <tu_fifo_read>:
1000a332:	b570      	push	{r4, r5, r6, lr}
1000a334:	0004      	movs	r4, r0
1000a336:	000d      	movs	r5, r1
1000a338:	6900      	ldr	r0, [r0, #16]
1000a33a:	2800      	cmp	r0, #0
1000a33c:	d003      	beq.n	1000a346 <tu_fifo_read+0x14>
1000a33e:	2101      	movs	r1, #1
1000a340:	4249      	negs	r1, r1
1000a342:	f000 fbdd 	bl	1000ab00 <__mutex_enter_timeout_ms_veneer>
1000a346:	8922      	ldrh	r2, [r4, #8]
1000a348:	b292      	uxth	r2, r2
1000a34a:	8963      	ldrh	r3, [r4, #10]
1000a34c:	b29b      	uxth	r3, r3
1000a34e:	0029      	movs	r1, r5
1000a350:	0020      	movs	r0, r4
1000a352:	f7ff fd17 	bl	10009d84 <_tu_fifo_peek>
1000a356:	0005      	movs	r5, r0
1000a358:	8961      	ldrh	r1, [r4, #10]
1000a35a:	b289      	uxth	r1, r1
1000a35c:	b282      	uxth	r2, r0
1000a35e:	88a0      	ldrh	r0, [r4, #4]
1000a360:	f7ff fd03 	bl	10009d6a <advance_index>
1000a364:	8160      	strh	r0, [r4, #10]
1000a366:	6920      	ldr	r0, [r4, #16]
1000a368:	2800      	cmp	r0, #0
1000a36a:	d001      	beq.n	1000a370 <tu_fifo_read+0x3e>
1000a36c:	f000 fba8 	bl	1000aac0 <__mutex_exit_veneer>
1000a370:	0028      	movs	r0, r5
1000a372:	bd70      	pop	{r4, r5, r6, pc}

1000a374 <tu_fifo_read_n>:
1000a374:	b510      	push	{r4, lr}
1000a376:	2300      	movs	r3, #0
1000a378:	f7ff fe12 	bl	10009fa0 <_tu_fifo_read_n>
1000a37c:	bd10      	pop	{r4, pc}

1000a37e <tu_fifo_write>:
1000a37e:	b5f8      	push	{r3, r4, r5, r6, r7, lr}
1000a380:	0004      	movs	r4, r0
1000a382:	000e      	movs	r6, r1
1000a384:	68c0      	ldr	r0, [r0, #12]
1000a386:	2800      	cmp	r0, #0
1000a388:	d003      	beq.n	1000a392 <tu_fifo_write+0x14>
1000a38a:	2101      	movs	r1, #1
1000a38c:	4249      	negs	r1, r1
1000a38e:	f000 fbb7 	bl	1000ab00 <__mutex_enter_timeout_ms_veneer>
1000a392:	8925      	ldrh	r5, [r4, #8]
1000a394:	b2ad      	uxth	r5, r5
1000a396:	0020      	movs	r0, r4
1000a398:	f7ff ffa1 	bl	1000a2de <tu_fifo_full>
1000a39c:	2800      	cmp	r0, #0
1000a39e:	d002      	beq.n	1000a3a6 <tu_fifo_write+0x28>
1000a3a0:	79e7      	ldrb	r7, [r4, #7]
1000a3a2:	09ff      	lsrs	r7, r7, #7
1000a3a4:	d016      	beq.n	1000a3d4 <tu_fifo_write+0x56>
1000a3a6:	88a2      	ldrh	r2, [r4, #4]
1000a3a8:	002b      	movs	r3, r5
1000a3aa:	e001      	b.n	1000a3b0 <tu_fifo_write+0x32>
1000a3ac:	1a9b      	subs	r3, r3, r2
1000a3ae:	b29b      	uxth	r3, r3
1000a3b0:	429a      	cmp	r2, r3
1000a3b2:	d9fb      	bls.n	1000a3ac <tu_fifo_write+0x2e>
1000a3b4:	6820      	ldr	r0, [r4, #0]
1000a3b6:	88e2      	ldrh	r2, [r4, #6]
1000a3b8:	0452      	lsls	r2, r2, #17
1000a3ba:	0c52      	lsrs	r2, r2, #17
1000a3bc:	4353      	muls	r3, r2
1000a3be:	18c0      	adds	r0, r0, r3
1000a3c0:	0031      	movs	r1, r6
1000a3c2:	f7fd fbed 	bl	10007ba0 <__wrap___aeabi_memcpy>
1000a3c6:	88a0      	ldrh	r0, [r4, #4]
1000a3c8:	2201      	movs	r2, #1
1000a3ca:	0029      	movs	r1, r5
1000a3cc:	f7ff fccd 	bl	10009d6a <advance_index>
1000a3d0:	8120      	strh	r0, [r4, #8]
1000a3d2:	2701      	movs	r7, #1
1000a3d4:	68e0      	ldr	r0, [r4, #12]
1000a3d6:	2800      	cmp	r0, #0
1000a3d8:	d001      	beq.n	1000a3de <tu_fifo_write+0x60>
1000a3da:	f000 fb71 	bl	1000aac0 <__mutex_exit_veneer>
1000a3de:	0038      	movs	r0, r7
1000a3e0:	bdf8      	pop	{r3, r4, r5, r6, r7, pc}

1000a3e2 <tu_fifo_write_n>:
1000a3e2:	b510      	push	{r4, lr}
1000a3e4:	2300      	movs	r3, #0
1000a3e6:	f7ff fea8 	bl	1000a13a <_tu_fifo_write_n>
1000a3ea:	bd10      	pop	{r4, pc}

1000a3ec <tu_fifo_clear>:
1000a3ec:	b510      	push	{r4, lr}
1000a3ee:	0004      	movs	r4, r0
1000a3f0:	68c0      	ldr	r0, [r0, #12]
1000a3f2:	2800      	cmp	r0, #0
1000a3f4:	d003      	beq.n	1000a3fe <tu_fifo_clear+0x12>
1000a3f6:	2101      	movs	r1, #1
1000a3f8:	4249      	negs	r1, r1
1000a3fa:	f000 fb81 	bl	1000ab00 <__mutex_enter_timeout_ms_veneer>
1000a3fe:	6920      	ldr	r0, [r4, #16]
1000a400:	2800      	cmp	r0, #0
1000a402:	d003      	beq.n	1000a40c <tu_fifo_clear+0x20>
1000a404:	2101      	movs	r1, #1
1000a406:	4249      	negs	r1, r1
1000a408:	f000 fb7a 	bl	1000ab00 <__mutex_enter_timeout_ms_veneer>
1000a40c:	2300      	movs	r3, #0
1000a40e:	8163      	strh	r3, [r4, #10]
1000a410:	8123      	strh	r3, [r4, #8]
1000a412:	68e0      	ldr	r0, [r4, #12]
1000a414:	2800      	cmp	r0, #0
1000a416:	d001      	beq.n	1000a41c <tu_fifo_clear+0x30>
1000a418:	f000 fb52 	bl	1000aac0 <__mutex_exit_veneer>
1000a41c:	6920      	ldr	r0, [r4, #16]
1000a41e:	2800      	cmp	r0, #0
1000a420:	d001      	beq.n	1000a426 <tu_fifo_clear+0x3a>
1000a422:	f000 fb4d 	bl	1000aac0 <__mutex_exit_veneer>
1000a426:	2001      	movs	r0, #1
1000a428:	bd10      	pop	{r4, pc}

1000a42a <tu_fifo_set_overwritable>:
1000a42a:	b570      	push	{r4, r5, r6, lr}
1000a42c:	0004      	movs	r4, r0
1000a42e:	000d      	movs	r5, r1
1000a430:	68c0      	ldr	r0, [r0, #12]
1000a432:	2800      	cmp	r0, #0
1000a434:	d003      	beq.n	1000a43e <tu_fifo_set_overwritable+0x14>
1000a436:	2101      	movs	r1, #1
1000a438:	4249      	negs	r1, r1
1000a43a:	f000 fb61 	bl	1000ab00 <__mutex_enter_timeout_ms_veneer>
1000a43e:	6920      	ldr	r0, [r4, #16]
1000a440:	2800      	cmp	r0, #0
1000a442:	d003      	beq.n	1000a44c <tu_fifo_set_overwritable+0x22>
1000a444:	2101      	movs	r1, #1
1000a446:	4249      	negs	r1, r1
1000a448:	f000 fb5a 	bl	1000ab00 <__mutex_enter_timeout_ms_veneer>
1000a44c:	01ed      	lsls	r5, r5, #7
1000a44e:	79e3      	ldrb	r3, [r4, #7]
1000a450:	217f      	movs	r1, #127	; 0x7f
1000a452:	4019      	ands	r1, r3
1000a454:	4329      	orrs	r1, r5
1000a456:	71e1      	strb	r1, [r4, #7]
1000a458:	68e0      	ldr	r0, [r4, #12]
1000a45a:	2800      	cmp	r0, #0
1000a45c:	d001      	beq.n	1000a462 <tu_fifo_set_overwritable+0x38>
1000a45e:	f000 fb2f 	bl	1000aac0 <__mutex_exit_veneer>
1000a462:	6920      	ldr	r0, [r4, #16]
1000a464:	2800      	cmp	r0, #0
1000a466:	d001      	beq.n	1000a46c <tu_fifo_set_overwritable+0x42>
1000a468:	f000 fb2a 	bl	1000aac0 <__mutex_exit_veneer>
1000a46c:	2001      	movs	r0, #1
1000a46e:	bd70      	pop	{r4, r5, r6, pc}

1000a470 <i2c_write_blocking_internal>:
1000a470:	b5f0      	push	{r4, r5, r6, r7, lr}
1000a472:	46de      	mov	lr, fp
1000a474:	4657      	mov	r7, sl
1000a476:	464e      	mov	r6, r9
1000a478:	4645      	mov	r5, r8
1000a47a:	b5e0      	push	{r5, r6, r7, lr}
1000a47c:	b085      	sub	sp, #20
1000a47e:	0006      	movs	r6, r0
1000a480:	001c      	movs	r4, r3
1000a482:	9302      	str	r3, [sp, #8]
1000a484:	ab0e      	add	r3, sp, #56	; 0x38
1000a486:	7818      	ldrb	r0, [r3, #0]
1000a488:	9003      	str	r0, [sp, #12]
1000a48a:	9d0f      	ldr	r5, [sp, #60]	; 0x3c
1000a48c:	9f10      	ldr	r7, [sp, #64]	; 0x40
1000a48e:	6833      	ldr	r3, [r6, #0]
1000a490:	2000      	movs	r0, #0
1000a492:	66d8      	str	r0, [r3, #108]	; 0x6c
1000a494:	6833      	ldr	r3, [r6, #0]
1000a496:	6059      	str	r1, [r3, #4]
1000a498:	6833      	ldr	r3, [r6, #0]
1000a49a:	2101      	movs	r1, #1
1000a49c:	66d9      	str	r1, [r3, #108]	; 0x6c
1000a49e:	46a2      	mov	sl, r4
1000a4a0:	2300      	movs	r3, #0
1000a4a2:	4698      	mov	r8, r3
1000a4a4:	469b      	mov	fp, r3
1000a4a6:	2100      	movs	r1, #0
1000a4a8:	2400      	movs	r4, #0
1000a4aa:	e02b      	b.n	1000a504 <i2c_write_blocking_internal+0x94>
1000a4ac:	7933      	ldrb	r3, [r6, #4]
1000a4ae:	2b00      	cmp	r3, #0
1000a4b0:	d031      	beq.n	1000a516 <i2c_write_blocking_internal+0xa6>
1000a4b2:	2301      	movs	r3, #1
1000a4b4:	e02f      	b.n	1000a516 <i2c_write_blocking_internal+0xa6>
1000a4b6:	9803      	ldr	r0, [sp, #12]
1000a4b8:	2800      	cmp	r0, #0
1000a4ba:	d001      	beq.n	1000a4c0 <i2c_write_blocking_internal+0x50>
1000a4bc:	2000      	movs	r0, #0
1000a4be:	e02e      	b.n	1000a51e <i2c_write_blocking_internal+0xae>
1000a4c0:	2001      	movs	r0, #1
1000a4c2:	e02c      	b.n	1000a51e <i2c_write_blocking_internal+0xae>
1000a4c4:	0038      	movs	r0, r7
1000a4c6:	47a8      	blx	r5
1000a4c8:	0001      	movs	r1, r0
1000a4ca:	4304      	orrs	r4, r0
1000a4cc:	b2e4      	uxtb	r4, r4
1000a4ce:	2900      	cmp	r1, #0
1000a4d0:	d106      	bne.n	1000a4e0 <i2c_write_blocking_internal+0x70>
1000a4d2:	6833      	ldr	r3, [r6, #0]
1000a4d4:	6b5b      	ldr	r3, [r3, #52]	; 0x34
1000a4d6:	06db      	lsls	r3, r3, #27
1000a4d8:	d402      	bmi.n	1000a4e0 <i2c_write_blocking_internal+0x70>
1000a4da:	2d00      	cmp	r5, #0
1000a4dc:	d1f2      	bne.n	1000a4c4 <i2c_write_blocking_internal+0x54>
1000a4de:	e7f6      	b.n	1000a4ce <i2c_write_blocking_internal+0x5e>
1000a4e0:	2900      	cmp	r1, #0
1000a4e2:	d109      	bne.n	1000a4f8 <i2c_write_blocking_internal+0x88>
1000a4e4:	6833      	ldr	r3, [r6, #0]
1000a4e6:	2280      	movs	r2, #128	; 0x80
1000a4e8:	589a      	ldr	r2, [r3, r2]
1000a4ea:	4693      	mov	fp, r2
1000a4ec:	2a00      	cmp	r2, #0
1000a4ee:	d11f      	bne.n	1000a530 <i2c_write_blocking_internal+0xc0>
1000a4f0:	2c00      	cmp	r4, #0
1000a4f2:	d12f      	bne.n	1000a554 <i2c_write_blocking_internal+0xe4>
1000a4f4:	45c1      	cmp	r9, r8
1000a4f6:	d01e      	beq.n	1000a536 <i2c_write_blocking_internal+0xc6>
1000a4f8:	2c00      	cmp	r4, #0
1000a4fa:	d133      	bne.n	1000a564 <i2c_write_blocking_internal+0xf4>
1000a4fc:	2301      	movs	r3, #1
1000a4fe:	469c      	mov	ip, r3
1000a500:	44e0      	add	r8, ip
1000a502:	9a01      	ldr	r2, [sp, #4]
1000a504:	45d0      	cmp	r8, sl
1000a506:	da2d      	bge.n	1000a564 <i2c_write_blocking_internal+0xf4>
1000a508:	9b02      	ldr	r3, [sp, #8]
1000a50a:	3b01      	subs	r3, #1
1000a50c:	4699      	mov	r9, r3
1000a50e:	4643      	mov	r3, r8
1000a510:	2b00      	cmp	r3, #0
1000a512:	d0cb      	beq.n	1000a4ac <i2c_write_blocking_internal+0x3c>
1000a514:	2300      	movs	r3, #0
1000a516:	029b      	lsls	r3, r3, #10
1000a518:	45c1      	cmp	r9, r8
1000a51a:	d0cc      	beq.n	1000a4b6 <i2c_write_blocking_internal+0x46>
1000a51c:	2000      	movs	r0, #0
1000a51e:	0240      	lsls	r0, r0, #9
1000a520:	4303      	orrs	r3, r0
1000a522:	1c50      	adds	r0, r2, #1
1000a524:	9001      	str	r0, [sp, #4]
1000a526:	7810      	ldrb	r0, [r2, #0]
1000a528:	6832      	ldr	r2, [r6, #0]
1000a52a:	4303      	orrs	r3, r0
1000a52c:	6113      	str	r3, [r2, #16]
1000a52e:	e7d4      	b.n	1000a4da <i2c_write_blocking_internal+0x6a>
1000a530:	6d5b      	ldr	r3, [r3, #84]	; 0x54
1000a532:	2401      	movs	r4, #1
1000a534:	e00e      	b.n	1000a554 <i2c_write_blocking_internal+0xe4>
1000a536:	9b03      	ldr	r3, [sp, #12]
1000a538:	2b00      	cmp	r3, #0
1000a53a:	d1dd      	bne.n	1000a4f8 <i2c_write_blocking_internal+0x88>
1000a53c:	e00a      	b.n	1000a554 <i2c_write_blocking_internal+0xe4>
1000a53e:	0038      	movs	r0, r7
1000a540:	47a8      	blx	r5
1000a542:	0001      	movs	r1, r0
1000a544:	4304      	orrs	r4, r0
1000a546:	b2e4      	uxtb	r4, r4
1000a548:	2900      	cmp	r1, #0
1000a54a:	d106      	bne.n	1000a55a <i2c_write_blocking_internal+0xea>
1000a54c:	6833      	ldr	r3, [r6, #0]
1000a54e:	6b5b      	ldr	r3, [r3, #52]	; 0x34
1000a550:	059b      	lsls	r3, r3, #22
1000a552:	d402      	bmi.n	1000a55a <i2c_write_blocking_internal+0xea>
1000a554:	2d00      	cmp	r5, #0
1000a556:	d1f2      	bne.n	1000a53e <i2c_write_blocking_internal+0xce>
1000a558:	e7f6      	b.n	1000a548 <i2c_write_blocking_internal+0xd8>
1000a55a:	2900      	cmp	r1, #0
1000a55c:	d1cc      	bne.n	1000a4f8 <i2c_write_blocking_internal+0x88>
1000a55e:	6833      	ldr	r3, [r6, #0]
1000a560:	6e1b      	ldr	r3, [r3, #96]	; 0x60
1000a562:	e7c9      	b.n	1000a4f8 <i2c_write_blocking_internal+0x88>
1000a564:	2c00      	cmp	r4, #0
1000a566:	d009      	beq.n	1000a57c <i2c_write_blocking_internal+0x10c>
1000a568:	2900      	cmp	r1, #0
1000a56a:	d115      	bne.n	1000a598 <i2c_write_blocking_internal+0x128>
1000a56c:	465b      	mov	r3, fp
1000a56e:	2b00      	cmp	r3, #0
1000a570:	d016      	beq.n	1000a5a0 <i2c_write_blocking_internal+0x130>
1000a572:	07db      	lsls	r3, r3, #31
1000a574:	d418      	bmi.n	1000a5a8 <i2c_write_blocking_internal+0x138>
1000a576:	465b      	mov	r3, fp
1000a578:	071b      	lsls	r3, r3, #28
1000a57a:	d509      	bpl.n	1000a590 <i2c_write_blocking_internal+0x120>
1000a57c:	9b03      	ldr	r3, [sp, #12]
1000a57e:	7133      	strb	r3, [r6, #4]
1000a580:	4640      	mov	r0, r8
1000a582:	b005      	add	sp, #20
1000a584:	bcf0      	pop	{r4, r5, r6, r7}
1000a586:	46bb      	mov	fp, r7
1000a588:	46b2      	mov	sl, r6
1000a58a:	46a9      	mov	r9, r5
1000a58c:	46a0      	mov	r8, r4
1000a58e:	bdf0      	pop	{r4, r5, r6, r7, pc}
1000a590:	2302      	movs	r3, #2
1000a592:	425b      	negs	r3, r3
1000a594:	4698      	mov	r8, r3
1000a596:	e7f1      	b.n	1000a57c <i2c_write_blocking_internal+0x10c>
1000a598:	2301      	movs	r3, #1
1000a59a:	425b      	negs	r3, r3
1000a59c:	4698      	mov	r8, r3
1000a59e:	e7ed      	b.n	1000a57c <i2c_write_blocking_internal+0x10c>
1000a5a0:	2302      	movs	r3, #2
1000a5a2:	425b      	negs	r3, r3
1000a5a4:	4698      	mov	r8, r3
1000a5a6:	e7e9      	b.n	1000a57c <i2c_write_blocking_internal+0x10c>
1000a5a8:	2302      	movs	r3, #2
1000a5aa:	425b      	negs	r3, r3
1000a5ac:	4698      	mov	r8, r3
1000a5ae:	e7e5      	b.n	1000a57c <i2c_write_blocking_internal+0x10c>

1000a5b0 <i2c_read_blocking_internal>:
1000a5b0:	b5f0      	push	{r4, r5, r6, r7, lr}
1000a5b2:	46de      	mov	lr, fp
1000a5b4:	4657      	mov	r7, sl
1000a5b6:	464e      	mov	r6, r9
1000a5b8:	4645      	mov	r5, r8
1000a5ba:	b5e0      	push	{r5, r6, r7, lr}
1000a5bc:	b083      	sub	sp, #12
1000a5be:	0005      	movs	r5, r0
1000a5c0:	4691      	mov	r9, r2
1000a5c2:	469a      	mov	sl, r3
1000a5c4:	ab0c      	add	r3, sp, #48	; 0x30
1000a5c6:	781b      	ldrb	r3, [r3, #0]
1000a5c8:	9301      	str	r3, [sp, #4]
1000a5ca:	9e0d      	ldr	r6, [sp, #52]	; 0x34
1000a5cc:	9f0e      	ldr	r7, [sp, #56]	; 0x38
1000a5ce:	6803      	ldr	r3, [r0, #0]
1000a5d0:	2200      	movs	r2, #0
1000a5d2:	66da      	str	r2, [r3, #108]	; 0x6c
1000a5d4:	6803      	ldr	r3, [r0, #0]
1000a5d6:	6059      	str	r1, [r3, #4]
1000a5d8:	6803      	ldr	r3, [r0, #0]
1000a5da:	3201      	adds	r2, #1
1000a5dc:	66da      	str	r2, [r3, #108]	; 0x6c
1000a5de:	46d3      	mov	fp, sl
1000a5e0:	2300      	movs	r3, #0
1000a5e2:	4698      	mov	r8, r3
1000a5e4:	2400      	movs	r4, #0
1000a5e6:	e02c      	b.n	1000a642 <i2c_read_blocking_internal+0x92>
1000a5e8:	7929      	ldrb	r1, [r5, #4]
1000a5ea:	2900      	cmp	r1, #0
1000a5ec:	d101      	bne.n	1000a5f2 <i2c_read_blocking_internal+0x42>
1000a5ee:	2000      	movs	r0, #0
1000a5f0:	e033      	b.n	1000a65a <i2c_read_blocking_internal+0xaa>
1000a5f2:	2001      	movs	r0, #1
1000a5f4:	e031      	b.n	1000a65a <i2c_read_blocking_internal+0xaa>
1000a5f6:	9901      	ldr	r1, [sp, #4]
1000a5f8:	2900      	cmp	r1, #0
1000a5fa:	d001      	beq.n	1000a600 <i2c_read_blocking_internal+0x50>
1000a5fc:	2100      	movs	r1, #0
1000a5fe:	e030      	b.n	1000a662 <i2c_read_blocking_internal+0xb2>
1000a600:	2101      	movs	r1, #1
1000a602:	e02e      	b.n	1000a662 <i2c_read_blocking_internal+0xb2>
1000a604:	0038      	movs	r0, r7
1000a606:	47b0      	blx	r6
1000a608:	0003      	movs	r3, r0
1000a60a:	4304      	orrs	r4, r0
1000a60c:	b2e4      	uxtb	r4, r4
1000a60e:	2c00      	cmp	r4, #0
1000a610:	d10d      	bne.n	1000a62e <i2c_read_blocking_internal+0x7e>
1000a612:	682a      	ldr	r2, [r5, #0]
1000a614:	6f92      	ldr	r2, [r2, #120]	; 0x78
1000a616:	2a00      	cmp	r2, #0
1000a618:	d109      	bne.n	1000a62e <i2c_read_blocking_internal+0x7e>
1000a61a:	682a      	ldr	r2, [r5, #0]
1000a61c:	2180      	movs	r1, #128	; 0x80
1000a61e:	5851      	ldr	r1, [r2, r1]
1000a620:	6d54      	ldr	r4, [r2, #84]	; 0x54
1000a622:	1e62      	subs	r2, r4, #1
1000a624:	4194      	sbcs	r4, r2
1000a626:	b2e4      	uxtb	r4, r4
1000a628:	2e00      	cmp	r6, #0
1000a62a:	d1eb      	bne.n	1000a604 <i2c_read_blocking_internal+0x54>
1000a62c:	e7ef      	b.n	1000a60e <i2c_read_blocking_internal+0x5e>
1000a62e:	2c00      	cmp	r4, #0
1000a630:	d11e      	bne.n	1000a670 <i2c_read_blocking_internal+0xc0>
1000a632:	682a      	ldr	r2, [r5, #0]
1000a634:	6912      	ldr	r2, [r2, #16]
1000a636:	4649      	mov	r1, r9
1000a638:	700a      	strb	r2, [r1, #0]
1000a63a:	2201      	movs	r2, #1
1000a63c:	4694      	mov	ip, r2
1000a63e:	44e0      	add	r8, ip
1000a640:	44e1      	add	r9, ip
1000a642:	45d8      	cmp	r8, fp
1000a644:	da14      	bge.n	1000a670 <i2c_read_blocking_internal+0xc0>
1000a646:	4652      	mov	r2, sl
1000a648:	1e54      	subs	r4, r2, #1
1000a64a:	682a      	ldr	r2, [r5, #0]
1000a64c:	6f51      	ldr	r1, [r2, #116]	; 0x74
1000a64e:	2910      	cmp	r1, #16
1000a650:	d0fb      	beq.n	1000a64a <i2c_read_blocking_internal+0x9a>
1000a652:	4641      	mov	r1, r8
1000a654:	2900      	cmp	r1, #0
1000a656:	d0c7      	beq.n	1000a5e8 <i2c_read_blocking_internal+0x38>
1000a658:	2000      	movs	r0, #0
1000a65a:	0280      	lsls	r0, r0, #10
1000a65c:	4544      	cmp	r4, r8
1000a65e:	d0ca      	beq.n	1000a5f6 <i2c_read_blocking_internal+0x46>
1000a660:	2100      	movs	r1, #0
1000a662:	0249      	lsls	r1, r1, #9
1000a664:	4308      	orrs	r0, r1
1000a666:	2180      	movs	r1, #128	; 0x80
1000a668:	0049      	lsls	r1, r1, #1
1000a66a:	4301      	orrs	r1, r0
1000a66c:	6111      	str	r1, [r2, #16]
1000a66e:	e7d4      	b.n	1000a61a <i2c_read_blocking_internal+0x6a>
1000a670:	2c00      	cmp	r4, #0
1000a672:	d004      	beq.n	1000a67e <i2c_read_blocking_internal+0xce>
1000a674:	2b00      	cmp	r3, #0
1000a676:	d00c      	beq.n	1000a692 <i2c_read_blocking_internal+0xe2>
1000a678:	2301      	movs	r3, #1
1000a67a:	425b      	negs	r3, r3
1000a67c:	4698      	mov	r8, r3
1000a67e:	9b01      	ldr	r3, [sp, #4]
1000a680:	712b      	strb	r3, [r5, #4]
1000a682:	4640      	mov	r0, r8
1000a684:	b003      	add	sp, #12
1000a686:	bcf0      	pop	{r4, r5, r6, r7}
1000a688:	46bb      	mov	fp, r7
1000a68a:	46b2      	mov	sl, r6
1000a68c:	46a9      	mov	r9, r5
1000a68e:	46a0      	mov	r8, r4
1000a690:	bdf0      	pop	{r4, r5, r6, r7, pc}
1000a692:	2302      	movs	r3, #2
1000a694:	425b      	negs	r3, r3
1000a696:	4698      	mov	r8, r3
1000a698:	e7f1      	b.n	1000a67e <i2c_read_blocking_internal+0xce>
	...

1000a69c <i2c_set_baudrate>:
1000a69c:	b5f0      	push	{r4, r5, r6, r7, lr}
1000a69e:	46d6      	mov	lr, sl
1000a6a0:	464f      	mov	r7, r9
1000a6a2:	4646      	mov	r6, r8
1000a6a4:	b5c0      	push	{r6, r7, lr}
1000a6a6:	0005      	movs	r5, r0
1000a6a8:	000c      	movs	r4, r1
1000a6aa:	2005      	movs	r0, #5
1000a6ac:	f7fb f828 	bl	10005700 <clock_get_hz>
1000a6b0:	0006      	movs	r6, r0
1000a6b2:	0860      	lsrs	r0, r4, #1
1000a6b4:	1980      	adds	r0, r0, r6
1000a6b6:	0021      	movs	r1, r4
1000a6b8:	f7fc fb1a 	bl	10006cf0 <__wrap___aeabi_uidiv>
1000a6bc:	0007      	movs	r7, r0
1000a6be:	0043      	lsls	r3, r0, #1
1000a6c0:	4699      	mov	r9, r3
1000a6c2:	4481      	add	r9, r0
1000a6c4:	2105      	movs	r1, #5
1000a6c6:	4648      	mov	r0, r9
1000a6c8:	f7fc fb12 	bl	10006cf0 <__wrap___aeabi_uidiv>
1000a6cc:	4680      	mov	r8, r0
1000a6ce:	1a3b      	subs	r3, r7, r0
1000a6d0:	469a      	mov	sl, r3
1000a6d2:	4b28      	ldr	r3, [pc, #160]	; (1000a774 <i2c_set_baudrate+0xd8>)
1000a6d4:	429c      	cmp	r4, r3
1000a6d6:	d824      	bhi.n	1000a722 <i2c_set_baudrate+0x86>
1000a6d8:	0070      	lsls	r0, r6, #1
1000a6da:	1980      	adds	r0, r0, r6
1000a6dc:	4926      	ldr	r1, [pc, #152]	; (1000a778 <i2c_set_baudrate+0xdc>)
1000a6de:	f7fc fb07 	bl	10006cf0 <__wrap___aeabi_uidiv>
1000a6e2:	1c44      	adds	r4, r0, #1
1000a6e4:	4643      	mov	r3, r8
1000a6e6:	3b02      	subs	r3, #2
1000a6e8:	42a3      	cmp	r3, r4
1000a6ea:	d321      	bcc.n	1000a730 <i2c_set_baudrate+0x94>
1000a6ec:	682b      	ldr	r3, [r5, #0]
1000a6ee:	2200      	movs	r2, #0
1000a6f0:	66da      	str	r2, [r3, #108]	; 0x6c
1000a6f2:	6829      	ldr	r1, [r5, #0]
1000a6f4:	680b      	ldr	r3, [r1, #0]
1000a6f6:	3204      	adds	r2, #4
1000a6f8:	4053      	eors	r3, r2
1000a6fa:	3202      	adds	r2, #2
1000a6fc:	401a      	ands	r2, r3
1000a6fe:	2380      	movs	r3, #128	; 0x80
1000a700:	015b      	lsls	r3, r3, #5
1000a702:	430b      	orrs	r3, r1
1000a704:	601a      	str	r2, [r3, #0]
1000a706:	682b      	ldr	r3, [r5, #0]
1000a708:	4652      	mov	r2, sl
1000a70a:	61da      	str	r2, [r3, #28]
1000a70c:	682b      	ldr	r3, [r5, #0]
1000a70e:	4642      	mov	r2, r8
1000a710:	621a      	str	r2, [r3, #32]
1000a712:	464b      	mov	r3, r9
1000a714:	2b4f      	cmp	r3, #79	; 0x4f
1000a716:	d911      	bls.n	1000a73c <i2c_set_baudrate+0xa0>
1000a718:	2150      	movs	r1, #80	; 0x50
1000a71a:	4648      	mov	r0, r9
1000a71c:	f7fc fae8 	bl	10006cf0 <__wrap___aeabi_uidiv>
1000a720:	e00d      	b.n	1000a73e <i2c_set_baudrate+0xa2>
1000a722:	0070      	lsls	r0, r6, #1
1000a724:	1980      	adds	r0, r0, r6
1000a726:	4915      	ldr	r1, [pc, #84]	; (1000a77c <i2c_set_baudrate+0xe0>)
1000a728:	f7fc fae2 	bl	10006cf0 <__wrap___aeabi_uidiv>
1000a72c:	1c44      	adds	r4, r0, #1
1000a72e:	e7d9      	b.n	1000a6e4 <i2c_set_baudrate+0x48>
1000a730:	4b13      	ldr	r3, [pc, #76]	; (1000a780 <i2c_set_baudrate+0xe4>)
1000a732:	4a14      	ldr	r2, [pc, #80]	; (1000a784 <i2c_set_baudrate+0xe8>)
1000a734:	4814      	ldr	r0, [pc, #80]	; (1000a788 <i2c_set_baudrate+0xec>)
1000a736:	215f      	movs	r1, #95	; 0x5f
1000a738:	f7fb f916 	bl	10005968 <__assert_func>
1000a73c:	2001      	movs	r0, #1
1000a73e:	682a      	ldr	r2, [r5, #0]
1000a740:	23a0      	movs	r3, #160	; 0xa0
1000a742:	50d0      	str	r0, [r2, r3]
1000a744:	682b      	ldr	r3, [r5, #0]
1000a746:	001a      	movs	r2, r3
1000a748:	327c      	adds	r2, #124	; 0x7c
1000a74a:	6fdb      	ldr	r3, [r3, #124]	; 0x7c
1000a74c:	405c      	eors	r4, r3
1000a74e:	0424      	lsls	r4, r4, #16
1000a750:	0c24      	lsrs	r4, r4, #16
1000a752:	2380      	movs	r3, #128	; 0x80
1000a754:	015b      	lsls	r3, r3, #5
1000a756:	4313      	orrs	r3, r2
1000a758:	601c      	str	r4, [r3, #0]
1000a75a:	682b      	ldr	r3, [r5, #0]
1000a75c:	2201      	movs	r2, #1
1000a75e:	66da      	str	r2, [r3, #108]	; 0x6c
1000a760:	0039      	movs	r1, r7
1000a762:	0030      	movs	r0, r6
1000a764:	f7fc fac4 	bl	10006cf0 <__wrap___aeabi_uidiv>
1000a768:	bce0      	pop	{r5, r6, r7}
1000a76a:	46ba      	mov	sl, r7
1000a76c:	46b1      	mov	r9, r6
1000a76e:	46a8      	mov	r8, r5
1000a770:	bdf0      	pop	{r4, r5, r6, r7, pc}
1000a772:	46c0      	nop			; (mov r8, r8)
1000a774:	000f423f 	.word	0x000f423f
1000a778:	00989680 	.word	0x00989680
1000a77c:	017d7840 	.word	0x017d7840
1000a780:	1000c3a8 	.word	0x1000c3a8
1000a784:	1000c408 	.word	0x1000c408
1000a788:	1000c3c8 	.word	0x1000c3c8

1000a78c <i2c_init>:
1000a78c:	b510      	push	{r4, lr}
1000a78e:	4b11      	ldr	r3, [pc, #68]	; (1000a7d4 <i2c_init+0x48>)
1000a790:	4298      	cmp	r0, r3
1000a792:	d01d      	beq.n	1000a7d0 <i2c_init+0x44>
1000a794:	2210      	movs	r2, #16
1000a796:	4b10      	ldr	r3, [pc, #64]	; (1000a7d8 <i2c_init+0x4c>)
1000a798:	601a      	str	r2, [r3, #0]
1000a79a:	4b10      	ldr	r3, [pc, #64]	; (1000a7dc <i2c_init+0x50>)
1000a79c:	601a      	str	r2, [r3, #0]
1000a79e:	4b10      	ldr	r3, [pc, #64]	; (1000a7e0 <i2c_init+0x54>)
1000a7a0:	689b      	ldr	r3, [r3, #8]
1000a7a2:	0014      	movs	r4, r2
1000a7a4:	439c      	bics	r4, r3
1000a7a6:	1e23      	subs	r3, r4, #0
1000a7a8:	d1f9      	bne.n	1000a79e <i2c_init+0x12>
1000a7aa:	7104      	strb	r4, [r0, #4]
1000a7ac:	6802      	ldr	r2, [r0, #0]
1000a7ae:	66d4      	str	r4, [r2, #108]	; 0x6c
1000a7b0:	6802      	ldr	r2, [r0, #0]
1000a7b2:	2466      	movs	r4, #102	; 0x66
1000a7b4:	34ff      	adds	r4, #255	; 0xff
1000a7b6:	6014      	str	r4, [r2, #0]
1000a7b8:	6802      	ldr	r2, [r0, #0]
1000a7ba:	63d3      	str	r3, [r2, #60]	; 0x3c
1000a7bc:	6802      	ldr	r2, [r0, #0]
1000a7be:	6393      	str	r3, [r2, #56]	; 0x38
1000a7c0:	6802      	ldr	r2, [r0, #0]
1000a7c2:	3388      	adds	r3, #136	; 0x88
1000a7c4:	3c63      	subs	r4, #99	; 0x63
1000a7c6:	3cff      	subs	r4, #255	; 0xff
1000a7c8:	50d4      	str	r4, [r2, r3]
1000a7ca:	f7ff ff67 	bl	1000a69c <i2c_set_baudrate>
1000a7ce:	bd10      	pop	{r4, pc}
1000a7d0:	2208      	movs	r2, #8
1000a7d2:	e7e0      	b.n	1000a796 <i2c_init+0xa>
1000a7d4:	20000c70 	.word	0x20000c70
1000a7d8:	4000e000 	.word	0x4000e000
1000a7dc:	4000f000 	.word	0x4000f000
1000a7e0:	4000c000 	.word	0x4000c000

1000a7e4 <i2c_set_slave_mode>:
1000a7e4:	b510      	push	{r4, lr}
1000a7e6:	6803      	ldr	r3, [r0, #0]
1000a7e8:	2400      	movs	r4, #0
1000a7ea:	66dc      	str	r4, [r3, #108]	; 0x6c
1000a7ec:	2900      	cmp	r1, #0
1000a7ee:	d010      	beq.n	1000a812 <i2c_set_slave_mode+0x2e>
1000a7f0:	6804      	ldr	r4, [r0, #0]
1000a7f2:	6821      	ldr	r1, [r4, #0]
1000a7f4:	2380      	movs	r3, #128	; 0x80
1000a7f6:	009b      	lsls	r3, r3, #2
1000a7f8:	404b      	eors	r3, r1
1000a7fa:	490b      	ldr	r1, [pc, #44]	; (1000a828 <i2c_set_slave_mode+0x44>)
1000a7fc:	400b      	ands	r3, r1
1000a7fe:	2180      	movs	r1, #128	; 0x80
1000a800:	0149      	lsls	r1, r1, #5
1000a802:	4321      	orrs	r1, r4
1000a804:	600b      	str	r3, [r1, #0]
1000a806:	6803      	ldr	r3, [r0, #0]
1000a808:	609a      	str	r2, [r3, #8]
1000a80a:	6803      	ldr	r3, [r0, #0]
1000a80c:	2201      	movs	r2, #1
1000a80e:	66da      	str	r2, [r3, #108]	; 0x6c
1000a810:	bd10      	pop	{r4, pc}
1000a812:	6801      	ldr	r1, [r0, #0]
1000a814:	680b      	ldr	r3, [r1, #0]
1000a816:	2241      	movs	r2, #65	; 0x41
1000a818:	4053      	eors	r3, r2
1000a81a:	4a03      	ldr	r2, [pc, #12]	; (1000a828 <i2c_set_slave_mode+0x44>)
1000a81c:	4013      	ands	r3, r2
1000a81e:	2280      	movs	r2, #128	; 0x80
1000a820:	0152      	lsls	r2, r2, #5
1000a822:	430a      	orrs	r2, r1
1000a824:	6013      	str	r3, [r2, #0]
1000a826:	e7f0      	b.n	1000a80a <i2c_set_slave_mode+0x26>
1000a828:	00000241 	.word	0x00000241

1000a82c <i2c_write_blocking>:
1000a82c:	b530      	push	{r4, r5, lr}
1000a82e:	b085      	sub	sp, #20
1000a830:	ac08      	add	r4, sp, #32
1000a832:	7825      	ldrb	r5, [r4, #0]
1000a834:	2400      	movs	r4, #0
1000a836:	9402      	str	r4, [sp, #8]
1000a838:	9401      	str	r4, [sp, #4]
1000a83a:	9500      	str	r5, [sp, #0]
1000a83c:	f7ff fe18 	bl	1000a470 <i2c_write_blocking_internal>
1000a840:	b005      	add	sp, #20
1000a842:	bd30      	pop	{r4, r5, pc}

1000a844 <i2c_read_blocking>:
1000a844:	b530      	push	{r4, r5, lr}
1000a846:	b085      	sub	sp, #20
1000a848:	ac08      	add	r4, sp, #32
1000a84a:	7825      	ldrb	r5, [r4, #0]
1000a84c:	2400      	movs	r4, #0
1000a84e:	9402      	str	r4, [sp, #8]
1000a850:	9401      	str	r4, [sp, #4]
1000a852:	9500      	str	r5, [sp, #0]
1000a854:	f7ff feac 	bl	1000a5b0 <i2c_read_blocking_internal>
1000a858:	b005      	add	sp, #20
1000a85a:	bd30      	pop	{r4, r5, pc}

1000a85c <spi_set_baudrate>:
1000a85c:	b5f0      	push	{r4, r5, r6, r7, lr}
1000a85e:	46d6      	mov	lr, sl
1000a860:	4647      	mov	r7, r8
1000a862:	b580      	push	{r7, lr}
1000a864:	b083      	sub	sp, #12
1000a866:	4682      	mov	sl, r0
1000a868:	4688      	mov	r8, r1
1000a86a:	2006      	movs	r0, #6
1000a86c:	f7fa ff48 	bl	10005700 <clock_get_hz>
1000a870:	0007      	movs	r7, r0
1000a872:	2402      	movs	r4, #2
1000a874:	e000      	b.n	1000a878 <spi_set_baudrate+0x1c>
1000a876:	002c      	movs	r4, r5
1000a878:	2cfe      	cmp	r4, #254	; 0xfe
1000a87a:	d81c      	bhi.n	1000a8b6 <spi_set_baudrate+0x5a>
1000a87c:	9701      	str	r7, [sp, #4]
1000a87e:	2600      	movs	r6, #0
1000a880:	1ca5      	adds	r5, r4, #2
1000a882:	0228      	lsls	r0, r5, #8
1000a884:	4642      	mov	r2, r8
1000a886:	2300      	movs	r3, #0
1000a888:	2100      	movs	r1, #0
1000a88a:	f7fd f86d 	bl	10007968 <__wrap___aeabi_lmul>
1000a88e:	2900      	cmp	r1, #0
1000a890:	d103      	bne.n	1000a89a <spi_set_baudrate+0x3e>
1000a892:	42b1      	cmp	r1, r6
1000a894:	d1ef      	bne.n	1000a876 <spi_set_baudrate+0x1a>
1000a896:	42b8      	cmp	r0, r7
1000a898:	d9ed      	bls.n	1000a876 <spi_set_baudrate+0x1a>
1000a89a:	2580      	movs	r5, #128	; 0x80
1000a89c:	006d      	lsls	r5, r5, #1
1000a89e:	2d01      	cmp	r5, #1
1000a8a0:	d90c      	bls.n	1000a8bc <spi_set_baudrate+0x60>
1000a8a2:	1e6e      	subs	r6, r5, #1
1000a8a4:	0021      	movs	r1, r4
1000a8a6:	4371      	muls	r1, r6
1000a8a8:	0038      	movs	r0, r7
1000a8aa:	f7fc fa21 	bl	10006cf0 <__wrap___aeabi_uidiv>
1000a8ae:	4540      	cmp	r0, r8
1000a8b0:	d804      	bhi.n	1000a8bc <spi_set_baudrate+0x60>
1000a8b2:	0035      	movs	r5, r6
1000a8b4:	e7f3      	b.n	1000a89e <spi_set_baudrate+0x42>
1000a8b6:	2580      	movs	r5, #128	; 0x80
1000a8b8:	006d      	lsls	r5, r5, #1
1000a8ba:	e7f0      	b.n	1000a89e <spi_set_baudrate+0x42>
1000a8bc:	4653      	mov	r3, sl
1000a8be:	611c      	str	r4, [r3, #16]
1000a8c0:	1e6b      	subs	r3, r5, #1
1000a8c2:	021b      	lsls	r3, r3, #8
1000a8c4:	4652      	mov	r2, sl
1000a8c6:	6812      	ldr	r2, [r2, #0]
1000a8c8:	4053      	eors	r3, r2
1000a8ca:	22ff      	movs	r2, #255	; 0xff
1000a8cc:	0212      	lsls	r2, r2, #8
1000a8ce:	4013      	ands	r3, r2
1000a8d0:	2280      	movs	r2, #128	; 0x80
1000a8d2:	0152      	lsls	r2, r2, #5
1000a8d4:	4651      	mov	r1, sl
1000a8d6:	430a      	orrs	r2, r1
1000a8d8:	6013      	str	r3, [r2, #0]
1000a8da:	0029      	movs	r1, r5
1000a8dc:	4361      	muls	r1, r4
1000a8de:	0038      	movs	r0, r7
1000a8e0:	f7fc fa06 	bl	10006cf0 <__wrap___aeabi_uidiv>
1000a8e4:	b003      	add	sp, #12
1000a8e6:	bcc0      	pop	{r6, r7}
1000a8e8:	46ba      	mov	sl, r7
1000a8ea:	46b0      	mov	r8, r6
1000a8ec:	bdf0      	pop	{r4, r5, r6, r7, pc}
	...

1000a8f0 <spi_init>:
1000a8f0:	b510      	push	{r4, lr}
1000a8f2:	0004      	movs	r4, r0
1000a8f4:	4b14      	ldr	r3, [pc, #80]	; (1000a948 <spi_init+0x58>)
1000a8f6:	4298      	cmp	r0, r3
1000a8f8:	d022      	beq.n	1000a940 <spi_init+0x50>
1000a8fa:	2280      	movs	r2, #128	; 0x80
1000a8fc:	0292      	lsls	r2, r2, #10
1000a8fe:	4b13      	ldr	r3, [pc, #76]	; (1000a94c <spi_init+0x5c>)
1000a900:	601a      	str	r2, [r3, #0]
1000a902:	4b13      	ldr	r3, [pc, #76]	; (1000a950 <spi_init+0x60>)
1000a904:	601a      	str	r2, [r3, #0]
1000a906:	4b13      	ldr	r3, [pc, #76]	; (1000a954 <spi_init+0x64>)
1000a908:	689b      	ldr	r3, [r3, #8]
1000a90a:	0010      	movs	r0, r2
1000a90c:	4398      	bics	r0, r3
1000a90e:	d1fa      	bne.n	1000a906 <spi_init+0x16>
1000a910:	0020      	movs	r0, r4
1000a912:	f7ff ffa3 	bl	1000a85c <spi_set_baudrate>
1000a916:	6823      	ldr	r3, [r4, #0]
1000a918:	2207      	movs	r2, #7
1000a91a:	4053      	eors	r3, r2
1000a91c:	32c8      	adds	r2, #200	; 0xc8
1000a91e:	401a      	ands	r2, r3
1000a920:	2380      	movs	r3, #128	; 0x80
1000a922:	015b      	lsls	r3, r3, #5
1000a924:	4323      	orrs	r3, r4
1000a926:	601a      	str	r2, [r3, #0]
1000a928:	0022      	movs	r2, r4
1000a92a:	3224      	adds	r2, #36	; 0x24
1000a92c:	2380      	movs	r3, #128	; 0x80
1000a92e:	019b      	lsls	r3, r3, #6
1000a930:	431a      	orrs	r2, r3
1000a932:	2103      	movs	r1, #3
1000a934:	6011      	str	r1, [r2, #0]
1000a936:	3404      	adds	r4, #4
1000a938:	4323      	orrs	r3, r4
1000a93a:	2202      	movs	r2, #2
1000a93c:	601a      	str	r2, [r3, #0]
1000a93e:	bd10      	pop	{r4, pc}
1000a940:	2280      	movs	r2, #128	; 0x80
1000a942:	0252      	lsls	r2, r2, #9
1000a944:	e7db      	b.n	1000a8fe <spi_init+0xe>
1000a946:	46c0      	nop			; (mov r8, r8)
1000a948:	4003c000 	.word	0x4003c000
1000a94c:	4000e000 	.word	0x4000e000
1000a950:	4000f000 	.word	0x4000f000
1000a954:	4000c000 	.word	0x4000c000

1000a958 <memcmp>:
1000a958:	b530      	push	{r4, r5, lr}
1000a95a:	2a03      	cmp	r2, #3
1000a95c:	d90c      	bls.n	1000a978 <memcmp+0x20>
1000a95e:	0003      	movs	r3, r0
1000a960:	430b      	orrs	r3, r1
1000a962:	079b      	lsls	r3, r3, #30
1000a964:	d119      	bne.n	1000a99a <memcmp+0x42>
1000a966:	6804      	ldr	r4, [r0, #0]
1000a968:	680b      	ldr	r3, [r1, #0]
1000a96a:	429c      	cmp	r4, r3
1000a96c:	d115      	bne.n	1000a99a <memcmp+0x42>
1000a96e:	3a04      	subs	r2, #4
1000a970:	3004      	adds	r0, #4
1000a972:	3104      	adds	r1, #4
1000a974:	2a03      	cmp	r2, #3
1000a976:	d8f6      	bhi.n	1000a966 <memcmp+0xe>
1000a978:	1e55      	subs	r5, r2, #1
1000a97a:	2a00      	cmp	r2, #0
1000a97c:	d00b      	beq.n	1000a996 <memcmp+0x3e>
1000a97e:	2300      	movs	r3, #0
1000a980:	e003      	b.n	1000a98a <memcmp+0x32>
1000a982:	1c5a      	adds	r2, r3, #1
1000a984:	429d      	cmp	r5, r3
1000a986:	d006      	beq.n	1000a996 <memcmp+0x3e>
1000a988:	0013      	movs	r3, r2
1000a98a:	5cc2      	ldrb	r2, [r0, r3]
1000a98c:	5ccc      	ldrb	r4, [r1, r3]
1000a98e:	42a2      	cmp	r2, r4
1000a990:	d0f7      	beq.n	1000a982 <memcmp+0x2a>
1000a992:	1b10      	subs	r0, r2, r4
1000a994:	e000      	b.n	1000a998 <memcmp+0x40>
1000a996:	2000      	movs	r0, #0
1000a998:	bd30      	pop	{r4, r5, pc}
1000a99a:	1e55      	subs	r5, r2, #1
1000a99c:	e7ef      	b.n	1000a97e <memcmp+0x26>
1000a99e:	46c0      	nop			; (mov r8, r8)

1000a9a0 <memmove>:
1000a9a0:	b5f0      	push	{r4, r5, r6, r7, lr}
1000a9a2:	4288      	cmp	r0, r1
1000a9a4:	d90a      	bls.n	1000a9bc <memmove+0x1c>
1000a9a6:	188b      	adds	r3, r1, r2
1000a9a8:	4298      	cmp	r0, r3
1000a9aa:	d207      	bcs.n	1000a9bc <memmove+0x1c>
1000a9ac:	1e53      	subs	r3, r2, #1
1000a9ae:	2a00      	cmp	r2, #0
1000a9b0:	d003      	beq.n	1000a9ba <memmove+0x1a>
1000a9b2:	5cca      	ldrb	r2, [r1, r3]
1000a9b4:	54c2      	strb	r2, [r0, r3]
1000a9b6:	3b01      	subs	r3, #1
1000a9b8:	d2fb      	bcs.n	1000a9b2 <memmove+0x12>
1000a9ba:	bdf0      	pop	{r4, r5, r6, r7, pc}
1000a9bc:	2a0f      	cmp	r2, #15
1000a9be:	d80b      	bhi.n	1000a9d8 <memmove+0x38>
1000a9c0:	0005      	movs	r5, r0
1000a9c2:	1e56      	subs	r6, r2, #1
1000a9c4:	2a00      	cmp	r2, #0
1000a9c6:	d0f8      	beq.n	1000a9ba <memmove+0x1a>
1000a9c8:	2300      	movs	r3, #0
1000a9ca:	5ccc      	ldrb	r4, [r1, r3]
1000a9cc:	001a      	movs	r2, r3
1000a9ce:	54ec      	strb	r4, [r5, r3]
1000a9d0:	3301      	adds	r3, #1
1000a9d2:	4296      	cmp	r6, r2
1000a9d4:	d1f9      	bne.n	1000a9ca <memmove+0x2a>
1000a9d6:	e7f0      	b.n	1000a9ba <memmove+0x1a>
1000a9d8:	2403      	movs	r4, #3
1000a9da:	0003      	movs	r3, r0
1000a9dc:	0026      	movs	r6, r4
1000a9de:	430b      	orrs	r3, r1
1000a9e0:	401e      	ands	r6, r3
1000a9e2:	421c      	tst	r4, r3
1000a9e4:	d12d      	bne.n	1000aa42 <memmove+0xa2>
1000a9e6:	0015      	movs	r5, r2
1000a9e8:	3d10      	subs	r5, #16
1000a9ea:	092d      	lsrs	r5, r5, #4
1000a9ec:	0003      	movs	r3, r0
1000a9ee:	000c      	movs	r4, r1
1000a9f0:	46ac      	mov	ip, r5
1000a9f2:	012f      	lsls	r7, r5, #4
1000a9f4:	183f      	adds	r7, r7, r0
1000a9f6:	6825      	ldr	r5, [r4, #0]
1000a9f8:	601d      	str	r5, [r3, #0]
1000a9fa:	6865      	ldr	r5, [r4, #4]
1000a9fc:	605d      	str	r5, [r3, #4]
1000a9fe:	68a5      	ldr	r5, [r4, #8]
1000aa00:	609d      	str	r5, [r3, #8]
1000aa02:	68e5      	ldr	r5, [r4, #12]
1000aa04:	3410      	adds	r4, #16
1000aa06:	60dd      	str	r5, [r3, #12]
1000aa08:	001d      	movs	r5, r3
1000aa0a:	3310      	adds	r3, #16
1000aa0c:	42bd      	cmp	r5, r7
1000aa0e:	d1f2      	bne.n	1000a9f6 <memmove+0x56>
1000aa10:	4665      	mov	r5, ip
1000aa12:	230f      	movs	r3, #15
1000aa14:	240c      	movs	r4, #12
1000aa16:	3501      	adds	r5, #1
1000aa18:	012d      	lsls	r5, r5, #4
1000aa1a:	1949      	adds	r1, r1, r5
1000aa1c:	4013      	ands	r3, r2
1000aa1e:	1945      	adds	r5, r0, r5
1000aa20:	4214      	tst	r4, r2
1000aa22:	d011      	beq.n	1000aa48 <memmove+0xa8>
1000aa24:	598c      	ldr	r4, [r1, r6]
1000aa26:	51ac      	str	r4, [r5, r6]
1000aa28:	3604      	adds	r6, #4
1000aa2a:	1b9c      	subs	r4, r3, r6
1000aa2c:	2c03      	cmp	r4, #3
1000aa2e:	d8f9      	bhi.n	1000aa24 <memmove+0x84>
1000aa30:	3b04      	subs	r3, #4
1000aa32:	089b      	lsrs	r3, r3, #2
1000aa34:	3301      	adds	r3, #1
1000aa36:	009b      	lsls	r3, r3, #2
1000aa38:	18ed      	adds	r5, r5, r3
1000aa3a:	18c9      	adds	r1, r1, r3
1000aa3c:	2303      	movs	r3, #3
1000aa3e:	401a      	ands	r2, r3
1000aa40:	e7bf      	b.n	1000a9c2 <memmove+0x22>
1000aa42:	0005      	movs	r5, r0
1000aa44:	1e56      	subs	r6, r2, #1
1000aa46:	e7bf      	b.n	1000a9c8 <memmove+0x28>
1000aa48:	001a      	movs	r2, r3
1000aa4a:	e7ba      	b.n	1000a9c2 <memmove+0x22>

1000aa4c <strlen>:
1000aa4c:	b510      	push	{r4, lr}
1000aa4e:	0783      	lsls	r3, r0, #30
1000aa50:	d00a      	beq.n	1000aa68 <strlen+0x1c>
1000aa52:	0003      	movs	r3, r0
1000aa54:	2103      	movs	r1, #3
1000aa56:	e002      	b.n	1000aa5e <strlen+0x12>
1000aa58:	3301      	adds	r3, #1
1000aa5a:	420b      	tst	r3, r1
1000aa5c:	d005      	beq.n	1000aa6a <strlen+0x1e>
1000aa5e:	781a      	ldrb	r2, [r3, #0]
1000aa60:	2a00      	cmp	r2, #0
1000aa62:	d1f9      	bne.n	1000aa58 <strlen+0xc>
1000aa64:	1a18      	subs	r0, r3, r0
1000aa66:	bd10      	pop	{r4, pc}
1000aa68:	0003      	movs	r3, r0
1000aa6a:	6819      	ldr	r1, [r3, #0]
1000aa6c:	4a0c      	ldr	r2, [pc, #48]	; (1000aaa0 <strlen+0x54>)
1000aa6e:	4c0d      	ldr	r4, [pc, #52]	; (1000aaa4 <strlen+0x58>)
1000aa70:	188a      	adds	r2, r1, r2
1000aa72:	438a      	bics	r2, r1
1000aa74:	4222      	tst	r2, r4
1000aa76:	d10f      	bne.n	1000aa98 <strlen+0x4c>
1000aa78:	6859      	ldr	r1, [r3, #4]
1000aa7a:	4a09      	ldr	r2, [pc, #36]	; (1000aaa0 <strlen+0x54>)
1000aa7c:	3304      	adds	r3, #4
1000aa7e:	188a      	adds	r2, r1, r2
1000aa80:	438a      	bics	r2, r1
1000aa82:	4222      	tst	r2, r4
1000aa84:	d108      	bne.n	1000aa98 <strlen+0x4c>
1000aa86:	6859      	ldr	r1, [r3, #4]
1000aa88:	4a05      	ldr	r2, [pc, #20]	; (1000aaa0 <strlen+0x54>)
1000aa8a:	3304      	adds	r3, #4
1000aa8c:	188a      	adds	r2, r1, r2
1000aa8e:	438a      	bics	r2, r1
1000aa90:	4222      	tst	r2, r4
1000aa92:	d0f1      	beq.n	1000aa78 <strlen+0x2c>
1000aa94:	e000      	b.n	1000aa98 <strlen+0x4c>
1000aa96:	3301      	adds	r3, #1
1000aa98:	781a      	ldrb	r2, [r3, #0]
1000aa9a:	2a00      	cmp	r2, #0
1000aa9c:	d1fb      	bne.n	1000aa96 <strlen+0x4a>
1000aa9e:	e7e1      	b.n	1000aa64 <strlen+0x18>
1000aaa0:	fefefeff 	.word	0xfefefeff
1000aaa4:	80808080 	.word	0x80808080

1000aaa8 <_fini>:
1000aaa8:	b5f8      	push	{r3, r4, r5, r6, r7, lr}
1000aaaa:	46c0      	nop			; (mov r8, r8)
1000aaac:	0000      	movs	r0, r0
	...

1000aab0 <__flash_do_cmd_veneer>:
1000aab0:	b401      	push	{r0}
1000aab2:	4802      	ldr	r0, [pc, #8]	; (1000aabc <__flash_do_cmd_veneer+0xc>)
1000aab4:	4684      	mov	ip, r0
1000aab6:	bc01      	pop	{r0}
1000aab8:	4760      	bx	ip
1000aaba:	bf00      	nop
1000aabc:	200002e5 	.word	0x200002e5

1000aac0 <__mutex_exit_veneer>:
1000aac0:	b401      	push	{r0}
1000aac2:	4802      	ldr	r0, [pc, #8]	; (1000aacc <__mutex_exit_veneer+0xc>)
1000aac4:	4684      	mov	ip, r0
1000aac6:	bc01      	pop	{r0}
1000aac8:	4760      	bx	ip
1000aaca:	bf00      	nop
1000aacc:	20000231 	.word	0x20000231

1000aad0 <____aeabi_ldiv0_veneer>:
1000aad0:	b401      	push	{r0}
1000aad2:	4802      	ldr	r0, [pc, #8]	; (1000aadc <____aeabi_ldiv0_veneer+0xc>)
1000aad4:	4684      	mov	ip, r0
1000aad6:	bc01      	pop	{r0}
1000aad8:	4760      	bx	ip
1000aada:	bf00      	nop
1000aadc:	20000b01 	.word	0x20000b01

1000aae0 <____aeabi_idiv0_veneer>:
1000aae0:	b401      	push	{r0}
1000aae2:	4802      	ldr	r0, [pc, #8]	; (1000aaec <____aeabi_idiv0_veneer+0xc>)
1000aae4:	4684      	mov	ip, r0
1000aae6:	bc01      	pop	{r0}
1000aae8:	4760      	bx	ip
1000aaea:	bf00      	nop
1000aaec:	20000b01 	.word	0x20000b01

1000aaf0 <__mutex_try_enter_veneer>:
1000aaf0:	b401      	push	{r0}
1000aaf2:	4802      	ldr	r0, [pc, #8]	; (1000aafc <__mutex_try_enter_veneer+0xc>)
1000aaf4:	4684      	mov	ip, r0
1000aaf6:	bc01      	pop	{r0}
1000aaf8:	4760      	bx	ip
1000aafa:	bf00      	nop
1000aafc:	200000c1 	.word	0x200000c1

1000ab00 <__mutex_enter_timeout_ms_veneer>:
1000ab00:	b401      	push	{r0}
1000ab02:	4802      	ldr	r0, [pc, #8]	; (1000ab0c <__mutex_enter_timeout_ms_veneer+0xc>)
1000ab04:	4684      	mov	ip, r0
1000ab06:	bc01      	pop	{r0}
1000ab08:	4760      	bx	ip
1000ab0a:	bf00      	nop
1000ab0c:	200001c9 	.word	0x200001c9

1000ab10 <__dcd_event_handler_veneer>:
1000ab10:	b401      	push	{r0}
1000ab12:	4802      	ldr	r0, [pc, #8]	; (1000ab1c <__dcd_event_handler_veneer+0xc>)
1000ab14:	4684      	mov	ip, r0
1000ab16:	bc01      	pop	{r0}
1000ab18:	4760      	bx	ip
1000ab1a:	bf00      	nop
1000ab1c:	20000915 	.word	0x20000915

1000ab20 <__mutex_try_enter_block_until_veneer>:
1000ab20:	b401      	push	{r0}
1000ab22:	4802      	ldr	r0, [pc, #8]	; (1000ab2c <__mutex_try_enter_block_until_veneer+0xc>)
1000ab24:	4684      	mov	ip, r0
1000ab26:	bc01      	pop	{r0}
1000ab28:	4760      	bx	ip
1000ab2a:	bf00      	nop
1000ab2c:	20000195 	.word	0x20000195

1000ab30 <__hw_endpoint_start_next_buffer_veneer>:
1000ab30:	b401      	push	{r0}
1000ab32:	4802      	ldr	r0, [pc, #8]	; (1000ab3c <__hw_endpoint_start_next_buffer_veneer+0xc>)
1000ab34:	4684      	mov	ip, r0
1000ab36:	bc01      	pop	{r0}
1000ab38:	4760      	bx	ip
1000ab3a:	bf00      	nop
1000ab3c:	2000083d 	.word	0x2000083d

1000ab40 <__reset_non_control_endpoints_veneer>:
1000ab40:	b401      	push	{r0}
1000ab42:	4802      	ldr	r0, [pc, #8]	; (1000ab4c <__reset_non_control_endpoints_veneer+0xc>)
1000ab44:	4684      	mov	ip, r0
1000ab46:	bc01      	pop	{r0}
1000ab48:	4760      	bx	ip
1000ab4a:	bf00      	nop
1000ab4c:	200003bd 	.word	0x200003bd

1000ab50 <__e15_is_bulkin_ep_veneer>:
1000ab50:	b401      	push	{r0}
1000ab52:	4802      	ldr	r0, [pc, #8]	; (1000ab5c <__e15_is_bulkin_ep_veneer+0xc>)
1000ab54:	4684      	mov	ip, r0
1000ab56:	bc01      	pop	{r0}
1000ab58:	4760      	bx	ip
1000ab5a:	bf00      	nop
1000ab5c:	2000066d 	.word	0x2000066d

1000ab60 <__e15_is_critical_frame_period_veneer>:
1000ab60:	b401      	push	{r0}
1000ab62:	4802      	ldr	r0, [pc, #8]	; (1000ab6c <__e15_is_critical_frame_period_veneer+0xc>)
1000ab64:	4684      	mov	ip, r0
1000ab66:	bc01      	pop	{r0}
1000ab68:	4760      	bx	ip
1000ab6a:	bf00      	nop
1000ab6c:	20000699 	.word	0x20000699

1000ab70 <__hw_endpoint_reset_transfer_veneer>:
1000ab70:	b401      	push	{r0}
1000ab72:	4802      	ldr	r0, [pc, #8]	; (1000ab7c <__hw_endpoint_reset_transfer_veneer+0xc>)
1000ab74:	4684      	mov	ip, r0
1000ab76:	bc01      	pop	{r0}
1000ab78:	4760      	bx	ip
1000ab7a:	bf00      	nop
1000ab7c:	200007d9 	.word	0x200007d9

1000ab80 <___hw_endpoint_buffer_control_update32_veneer>:
1000ab80:	b401      	push	{r0}
1000ab82:	4802      	ldr	r0, [pc, #8]	; (1000ab8c <___hw_endpoint_buffer_control_update32_veneer+0xc>)
1000ab84:	4684      	mov	ip, r0
1000ab86:	bc01      	pop	{r0}
1000ab88:	4760      	bx	ip
1000ab8a:	bf00      	nop
1000ab8c:	200007e5 	.word	0x200007e5

Disassembly of section .data:

200000c0 <mutex_try_enter>:
200000c0:	0003      	movs	r3, r0
200000c2:	6800      	ldr	r0, [r0, #0]
200000c4:	f3ef 8c10 	mrs	ip, PRIMASK
200000c8:	b672      	cpsid	i
200000ca:	6802      	ldr	r2, [r0, #0]
200000cc:	2a00      	cmp	r2, #0
200000ce:	d0fc      	beq.n	200000ca <mutex_try_enter+0xa>
200000d0:	f3bf 8f5f 	dmb	sy
200000d4:	2204      	movs	r2, #4
200000d6:	569a      	ldrsb	r2, [r3, r2]
200000d8:	2a00      	cmp	r2, #0
200000da:	db0b      	blt.n	200000f4 <mutex_try_enter+0x34>
200000dc:	2900      	cmp	r1, #0
200000de:	d010      	beq.n	20000102 <mutex_try_enter+0x42>
200000e0:	600a      	str	r2, [r1, #0]
200000e2:	2000      	movs	r0, #0
200000e4:	681b      	ldr	r3, [r3, #0]
200000e6:	f3bf 8f5f 	dmb	sy
200000ea:	2200      	movs	r2, #0
200000ec:	601a      	str	r2, [r3, #0]
200000ee:	f38c 8810 	msr	PRIMASK, ip
200000f2:	4770      	bx	lr
200000f4:	22d0      	movs	r2, #208	; 0xd0
200000f6:	0612      	lsls	r2, r2, #24
200000f8:	7812      	ldrb	r2, [r2, #0]
200000fa:	b252      	sxtb	r2, r2
200000fc:	711a      	strb	r2, [r3, #4]
200000fe:	2001      	movs	r0, #1
20000100:	e7f0      	b.n	200000e4 <mutex_try_enter+0x24>
20000102:	2000      	movs	r0, #0
20000104:	e7ee      	b.n	200000e4 <mutex_try_enter+0x24>
	...

20000108 <mutex_enter_block_until>:
20000108:	b5f8      	push	{r3, r4, r5, r6, r7, lr}
2000010a:	46ce      	mov	lr, r9
2000010c:	4647      	mov	r7, r8
2000010e:	b580      	push	{r7, lr}
20000110:	0004      	movs	r4, r0
20000112:	0017      	movs	r7, r2
20000114:	4698      	mov	r8, r3
20000116:	6803      	ldr	r3, [r0, #0]
20000118:	2b00      	cmp	r3, #0
2000011a:	d020      	beq.n	2000015e <mutex_enter_block_until+0x56>
2000011c:	23d0      	movs	r3, #208	; 0xd0
2000011e:	061b      	lsls	r3, r3, #24
20000120:	781b      	ldrb	r3, [r3, #0]
20000122:	b25b      	sxtb	r3, r3
20000124:	4699      	mov	r9, r3
20000126:	6826      	ldr	r6, [r4, #0]
20000128:	f3ef 8c10 	mrs	ip, PRIMASK
2000012c:	b672      	cpsid	i
2000012e:	6835      	ldr	r5, [r6, #0]
20000130:	2d00      	cmp	r5, #0
20000132:	d0fc      	beq.n	2000012e <mutex_enter_block_until+0x26>
20000134:	f3bf 8f5f 	dmb	sy
20000138:	2504      	movs	r5, #4
2000013a:	5765      	ldrsb	r5, [r4, r5]
2000013c:	2d00      	cmp	r5, #0
2000013e:	db14      	blt.n	2000016a <mutex_enter_block_until+0x62>
20000140:	6823      	ldr	r3, [r4, #0]
20000142:	f3bf 8f5f 	dmb	sy
20000146:	2200      	movs	r2, #0
20000148:	601a      	str	r2, [r3, #0]
2000014a:	f38c 8810 	msr	PRIMASK, ip
2000014e:	0038      	movs	r0, r7
20000150:	4641      	mov	r1, r8
20000152:	f000 fcf9 	bl	20000b48 <__best_effort_wfe_or_timeout_veneer>
20000156:	2800      	cmp	r0, #0
20000158:	d0e5      	beq.n	20000126 <mutex_enter_block_until+0x1e>
2000015a:	2000      	movs	r0, #0
2000015c:	e00f      	b.n	2000017e <mutex_enter_block_until+0x76>
2000015e:	4b0a      	ldr	r3, [pc, #40]	; (20000188 <mutex_enter_block_until+0x80>)
20000160:	4a0a      	ldr	r2, [pc, #40]	; (2000018c <mutex_enter_block_until+0x84>)
20000162:	480b      	ldr	r0, [pc, #44]	; (20000190 <mutex_enter_block_until+0x88>)
20000164:	2185      	movs	r1, #133	; 0x85
20000166:	f000 fd0f 	bl	20000b88 <____assert_func_veneer>
2000016a:	464b      	mov	r3, r9
2000016c:	7123      	strb	r3, [r4, #4]
2000016e:	6823      	ldr	r3, [r4, #0]
20000170:	f3bf 8f5f 	dmb	sy
20000174:	2200      	movs	r2, #0
20000176:	601a      	str	r2, [r3, #0]
20000178:	f38c 8810 	msr	PRIMASK, ip
2000017c:	2001      	movs	r0, #1
2000017e:	bcc0      	pop	{r6, r7}
20000180:	46b9      	mov	r9, r7
20000182:	46b0      	mov	r8, r6
20000184:	bdf8      	pop	{r3, r4, r5, r6, r7, pc}
20000186:	46c0      	nop			; (mov r8, r8)
20000188:	1000b190 	.word	0x1000b190
2000018c:	1000b24c 	.word	0x1000b24c
20000190:	1000b158 	.word	0x1000b158

20000194 <mutex_try_enter_block_until>:
20000194:	b570      	push	{r4, r5, r6, lr}
20000196:	b082      	sub	sp, #8
20000198:	0006      	movs	r6, r0
2000019a:	0015      	movs	r5, r2
2000019c:	001c      	movs	r4, r3
2000019e:	a901      	add	r1, sp, #4
200001a0:	f7ff ff8e 	bl	200000c0 <mutex_try_enter>
200001a4:	2800      	cmp	r0, #0
200001a6:	d107      	bne.n	200001b8 <mutex_try_enter_block_until+0x24>
200001a8:	9b01      	ldr	r3, [sp, #4]
200001aa:	b25b      	sxtb	r3, r3
200001ac:	22d0      	movs	r2, #208	; 0xd0
200001ae:	0612      	lsls	r2, r2, #24
200001b0:	7812      	ldrb	r2, [r2, #0]
200001b2:	b252      	sxtb	r2, r2
200001b4:	4293      	cmp	r3, r2
200001b6:	d101      	bne.n	200001bc <mutex_try_enter_block_until+0x28>
200001b8:	b002      	add	sp, #8
200001ba:	bd70      	pop	{r4, r5, r6, pc}
200001bc:	002a      	movs	r2, r5
200001be:	0023      	movs	r3, r4
200001c0:	0030      	movs	r0, r6
200001c2:	f7ff ffa1 	bl	20000108 <mutex_enter_block_until>
200001c6:	e7f7      	b.n	200001b8 <mutex_try_enter_block_until+0x24>

200001c8 <mutex_enter_timeout_ms>:
200001c8:	b5f8      	push	{r3, r4, r5, r6, r7, lr}
200001ca:	0006      	movs	r6, r0
200001cc:	000f      	movs	r7, r1
200001ce:	f000 fcc3 	bl	20000b58 <__time_us_64_veneer>
200001d2:	0004      	movs	r4, r0
200001d4:	1e0d      	subs	r5, r1, #0
200001d6:	db12      	blt.n	200001fe <mutex_enter_timeout_ms+0x36>
200001d8:	22fa      	movs	r2, #250	; 0xfa
200001da:	0092      	lsls	r2, r2, #2
200001dc:	2300      	movs	r3, #0
200001de:	0038      	movs	r0, r7
200001e0:	2100      	movs	r1, #0
200001e2:	f000 fcc9 	bl	20000b78 <____wrap___aeabi_lmul_veneer>
200001e6:	0022      	movs	r2, r4
200001e8:	002b      	movs	r3, r5
200001ea:	1812      	adds	r2, r2, r0
200001ec:	414b      	adcs	r3, r1
200001ee:	2b00      	cmp	r3, #0
200001f0:	db0b      	blt.n	2000020a <mutex_enter_timeout_ms+0x42>
200001f2:	2b00      	cmp	r3, #0
200001f4:	db0d      	blt.n	20000212 <mutex_enter_timeout_ms+0x4a>
200001f6:	0030      	movs	r0, r6
200001f8:	f7ff ff86 	bl	20000108 <mutex_enter_block_until>
200001fc:	bdf8      	pop	{r3, r4, r5, r6, r7, pc}
200001fe:	4b08      	ldr	r3, [pc, #32]	; (20000220 <mutex_enter_timeout_ms+0x58>)
20000200:	4a08      	ldr	r2, [pc, #32]	; (20000224 <mutex_enter_timeout_ms+0x5c>)
20000202:	4809      	ldr	r0, [pc, #36]	; (20000228 <mutex_enter_timeout_ms+0x60>)
20000204:	213f      	movs	r1, #63	; 0x3f
20000206:	f000 fcbf 	bl	20000b88 <____assert_func_veneer>
2000020a:	2201      	movs	r2, #1
2000020c:	4252      	negs	r2, r2
2000020e:	4b07      	ldr	r3, [pc, #28]	; (2000022c <mutex_enter_timeout_ms+0x64>)
20000210:	e7ef      	b.n	200001f2 <mutex_enter_timeout_ms+0x2a>
20000212:	4b03      	ldr	r3, [pc, #12]	; (20000220 <mutex_enter_timeout_ms+0x58>)
20000214:	4a03      	ldr	r2, [pc, #12]	; (20000224 <mutex_enter_timeout_ms+0x5c>)
20000216:	4804      	ldr	r0, [pc, #16]	; (20000228 <mutex_enter_timeout_ms+0x60>)
20000218:	213f      	movs	r1, #63	; 0x3f
2000021a:	f000 fcb5 	bl	20000b88 <____assert_func_veneer>
2000021e:	46c0      	nop			; (mov r8, r8)
20000220:	1000b1a4 	.word	0x1000b1a4
20000224:	1000b264 	.word	0x1000b264
20000228:	1000b1c0 	.word	0x1000b1c0
2000022c:	7fffffff 	.word	0x7fffffff

20000230 <mutex_exit>:
20000230:	b510      	push	{r4, lr}
20000232:	6802      	ldr	r2, [r0, #0]
20000234:	f3ef 8110 	mrs	r1, PRIMASK
20000238:	b672      	cpsid	i
2000023a:	6813      	ldr	r3, [r2, #0]
2000023c:	2b00      	cmp	r3, #0
2000023e:	d0fc      	beq.n	2000023a <mutex_exit+0xa>
20000240:	f3bf 8f5f 	dmb	sy
20000244:	2304      	movs	r3, #4
20000246:	56c3      	ldrsb	r3, [r0, r3]
20000248:	2b00      	cmp	r3, #0
2000024a:	db0a      	blt.n	20000262 <mutex_exit+0x32>
2000024c:	23ff      	movs	r3, #255	; 0xff
2000024e:	7103      	strb	r3, [r0, #4]
20000250:	6803      	ldr	r3, [r0, #0]
20000252:	f3bf 8f5f 	dmb	sy
20000256:	2200      	movs	r2, #0
20000258:	601a      	str	r2, [r3, #0]
2000025a:	f381 8810 	msr	PRIMASK, r1
2000025e:	bf40      	sev
20000260:	bd10      	pop	{r4, pc}
20000262:	4b03      	ldr	r3, [pc, #12]	; (20000270 <mutex_exit+0x40>)
20000264:	4a03      	ldr	r2, [pc, #12]	; (20000274 <mutex_exit+0x44>)
20000266:	4804      	ldr	r0, [pc, #16]	; (20000278 <mutex_exit+0x48>)
20000268:	21b4      	movs	r1, #180	; 0xb4
2000026a:	f000 fc8d 	bl	20000b88 <____assert_func_veneer>
2000026e:	46c0      	nop			; (mov r8, r8)
20000270:	1000b208 	.word	0x1000b208
20000274:	1000b240 	.word	0x1000b240
20000278:	1000b158 	.word	0x1000b158

2000027c <flash_init_boot2_copyout>:
2000027c:	4b09      	ldr	r3, [pc, #36]	; (200002a4 <flash_init_boot2_copyout+0x28>)
2000027e:	781b      	ldrb	r3, [r3, #0]
20000280:	2b00      	cmp	r3, #0
20000282:	d008      	beq.n	20000296 <flash_init_boot2_copyout+0x1a>
20000284:	e00c      	b.n	200002a0 <flash_init_boot2_copyout+0x24>
20000286:	009a      	lsls	r2, r3, #2
20000288:	2180      	movs	r1, #128	; 0x80
2000028a:	0549      	lsls	r1, r1, #21
2000028c:	1851      	adds	r1, r2, r1
2000028e:	6808      	ldr	r0, [r1, #0]
20000290:	4905      	ldr	r1, [pc, #20]	; (200002a8 <flash_init_boot2_copyout+0x2c>)
20000292:	5050      	str	r0, [r2, r1]
20000294:	3301      	adds	r3, #1
20000296:	2b3f      	cmp	r3, #63	; 0x3f
20000298:	ddf5      	ble.n	20000286 <flash_init_boot2_copyout+0xa>
2000029a:	4b02      	ldr	r3, [pc, #8]	; (200002a4 <flash_init_boot2_copyout+0x28>)
2000029c:	2201      	movs	r2, #1
2000029e:	701a      	strb	r2, [r3, #0]
200002a0:	4770      	bx	lr
200002a2:	46c0      	nop			; (mov r8, r8)
200002a4:	20001f5b 	.word	0x20001f5b
200002a8:	20001720 	.word	0x20001720

200002ac <flash_enable_xip_via_boot2>:
200002ac:	b510      	push	{r4, lr}
200002ae:	4b02      	ldr	r3, [pc, #8]	; (200002b8 <flash_enable_xip_via_boot2+0xc>)
200002b0:	3301      	adds	r3, #1
200002b2:	4798      	blx	r3
200002b4:	bd10      	pop	{r4, pc}
200002b6:	46c0      	nop			; (mov r8, r8)
200002b8:	20001720 	.word	0x20001720

200002bc <flash_cs_force>:
200002bc:	2800      	cmp	r0, #0
200002be:	d00a      	beq.n	200002d6 <flash_cs_force+0x1a>
200002c0:	2303      	movs	r3, #3
200002c2:	021b      	lsls	r3, r3, #8
200002c4:	4a05      	ldr	r2, [pc, #20]	; (200002dc <flash_cs_force+0x20>)
200002c6:	6812      	ldr	r2, [r2, #0]
200002c8:	4053      	eors	r3, r2
200002ca:	22c0      	movs	r2, #192	; 0xc0
200002cc:	0092      	lsls	r2, r2, #2
200002ce:	4013      	ands	r3, r2
200002d0:	4a03      	ldr	r2, [pc, #12]	; (200002e0 <flash_cs_force+0x24>)
200002d2:	6013      	str	r3, [r2, #0]
200002d4:	4770      	bx	lr
200002d6:	2302      	movs	r3, #2
200002d8:	e7f3      	b.n	200002c2 <flash_cs_force+0x6>
200002da:	46c0      	nop			; (mov r8, r8)
200002dc:	4001800c 	.word	0x4001800c
200002e0:	4001900c 	.word	0x4001900c

200002e4 <flash_do_cmd>:
200002e4:	b5f0      	push	{r4, r5, r6, r7, lr}
200002e6:	46d6      	mov	lr, sl
200002e8:	464f      	mov	r7, r9
200002ea:	4646      	mov	r6, r8
200002ec:	b5c0      	push	{r6, r7, lr}
200002ee:	0007      	movs	r7, r0
200002f0:	000e      	movs	r6, r1
200002f2:	0015      	movs	r5, r2
200002f4:	2318      	movs	r3, #24
200002f6:	469a      	mov	sl, r3
200002f8:	881b      	ldrh	r3, [r3, #0]
200002fa:	2214      	movs	r2, #20
200002fc:	4690      	mov	r8, r2
200002fe:	8810      	ldrh	r0, [r2, #0]
20000300:	4928      	ldr	r1, [pc, #160]	; (200003a4 <flash_do_cmd+0xc0>)
20000302:	4798      	blx	r3
20000304:	4681      	mov	r9, r0
20000306:	4653      	mov	r3, sl
20000308:	881b      	ldrh	r3, [r3, #0]
2000030a:	4642      	mov	r2, r8
2000030c:	8810      	ldrh	r0, [r2, #0]
2000030e:	4926      	ldr	r1, [pc, #152]	; (200003a8 <flash_do_cmd+0xc4>)
20000310:	4798      	blx	r3
20000312:	0004      	movs	r4, r0
20000314:	4653      	mov	r3, sl
20000316:	881b      	ldrh	r3, [r3, #0]
20000318:	4642      	mov	r2, r8
2000031a:	8810      	ldrh	r0, [r2, #0]
2000031c:	4923      	ldr	r1, [pc, #140]	; (200003ac <flash_do_cmd+0xc8>)
2000031e:	4798      	blx	r3
20000320:	4680      	mov	r8, r0
20000322:	464b      	mov	r3, r9
20000324:	2b00      	cmp	r3, #0
20000326:	d00c      	beq.n	20000342 <flash_do_cmd+0x5e>
20000328:	2c00      	cmp	r4, #0
2000032a:	d00a      	beq.n	20000342 <flash_do_cmd+0x5e>
2000032c:	2800      	cmp	r0, #0
2000032e:	d008      	beq.n	20000342 <flash_do_cmd+0x5e>
20000330:	f7ff ffa4 	bl	2000027c <flash_init_boot2_copyout>
20000334:	47c8      	blx	r9
20000336:	47a0      	blx	r4
20000338:	2000      	movs	r0, #0
2000033a:	f7ff ffbf 	bl	200002bc <flash_cs_force>
2000033e:	002a      	movs	r2, r5
20000340:	e00f      	b.n	20000362 <flash_do_cmd+0x7e>
20000342:	4b1b      	ldr	r3, [pc, #108]	; (200003b0 <flash_do_cmd+0xcc>)
20000344:	4a1b      	ldr	r2, [pc, #108]	; (200003b4 <flash_do_cmd+0xd0>)
20000346:	481c      	ldr	r0, [pc, #112]	; (200003b8 <flash_do_cmd+0xd4>)
20000348:	2180      	movs	r1, #128	; 0x80
2000034a:	f000 fc1d 	bl	20000b88 <____assert_func_veneer>
2000034e:	2b00      	cmp	r3, #0
20000350:	d007      	beq.n	20000362 <flash_do_cmd+0x7e>
20000352:	2a00      	cmp	r2, #0
20000354:	d005      	beq.n	20000362 <flash_do_cmd+0x7e>
20000356:	23c0      	movs	r3, #192	; 0xc0
20000358:	055b      	lsls	r3, r3, #21
2000035a:	6e1b      	ldr	r3, [r3, #96]	; 0x60
2000035c:	7033      	strb	r3, [r6, #0]
2000035e:	3a01      	subs	r2, #1
20000360:	3601      	adds	r6, #1
20000362:	002b      	movs	r3, r5
20000364:	4313      	orrs	r3, r2
20000366:	d012      	beq.n	2000038e <flash_do_cmd+0xaa>
20000368:	23c0      	movs	r3, #192	; 0xc0
2000036a:	055b      	lsls	r3, r3, #21
2000036c:	6a9c      	ldr	r4, [r3, #40]	; 0x28
2000036e:	2308      	movs	r3, #8
20000370:	4023      	ands	r3, r4
20000372:	07a4      	lsls	r4, r4, #30
20000374:	d5eb      	bpl.n	2000034e <flash_do_cmd+0x6a>
20000376:	2d00      	cmp	r5, #0
20000378:	d0e9      	beq.n	2000034e <flash_do_cmd+0x6a>
2000037a:	1b51      	subs	r1, r2, r5
2000037c:	290d      	cmp	r1, #13
2000037e:	d8e6      	bhi.n	2000034e <flash_do_cmd+0x6a>
20000380:	7838      	ldrb	r0, [r7, #0]
20000382:	21c0      	movs	r1, #192	; 0xc0
20000384:	0549      	lsls	r1, r1, #21
20000386:	6608      	str	r0, [r1, #96]	; 0x60
20000388:	3d01      	subs	r5, #1
2000038a:	3701      	adds	r7, #1
2000038c:	e7df      	b.n	2000034e <flash_do_cmd+0x6a>
2000038e:	2001      	movs	r0, #1
20000390:	f7ff ff94 	bl	200002bc <flash_cs_force>
20000394:	47c0      	blx	r8
20000396:	f7ff ff89 	bl	200002ac <flash_enable_xip_via_boot2>
2000039a:	bce0      	pop	{r5, r6, r7}
2000039c:	46ba      	mov	sl, r7
2000039e:	46b1      	mov	r9, r6
200003a0:	46a8      	mov	r8, r5
200003a2:	bdf0      	pop	{r4, r5, r6, r7, pc}
200003a4:	00004649 	.word	0x00004649
200003a8:	00005845 	.word	0x00005845
200003ac:	00004346 	.word	0x00004346
200003b0:	1000c084 	.word	0x1000c084
200003b4:	1000c0c4 	.word	0x1000c0c4
200003b8:	1000bf94 	.word	0x1000bf94

200003bc <reset_non_control_endpoints>:
200003bc:	b510      	push	{r4, lr}
200003be:	2300      	movs	r3, #0
200003c0:	e008      	b.n	200003d4 <reset_non_control_endpoints+0x18>
200003c2:	3301      	adds	r3, #1
200003c4:	00da      	lsls	r2, r3, #3
200003c6:	2100      	movs	r1, #0
200003c8:	4808      	ldr	r0, [pc, #32]	; (200003ec <reset_non_control_endpoints+0x30>)
200003ca:	5011      	str	r1, [r2, r0]
200003cc:	4684      	mov	ip, r0
200003ce:	4462      	add	r2, ip
200003d0:	6051      	str	r1, [r2, #4]
200003d2:	b2db      	uxtb	r3, r3
200003d4:	2b0e      	cmp	r3, #14
200003d6:	d9f4      	bls.n	200003c2 <reset_non_control_endpoints+0x6>
200003d8:	4805      	ldr	r0, [pc, #20]	; (200003f0 <reset_non_control_endpoints+0x34>)
200003da:	22f0      	movs	r2, #240	; 0xf0
200003dc:	0092      	lsls	r2, r2, #2
200003de:	2100      	movs	r1, #0
200003e0:	f000 fb9a 	bl	20000b18 <____wrap_memset_veneer>
200003e4:	4b03      	ldr	r3, [pc, #12]	; (200003f4 <reset_non_control_endpoints+0x38>)
200003e6:	4a04      	ldr	r2, [pc, #16]	; (200003f8 <reset_non_control_endpoints+0x3c>)
200003e8:	601a      	str	r2, [r3, #0]
200003ea:	bd10      	pop	{r4, pc}
200003ec:	50100000 	.word	0x50100000
200003f0:	20001908 	.word	0x20001908
200003f4:	20001ccc 	.word	0x20001ccc
200003f8:	50100180 	.word	0x50100180

200003fc <hw_handle_buff_status>:
200003fc:	b5f0      	push	{r4, r5, r6, r7, lr}
200003fe:	46ce      	mov	lr, r9
20000400:	4647      	mov	r7, r8
20000402:	b580      	push	{r7, lr}
20000404:	b085      	sub	sp, #20
20000406:	4b23      	ldr	r3, [pc, #140]	; (20000494 <hw_handle_buff_status+0x98>)
20000408:	6d9f      	ldr	r7, [r3, #88]	; 0x58
2000040a:	2400      	movs	r4, #0
2000040c:	2601      	movs	r6, #1
2000040e:	e003      	b.n	20000418 <hw_handle_buff_status+0x1c>
20000410:	43b7      	bics	r7, r6
20000412:	0076      	lsls	r6, r6, #1
20000414:	3401      	adds	r4, #1
20000416:	b2e4      	uxtb	r4, r4
20000418:	2f00      	cmp	r7, #0
2000041a:	d036      	beq.n	2000048a <hw_handle_buff_status+0x8e>
2000041c:	2c1f      	cmp	r4, #31
2000041e:	d834      	bhi.n	2000048a <hw_handle_buff_status+0x8e>
20000420:	423e      	tst	r6, r7
20000422:	d0f6      	beq.n	20000412 <hw_handle_buff_status+0x16>
20000424:	4b1c      	ldr	r3, [pc, #112]	; (20000498 <hw_handle_buff_status+0x9c>)
20000426:	659e      	str	r6, [r3, #88]	; 0x58
20000428:	0863      	lsrs	r3, r4, #1
2000042a:	4699      	mov	r9, r3
2000042c:	2301      	movs	r3, #1
2000042e:	4063      	eors	r3, r4
20000430:	2201      	movs	r2, #1
20000432:	401a      	ands	r2, r3
20000434:	4690      	mov	r8, r2
20000436:	464b      	mov	r3, r9
20000438:	005d      	lsls	r5, r3, #1
2000043a:	4445      	add	r5, r8
2000043c:	016d      	lsls	r5, r5, #5
2000043e:	4b17      	ldr	r3, [pc, #92]	; (2000049c <hw_handle_buff_status+0xa0>)
20000440:	18ed      	adds	r5, r5, r3
20000442:	0028      	movs	r0, r5
20000444:	f000 fa3e 	bl	200008c4 <hw_endpoint_xfer_continue>
20000448:	2800      	cmp	r0, #0
2000044a:	d0e1      	beq.n	20000410 <hw_handle_buff_status+0x14>
2000044c:	4a13      	ldr	r2, [pc, #76]	; (2000049c <hw_handle_buff_status+0xa0>)
2000044e:	464b      	mov	r3, r9
20000450:	005b      	lsls	r3, r3, #1
20000452:	4443      	add	r3, r8
20000454:	015b      	lsls	r3, r3, #5
20000456:	18d3      	adds	r3, r2, r3
20000458:	789a      	ldrb	r2, [r3, #2]
2000045a:	4691      	mov	r9, r2
2000045c:	8adb      	ldrh	r3, [r3, #22]
2000045e:	4698      	mov	r8, r3
20000460:	220c      	movs	r2, #12
20000462:	2100      	movs	r1, #0
20000464:	a801      	add	r0, sp, #4
20000466:	f000 fb57 	bl	20000b18 <____wrap_memset_veneer>
2000046a:	2307      	movs	r3, #7
2000046c:	466a      	mov	r2, sp
2000046e:	7153      	strb	r3, [r2, #5]
20000470:	466b      	mov	r3, sp
20000472:	464a      	mov	r2, r9
20000474:	721a      	strb	r2, [r3, #8]
20000476:	4643      	mov	r3, r8
20000478:	9303      	str	r3, [sp, #12]
2000047a:	2101      	movs	r1, #1
2000047c:	a801      	add	r0, sp, #4
2000047e:	f000 fa49 	bl	20000914 <dcd_event_handler>
20000482:	0028      	movs	r0, r5
20000484:	f000 f9a8 	bl	200007d8 <hw_endpoint_reset_transfer>
20000488:	e7c2      	b.n	20000410 <hw_handle_buff_status+0x14>
2000048a:	b005      	add	sp, #20
2000048c:	bcc0      	pop	{r6, r7}
2000048e:	46b9      	mov	r9, r7
20000490:	46b0      	mov	r8, r6
20000492:	bdf0      	pop	{r4, r5, r6, r7, pc}
20000494:	50110000 	.word	0x50110000
20000498:	50113000 	.word	0x50113000
2000049c:	200018c8 	.word	0x200018c8

200004a0 <dcd_rp2040_irq>:
200004a0:	b570      	push	{r4, r5, r6, lr}
200004a2:	b084      	sub	sp, #16
200004a4:	4a68      	ldr	r2, [pc, #416]	; (20000648 <dcd_rp2040_irq+0x1a8>)
200004a6:	2398      	movs	r3, #152	; 0x98
200004a8:	58d5      	ldr	r5, [r2, r3]
200004aa:	2380      	movs	r3, #128	; 0x80
200004ac:	029b      	lsls	r3, r3, #10
200004ae:	002c      	movs	r4, r5
200004b0:	401c      	ands	r4, r3
200004b2:	421d      	tst	r5, r3
200004b4:	d04b      	beq.n	2000054e <dcd_rp2040_irq+0xae>
200004b6:	4b65      	ldr	r3, [pc, #404]	; (2000064c <dcd_rp2040_irq+0x1ac>)
200004b8:	6a9a      	ldr	r2, [r3, #40]	; 0x28
200004ba:	4b65      	ldr	r3, [pc, #404]	; (20000650 <dcd_rp2040_irq+0x1b0>)
200004bc:	601a      	str	r2, [r3, #0]
200004be:	2400      	movs	r4, #0
200004c0:	2100      	movs	r1, #0
200004c2:	e009      	b.n	200004d8 <dcd_rp2040_irq+0x38>
200004c4:	4b63      	ldr	r3, [pc, #396]	; (20000654 <dcd_rp2040_irq+0x1b4>)
200004c6:	185b      	adds	r3, r3, r1
200004c8:	333c      	adds	r3, #60	; 0x3c
200004ca:	2200      	movs	r2, #0
200004cc:	701a      	strb	r2, [r3, #0]
200004ce:	f000 f9b5 	bl	2000083c <hw_endpoint_start_next_buffer>
200004d2:	0031      	movs	r1, r6
200004d4:	3401      	adds	r4, #1
200004d6:	b2e4      	uxtb	r4, r4
200004d8:	2c0f      	cmp	r4, #15
200004da:	d818      	bhi.n	2000050e <dcd_rp2040_irq+0x6e>
200004dc:	01a6      	lsls	r6, r4, #6
200004de:	0030      	movs	r0, r6
200004e0:	3020      	adds	r0, #32
200004e2:	4b5c      	ldr	r3, [pc, #368]	; (20000654 <dcd_rp2040_irq+0x1b4>)
200004e4:	18c0      	adds	r0, r0, r3
200004e6:	199b      	adds	r3, r3, r6
200004e8:	333b      	adds	r3, #59	; 0x3b
200004ea:	781b      	ldrb	r3, [r3, #0]
200004ec:	2b02      	cmp	r3, #2
200004ee:	d1f1      	bne.n	200004d4 <dcd_rp2040_irq+0x34>
200004f0:	4b58      	ldr	r3, [pc, #352]	; (20000654 <dcd_rp2040_irq+0x1b4>)
200004f2:	199b      	adds	r3, r3, r6
200004f4:	333a      	adds	r3, #58	; 0x3a
200004f6:	781e      	ldrb	r6, [r3, #0]
200004f8:	2e00      	cmp	r6, #0
200004fa:	d0eb      	beq.n	200004d4 <dcd_rp2040_irq+0x34>
200004fc:	4b55      	ldr	r3, [pc, #340]	; (20000654 <dcd_rp2040_irq+0x1b4>)
200004fe:	01a1      	lsls	r1, r4, #6
20000500:	185b      	adds	r3, r3, r1
20000502:	333c      	adds	r3, #60	; 0x3c
20000504:	781b      	ldrb	r3, [r3, #0]
20000506:	2b00      	cmp	r3, #0
20000508:	d1dc      	bne.n	200004c4 <dcd_rp2040_irq+0x24>
2000050a:	0031      	movs	r1, r6
2000050c:	e7e2      	b.n	200004d4 <dcd_rp2040_irq+0x34>
2000050e:	2900      	cmp	r1, #0
20000510:	d108      	bne.n	20000524 <dcd_rp2040_irq+0x84>
20000512:	4b51      	ldr	r3, [pc, #324]	; (20000658 <dcd_rp2040_irq+0x1b8>)
20000514:	781b      	ldrb	r3, [r3, #0]
20000516:	2b00      	cmp	r3, #0
20000518:	d104      	bne.n	20000524 <dcd_rp2040_irq+0x84>
2000051a:	4a50      	ldr	r2, [pc, #320]	; (2000065c <dcd_rp2040_irq+0x1bc>)
2000051c:	3390      	adds	r3, #144	; 0x90
2000051e:	2180      	movs	r1, #128	; 0x80
20000520:	0289      	lsls	r1, r1, #10
20000522:	50d1      	str	r1, [r2, r3]
20000524:	4b48      	ldr	r3, [pc, #288]	; (20000648 <dcd_rp2040_irq+0x1a8>)
20000526:	6c9c      	ldr	r4, [r3, #72]	; 0x48
20000528:	0564      	lsls	r4, r4, #21
2000052a:	0d64      	lsrs	r4, r4, #21
2000052c:	220c      	movs	r2, #12
2000052e:	2100      	movs	r1, #0
20000530:	a801      	add	r0, sp, #4
20000532:	f000 faf1 	bl	20000b18 <____wrap_memset_veneer>
20000536:	2300      	movs	r3, #0
20000538:	466a      	mov	r2, sp
2000053a:	7113      	strb	r3, [r2, #4]
2000053c:	3303      	adds	r3, #3
2000053e:	7153      	strb	r3, [r2, #5]
20000540:	9402      	str	r4, [sp, #8]
20000542:	2101      	movs	r1, #1
20000544:	a801      	add	r0, sp, #4
20000546:	f000 f9e5 	bl	20000914 <dcd_event_handler>
2000054a:	2480      	movs	r4, #128	; 0x80
2000054c:	02a4      	lsls	r4, r4, #10
2000054e:	06eb      	lsls	r3, r5, #27
20000550:	d409      	bmi.n	20000566 <dcd_rp2040_irq+0xc6>
20000552:	03eb      	lsls	r3, r5, #15
20000554:	d529      	bpl.n	200005aa <dcd_rp2040_irq+0x10a>
20000556:	2380      	movs	r3, #128	; 0x80
20000558:	025b      	lsls	r3, r3, #9
2000055a:	431c      	orrs	r4, r3
2000055c:	ab01      	add	r3, sp, #4
2000055e:	4a40      	ldr	r2, [pc, #256]	; (20000660 <dcd_rp2040_irq+0x1c0>)
20000560:	801a      	strh	r2, [r3, #0]
20000562:	2600      	movs	r6, #0
20000564:	e00b      	b.n	2000057e <dcd_rp2040_irq+0xde>
20000566:	2310      	movs	r3, #16
20000568:	431c      	orrs	r4, r3
2000056a:	f7ff ff47 	bl	200003fc <hw_handle_buff_status>
2000056e:	e7f0      	b.n	20000552 <dcd_rp2040_irq+0xb2>
20000570:	ab01      	add	r3, sp, #4
20000572:	5d98      	ldrb	r0, [r3, r6]
20000574:	f000 fad8 	bl	20000b28 <__hw_endpoint_get_by_addr_veneer>
20000578:	2301      	movs	r3, #1
2000057a:	70c3      	strb	r3, [r0, #3]
2000057c:	3601      	adds	r6, #1
2000057e:	2e01      	cmp	r6, #1
20000580:	d9f6      	bls.n	20000570 <dcd_rp2040_irq+0xd0>
20000582:	ae01      	add	r6, sp, #4
20000584:	220c      	movs	r2, #12
20000586:	2100      	movs	r1, #0
20000588:	0030      	movs	r0, r6
2000058a:	f000 fac5 	bl	20000b18 <____wrap_memset_veneer>
2000058e:	2306      	movs	r3, #6
20000590:	7073      	strb	r3, [r6, #1]
20000592:	4a34      	ldr	r2, [pc, #208]	; (20000664 <dcd_rp2040_irq+0x1c4>)
20000594:	ab02      	add	r3, sp, #8
20000596:	ca03      	ldmia	r2!, {r0, r1}
20000598:	c303      	stmia	r3!, {r0, r1}
2000059a:	2101      	movs	r1, #1
2000059c:	0030      	movs	r0, r6
2000059e:	f000 f9b9 	bl	20000914 <dcd_event_handler>
200005a2:	4b2e      	ldr	r3, [pc, #184]	; (2000065c <dcd_rp2040_irq+0x1bc>)
200005a4:	2280      	movs	r2, #128	; 0x80
200005a6:	0292      	lsls	r2, r2, #10
200005a8:	651a      	str	r2, [r3, #80]	; 0x50
200005aa:	04eb      	lsls	r3, r5, #19
200005ac:	d407      	bmi.n	200005be <dcd_rp2040_irq+0x11e>
200005ae:	046b      	lsls	r3, r5, #17
200005b0:	d41e      	bmi.n	200005f0 <dcd_rp2040_irq+0x150>
200005b2:	042b      	lsls	r3, r5, #16
200005b4:	d42f      	bmi.n	20000616 <dcd_rp2040_irq+0x176>
200005b6:	42ac      	cmp	r4, r5
200005b8:	d141      	bne.n	2000063e <dcd_rp2040_irq+0x19e>
200005ba:	b004      	add	sp, #16
200005bc:	bd70      	pop	{r4, r5, r6, pc}
200005be:	2380      	movs	r3, #128	; 0x80
200005c0:	015b      	lsls	r3, r3, #5
200005c2:	431c      	orrs	r4, r3
200005c4:	4b20      	ldr	r3, [pc, #128]	; (20000648 <dcd_rp2040_irq+0x1a8>)
200005c6:	2200      	movs	r2, #0
200005c8:	601a      	str	r2, [r3, #0]
200005ca:	f7ff fef7 	bl	200003bc <reset_non_control_endpoints>
200005ce:	ae01      	add	r6, sp, #4
200005d0:	220c      	movs	r2, #12
200005d2:	2100      	movs	r1, #0
200005d4:	0030      	movs	r0, r6
200005d6:	f000 fa9f 	bl	20000b18 <____wrap_memset_veneer>
200005da:	2301      	movs	r3, #1
200005dc:	7073      	strb	r3, [r6, #1]
200005de:	2101      	movs	r1, #1
200005e0:	0030      	movs	r0, r6
200005e2:	f000 f997 	bl	20000914 <dcd_event_handler>
200005e6:	4b1d      	ldr	r3, [pc, #116]	; (2000065c <dcd_rp2040_irq+0x1bc>)
200005e8:	2280      	movs	r2, #128	; 0x80
200005ea:	0312      	lsls	r2, r2, #12
200005ec:	651a      	str	r2, [r3, #80]	; 0x50
200005ee:	e7de      	b.n	200005ae <dcd_rp2040_irq+0x10e>
200005f0:	2380      	movs	r3, #128	; 0x80
200005f2:	01db      	lsls	r3, r3, #7
200005f4:	431c      	orrs	r4, r3
200005f6:	ae01      	add	r6, sp, #4
200005f8:	220c      	movs	r2, #12
200005fa:	2100      	movs	r1, #0
200005fc:	0030      	movs	r0, r6
200005fe:	f000 fa8b 	bl	20000b18 <____wrap_memset_veneer>
20000602:	2304      	movs	r3, #4
20000604:	7073      	strb	r3, [r6, #1]
20000606:	2101      	movs	r1, #1
20000608:	0030      	movs	r0, r6
2000060a:	f000 f983 	bl	20000914 <dcd_event_handler>
2000060e:	4b13      	ldr	r3, [pc, #76]	; (2000065c <dcd_rp2040_irq+0x1bc>)
20000610:	2210      	movs	r2, #16
20000612:	651a      	str	r2, [r3, #80]	; 0x50
20000614:	e7cd      	b.n	200005b2 <dcd_rp2040_irq+0x112>
20000616:	2380      	movs	r3, #128	; 0x80
20000618:	021b      	lsls	r3, r3, #8
2000061a:	431c      	orrs	r4, r3
2000061c:	ae01      	add	r6, sp, #4
2000061e:	220c      	movs	r2, #12
20000620:	2100      	movs	r1, #0
20000622:	0030      	movs	r0, r6
20000624:	f000 fa78 	bl	20000b18 <____wrap_memset_veneer>
20000628:	2305      	movs	r3, #5
2000062a:	7073      	strb	r3, [r6, #1]
2000062c:	2101      	movs	r1, #1
2000062e:	0030      	movs	r0, r6
20000630:	f000 f970 	bl	20000914 <dcd_event_handler>
20000634:	4b09      	ldr	r3, [pc, #36]	; (2000065c <dcd_rp2040_irq+0x1bc>)
20000636:	2280      	movs	r2, #128	; 0x80
20000638:	0112      	lsls	r2, r2, #4
2000063a:	651a      	str	r2, [r3, #80]	; 0x50
2000063c:	e7bb      	b.n	200005b6 <dcd_rp2040_irq+0x116>
2000063e:	0021      	movs	r1, r4
20000640:	4069      	eors	r1, r5
20000642:	4809      	ldr	r0, [pc, #36]	; (20000668 <dcd_rp2040_irq+0x1c8>)
20000644:	f000 fa78 	bl	20000b38 <__panic_veneer>
20000648:	50110000 	.word	0x50110000
2000064c:	40054000 	.word	0x40054000
20000650:	200018c0 	.word	0x200018c0
20000654:	200018c8 	.word	0x200018c8
20000658:	20001f5a 	.word	0x20001f5a
2000065c:	50113000 	.word	0x50113000
20000660:	ffff8000 	.word	0xffff8000
20000664:	50100000 	.word	0x50100000
20000668:	1000c18c 	.word	0x1000c18c

2000066c <e15_is_bulkin_ep>:
2000066c:	4b09      	ldr	r3, [pc, #36]	; (20000694 <e15_is_bulkin_ep+0x28>)
2000066e:	6c1b      	ldr	r3, [r3, #64]	; 0x40
20000670:	079b      	lsls	r3, r3, #30
20000672:	d40c      	bmi.n	2000068e <e15_is_bulkin_ep+0x22>
20000674:	7883      	ldrb	r3, [r0, #2]
20000676:	09db      	lsrs	r3, r3, #7
20000678:	2b01      	cmp	r3, #1
2000067a:	d001      	beq.n	20000680 <e15_is_bulkin_ep+0x14>
2000067c:	2000      	movs	r0, #0
2000067e:	e007      	b.n	20000690 <e15_is_bulkin_ep+0x24>
20000680:	7ec3      	ldrb	r3, [r0, #27]
20000682:	2b02      	cmp	r3, #2
20000684:	d001      	beq.n	2000068a <e15_is_bulkin_ep+0x1e>
20000686:	2000      	movs	r0, #0
20000688:	e002      	b.n	20000690 <e15_is_bulkin_ep+0x24>
2000068a:	2001      	movs	r0, #1
2000068c:	e000      	b.n	20000690 <e15_is_bulkin_ep+0x24>
2000068e:	2000      	movs	r0, #0
20000690:	4770      	bx	lr
20000692:	46c0      	nop			; (mov r8, r8)
20000694:	50110000 	.word	0x50110000

20000698 <e15_is_critical_frame_period>:
20000698:	b510      	push	{r4, lr}
2000069a:	f7ff ffe7 	bl	2000066c <e15_is_bulkin_ep>
2000069e:	2800      	cmp	r0, #0
200006a0:	d009      	beq.n	200006b6 <e15_is_critical_frame_period+0x1e>
200006a2:	4b06      	ldr	r3, [pc, #24]	; (200006bc <e15_is_critical_frame_period+0x24>)
200006a4:	6a9b      	ldr	r3, [r3, #40]	; 0x28
200006a6:	4a06      	ldr	r2, [pc, #24]	; (200006c0 <e15_is_critical_frame_period+0x28>)
200006a8:	6812      	ldr	r2, [r2, #0]
200006aa:	1a9b      	subs	r3, r3, r2
200006ac:	4a05      	ldr	r2, [pc, #20]	; (200006c4 <e15_is_critical_frame_period+0x2c>)
200006ae:	4694      	mov	ip, r2
200006b0:	4463      	add	r3, ip
200006b2:	2bc6      	cmp	r3, #198	; 0xc6
200006b4:	d800      	bhi.n	200006b8 <e15_is_critical_frame_period+0x20>
200006b6:	bd10      	pop	{r4, pc}
200006b8:	2000      	movs	r0, #0
200006ba:	e7fc      	b.n	200006b6 <e15_is_critical_frame_period+0x1e>
200006bc:	40054000 	.word	0x40054000
200006c0:	200018c0 	.word	0x200018c0
200006c4:	fffffce0 	.word	0xfffffce0

200006c8 <prepare_ep_buffer>:
200006c8:	b5f8      	push	{r3, r4, r5, r6, r7, lr}
200006ca:	0004      	movs	r4, r0
200006cc:	000f      	movs	r7, r1
200006ce:	8a83      	ldrh	r3, [r0, #20]
200006d0:	8b02      	ldrh	r2, [r0, #24]
200006d2:	1c1e      	adds	r6, r3, #0
200006d4:	4293      	cmp	r3, r2
200006d6:	d900      	bls.n	200006da <prepare_ep_buffer+0x12>
200006d8:	1c16      	adds	r6, r2, #0
200006da:	b2b6      	uxth	r6, r6
200006dc:	1b9b      	subs	r3, r3, r6
200006de:	82a3      	strh	r3, [r4, #20]
200006e0:	2280      	movs	r2, #128	; 0x80
200006e2:	00d2      	lsls	r2, r2, #3
200006e4:	4332      	orrs	r2, r6
200006e6:	78e3      	ldrb	r3, [r4, #3]
200006e8:	2b00      	cmp	r3, #0
200006ea:	d013      	beq.n	20000714 <prepare_ep_buffer+0x4c>
200006ec:	2580      	movs	r5, #128	; 0x80
200006ee:	01ad      	lsls	r5, r5, #6
200006f0:	4315      	orrs	r5, r2
200006f2:	2201      	movs	r2, #1
200006f4:	4053      	eors	r3, r2
200006f6:	70e3      	strb	r3, [r4, #3]
200006f8:	7863      	ldrb	r3, [r4, #1]
200006fa:	2b00      	cmp	r3, #0
200006fc:	d00c      	beq.n	20000718 <prepare_ep_buffer+0x50>
200006fe:	8aa3      	ldrh	r3, [r4, #20]
20000700:	2b00      	cmp	r3, #0
20000702:	d102      	bne.n	2000070a <prepare_ep_buffer+0x42>
20000704:	2380      	movs	r3, #128	; 0x80
20000706:	01db      	lsls	r3, r3, #7
20000708:	431d      	orrs	r5, r3
2000070a:	2f00      	cmp	r7, #0
2000070c:	d000      	beq.n	20000710 <prepare_ep_buffer+0x48>
2000070e:	042d      	lsls	r5, r5, #16
20000710:	0028      	movs	r0, r5
20000712:	bdf8      	pop	{r3, r4, r5, r6, r7, pc}
20000714:	2500      	movs	r5, #0
20000716:	e7eb      	b.n	200006f0 <prepare_ep_buffer+0x28>
20000718:	68e0      	ldr	r0, [r4, #12]
2000071a:	01bb      	lsls	r3, r7, #6
2000071c:	18c0      	adds	r0, r0, r3
2000071e:	6921      	ldr	r1, [r4, #16]
20000720:	0032      	movs	r2, r6
20000722:	f000 f9f1 	bl	20000b08 <____wrap_memcpy_veneer>
20000726:	6923      	ldr	r3, [r4, #16]
20000728:	199b      	adds	r3, r3, r6
2000072a:	6123      	str	r3, [r4, #16]
2000072c:	2380      	movs	r3, #128	; 0x80
2000072e:	021b      	lsls	r3, r3, #8
20000730:	431d      	orrs	r5, r3
20000732:	e7e4      	b.n	200006fe <prepare_ep_buffer+0x36>

20000734 <sync_ep_buffer>:
20000734:	b570      	push	{r4, r5, r6, lr}
20000736:	0004      	movs	r4, r0
20000738:	6883      	ldr	r3, [r0, #8]
2000073a:	681b      	ldr	r3, [r3, #0]
2000073c:	2900      	cmp	r1, #0
2000073e:	d000      	beq.n	20000742 <sync_ep_buffer+0xe>
20000740:	0c1b      	lsrs	r3, r3, #16
20000742:	059d      	lsls	r5, r3, #22
20000744:	0dad      	lsrs	r5, r5, #22
20000746:	7862      	ldrb	r2, [r4, #1]
20000748:	2a00      	cmp	r2, #0
2000074a:	d112      	bne.n	20000772 <sync_ep_buffer+0x3e>
2000074c:	041b      	lsls	r3, r3, #16
2000074e:	d409      	bmi.n	20000764 <sync_ep_buffer+0x30>
20000750:	8ae3      	ldrh	r3, [r4, #22]
20000752:	195b      	adds	r3, r3, r5
20000754:	82e3      	strh	r3, [r4, #22]
20000756:	8b23      	ldrh	r3, [r4, #24]
20000758:	42ab      	cmp	r3, r5
2000075a:	d901      	bls.n	20000760 <sync_ep_buffer+0x2c>
2000075c:	2300      	movs	r3, #0
2000075e:	82a3      	strh	r3, [r4, #20]
20000760:	0028      	movs	r0, r5
20000762:	bd70      	pop	{r4, r5, r6, pc}
20000764:	4b0e      	ldr	r3, [pc, #56]	; (200007a0 <sync_ep_buffer+0x6c>)
20000766:	4a0f      	ldr	r2, [pc, #60]	; (200007a4 <sync_ep_buffer+0x70>)
20000768:	2181      	movs	r1, #129	; 0x81
2000076a:	480f      	ldr	r0, [pc, #60]	; (200007a8 <sync_ep_buffer+0x74>)
2000076c:	0049      	lsls	r1, r1, #1
2000076e:	f000 fa0b 	bl	20000b88 <____assert_func_veneer>
20000772:	041b      	lsls	r3, r3, #16
20000774:	d50d      	bpl.n	20000792 <sync_ep_buffer+0x5e>
20000776:	6920      	ldr	r0, [r4, #16]
20000778:	68e2      	ldr	r2, [r4, #12]
2000077a:	0189      	lsls	r1, r1, #6
2000077c:	1851      	adds	r1, r2, r1
2000077e:	002a      	movs	r2, r5
20000780:	f000 f9c2 	bl	20000b08 <____wrap_memcpy_veneer>
20000784:	8ae3      	ldrh	r3, [r4, #22]
20000786:	195b      	adds	r3, r3, r5
20000788:	82e3      	strh	r3, [r4, #22]
2000078a:	6923      	ldr	r3, [r4, #16]
2000078c:	195b      	adds	r3, r3, r5
2000078e:	6123      	str	r3, [r4, #16]
20000790:	e7e1      	b.n	20000756 <sync_ep_buffer+0x22>
20000792:	4b06      	ldr	r3, [pc, #24]	; (200007ac <sync_ep_buffer+0x78>)
20000794:	4a03      	ldr	r2, [pc, #12]	; (200007a4 <sync_ep_buffer+0x70>)
20000796:	210a      	movs	r1, #10
20000798:	4803      	ldr	r0, [pc, #12]	; (200007a8 <sync_ep_buffer+0x74>)
2000079a:	31ff      	adds	r1, #255	; 0xff
2000079c:	f000 f9f4 	bl	20000b88 <____assert_func_veneer>
200007a0:	1000c20c 	.word	0x1000c20c
200007a4:	1000c2f4 	.word	0x1000c2f4
200007a8:	1000c22c 	.word	0x1000c22c
200007ac:	1000c280 	.word	0x1000c280

200007b0 <_hw_endpoint_xfer_sync>:
200007b0:	b510      	push	{r4, lr}
200007b2:	0004      	movs	r4, r0
200007b4:	6883      	ldr	r3, [r0, #8]
200007b6:	681b      	ldr	r3, [r3, #0]
200007b8:	2100      	movs	r1, #0
200007ba:	f7ff ffbb 	bl	20000734 <sync_ep_buffer>
200007be:	6863      	ldr	r3, [r4, #4]
200007c0:	681b      	ldr	r3, [r3, #0]
200007c2:	005b      	lsls	r3, r3, #1
200007c4:	d502      	bpl.n	200007cc <_hw_endpoint_xfer_sync+0x1c>
200007c6:	8b23      	ldrh	r3, [r4, #24]
200007c8:	4283      	cmp	r3, r0
200007ca:	d000      	beq.n	200007ce <_hw_endpoint_xfer_sync+0x1e>
200007cc:	bd10      	pop	{r4, pc}
200007ce:	2101      	movs	r1, #1
200007d0:	0020      	movs	r0, r4
200007d2:	f7ff ffaf 	bl	20000734 <sync_ep_buffer>
200007d6:	e7f9      	b.n	200007cc <_hw_endpoint_xfer_sync+0x1c>

200007d8 <hw_endpoint_reset_transfer>:
200007d8:	2300      	movs	r3, #0
200007da:	7683      	strb	r3, [r0, #26]
200007dc:	8283      	strh	r3, [r0, #20]
200007de:	82c3      	strh	r3, [r0, #22]
200007e0:	6103      	str	r3, [r0, #16]
200007e2:	4770      	bx	lr

200007e4 <_hw_endpoint_buffer_control_update32>:
200007e4:	b510      	push	{r4, lr}
200007e6:	2900      	cmp	r1, #0
200007e8:	d002      	beq.n	200007f0 <_hw_endpoint_buffer_control_update32+0xc>
200007ea:	6883      	ldr	r3, [r0, #8]
200007ec:	681b      	ldr	r3, [r3, #0]
200007ee:	4019      	ands	r1, r3
200007f0:	2a00      	cmp	r2, #0
200007f2:	d00f      	beq.n	20000814 <_hw_endpoint_buffer_control_update32+0x30>
200007f4:	4311      	orrs	r1, r2
200007f6:	0552      	lsls	r2, r2, #21
200007f8:	d50c      	bpl.n	20000814 <_hw_endpoint_buffer_control_update32+0x30>
200007fa:	6882      	ldr	r2, [r0, #8]
200007fc:	6813      	ldr	r3, [r2, #0]
200007fe:	055b      	lsls	r3, r3, #21
20000800:	d40b      	bmi.n	2000081a <_hw_endpoint_buffer_control_update32+0x36>
20000802:	4b0b      	ldr	r3, [pc, #44]	; (20000830 <_hw_endpoint_buffer_control_update32+0x4c>)
20000804:	400b      	ands	r3, r1
20000806:	6013      	str	r3, [r2, #0]
20000808:	e7ff      	b.n	2000080a <_hw_endpoint_buffer_control_update32+0x26>
2000080a:	e7ff      	b.n	2000080c <_hw_endpoint_buffer_control_update32+0x28>
2000080c:	e7ff      	b.n	2000080e <_hw_endpoint_buffer_control_update32+0x2a>
2000080e:	e7ff      	b.n	20000810 <_hw_endpoint_buffer_control_update32+0x2c>
20000810:	e7ff      	b.n	20000812 <_hw_endpoint_buffer_control_update32+0x2e>
20000812:	e7ff      	b.n	20000814 <_hw_endpoint_buffer_control_update32+0x30>
20000814:	6883      	ldr	r3, [r0, #8]
20000816:	6019      	str	r1, [r3, #0]
20000818:	bd10      	pop	{r4, pc}
2000081a:	7883      	ldrb	r3, [r0, #2]
2000081c:	217f      	movs	r1, #127	; 0x7f
2000081e:	4019      	ands	r1, r3
20000820:	09db      	lsrs	r3, r3, #7
20000822:	4a04      	ldr	r2, [pc, #16]	; (20000834 <_hw_endpoint_buffer_control_update32+0x50>)
20000824:	009b      	lsls	r3, r3, #2
20000826:	4804      	ldr	r0, [pc, #16]	; (20000838 <_hw_endpoint_buffer_control_update32+0x54>)
20000828:	589a      	ldr	r2, [r3, r2]
2000082a:	f000 f985 	bl	20000b38 <__panic_veneer>
2000082e:	46c0      	nop			; (mov r8, r8)
20000830:	fffffbff 	.word	0xfffffbff
20000834:	20000c48 	.word	0x20000c48
20000838:	1000c2a0 	.word	0x1000c2a0

2000083c <hw_endpoint_start_next_buffer>:
2000083c:	b570      	push	{r4, r5, r6, lr}
2000083e:	0004      	movs	r4, r0
20000840:	6843      	ldr	r3, [r0, #4]
20000842:	681e      	ldr	r6, [r3, #0]
20000844:	2100      	movs	r1, #0
20000846:	f7ff ff3f 	bl	200006c8 <prepare_ep_buffer>
2000084a:	2580      	movs	r5, #128	; 0x80
2000084c:	016d      	lsls	r5, r5, #5
2000084e:	4305      	orrs	r5, r0
20000850:	4b19      	ldr	r3, [pc, #100]	; (200008b8 <hw_endpoint_start_next_buffer+0x7c>)
20000852:	6c1b      	ldr	r3, [r3, #64]	; 0x40
20000854:	2202      	movs	r2, #2
20000856:	0011      	movs	r1, r2
20000858:	4019      	ands	r1, r3
2000085a:	421a      	tst	r2, r3
2000085c:	d102      	bne.n	20000864 <hw_endpoint_start_next_buffer+0x28>
2000085e:	78a3      	ldrb	r3, [r4, #2]
20000860:	09db      	lsrs	r3, r3, #7
20000862:	d006      	beq.n	20000872 <hw_endpoint_start_next_buffer+0x36>
20000864:	2900      	cmp	r1, #0
20000866:	d006      	beq.n	20000876 <hw_endpoint_start_next_buffer+0x3a>
20000868:	78a3      	ldrb	r3, [r4, #2]
2000086a:	065b      	lsls	r3, r3, #25
2000086c:	d116      	bne.n	2000089c <hw_endpoint_start_next_buffer+0x60>
2000086e:	2300      	movs	r3, #0
20000870:	e002      	b.n	20000878 <hw_endpoint_start_next_buffer+0x3c>
20000872:	2301      	movs	r3, #1
20000874:	e000      	b.n	20000878 <hw_endpoint_start_next_buffer+0x3c>
20000876:	2300      	movs	r3, #0
20000878:	8aa2      	ldrh	r2, [r4, #20]
2000087a:	2a00      	cmp	r2, #0
2000087c:	d001      	beq.n	20000882 <hw_endpoint_start_next_buffer+0x46>
2000087e:	2b00      	cmp	r3, #0
20000880:	d00e      	beq.n	200008a0 <hw_endpoint_start_next_buffer+0x64>
20000882:	4b0e      	ldr	r3, [pc, #56]	; (200008bc <hw_endpoint_start_next_buffer+0x80>)
20000884:	401e      	ands	r6, r3
20000886:	2380      	movs	r3, #128	; 0x80
20000888:	059b      	lsls	r3, r3, #22
2000088a:	4333      	orrs	r3, r6
2000088c:	6862      	ldr	r2, [r4, #4]
2000088e:	6013      	str	r3, [r2, #0]
20000890:	002a      	movs	r2, r5
20000892:	2100      	movs	r1, #0
20000894:	0020      	movs	r0, r4
20000896:	f7ff ffa5 	bl	200007e4 <_hw_endpoint_buffer_control_update32>
2000089a:	bd70      	pop	{r4, r5, r6, pc}
2000089c:	2301      	movs	r3, #1
2000089e:	e7eb      	b.n	20000878 <hw_endpoint_start_next_buffer+0x3c>
200008a0:	2101      	movs	r1, #1
200008a2:	0020      	movs	r0, r4
200008a4:	f7ff ff10 	bl	200006c8 <prepare_ep_buffer>
200008a8:	4305      	orrs	r5, r0
200008aa:	4a05      	ldr	r2, [pc, #20]	; (200008c0 <hw_endpoint_start_next_buffer+0x84>)
200008ac:	4032      	ands	r2, r6
200008ae:	23a0      	movs	r3, #160	; 0xa0
200008b0:	05db      	lsls	r3, r3, #23
200008b2:	4313      	orrs	r3, r2
200008b4:	e7ea      	b.n	2000088c <hw_endpoint_start_next_buffer+0x50>
200008b6:	46c0      	nop			; (mov r8, r8)
200008b8:	50110000 	.word	0x50110000
200008bc:	afffffff 	.word	0xafffffff
200008c0:	dfffffff 	.word	0xdfffffff

200008c4 <hw_endpoint_xfer_continue>:
200008c4:	b570      	push	{r4, r5, r6, lr}
200008c6:	0004      	movs	r4, r0
200008c8:	7e85      	ldrb	r5, [r0, #26]
200008ca:	2d00      	cmp	r5, #0
200008cc:	d006      	beq.n	200008dc <hw_endpoint_xfer_continue+0x18>
200008ce:	f7ff ff6f 	bl	200007b0 <_hw_endpoint_xfer_sync>
200008d2:	8aa3      	ldrh	r3, [r4, #20]
200008d4:	2b00      	cmp	r3, #0
200008d6:	d10b      	bne.n	200008f0 <hw_endpoint_xfer_continue+0x2c>
200008d8:	0028      	movs	r0, r5
200008da:	bd70      	pop	{r4, r5, r6, pc}
200008dc:	7883      	ldrb	r3, [r0, #2]
200008de:	217f      	movs	r1, #127	; 0x7f
200008e0:	4019      	ands	r1, r3
200008e2:	09db      	lsrs	r3, r3, #7
200008e4:	4a09      	ldr	r2, [pc, #36]	; (2000090c <hw_endpoint_xfer_continue+0x48>)
200008e6:	009b      	lsls	r3, r3, #2
200008e8:	4809      	ldr	r0, [pc, #36]	; (20000910 <hw_endpoint_xfer_continue+0x4c>)
200008ea:	589a      	ldr	r2, [r3, r2]
200008ec:	f000 f924 	bl	20000b38 <__panic_veneer>
200008f0:	0020      	movs	r0, r4
200008f2:	f7ff fed1 	bl	20000698 <e15_is_critical_frame_period>
200008f6:	1e05      	subs	r5, r0, #0
200008f8:	d003      	beq.n	20000902 <hw_endpoint_xfer_continue+0x3e>
200008fa:	2301      	movs	r3, #1
200008fc:	7723      	strb	r3, [r4, #28]
200008fe:	2500      	movs	r5, #0
20000900:	e7ea      	b.n	200008d8 <hw_endpoint_xfer_continue+0x14>
20000902:	0020      	movs	r0, r4
20000904:	f7ff ff9a 	bl	2000083c <hw_endpoint_start_next_buffer>
20000908:	e7e6      	b.n	200008d8 <hw_endpoint_xfer_continue+0x14>
2000090a:	46c0      	nop			; (mov r8, r8)
2000090c:	20000c48 	.word	0x20000c48
20000910:	1000c2c0 	.word	0x1000c2c0

20000914 <dcd_event_handler>:
20000914:	b530      	push	{r4, r5, lr}
20000916:	b085      	sub	sp, #20
20000918:	0005      	movs	r5, r0
2000091a:	7843      	ldrb	r3, [r0, #1]
2000091c:	2b04      	cmp	r3, #4
2000091e:	d055      	beq.n	200009cc <dcd_event_handler+0xb8>
20000920:	d806      	bhi.n	20000930 <dcd_event_handler+0x1c>
20000922:	2b02      	cmp	r3, #2
20000924:	d029      	beq.n	2000097a <dcd_event_handler+0x66>
20000926:	2b03      	cmp	r3, #3
20000928:	d000      	beq.n	2000092c <dcd_event_handler+0x18>
2000092a:	e0c3      	b.n	20000ab4 <dcd_event_handler+0x1a0>
2000092c:	2400      	movs	r4, #0
2000092e:	e07d      	b.n	20000a2c <dcd_event_handler+0x118>
20000930:	2b05      	cmp	r3, #5
20000932:	d000      	beq.n	20000936 <dcd_event_handler+0x22>
20000934:	e0be      	b.n	20000ab4 <dcd_event_handler+0x1a0>
20000936:	4b6c      	ldr	r3, [pc, #432]	; (20000ae8 <dcd_event_handler+0x1d4>)
20000938:	781b      	ldrb	r3, [r3, #0]
2000093a:	07db      	lsls	r3, r3, #31
2000093c:	d544      	bpl.n	200009c8 <dcd_event_handler+0xb4>
2000093e:	4a6a      	ldr	r2, [pc, #424]	; (20000ae8 <dcd_event_handler+0x1d4>)
20000940:	7813      	ldrb	r3, [r2, #0]
20000942:	2104      	movs	r1, #4
20000944:	438b      	bics	r3, r1
20000946:	7013      	strb	r3, [r2, #0]
20000948:	4b68      	ldr	r3, [pc, #416]	; (20000aec <dcd_event_handler+0x1d8>)
2000094a:	681c      	ldr	r4, [r3, #0]
2000094c:	6962      	ldr	r2, [r4, #20]
2000094e:	f3ef 8110 	mrs	r1, PRIMASK
20000952:	b672      	cpsid	i
20000954:	6813      	ldr	r3, [r2, #0]
20000956:	2b00      	cmp	r3, #0
20000958:	d0fc      	beq.n	20000954 <dcd_event_handler+0x40>
2000095a:	f3bf 8f5f 	dmb	sy
2000095e:	61a1      	str	r1, [r4, #24]
20000960:	0029      	movs	r1, r5
20000962:	0020      	movs	r0, r4
20000964:	f000 f900 	bl	20000b68 <__tu_fifo_write_veneer>
20000968:	6962      	ldr	r2, [r4, #20]
2000096a:	69a3      	ldr	r3, [r4, #24]
2000096c:	f3bf 8f5f 	dmb	sy
20000970:	2100      	movs	r1, #0
20000972:	6011      	str	r1, [r2, #0]
20000974:	f383 8810 	msr	PRIMASK, r3
20000978:	e026      	b.n	200009c8 <dcd_event_handler+0xb4>
2000097a:	4b5b      	ldr	r3, [pc, #364]	; (20000ae8 <dcd_event_handler+0x1d4>)
2000097c:	781a      	ldrb	r2, [r3, #0]
2000097e:	2101      	movs	r1, #1
20000980:	438a      	bics	r2, r1
20000982:	701a      	strb	r2, [r3, #0]
20000984:	781a      	ldrb	r2, [r3, #0]
20000986:	3101      	adds	r1, #1
20000988:	438a      	bics	r2, r1
2000098a:	701a      	strb	r2, [r3, #0]
2000098c:	2200      	movs	r2, #0
2000098e:	705a      	strb	r2, [r3, #1]
20000990:	781a      	ldrb	r2, [r3, #0]
20000992:	3102      	adds	r1, #2
20000994:	438a      	bics	r2, r1
20000996:	701a      	strb	r2, [r3, #0]
20000998:	4b54      	ldr	r3, [pc, #336]	; (20000aec <dcd_event_handler+0x1d8>)
2000099a:	681c      	ldr	r4, [r3, #0]
2000099c:	6962      	ldr	r2, [r4, #20]
2000099e:	f3ef 8110 	mrs	r1, PRIMASK
200009a2:	b672      	cpsid	i
200009a4:	6813      	ldr	r3, [r2, #0]
200009a6:	2b00      	cmp	r3, #0
200009a8:	d0fc      	beq.n	200009a4 <dcd_event_handler+0x90>
200009aa:	f3bf 8f5f 	dmb	sy
200009ae:	61a1      	str	r1, [r4, #24]
200009b0:	0029      	movs	r1, r5
200009b2:	0020      	movs	r0, r4
200009b4:	f000 f8d8 	bl	20000b68 <__tu_fifo_write_veneer>
200009b8:	6962      	ldr	r2, [r4, #20]
200009ba:	69a3      	ldr	r3, [r4, #24]
200009bc:	f3bf 8f5f 	dmb	sy
200009c0:	2100      	movs	r1, #0
200009c2:	6011      	str	r1, [r2, #0]
200009c4:	f383 8810 	msr	PRIMASK, r3
200009c8:	b005      	add	sp, #20
200009ca:	bd30      	pop	{r4, r5, pc}
200009cc:	4b46      	ldr	r3, [pc, #280]	; (20000ae8 <dcd_event_handler+0x1d4>)
200009ce:	781b      	ldrb	r3, [r3, #0]
200009d0:	07db      	lsls	r3, r3, #31
200009d2:	d5f9      	bpl.n	200009c8 <dcd_event_handler+0xb4>
200009d4:	4a44      	ldr	r2, [pc, #272]	; (20000ae8 <dcd_event_handler+0x1d4>)
200009d6:	7813      	ldrb	r3, [r2, #0]
200009d8:	2104      	movs	r1, #4
200009da:	430b      	orrs	r3, r1
200009dc:	7013      	strb	r3, [r2, #0]
200009de:	4b43      	ldr	r3, [pc, #268]	; (20000aec <dcd_event_handler+0x1d8>)
200009e0:	681c      	ldr	r4, [r3, #0]
200009e2:	6962      	ldr	r2, [r4, #20]
200009e4:	f3ef 8110 	mrs	r1, PRIMASK
200009e8:	b672      	cpsid	i
200009ea:	6813      	ldr	r3, [r2, #0]
200009ec:	2b00      	cmp	r3, #0
200009ee:	d0fc      	beq.n	200009ea <dcd_event_handler+0xd6>
200009f0:	f3bf 8f5f 	dmb	sy
200009f4:	61a1      	str	r1, [r4, #24]
200009f6:	0029      	movs	r1, r5
200009f8:	0020      	movs	r0, r4
200009fa:	f000 f8b5 	bl	20000b68 <__tu_fifo_write_veneer>
200009fe:	6962      	ldr	r2, [r4, #20]
20000a00:	69a3      	ldr	r3, [r4, #24]
20000a02:	f3bf 8f5f 	dmb	sy
20000a06:	2100      	movs	r1, #0
20000a08:	6011      	str	r1, [r2, #0]
20000a0a:	f383 8810 	msr	PRIMASK, r3
20000a0e:	e7db      	b.n	200009c8 <dcd_event_handler+0xb4>
20000a10:	0062      	lsls	r2, r4, #1
20000a12:	1912      	adds	r2, r2, r4
20000a14:	00d2      	lsls	r2, r2, #3
20000a16:	4b36      	ldr	r3, [pc, #216]	; (20000af0 <dcd_event_handler+0x1dc>)
20000a18:	681b      	ldr	r3, [r3, #0]
20000a1a:	189b      	adds	r3, r3, r2
20000a1c:	e018      	b.n	20000a50 <dcd_event_handler+0x13c>
20000a1e:	0023      	movs	r3, r4
20000a20:	e00f      	b.n	20000a42 <dcd_event_handler+0x12e>
20000a22:	7828      	ldrb	r0, [r5, #0]
20000a24:	6869      	ldr	r1, [r5, #4]
20000a26:	4798      	blx	r3
20000a28:	3401      	adds	r4, #1
20000a2a:	b2e4      	uxtb	r4, r4
20000a2c:	4b31      	ldr	r3, [pc, #196]	; (20000af4 <dcd_event_handler+0x1e0>)
20000a2e:	781b      	ldrb	r3, [r3, #0]
20000a30:	42a3      	cmp	r3, r4
20000a32:	d313      	bcc.n	20000a5c <dcd_event_handler+0x148>
20000a34:	4a30      	ldr	r2, [pc, #192]	; (20000af8 <dcd_event_handler+0x1e4>)
20000a36:	2a00      	cmp	r2, #0
20000a38:	d0f1      	beq.n	20000a1e <dcd_event_handler+0x10a>
20000a3a:	42a3      	cmp	r3, r4
20000a3c:	d8e8      	bhi.n	20000a10 <dcd_event_handler+0xfc>
20000a3e:	1ae3      	subs	r3, r4, r3
20000a40:	b2db      	uxtb	r3, r3
20000a42:	2b00      	cmp	r3, #0
20000a44:	d1f0      	bne.n	20000a28 <dcd_event_handler+0x114>
20000a46:	4a2d      	ldr	r2, [pc, #180]	; (20000afc <dcd_event_handler+0x1e8>)
20000a48:	0059      	lsls	r1, r3, #1
20000a4a:	18c9      	adds	r1, r1, r3
20000a4c:	00c9      	lsls	r1, r1, #3
20000a4e:	1853      	adds	r3, r2, r1
20000a50:	2b00      	cmp	r3, #0
20000a52:	d0e9      	beq.n	20000a28 <dcd_event_handler+0x114>
20000a54:	695b      	ldr	r3, [r3, #20]
20000a56:	2b00      	cmp	r3, #0
20000a58:	d1e3      	bne.n	20000a22 <dcd_event_handler+0x10e>
20000a5a:	e7e5      	b.n	20000a28 <dcd_event_handler+0x114>
20000a5c:	4b22      	ldr	r3, [pc, #136]	; (20000ae8 <dcd_event_handler+0x1d4>)
20000a5e:	781b      	ldrb	r3, [r3, #0]
20000a60:	075b      	lsls	r3, r3, #29
20000a62:	d5b1      	bpl.n	200009c8 <dcd_event_handler+0xb4>
20000a64:	4a20      	ldr	r2, [pc, #128]	; (20000ae8 <dcd_event_handler+0x1d4>)
20000a66:	7813      	ldrb	r3, [r2, #0]
20000a68:	2104      	movs	r1, #4
20000a6a:	438b      	bics	r3, r1
20000a6c:	7013      	strb	r3, [r2, #0]
20000a6e:	220c      	movs	r2, #12
20000a70:	2100      	movs	r1, #0
20000a72:	a801      	add	r0, sp, #4
20000a74:	f000 f850 	bl	20000b18 <____wrap_memset_veneer>
20000a78:	782b      	ldrb	r3, [r5, #0]
20000a7a:	466a      	mov	r2, sp
20000a7c:	7113      	strb	r3, [r2, #4]
20000a7e:	2305      	movs	r3, #5
20000a80:	7153      	strb	r3, [r2, #5]
20000a82:	4b1a      	ldr	r3, [pc, #104]	; (20000aec <dcd_event_handler+0x1d8>)
20000a84:	681c      	ldr	r4, [r3, #0]
20000a86:	6962      	ldr	r2, [r4, #20]
20000a88:	f3ef 8110 	mrs	r1, PRIMASK
20000a8c:	b672      	cpsid	i
20000a8e:	6813      	ldr	r3, [r2, #0]
20000a90:	2b00      	cmp	r3, #0
20000a92:	d0fc      	beq.n	20000a8e <dcd_event_handler+0x17a>
20000a94:	f3bf 8f5f 	dmb	sy
20000a98:	61a1      	str	r1, [r4, #24]
20000a9a:	a901      	add	r1, sp, #4
20000a9c:	0020      	movs	r0, r4
20000a9e:	f000 f863 	bl	20000b68 <__tu_fifo_write_veneer>
20000aa2:	6962      	ldr	r2, [r4, #20]
20000aa4:	69a3      	ldr	r3, [r4, #24]
20000aa6:	f3bf 8f5f 	dmb	sy
20000aaa:	2100      	movs	r1, #0
20000aac:	6011      	str	r1, [r2, #0]
20000aae:	f383 8810 	msr	PRIMASK, r3
20000ab2:	e789      	b.n	200009c8 <dcd_event_handler+0xb4>
20000ab4:	4b0d      	ldr	r3, [pc, #52]	; (20000aec <dcd_event_handler+0x1d8>)
20000ab6:	681c      	ldr	r4, [r3, #0]
20000ab8:	6962      	ldr	r2, [r4, #20]
20000aba:	f3ef 8110 	mrs	r1, PRIMASK
20000abe:	b672      	cpsid	i
20000ac0:	6813      	ldr	r3, [r2, #0]
20000ac2:	2b00      	cmp	r3, #0
20000ac4:	d0fc      	beq.n	20000ac0 <dcd_event_handler+0x1ac>
20000ac6:	f3bf 8f5f 	dmb	sy
20000aca:	61a1      	str	r1, [r4, #24]
20000acc:	0029      	movs	r1, r5
20000ace:	0020      	movs	r0, r4
20000ad0:	f000 f84a 	bl	20000b68 <__tu_fifo_write_veneer>
20000ad4:	6962      	ldr	r2, [r4, #20]
20000ad6:	69a3      	ldr	r3, [r4, #24]
20000ad8:	f3bf 8f5f 	dmb	sy
20000adc:	2100      	movs	r1, #0
20000ade:	6011      	str	r1, [r2, #0]
20000ae0:	f383 8810 	msr	PRIMASK, r3
20000ae4:	e770      	b.n	200009c8 <dcd_event_handler+0xb4>
20000ae6:	46c0      	nop			; (mov r8, r8)
20000ae8:	200015f4 	.word	0x200015f4
20000aec:	2000164c 	.word	0x2000164c
20000af0:	200012cc 	.word	0x200012cc
20000af4:	20001f59 	.word	0x20001f59
20000af8:	10007f2d 	.word	0x10007f2d
20000afc:	1000c390 	.word	0x1000c390

20000b00 <__aeabi_idiv0>:
20000b00:	4770      	bx	lr
20000b02:	46c0      	nop			; (mov r8, r8)
20000b04:	0000      	movs	r0, r0
	...

20000b08 <____wrap_memcpy_veneer>:
20000b08:	b401      	push	{r0}
20000b0a:	4802      	ldr	r0, [pc, #8]	; (20000b14 <____wrap_memcpy_veneer+0xc>)
20000b0c:	4684      	mov	ip, r0
20000b0e:	bc01      	pop	{r0}
20000b10:	4760      	bx	ip
20000b12:	bf00      	nop
20000b14:	10007ba1 	.word	0x10007ba1

20000b18 <____wrap_memset_veneer>:
20000b18:	b401      	push	{r0}
20000b1a:	4802      	ldr	r0, [pc, #8]	; (20000b24 <____wrap_memset_veneer+0xc>)
20000b1c:	4684      	mov	ip, r0
20000b1e:	bc01      	pop	{r0}
20000b20:	4760      	bx	ip
20000b22:	bf00      	nop
20000b24:	10007b95 	.word	0x10007b95

20000b28 <__hw_endpoint_get_by_addr_veneer>:
20000b28:	b401      	push	{r0}
20000b2a:	4802      	ldr	r0, [pc, #8]	; (20000b34 <__hw_endpoint_get_by_addr_veneer+0xc>)
20000b2c:	4684      	mov	ip, r0
20000b2e:	bc01      	pop	{r0}
20000b30:	4760      	bx	ip
20000b32:	bf00      	nop
20000b34:	10008515 	.word	0x10008515

20000b38 <__panic_veneer>:
20000b38:	b401      	push	{r0}
20000b3a:	4802      	ldr	r0, [pc, #8]	; (20000b44 <__panic_veneer+0xc>)
20000b3c:	4684      	mov	ip, r0
20000b3e:	bc01      	pop	{r0}
20000b40:	4760      	bx	ip
20000b42:	bf00      	nop
20000b44:	10005a9d 	.word	0x10005a9d

20000b48 <__best_effort_wfe_or_timeout_veneer>:
20000b48:	b401      	push	{r0}
20000b4a:	4802      	ldr	r0, [pc, #8]	; (20000b54 <__best_effort_wfe_or_timeout_veneer+0xc>)
20000b4c:	4684      	mov	ip, r0
20000b4e:	bc01      	pop	{r0}
20000b50:	4760      	bx	ip
20000b52:	bf00      	nop
20000b54:	10004c81 	.word	0x10004c81

20000b58 <__time_us_64_veneer>:
20000b58:	b401      	push	{r0}
20000b5a:	4802      	ldr	r0, [pc, #8]	; (20000b64 <__time_us_64_veneer+0xc>)
20000b5c:	4684      	mov	ip, r0
20000b5e:	bc01      	pop	{r0}
20000b60:	4760      	bx	ip
20000b62:	bf00      	nop
20000b64:	10004dd1 	.word	0x10004dd1

20000b68 <__tu_fifo_write_veneer>:
20000b68:	b401      	push	{r0}
20000b6a:	4802      	ldr	r0, [pc, #8]	; (20000b74 <__tu_fifo_write_veneer+0xc>)
20000b6c:	4684      	mov	ip, r0
20000b6e:	bc01      	pop	{r0}
20000b70:	4760      	bx	ip
20000b72:	bf00      	nop
20000b74:	1000a37f 	.word	0x1000a37f

20000b78 <____wrap___aeabi_lmul_veneer>:
20000b78:	b401      	push	{r0}
20000b7a:	4802      	ldr	r0, [pc, #8]	; (20000b84 <____wrap___aeabi_lmul_veneer+0xc>)
20000b7c:	4684      	mov	ip, r0
20000b7e:	bc01      	pop	{r0}
20000b80:	4760      	bx	ip
20000b82:	bf00      	nop
20000b84:	10007969 	.word	0x10007969

20000b88 <____assert_func_veneer>:
20000b88:	b401      	push	{r0}
20000b8a:	4802      	ldr	r0, [pc, #8]	; (20000b94 <____assert_func_veneer+0xc>)
20000b8c:	4684      	mov	ip, r0
20000b8e:	bc01      	pop	{r0}
20000b90:	4760      	bx	ip
20000b92:	bf00      	nop
20000b94:	10005969 	.word	0x10005969

20000b98 <b_DAC_Ready>:
20000b98:	                                         .

20000b99 <striped_spin_lock_num>:
20000b99:	                                         ...

20000b9c <irq_handler_chain_slots>:
20000b9c:	00000000 	.word	0x00000000
20000ba0:	00010000 	.word	0x00010000
	...
20000bac:	00020000 	.word	0x00020000
	...
20000bb8:	00030000 	.word	0x00030000
	...
20000bc4:	00ff0000 	.word	0x00ff0000
20000bc8:	00000000 	.word	0x00000000

20000bcc <irq_handler_chain_first_slot>:
20000bcc:	b501      	push	{r0, lr}
20000bce:	6848      	ldr	r0, [r1, #4]
20000bd0:	3101      	adds	r1, #1
20000bd2:	468e      	mov	lr, r1
20000bd4:	4700      	bx	r0

20000bd6 <irq_handler_chain_remove_tail>:
20000bd6:	4670      	mov	r0, lr
20000bd8:	3809      	subs	r0, #9
20000bda:	4901      	ldr	r1, [pc, #4]	; (20000be0 <irq_handler_chain_remove_tail+0xa>)
20000bdc:	4788      	blx	r1
20000bde:	bd01      	pop	{r0, pc}
20000be0:	10003f65 	.word	0x10003f65

20000be4 <default_alarm_pool>:
20000be4:	20000bfc 00000000 20001100 20001854     ... ....... T.. 
	...

20000bfc <default_alarm_pool_heap>:
20000bfc:	20001864 00000000 00000000 00000010     d.. ............
20000c0c:	00000000                                ....

20000c10 <aeabi_bits_funcs>:
20000c10:	00003350 	.word	0x00003350
20000c14:	0000334c 	.word	0x0000334c
20000c18:	00003354 	.word	0x00003354
20000c1c:	00003352 	.word	0x00003352

20000c20 <aeabi_bits_funcs_end>:
20000c20:	0000534d 	.word	0x0000534d
20000c24:	0000434d 	.word	0x0000434d
20000c28:	00003453 	.word	0x00003453
20000c2c:	00003443 	.word	0x00003443

20000c30 <stdio_usb>:
20000c30:	100082d1 00000000 1000820d 10007f61     ............a...
20000c40:	00000000 00000100                       ........

20000c48 <ep_dir_string>:
20000c48:	1000c2ec 1000c2f0                       ........

20000c50 <_usbd_qdef>:
20000c50:	20001650 000c0010 00000000 00000000     P.. ............
	...

20000c6c <_usbd_rhport>:
20000c6c:	000000ff                                ....

20000c70 <i2c0_inst>:
20000c70:	40044000 00000000                       .@.@....

20000c78 <print_mutex>:
	...

20000c80 <__mutex_array_end>:
20000c80:	10007b85 	.word	0x10007b85
20000c84:	10006c39 	.word	0x10006c39
20000c88:	10007339 	.word	0x10007339
20000c8c:	10007a55 	.word	0x10007a55

20000c90 <__frame_dummy_init_array_entry>:
20000c90:	100002e5 10008461                       ....a...
